   1               		.file	"keymap.c"
   2               	__SP_H__ = 0x3e
   3               	__SP_L__ = 0x3d
   4               	__SREG__ = 0x3f
   5               	__tmp_reg__ = 0
   6               	__zero_reg__ = 1
   7               		.text
   8               	.Ltext0:
   9               		.cfi_sections	.debug_frame
  10               		.section	.text.dance_press_t,"ax",@progbits
  11               	.global	dance_press_t
  13               	dance_press_t:
  14               	.LFB125:
  15               		.file 1 "keyboards/ergodox/ez/keymaps/pydemia/keymap.c"
   1:keyboards/ergodox/ez/keymaps/pydemia/keymap.c **** #include "ergodox.h"
   2:keyboards/ergodox/ez/keymaps/pydemia/keymap.c **** #include "debug.h"
   3:keyboards/ergodox/ez/keymaps/pydemia/keymap.c **** #include "action_layer.h"
   4:keyboards/ergodox/ez/keymaps/pydemia/keymap.c **** #include "version.h"
   5:keyboards/ergodox/ez/keymaps/pydemia/keymap.c **** #include "process_tap_dance.h"
   6:keyboards/ergodox/ez/keymaps/pydemia/keymap.c **** 
   7:keyboards/ergodox/ez/keymaps/pydemia/keymap.c **** #define WKEY 0 // default layer
   8:keyboards/ergodox/ez/keymaps/pydemia/keymap.c **** #define NPAD 1 // Numpad Layer
   9:keyboards/ergodox/ez/keymaps/pydemia/keymap.c **** #define MAGI 2 // Magic Layer
  10:keyboards/ergodox/ez/keymaps/pydemia/keymap.c **** #define ACTN 3 // Action Layer
  11:keyboards/ergodox/ez/keymaps/pydemia/keymap.c **** #define LKEY 4 // Linux Layer
  12:keyboards/ergodox/ez/keymaps/pydemia/keymap.c **** #define PPTK 5 // Linux Layer
  13:keyboards/ergodox/ez/keymaps/pydemia/keymap.c **** 
  14:keyboards/ergodox/ez/keymaps/pydemia/keymap.c **** // Layer Change
  15:keyboards/ergodox/ez/keymaps/pydemia/keymap.c **** const uint16_t PROGMEM fn_actions[] = {
  16:keyboards/ergodox/ez/keymaps/pydemia/keymap.c ****     [1] = ACTION_LAYER_TAP_TOGGLE(NPAD),  // FN1 - Momentary Layer 1 (Numpad Layer)~
  17:keyboards/ergodox/ez/keymaps/pydemia/keymap.c ****     [2] = ACTION_LAYER_TAP_TOGGLE(MAGI),  // FN2 - Momentary Layer 2 (Magic Layer)~
  18:keyboards/ergodox/ez/keymaps/pydemia/keymap.c ****     [3] = ACTION_LAYER_TAP_TOGGLE(ACTN),  // FN3 - Momentary Layer 3 (Action Layer)~
  19:keyboards/ergodox/ez/keymaps/pydemia/keymap.c ****     [4] = ACTION_LAYER_TAP_TOGGLE(LKEY),  // FN4 - Momentary Layer 4 (PPT Layer)~
  20:keyboards/ergodox/ez/keymaps/pydemia/keymap.c **** 
  21:keyboards/ergodox/ez/keymaps/pydemia/keymap.c **** };
  22:keyboards/ergodox/ez/keymaps/pydemia/keymap.c **** 
  23:keyboards/ergodox/ez/keymaps/pydemia/keymap.c **** 
  24:keyboards/ergodox/ez/keymaps/pydemia/keymap.c **** 
  25:keyboards/ergodox/ez/keymaps/pydemia/keymap.c **** 
  26:keyboards/ergodox/ez/keymaps/pydemia/keymap.c **** // Python Code Format
  27:keyboards/ergodox/ez/keymaps/pydemia/keymap.c **** #define SIGNITURE "# -*- coding: utf-8 -*- \n"\
  28:keyboards/ergodox/ez/keymaps/pydemia/keymap.c **** "'''\n"\
  29:keyboards/ergodox/ez/keymaps/pydemia/keymap.c **** "\n"\
  30:keyboards/ergodox/ez/keymaps/pydemia/keymap.c **** "Created on \n"\
  31:keyboards/ergodox/ez/keymaps/pydemia/keymap.c **** "\n"\
  32:keyboards/ergodox/ez/keymaps/pydemia/keymap.c **** "@author: Young Ju Kim\n"\
  33:keyboards/ergodox/ez/keymaps/pydemia/keymap.c **** "'''\n"
  34:keyboards/ergodox/ez/keymaps/pydemia/keymap.c **** 
  35:keyboards/ergodox/ez/keymaps/pydemia/keymap.c **** // Query Strings
  36:keyboards/ergodox/ez/keymaps/pydemia/keymap.c **** #define SQL_NORMAL_STR "SELECT\r\n"\
  37:keyboards/ergodox/ez/keymaps/pydemia/keymap.c **** "     A.col\r\n"\
  38:keyboards/ergodox/ez/keymaps/pydemia/keymap.c **** "    ,A.*\r\n"\
  39:keyboards/ergodox/ez/keymaps/pydemia/keymap.c **** "FROM\r\n"\
  40:keyboards/ergodox/ez/keymaps/pydemia/keymap.c **** "    a.aa A\r\n"\
  41:keyboards/ergodox/ez/keymaps/pydemia/keymap.c **** "WHERE\r\n"\
  42:keyboards/ergodox/ez/keymaps/pydemia/keymap.c **** "    A.col = NULL\r\n"\
  43:keyboards/ergodox/ez/keymaps/pydemia/keymap.c **** "AND A.col <> 1\r\n"\
  44:keyboards/ergodox/ez/keymaps/pydemia/keymap.c **** "AND A.col BETWEEN '01' AND '02'\r\n"
  45:keyboards/ergodox/ez/keymaps/pydemia/keymap.c **** 
  46:keyboards/ergodox/ez/keymaps/pydemia/keymap.c **** 
  47:keyboards/ergodox/ez/keymaps/pydemia/keymap.c **** #define SQL_LEFT_STR "SELECT\r\n"\
  48:keyboards/ergodox/ez/keymaps/pydemia/keymap.c **** "     A.*\r\n"\
  49:keyboards/ergodox/ez/keymaps/pydemia/keymap.c **** "    ,B.*\r\n"\
  50:keyboards/ergodox/ez/keymaps/pydemia/keymap.c **** "FROM\r\n"\
  51:keyboards/ergodox/ez/keymaps/pydemia/keymap.c **** "    a.aa A\r\n"\
  52:keyboards/ergodox/ez/keymaps/pydemia/keymap.c **** "    LEFT OUTER JOIN b.bb B\r\n"\
  53:keyboards/ergodox/ez/keymaps/pydemia/keymap.c **** "    ON\r\n"\
  54:keyboards/ergodox/ez/keymaps/pydemia/keymap.c **** "        B.col = A.col --NULL\r\n"\
  55:keyboards/ergodox/ez/keymaps/pydemia/keymap.c **** "    AND B.col = A.col --NULL\r\n"\
  56:keyboards/ergodox/ez/keymaps/pydemia/keymap.c **** "WHERE\r\n"\
  57:keyboards/ergodox/ez/keymaps/pydemia/keymap.c **** "    B.col = NULL\r\n"\
  58:keyboards/ergodox/ez/keymaps/pydemia/keymap.c **** "AND A.col <> 1\r\n"\
  59:keyboards/ergodox/ez/keymaps/pydemia/keymap.c **** "AND A.col BETWEEN '01' AND '02'\r\n"
  60:keyboards/ergodox/ez/keymaps/pydemia/keymap.c **** 
  61:keyboards/ergodox/ez/keymaps/pydemia/keymap.c **** 
  62:keyboards/ergodox/ez/keymaps/pydemia/keymap.c **** #define SQL_LEFT_SUB_STR "SELECT\r\n"\
  63:keyboards/ergodox/ez/keymaps/pydemia/keymap.c **** "     A.*\r\n"\
  64:keyboards/ergodox/ez/keymaps/pydemia/keymap.c **** "    ,B.*\r\n"\
  65:keyboards/ergodox/ez/keymaps/pydemia/keymap.c **** "FROM\r\n"\
  66:keyboards/ergodox/ez/keymaps/pydemia/keymap.c **** "    a.aa A\r\n"\
  67:keyboards/ergodox/ez/keymaps/pydemia/keymap.c **** "    LEFT OUTER JOIN\r\n"\
  68:keyboards/ergodox/ez/keymaps/pydemia/keymap.c **** "        (\r\n"\
  69:keyboards/ergodox/ez/keymaps/pydemia/keymap.c **** "        SELECT\r\n"\
  70:keyboards/ergodox/ez/keymaps/pydemia/keymap.c **** "             C.col\r\n"\
  71:keyboards/ergodox/ez/keymaps/pydemia/keymap.c **** "        FROM\r\n"\
  72:keyboards/ergodox/ez/keymaps/pydemia/keymap.c **** "            c.cc C\r\n"\
  73:keyboards/ergodox/ez/keymaps/pydemia/keymap.c **** "        WHERE\r\n"\
  74:keyboards/ergodox/ez/keymaps/pydemia/keymap.c **** "            C.col = NULL\r\n"\
  75:keyboards/ergodox/ez/keymaps/pydemia/keymap.c **** "        ) B\r\n"\
  76:keyboards/ergodox/ez/keymaps/pydemia/keymap.c **** "    ON\r\n"\
  77:keyboards/ergodox/ez/keymaps/pydemia/keymap.c **** "        B.col = A.col --NULL\r\n"\
  78:keyboards/ergodox/ez/keymaps/pydemia/keymap.c **** "    AND B.col = A.col --NULL\r\n"\
  79:keyboards/ergodox/ez/keymaps/pydemia/keymap.c **** "WHERE\r\n"\
  80:keyboards/ergodox/ez/keymaps/pydemia/keymap.c **** "    B.col = NULL\r\n"\
  81:keyboards/ergodox/ez/keymaps/pydemia/keymap.c **** "AND A.col <> 1\r\n"\
  82:keyboards/ergodox/ez/keymaps/pydemia/keymap.c **** "AND A.col BETWEEN '01' AND '02'\r\n"
  83:keyboards/ergodox/ez/keymaps/pydemia/keymap.c **** 
  84:keyboards/ergodox/ez/keymaps/pydemia/keymap.c **** // pip String
  85:keyboards/ergodox/ez/keymaps/pydemia/keymap.c **** #define PIP_STR "pip install --cert=c:/sslproxy.crt "
  86:keyboards/ergodox/ez/keymaps/pydemia/keymap.c **** 
  87:keyboards/ergodox/ez/keymaps/pydemia/keymap.c **** 
  88:keyboards/ergodox/ez/keymaps/pydemia/keymap.c **** #define DATETIME_STR __DATE__ " " __TIME__ 
  89:keyboards/ergodox/ez/keymaps/pydemia/keymap.c **** 
  90:keyboards/ergodox/ez/keymaps/pydemia/keymap.c **** 
  91:keyboards/ergodox/ez/keymaps/pydemia/keymap.c **** // Macro Key
  92:keyboards/ergodox/ez/keymaps/pydemia/keymap.c **** 
  93:keyboards/ergodox/ez/keymaps/pydemia/keymap.c **** // MACRO START ---------------------------------------------------------------------
  94:keyboards/ergodox/ez/keymaps/pydemia/keymap.c **** 
  95:keyboards/ergodox/ez/keymaps/pydemia/keymap.c **** 
  96:keyboards/ergodox/ez/keymaps/pydemia/keymap.c **** #define QMK_VER_KEY     M(0)
  97:keyboards/ergodox/ez/keymaps/pydemia/keymap.c **** #define SIGN_KEY        M(1)
  98:keyboards/ergodox/ez/keymaps/pydemia/keymap.c **** #define ASSIGN_R_KEY    M(2)
  99:keyboards/ergodox/ez/keymaps/pydemia/keymap.c **** #define PY_DTFM_KEY     M(3)
 100:keyboards/ergodox/ez/keymaps/pydemia/keymap.c **** #define SPYD_CELL_KEY   M(4)
 101:keyboards/ergodox/ez/keymaps/pydemia/keymap.c **** #define R_FOLDING_KEY   M(5)
 102:keyboards/ergodox/ez/keymaps/pydemia/keymap.c **** #define SQL_NORMAL_KEY  M(6)
 103:keyboards/ergodox/ez/keymaps/pydemia/keymap.c **** #define SQL_LEFT_KEY    M(7)
 104:keyboards/ergodox/ez/keymaps/pydemia/keymap.c **** #define SQL_LEFTSUB_KEY M(8)
 105:keyboards/ergodox/ez/keymaps/pydemia/keymap.c **** #define PIP_STR_KEY     M(9)
 106:keyboards/ergodox/ez/keymaps/pydemia/keymap.c **** #define DT_STR_KEY      M(10)
 107:keyboards/ergodox/ez/keymaps/pydemia/keymap.c **** #define TM_STR_KEY      M(11)
 108:keyboards/ergodox/ez/keymaps/pydemia/keymap.c **** #define DTTM_STR_KEY    M(12)
 109:keyboards/ergodox/ez/keymaps/pydemia/keymap.c **** #define D_QUOTE_KEY     M(13)
 110:keyboards/ergodox/ez/keymaps/pydemia/keymap.c **** #define BRC_KEY         M(14)
 111:keyboards/ergodox/ez/keymaps/pydemia/keymap.c **** #define CBR_KEY         M(15)
 112:keyboards/ergodox/ez/keymaps/pydemia/keymap.c **** #define PRN_KEY         M(16)
 113:keyboards/ergodox/ez/keymaps/pydemia/keymap.c **** #define HOME_SFT_KEY    M(17)
 114:keyboards/ergodox/ez/keymaps/pydemia/keymap.c **** #define END_SFT_KEY     M(18)
 115:keyboards/ergodox/ez/keymaps/pydemia/keymap.c **** 
 116:keyboards/ergodox/ez/keymaps/pydemia/keymap.c **** const macro_t *action_get_macro(keyrecord_t *record, uint8_t id, uint8_t opt )
 117:keyboards/ergodox/ez/keymaps/pydemia/keymap.c **** {
 118:keyboards/ergodox/ez/keymaps/pydemia/keymap.c ****   // MACRODOWN only works in this function
 119:keyboards/ergodox/ez/keymaps/pydemia/keymap.c ****       switch(id) {
 120:keyboards/ergodox/ez/keymaps/pydemia/keymap.c ****         case 0:
 121:keyboards/ergodox/ez/keymaps/pydemia/keymap.c ****         if (record->event.pressed) {
 122:keyboards/ergodox/ez/keymaps/pydemia/keymap.c ****           SEND_STRING (QMK_KEYBOARD "/" QMK_KEYMAP " @ " QMK_VERSION);
 123:keyboards/ergodox/ez/keymaps/pydemia/keymap.c ****         }
 124:keyboards/ergodox/ez/keymaps/pydemia/keymap.c ****         break;
 125:keyboards/ergodox/ez/keymaps/pydemia/keymap.c ****         case 1:
 126:keyboards/ergodox/ez/keymaps/pydemia/keymap.c ****         if (record->event.pressed) { // For resetting EEPROM
 127:keyboards/ergodox/ez/keymaps/pydemia/keymap.c ****           SEND_STRING ( SIGNITURE );
 128:keyboards/ergodox/ez/keymaps/pydemia/keymap.c ****         }
 129:keyboards/ergodox/ez/keymaps/pydemia/keymap.c ****         break;
 130:keyboards/ergodox/ez/keymaps/pydemia/keymap.c ****         case 2:
 131:keyboards/ergodox/ez/keymaps/pydemia/keymap.c ****         if (record->event.pressed) { // <-
 132:keyboards/ergodox/ez/keymaps/pydemia/keymap.c ****           //SEND_STRING ( "<-" );
 133:keyboards/ergodox/ez/keymaps/pydemia/keymap.c ****           return MACRO(D(LSFT), T(COMMA), U(LSFT), T(MINUS), END);
 134:keyboards/ergodox/ez/keymaps/pydemia/keymap.c ****         }
 135:keyboards/ergodox/ez/keymaps/pydemia/keymap.c ****         break;
 136:keyboards/ergodox/ez/keymaps/pydemia/keymap.c ****         case 3:
 137:keyboards/ergodox/ez/keymaps/pydemia/keymap.c ****         if (record->event.pressed) { // '%Y%m%d%H%M%S%f'
 138:keyboards/ergodox/ez/keymaps/pydemia/keymap.c ****           SEND_STRING ( "'%Y%m%d%H%M%S%f'" );
 139:keyboards/ergodox/ez/keymaps/pydemia/keymap.c ****           //return MACRO(D(LSFT), T(COMMA), U(LSFT), T(MINUS), END);
 140:keyboards/ergodox/ez/keymaps/pydemia/keymap.c ****         }
 141:keyboards/ergodox/ez/keymaps/pydemia/keymap.c ****         break;
 142:keyboards/ergodox/ez/keymaps/pydemia/keymap.c ****         case 4:
 143:keyboards/ergodox/ez/keymaps/pydemia/keymap.c ****         if (record->event.pressed) { // # %% (For Python Spyder)
 144:keyboards/ergodox/ez/keymaps/pydemia/keymap.c ****           //SEND_STRING ( "# %%" );
 145:keyboards/ergodox/ez/keymaps/pydemia/keymap.c ****           return MACRO(D(LSFT), T(3), T(SPC), T(5), T(5), U(LSFT), END);
 146:keyboards/ergodox/ez/keymaps/pydemia/keymap.c ****         }
 147:keyboards/ergodox/ez/keymaps/pydemia/keymap.c ****         break;
 148:keyboards/ergodox/ez/keymaps/pydemia/keymap.c ****         case 5:
 149:keyboards/ergodox/ez/keymaps/pydemia/keymap.c ****         if (record->event.pressed) { // # %% (For Python Spyder)
 150:keyboards/ergodox/ez/keymaps/pydemia/keymap.c ****           //SEND_STRING ( "# %%" );
 151:keyboards/ergodox/ez/keymaps/pydemia/keymap.c ****           return MACRO( D(LSFT), T(3), U(LSFT), T(SPC), T(SPC), T(MINUS), T(MINUS), T(MINUS), T(MIN
 152:keyboards/ergodox/ez/keymaps/pydemia/keymap.c ****                         T(LEFT), T(LEFT), T(LEFT), T(LEFT), T(LEFT), T(LEFT), END);
 153:keyboards/ergodox/ez/keymaps/pydemia/keymap.c ****         }
 154:keyboards/ergodox/ez/keymaps/pydemia/keymap.c ****         break;
 155:keyboards/ergodox/ez/keymaps/pydemia/keymap.c ****         case 6:
 156:keyboards/ergodox/ez/keymaps/pydemia/keymap.c ****         if (record->event.pressed) { // For resetting EEPROM
 157:keyboards/ergodox/ez/keymaps/pydemia/keymap.c ****           SEND_STRING ( SQL_NORMAL_STR );
 158:keyboards/ergodox/ez/keymaps/pydemia/keymap.c ****         }
 159:keyboards/ergodox/ez/keymaps/pydemia/keymap.c ****         break;
 160:keyboards/ergodox/ez/keymaps/pydemia/keymap.c ****         case 7:
 161:keyboards/ergodox/ez/keymaps/pydemia/keymap.c ****         if (record->event.pressed) { // For resetting EEPROM
 162:keyboards/ergodox/ez/keymaps/pydemia/keymap.c ****           SEND_STRING ( SQL_LEFT_STR );
 163:keyboards/ergodox/ez/keymaps/pydemia/keymap.c ****         }
 164:keyboards/ergodox/ez/keymaps/pydemia/keymap.c ****         break;
 165:keyboards/ergodox/ez/keymaps/pydemia/keymap.c ****         case 8:
 166:keyboards/ergodox/ez/keymaps/pydemia/keymap.c ****         if (record->event.pressed) { // For resetting EEPROM
 167:keyboards/ergodox/ez/keymaps/pydemia/keymap.c ****           SEND_STRING ( SQL_LEFT_SUB_STR );
 168:keyboards/ergodox/ez/keymaps/pydemia/keymap.c ****         }
 169:keyboards/ergodox/ez/keymaps/pydemia/keymap.c ****         break;
 170:keyboards/ergodox/ez/keymaps/pydemia/keymap.c ****         case 9:
 171:keyboards/ergodox/ez/keymaps/pydemia/keymap.c ****         if (record->event.pressed) { // For resetting EEPROM
 172:keyboards/ergodox/ez/keymaps/pydemia/keymap.c ****           SEND_STRING ( PIP_STR );
 173:keyboards/ergodox/ez/keymaps/pydemia/keymap.c ****         }
 174:keyboards/ergodox/ez/keymaps/pydemia/keymap.c ****         break;
 175:keyboards/ergodox/ez/keymaps/pydemia/keymap.c ****         case 10:
 176:keyboards/ergodox/ez/keymaps/pydemia/keymap.c ****         if (record->event.pressed) { // For resetting EEPROM
 177:keyboards/ergodox/ez/keymaps/pydemia/keymap.c ****           SEND_STRING ( __DATE__ );
 178:keyboards/ergodox/ez/keymaps/pydemia/keymap.c ****         }
 179:keyboards/ergodox/ez/keymaps/pydemia/keymap.c ****         break;
 180:keyboards/ergodox/ez/keymaps/pydemia/keymap.c ****         case 11:
 181:keyboards/ergodox/ez/keymaps/pydemia/keymap.c ****         if (record->event.pressed) { // For resetting EEPROM
 182:keyboards/ergodox/ez/keymaps/pydemia/keymap.c ****           SEND_STRING ( __TIME__ );
 183:keyboards/ergodox/ez/keymaps/pydemia/keymap.c ****         }
 184:keyboards/ergodox/ez/keymaps/pydemia/keymap.c ****         break;
 185:keyboards/ergodox/ez/keymaps/pydemia/keymap.c ****         case 12:
 186:keyboards/ergodox/ez/keymaps/pydemia/keymap.c ****         if (record->event.pressed) { // For resetting EEPROM
 187:keyboards/ergodox/ez/keymaps/pydemia/keymap.c ****           SEND_STRING ( DATETIME_STR );
 188:keyboards/ergodox/ez/keymaps/pydemia/keymap.c ****         }
 189:keyboards/ergodox/ez/keymaps/pydemia/keymap.c ****         break;
 190:keyboards/ergodox/ez/keymaps/pydemia/keymap.c ****         case 13:
 191:keyboards/ergodox/ez/keymaps/pydemia/keymap.c ****         if (record->event.pressed) { // For resetting EEPROM
 192:keyboards/ergodox/ez/keymaps/pydemia/keymap.c ****           //SEND_STRING ( " );
 193:keyboards/ergodox/ez/keymaps/pydemia/keymap.c ****           return MACRO(D(LSFT), T(QUOT), U(LSFT), END);
 194:keyboards/ergodox/ez/keymaps/pydemia/keymap.c ****         }
 195:keyboards/ergodox/ez/keymaps/pydemia/keymap.c ****         break;
 196:keyboards/ergodox/ez/keymaps/pydemia/keymap.c ****         case 14:
 197:keyboards/ergodox/ez/keymaps/pydemia/keymap.c ****         if (record->event.pressed) { // For resetting EEPROM
 198:keyboards/ergodox/ez/keymaps/pydemia/keymap.c ****           return MACRO( T(LBRC), T(RBRC), T(LEFT), END );
 199:keyboards/ergodox/ez/keymaps/pydemia/keymap.c ****         }
 200:keyboards/ergodox/ez/keymaps/pydemia/keymap.c ****         break;
 201:keyboards/ergodox/ez/keymaps/pydemia/keymap.c ****         case 15:
 202:keyboards/ergodox/ez/keymaps/pydemia/keymap.c ****         if (record->event.pressed) { // For resetting EEPROM
 203:keyboards/ergodox/ez/keymaps/pydemia/keymap.c ****           return MACRO( D(LSFT), T(LBRC), T(RBRC), U(LSFT), T(LEFT), END );
 204:keyboards/ergodox/ez/keymaps/pydemia/keymap.c ****           //return MACRO( T(LCBR), T(RCBR), T(LEFT), END );
 205:keyboards/ergodox/ez/keymaps/pydemia/keymap.c ****         }
 206:keyboards/ergodox/ez/keymaps/pydemia/keymap.c ****         break;
 207:keyboards/ergodox/ez/keymaps/pydemia/keymap.c ****         case 16:
 208:keyboards/ergodox/ez/keymaps/pydemia/keymap.c ****         if (record->event.pressed) { // For resetting EEPROM
 209:keyboards/ergodox/ez/keymaps/pydemia/keymap.c ****           return MACRO( D(LSFT), T(9), T(0), U(LSFT), T(LEFT), END );
 210:keyboards/ergodox/ez/keymaps/pydemia/keymap.c ****         }
 211:keyboards/ergodox/ez/keymaps/pydemia/keymap.c ****         break;
 212:keyboards/ergodox/ez/keymaps/pydemia/keymap.c ****         case 17:
 213:keyboards/ergodox/ez/keymaps/pydemia/keymap.c ****         if (record->event.pressed) { // For resetting EEPROM
 214:keyboards/ergodox/ez/keymaps/pydemia/keymap.c ****           return MACRO( D(LSFT), T(HOME), U(LSFT), END );
 215:keyboards/ergodox/ez/keymaps/pydemia/keymap.c ****         }
 216:keyboards/ergodox/ez/keymaps/pydemia/keymap.c ****         break;
 217:keyboards/ergodox/ez/keymaps/pydemia/keymap.c ****         case 18:
 218:keyboards/ergodox/ez/keymaps/pydemia/keymap.c ****         if (record->event.pressed) { // For resetting EEPROM
 219:keyboards/ergodox/ez/keymaps/pydemia/keymap.c ****           return MACRO( D(LSFT), T(END), U(LSFT), END );
 220:keyboards/ergodox/ez/keymaps/pydemia/keymap.c ****         }
 221:keyboards/ergodox/ez/keymaps/pydemia/keymap.c ****         break;
 222:keyboards/ergodox/ez/keymaps/pydemia/keymap.c **** //        case REQL:
 223:keyboards/ergodox/ez/keymaps/pydemia/keymap.c **** //            return (record->event.pressed ?
 224:keyboards/ergodox/ez/keymaps/pydemia/keymap.c **** //                    MACRO( T(LSFT(KC_COMMA)), T(KC_MINUS), END) : // For resetting EEPROM
 225:keyboards/ergodox/ez/keymaps/pydemia/keymap.c **** //                    MACRO_NONE ) ;
 226:keyboards/ergodox/ez/keymaps/pydemia/keymap.c ****     }
 227:keyboards/ergodox/ez/keymaps/pydemia/keymap.c ****     return MACRO_NONE;
 228:keyboards/ergodox/ez/keymaps/pydemia/keymap.c **** };
 229:keyboards/ergodox/ez/keymaps/pydemia/keymap.c **** 
 230:keyboards/ergodox/ez/keymaps/pydemia/keymap.c **** 
 231:keyboards/ergodox/ez/keymaps/pydemia/keymap.c **** // MACRO END -----------------------------------------------------------------------
 232:keyboards/ergodox/ez/keymaps/pydemia/keymap.c **** 
 233:keyboards/ergodox/ez/keymaps/pydemia/keymap.c **** 
 234:keyboards/ergodox/ez/keymaps/pydemia/keymap.c **** // MACRO START ---------------------------------------------------------------------
 235:keyboards/ergodox/ez/keymaps/pydemia/keymap.c **** /*
 236:keyboards/ergodox/ez/keymaps/pydemia/keymap.c **** #define QMK_VER_KEY     M(M_KEYBOARD_VER)
 237:keyboards/ergodox/ez/keymaps/pydemia/keymap.c **** #define SIGN_KEY        M(M_SIGN)
 238:keyboards/ergodox/ez/keymaps/pydemia/keymap.c **** #define ASSIGN_R_KEY    M(M_R_ASSIGN)
 239:keyboards/ergodox/ez/keymaps/pydemia/keymap.c **** #define PY_DTFM_KEY     M(M_PYTHON_DTFORMAT)
 240:keyboards/ergodox/ez/keymaps/pydemia/keymap.c **** #define SPYD_CELL_KEY   M(M_SPYDER_CELL)
 241:keyboards/ergodox/ez/keymaps/pydemia/keymap.c **** #define R_FOLDING_KEY   M(M_R_FOLDING)
 242:keyboards/ergodox/ez/keymaps/pydemia/keymap.c **** #define SQL_NORMAL_KEY  M(M_SQL_NM)
 243:keyboards/ergodox/ez/keymaps/pydemia/keymap.c **** #define SQL_LEFT_KEY    M(M_SQL_LEFTJOIN)
 244:keyboards/ergodox/ez/keymaps/pydemia/keymap.c **** #define SQL_LEFTSUB_KEY M(M_SQL_LEFTSUBJOIN)
 245:keyboards/ergodox/ez/keymaps/pydemia/keymap.c **** #define PIP_STR_KEY     M(M_PIP)
 246:keyboards/ergodox/ez/keymaps/pydemia/keymap.c **** #define DT_STR_KEY      M(M_DATE)
 247:keyboards/ergodox/ez/keymaps/pydemia/keymap.c **** #define TM_STR_KEY      M(M_TIME)
 248:keyboards/ergodox/ez/keymaps/pydemia/keymap.c **** #define DTTM_STR_KEY    M(M_DATETIME)
 249:keyboards/ergodox/ez/keymaps/pydemia/keymap.c **** #define D_QUOTE_KEY     M(M_DOUBLE_QUOTE)
 250:keyboards/ergodox/ez/keymaps/pydemia/keymap.c **** #define CUT_KEY         M(M_CUT)
 251:keyboards/ergodox/ez/keymaps/pydemia/keymap.c **** #define COPY_KEY        M(M_COPY)
 252:keyboards/ergodox/ez/keymaps/pydemia/keymap.c **** #define PASTE_KEY       M(M_PASTE)
 253:keyboards/ergodox/ez/keymaps/pydemia/keymap.c **** #define BRC_KEY         M(M_BRC)
 254:keyboards/ergodox/ez/keymaps/pydemia/keymap.c **** #define CBR_KEY         M(M_CBR)
 255:keyboards/ergodox/ez/keymaps/pydemia/keymap.c **** #define PRN_KEY         M(M_PRN)
 256:keyboards/ergodox/ez/keymaps/pydemia/keymap.c **** 
 257:keyboards/ergodox/ez/keymaps/pydemia/keymap.c **** 
 258:keyboards/ergodox/ez/keymaps/pydemia/keymap.c **** //Macro Declarations
 259:keyboards/ergodox/ez/keymaps/pydemia/keymap.c **** typedef enum MACRO_NAME {
 260:keyboards/ergodox/ez/keymaps/pydemia/keymap.c ****   M_KEYBOARD_VER = 0,
 261:keyboards/ergodox/ez/keymaps/pydemia/keymap.c ****   M_SIGN,
 262:keyboards/ergodox/ez/keymaps/pydemia/keymap.c ****   M_R_ASSIGN,
 263:keyboards/ergodox/ez/keymaps/pydemia/keymap.c ****   M_PYTHON_DTFORMAT,
 264:keyboards/ergodox/ez/keymaps/pydemia/keymap.c ****   M_SPYDER_CELL,
 265:keyboards/ergodox/ez/keymaps/pydemia/keymap.c ****   M_R_FOLDING,
 266:keyboards/ergodox/ez/keymaps/pydemia/keymap.c ****   M_SQL_NM,
 267:keyboards/ergodox/ez/keymaps/pydemia/keymap.c ****   M_SQL_LEFTJOIN,
 268:keyboards/ergodox/ez/keymaps/pydemia/keymap.c ****   M_SQL_LEFTSUBJOIN,
 269:keyboards/ergodox/ez/keymaps/pydemia/keymap.c ****   M_PIP,
 270:keyboards/ergodox/ez/keymaps/pydemia/keymap.c ****   M_DATE,
 271:keyboards/ergodox/ez/keymaps/pydemia/keymap.c ****   M_TIME,
 272:keyboards/ergodox/ez/keymaps/pydemia/keymap.c ****   M_DATETIME,
 273:keyboards/ergodox/ez/keymaps/pydemia/keymap.c ****   M_DOUBLE_QUOTE,
 274:keyboards/ergodox/ez/keymaps/pydemia/keymap.c ****   M_CUT,
 275:keyboards/ergodox/ez/keymaps/pydemia/keymap.c ****   M_COPY,
 276:keyboards/ergodox/ez/keymaps/pydemia/keymap.c ****   M_PASTE,
 277:keyboards/ergodox/ez/keymaps/pydemia/keymap.c ****   M_BRC,
 278:keyboards/ergodox/ez/keymaps/pydemia/keymap.c ****   M_CBR,
 279:keyboards/ergodox/ez/keymaps/pydemia/keymap.c ****   M_PRN
 280:keyboards/ergodox/ez/keymaps/pydemia/keymap.c **** } macro_name;
 281:keyboards/ergodox/ez/keymaps/pydemia/keymap.c **** 
 282:keyboards/ergodox/ez/keymaps/pydemia/keymap.c **** 
 283:keyboards/ergodox/ez/keymaps/pydemia/keymap.c **** const macro_t *action_get_macro(keyrecord_t *record, uint8_t id, uint8_t opt )
 284:keyboards/ergodox/ez/keymaps/pydemia/keymap.c **** {
 285:keyboards/ergodox/ez/keymaps/pydemia/keymap.c ****   // MACRODOWN only works in this function
 286:keyboards/ergodox/ez/keymaps/pydemia/keymap.c ****       macro_name mcr;
 287:keyboards/ergodox/ez/keymaps/pydemia/keymap.c ****       switch(mcr) {
 288:keyboards/ergodox/ez/keymaps/pydemia/keymap.c ****         case M_KEYBOARD_VER:
 289:keyboards/ergodox/ez/keymaps/pydemia/keymap.c ****         if (record->event.pressed) {
 290:keyboards/ergodox/ez/keymaps/pydemia/keymap.c ****           SEND_STRING (QMK_KEYBOARD "/" QMK_KEYMAP " @ " QMK_VERSION);
 291:keyboards/ergodox/ez/keymaps/pydemia/keymap.c ****         }
 292:keyboards/ergodox/ez/keymaps/pydemia/keymap.c ****         break;
 293:keyboards/ergodox/ez/keymaps/pydemia/keymap.c ****         case M_SIGN:
 294:keyboards/ergodox/ez/keymaps/pydemia/keymap.c ****         if (record->event.pressed) { // For resetting EEPROM
 295:keyboards/ergodox/ez/keymaps/pydemia/keymap.c ****           SEND_STRING ( SIGNITURE );
 296:keyboards/ergodox/ez/keymaps/pydemia/keymap.c ****         }
 297:keyboards/ergodox/ez/keymaps/pydemia/keymap.c ****         break;
 298:keyboards/ergodox/ez/keymaps/pydemia/keymap.c ****         case M_R_ASSIGN:
 299:keyboards/ergodox/ez/keymaps/pydemia/keymap.c ****         if (record->event.pressed) { // <-
 300:keyboards/ergodox/ez/keymaps/pydemia/keymap.c ****           //SEND_STRING ( "<-" );
 301:keyboards/ergodox/ez/keymaps/pydemia/keymap.c ****           return MACRO(D(LSFT), T(COMMA), U(LSFT), T(MINUS), END);
 302:keyboards/ergodox/ez/keymaps/pydemia/keymap.c ****         }
 303:keyboards/ergodox/ez/keymaps/pydemia/keymap.c ****         break;
 304:keyboards/ergodox/ez/keymaps/pydemia/keymap.c ****         case M_PYTHON_DTFORMAT:
 305:keyboards/ergodox/ez/keymaps/pydemia/keymap.c ****         if (record->event.pressed) { // '%Y%m%d%H%M%S%f'
 306:keyboards/ergodox/ez/keymaps/pydemia/keymap.c ****           SEND_STRING ( "'%Y%m%d%H%M%S%f'" );
 307:keyboards/ergodox/ez/keymaps/pydemia/keymap.c ****           //return MACRO(D(LSFT), T(COMMA), U(LSFT), T(MINUS), END);
 308:keyboards/ergodox/ez/keymaps/pydemia/keymap.c ****         }
 309:keyboards/ergodox/ez/keymaps/pydemia/keymap.c ****         break;
 310:keyboards/ergodox/ez/keymaps/pydemia/keymap.c ****         case M_SPYDER_CELL:
 311:keyboards/ergodox/ez/keymaps/pydemia/keymap.c ****         if (record->event.pressed) { // # %% (For Python Spyder)
 312:keyboards/ergodox/ez/keymaps/pydemia/keymap.c ****           //SEND_STRING ( "# %%" );
 313:keyboards/ergodox/ez/keymaps/pydemia/keymap.c ****           return MACRO(D(LSFT), T(3), T(SPC), T(5), T(5), U(LSFT), END);
 314:keyboards/ergodox/ez/keymaps/pydemia/keymap.c ****         }
 315:keyboards/ergodox/ez/keymaps/pydemia/keymap.c ****         break;
 316:keyboards/ergodox/ez/keymaps/pydemia/keymap.c ****         case M_R_FOLDING:
 317:keyboards/ergodox/ez/keymaps/pydemia/keymap.c ****         if (record->event.pressed) { // # %% (For Python Spyder)
 318:keyboards/ergodox/ez/keymaps/pydemia/keymap.c ****           //SEND_STRING ( "# %%" );
 319:keyboards/ergodox/ez/keymaps/pydemia/keymap.c ****           return MACRO(D(LSFT), T(3), U(LSFT), T(SPC), T(SPC), T(MINUS), T(MINUS), T(MINUS), T(MINU
 320:keyboards/ergodox/ez/keymaps/pydemia/keymap.c ****         }
 321:keyboards/ergodox/ez/keymaps/pydemia/keymap.c ****         break;
 322:keyboards/ergodox/ez/keymaps/pydemia/keymap.c ****         case M_SQL_NM:
 323:keyboards/ergodox/ez/keymaps/pydemia/keymap.c ****         if (record->event.pressed) { // For resetting EEPROM
 324:keyboards/ergodox/ez/keymaps/pydemia/keymap.c ****           SEND_STRING ( SQL_NORMAL_STR );
 325:keyboards/ergodox/ez/keymaps/pydemia/keymap.c ****         }
 326:keyboards/ergodox/ez/keymaps/pydemia/keymap.c ****         break;
 327:keyboards/ergodox/ez/keymaps/pydemia/keymap.c ****         case M_SQL_LEFTJOIN:
 328:keyboards/ergodox/ez/keymaps/pydemia/keymap.c ****         if (record->event.pressed) { // For resetting EEPROM
 329:keyboards/ergodox/ez/keymaps/pydemia/keymap.c ****           SEND_STRING ( SQL_LEFT_STR );
 330:keyboards/ergodox/ez/keymaps/pydemia/keymap.c ****         }
 331:keyboards/ergodox/ez/keymaps/pydemia/keymap.c ****         break;
 332:keyboards/ergodox/ez/keymaps/pydemia/keymap.c ****         case M_SQL_LEFTSUBJOIN:
 333:keyboards/ergodox/ez/keymaps/pydemia/keymap.c ****         if (record->event.pressed) { // For resetting EEPROM
 334:keyboards/ergodox/ez/keymaps/pydemia/keymap.c ****           SEND_STRING ( SQL_LEFT_SUB_STR );
 335:keyboards/ergodox/ez/keymaps/pydemia/keymap.c ****         }
 336:keyboards/ergodox/ez/keymaps/pydemia/keymap.c ****         break;
 337:keyboards/ergodox/ez/keymaps/pydemia/keymap.c ****         case M_PIP:
 338:keyboards/ergodox/ez/keymaps/pydemia/keymap.c ****         if (record->event.pressed) { // For resetting EEPROM
 339:keyboards/ergodox/ez/keymaps/pydemia/keymap.c ****           SEND_STRING ( PIP_STR );
 340:keyboards/ergodox/ez/keymaps/pydemia/keymap.c ****         }
 341:keyboards/ergodox/ez/keymaps/pydemia/keymap.c ****         break;
 342:keyboards/ergodox/ez/keymaps/pydemia/keymap.c ****         case M_DATE:
 343:keyboards/ergodox/ez/keymaps/pydemia/keymap.c ****         if (record->event.pressed) { // For resetting EEPROM
 344:keyboards/ergodox/ez/keymaps/pydemia/keymap.c ****           SEND_STRING ( __DATE__ );
 345:keyboards/ergodox/ez/keymaps/pydemia/keymap.c ****         }
 346:keyboards/ergodox/ez/keymaps/pydemia/keymap.c ****         break;
 347:keyboards/ergodox/ez/keymaps/pydemia/keymap.c ****         case M_TIME:
 348:keyboards/ergodox/ez/keymaps/pydemia/keymap.c ****         if (record->event.pressed) { // For resetting EEPROM
 349:keyboards/ergodox/ez/keymaps/pydemia/keymap.c ****           SEND_STRING ( __TIME__ );
 350:keyboards/ergodox/ez/keymaps/pydemia/keymap.c ****         }
 351:keyboards/ergodox/ez/keymaps/pydemia/keymap.c ****         break;
 352:keyboards/ergodox/ez/keymaps/pydemia/keymap.c ****         case M_DATETIME:
 353:keyboards/ergodox/ez/keymaps/pydemia/keymap.c ****         if (record->event.pressed) { // For resetting EEPROM
 354:keyboards/ergodox/ez/keymaps/pydemia/keymap.c ****           SEND_STRING ( DATETIME_STR );
 355:keyboards/ergodox/ez/keymaps/pydemia/keymap.c ****         }
 356:keyboards/ergodox/ez/keymaps/pydemia/keymap.c ****         break;
 357:keyboards/ergodox/ez/keymaps/pydemia/keymap.c ****         case M_DOUBLE_QUOTE:
 358:keyboards/ergodox/ez/keymaps/pydemia/keymap.c ****         if (record->event.pressed) { // For resetting EEPROM
 359:keyboards/ergodox/ez/keymaps/pydemia/keymap.c ****           //SEND_STRING ( " );
 360:keyboards/ergodox/ez/keymaps/pydemia/keymap.c ****           return MACRO(D(LSFT), T(QUOT), U(LSFT), END);
 361:keyboards/ergodox/ez/keymaps/pydemia/keymap.c ****         }
 362:keyboards/ergodox/ez/keymaps/pydemia/keymap.c ****         break;
 363:keyboards/ergodox/ez/keymaps/pydemia/keymap.c ****         case M_CUT:
 364:keyboards/ergodox/ez/keymaps/pydemia/keymap.c ****         if (record->event.pressed) { // For resetting EEPROM
 365:keyboards/ergodox/ez/keymaps/pydemia/keymap.c ****           return MACRO(D(RCTL), T(X), U(RCTL), END);
 366:keyboards/ergodox/ez/keymaps/pydemia/keymap.c ****         }
 367:keyboards/ergodox/ez/keymaps/pydemia/keymap.c ****         break;
 368:keyboards/ergodox/ez/keymaps/pydemia/keymap.c ****         case M_COPY:
 369:keyboards/ergodox/ez/keymaps/pydemia/keymap.c ****         if (record->event.pressed) { // For resetting EEPROM
 370:keyboards/ergodox/ez/keymaps/pydemia/keymap.c ****           return MACRO(D(RCTL), T(C), U(RCTL), END);
 371:keyboards/ergodox/ez/keymaps/pydemia/keymap.c ****         }
 372:keyboards/ergodox/ez/keymaps/pydemia/keymap.c ****         break;
 373:keyboards/ergodox/ez/keymaps/pydemia/keymap.c ****         case M_PASTE:
 374:keyboards/ergodox/ez/keymaps/pydemia/keymap.c ****         if (record->event.pressed) { // For resetting EEPROM
 375:keyboards/ergodox/ez/keymaps/pydemia/keymap.c ****           return MACRO(D(RCTL), T(V), U(RCTL), END);
 376:keyboards/ergodox/ez/keymaps/pydemia/keymap.c ****         }
 377:keyboards/ergodox/ez/keymaps/pydemia/keymap.c ****         break;
 378:keyboards/ergodox/ez/keymaps/pydemia/keymap.c ****         case M_BRC:
 379:keyboards/ergodox/ez/keymaps/pydemia/keymap.c ****         if (record->event.pressed) { // For resetting EEPROM
 380:keyboards/ergodox/ez/keymaps/pydemia/keymap.c ****           //SEND_STRING ( "[]" );
 381:keyboards/ergodox/ez/keymaps/pydemia/keymap.c ****           return MACRO( T(LBRC), T(RBRC), END );
 382:keyboards/ergodox/ez/keymaps/pydemia/keymap.c ****         }
 383:keyboards/ergodox/ez/keymaps/pydemia/keymap.c ****         break;
 384:keyboards/ergodox/ez/keymaps/pydemia/keymap.c ****         case M_CBR:
 385:keyboards/ergodox/ez/keymaps/pydemia/keymap.c ****         if (record->event.pressed) { // For resetting EEPROM
 386:keyboards/ergodox/ez/keymaps/pydemia/keymap.c ****           //SEND_STRING ( "{}" );
 387:keyboards/ergodox/ez/keymaps/pydemia/keymap.c ****           return MACRO( D(LSFT), T(LBRC), T(RBRC), U(LSFT), END );
 388:keyboards/ergodox/ez/keymaps/pydemia/keymap.c ****         }
 389:keyboards/ergodox/ez/keymaps/pydemia/keymap.c ****         break;
 390:keyboards/ergodox/ez/keymaps/pydemia/keymap.c ****         case M_PRN:
 391:keyboards/ergodox/ez/keymaps/pydemia/keymap.c ****         if (record->event.pressed) { // For resetting EEPROM
 392:keyboards/ergodox/ez/keymaps/pydemia/keymap.c ****           //SEND_STRING ( "()" );
 393:keyboards/ergodox/ez/keymaps/pydemia/keymap.c ****           return MACRO( D(LSFT), T(9), T(0), U(LSFT), END );
 394:keyboards/ergodox/ez/keymaps/pydemia/keymap.c ****         }
 395:keyboards/ergodox/ez/keymaps/pydemia/keymap.c ****         break;
 396:keyboards/ergodox/ez/keymaps/pydemia/keymap.c **** //        case REQL:
 397:keyboards/ergodox/ez/keymaps/pydemia/keymap.c **** //            return (record->event.pressed ?
 398:keyboards/ergodox/ez/keymaps/pydemia/keymap.c **** //                    MACRO( T(LSFT(KC_COMMA)), T(KC_MINUS), END) : // For resetting EEPROM
 399:keyboards/ergodox/ez/keymaps/pydemia/keymap.c **** //                    MACRO_NONE ) ;
 400:keyboards/ergodox/ez/keymaps/pydemia/keymap.c ****     }
 401:keyboards/ergodox/ez/keymaps/pydemia/keymap.c ****     return MACRO_NONE;
 402:keyboards/ergodox/ez/keymaps/pydemia/keymap.c **** };
 403:keyboards/ergodox/ez/keymaps/pydemia/keymap.c **** */
 404:keyboards/ergodox/ez/keymaps/pydemia/keymap.c **** 
 405:keyboards/ergodox/ez/keymaps/pydemia/keymap.c **** // MACRO END -----------------------------------------------------------------------
 406:keyboards/ergodox/ez/keymaps/pydemia/keymap.c **** 
 407:keyboards/ergodox/ez/keymaps/pydemia/keymap.c **** 
 408:keyboards/ergodox/ez/keymaps/pydemia/keymap.c **** 
 409:keyboards/ergodox/ez/keymaps/pydemia/keymap.c **** 
 410:keyboards/ergodox/ez/keymaps/pydemia/keymap.c **** // Tap Dance Key
 411:keyboards/ergodox/ez/keymaps/pydemia/keymap.c **** #define ASSIGN_TAP     TD(ASSIGN_MARK)
 412:keyboards/ergodox/ez/keymaps/pydemia/keymap.c **** #define F01_TAP        TD(F01)
 413:keyboards/ergodox/ez/keymaps/pydemia/keymap.c **** #define F02_TAP        TD(F02)
 414:keyboards/ergodox/ez/keymaps/pydemia/keymap.c **** #define F03_TAP        TD(F03)
 415:keyboards/ergodox/ez/keymaps/pydemia/keymap.c **** #define F04_TAP        TD(F04)
 416:keyboards/ergodox/ez/keymaps/pydemia/keymap.c **** #define F05_TAP        TD(F05)
 417:keyboards/ergodox/ez/keymaps/pydemia/keymap.c **** #define F06_TAP        TD(F06)
 418:keyboards/ergodox/ez/keymaps/pydemia/keymap.c **** #define F07_TAP        TD(F07)
 419:keyboards/ergodox/ez/keymaps/pydemia/keymap.c **** #define F08_TAP        TD(F08)
 420:keyboards/ergodox/ez/keymaps/pydemia/keymap.c **** #define F09_TAP        TD(F09)
 421:keyboards/ergodox/ez/keymaps/pydemia/keymap.c **** #define F10_TAP        TD(F10)
 422:keyboards/ergodox/ez/keymaps/pydemia/keymap.c **** #define F11_TAP        TD(F11)
 423:keyboards/ergodox/ez/keymaps/pydemia/keymap.c **** #define F12_TAP        TD(F12)
 424:keyboards/ergodox/ez/keymaps/pydemia/keymap.c **** 
 425:keyboards/ergodox/ez/keymaps/pydemia/keymap.c **** #define SFT_CAPS_TAP   TD(SFT_CAPS)
 426:keyboards/ergodox/ez/keymaps/pydemia/keymap.c **** #define CUT_TAP        TD(CUT)
 427:keyboards/ergodox/ez/keymaps/pydemia/keymap.c **** #define COPY_TAP       TD(COPY)
 428:keyboards/ergodox/ez/keymaps/pydemia/keymap.c **** #define PASTE_TAP      TD(PASTE)
 429:keyboards/ergodox/ez/keymaps/pydemia/keymap.c **** 
 430:keyboards/ergodox/ez/keymaps/pydemia/keymap.c **** #define D_QUOTE_TAP    TD(D_QUOTE)
 431:keyboards/ergodox/ez/keymaps/pydemia/keymap.c **** 
 432:keyboards/ergodox/ez/keymaps/pydemia/keymap.c **** #define PGUP_BWEB_TAP  TD(PGUP_BWEB)
 433:keyboards/ergodox/ez/keymaps/pydemia/keymap.c **** #define PGDN_FWEB_TAP  TD(PGDN_FWEB)
 434:keyboards/ergodox/ez/keymaps/pydemia/keymap.c **** 
 435:keyboards/ergodox/ez/keymaps/pydemia/keymap.c **** #define T_DBRC_TAP     TD(T_DBRC)
 436:keyboards/ergodox/ez/keymaps/pydemia/keymap.c **** #define G_DCBR_TAP     TD(G_DCBR)
 437:keyboards/ergodox/ez/keymaps/pydemia/keymap.c **** #define B_DPRN_TAP     TD(B_DPRN)
 438:keyboards/ergodox/ez/keymaps/pydemia/keymap.c **** 
 439:keyboards/ergodox/ez/keymaps/pydemia/keymap.c **** #define J_DBRC_TAP     TD(J_DBRC)
 440:keyboards/ergodox/ez/keymaps/pydemia/keymap.c **** #define K_DCBR_TAP     TD(K_DCBR)
 441:keyboards/ergodox/ez/keymaps/pydemia/keymap.c **** #define L_DPRN_TAP     TD(L_DPRN)
 442:keyboards/ergodox/ez/keymaps/pydemia/keymap.c **** 
 443:keyboards/ergodox/ez/keymaps/pydemia/keymap.c **** 
 444:keyboards/ergodox/ez/keymaps/pydemia/keymap.c **** // Tap Dance Start ------------------------------------------------------------
 445:keyboards/ergodox/ez/keymaps/pydemia/keymap.c **** 
 446:keyboards/ergodox/ez/keymaps/pydemia/keymap.c **** //In Layer declaration, add tap dance item in place of a key code
 447:keyboards/ergodox/ez/keymaps/pydemia/keymap.c **** 
 448:keyboards/ergodox/ez/keymaps/pydemia/keymap.c **** 
 449:keyboards/ergodox/ez/keymaps/pydemia/keymap.c **** 
 450:keyboards/ergodox/ez/keymaps/pydemia/keymap.c **** // CUSTOM KEYMAP START -----------------------------------------------------
 451:keyboards/ergodox/ez/keymaps/pydemia/keymap.c **** 
 452:keyboards/ergodox/ez/keymaps/pydemia/keymap.c **** // T & []
 453:keyboards/ergodox/ez/keymaps/pydemia/keymap.c **** void dance_press_t (qk_tap_dance_state_t *state, void *user_data) {
  16               		.loc 1 453 0
  17               		.cfi_startproc
  18               	.LVL0:
  19               	/* prologue: function */
  20               	/* frame size = 0 */
  21               	/* stack size = 0 */
  22               	.L__stack_usage = 0
 454:keyboards/ergodox/ez/keymaps/pydemia/keymap.c ****   if (state->count == 1) {
  23               		.loc 1 454 0
  24 0000 FC01      		movw r30,r24
  25 0002 8081      		ld r24,Z
  26               	.LVL1:
  27 0004 8130      		cpi r24,lo8(1)
  28 0006 01F4      		brne .L2
 455:keyboards/ergodox/ez/keymaps/pydemia/keymap.c **** 
 456:keyboards/ergodox/ez/keymaps/pydemia/keymap.c ****     register_code(KC_T);
  29               		.loc 1 456 0
  30 0008 87E1      		ldi r24,lo8(23)
  31 000a 0E94 0000 		call register_code
  32               	.LVL2:
 457:keyboards/ergodox/ez/keymaps/pydemia/keymap.c ****     unregister_code(KC_T);
  33               		.loc 1 457 0
  34 000e 87E1      		ldi r24,lo8(23)
  35 0010 0C94 0000 		jmp unregister_code
  36               	.LVL3:
  37               	.L2:
 458:keyboards/ergodox/ez/keymaps/pydemia/keymap.c **** 
 459:keyboards/ergodox/ez/keymaps/pydemia/keymap.c ****   } else {
 460:keyboards/ergodox/ez/keymaps/pydemia/keymap.c ****     clear_keyboard_but_mods();
  38               		.loc 1 460 0
  39 0014 0C94 0000 		jmp clear_keyboard_but_mods
  40               	.LVL4:
  41               		.cfi_endproc
  42               	.LFE125:
  44               		.section	.text.dance_dbrc,"ax",@progbits
  45               	.global	dance_dbrc
  47               	dance_dbrc:
  48               	.LFB126:
 461:keyboards/ergodox/ez/keymaps/pydemia/keymap.c ****   }
 462:keyboards/ergodox/ez/keymaps/pydemia/keymap.c **** }
 463:keyboards/ergodox/ez/keymaps/pydemia/keymap.c **** void dance_dbrc (qk_tap_dance_state_t *state, void *user_data) {
  49               		.loc 1 463 0
  50               		.cfi_startproc
  51               	.LVL5:
  52               	/* prologue: function */
  53               	/* frame size = 0 */
  54               	/* stack size = 0 */
  55               	.L__stack_usage = 0
 464:keyboards/ergodox/ez/keymaps/pydemia/keymap.c ****   if (state->count == 2) {
  56               		.loc 1 464 0
  57 0000 FC01      		movw r30,r24
  58 0002 8081      		ld r24,Z
  59               	.LVL6:
  60 0004 8230      		cpi r24,lo8(2)
  61 0006 01F4      		brne .L5
 465:keyboards/ergodox/ez/keymaps/pydemia/keymap.c **** 
 466:keyboards/ergodox/ez/keymaps/pydemia/keymap.c ****     register_code(KC_LBRC);
  62               		.loc 1 466 0
  63 0008 8FE2      		ldi r24,lo8(47)
  64 000a 0E94 0000 		call register_code
  65               	.LVL7:
 467:keyboards/ergodox/ez/keymaps/pydemia/keymap.c ****     unregister_code(KC_LBRC);
  66               		.loc 1 467 0
  67 000e 8FE2      		ldi r24,lo8(47)
  68 0010 0E94 0000 		call unregister_code
  69               	.LVL8:
 468:keyboards/ergodox/ez/keymaps/pydemia/keymap.c **** 
 469:keyboards/ergodox/ez/keymaps/pydemia/keymap.c ****     register_code(KC_RBRC);
  70               		.loc 1 469 0
  71 0014 80E3      		ldi r24,lo8(48)
  72 0016 0E94 0000 		call register_code
  73               	.LVL9:
 470:keyboards/ergodox/ez/keymaps/pydemia/keymap.c ****     unregister_code(KC_RBRC);
  74               		.loc 1 470 0
  75 001a 80E3      		ldi r24,lo8(48)
  76 001c 0E94 0000 		call unregister_code
  77               	.LVL10:
 471:keyboards/ergodox/ez/keymaps/pydemia/keymap.c **** 
 472:keyboards/ergodox/ez/keymaps/pydemia/keymap.c ****     register_code(KC_LEFT);
  78               		.loc 1 472 0
  79 0020 80E5      		ldi r24,lo8(80)
  80 0022 0E94 0000 		call register_code
  81               	.LVL11:
 473:keyboards/ergodox/ez/keymaps/pydemia/keymap.c ****     unregister_code(KC_LEFT);
  82               		.loc 1 473 0
  83 0026 80E5      		ldi r24,lo8(80)
  84 0028 0C94 0000 		jmp unregister_code
  85               	.LVL12:
  86               	.L5:
 474:keyboards/ergodox/ez/keymaps/pydemia/keymap.c **** 
 475:keyboards/ergodox/ez/keymaps/pydemia/keymap.c ****   } else {
 476:keyboards/ergodox/ez/keymaps/pydemia/keymap.c ****     clear_keyboard_but_mods();
  87               		.loc 1 476 0
  88 002c 0C94 0000 		jmp clear_keyboard_but_mods
  89               	.LVL13:
  90               		.cfi_endproc
  91               	.LFE126:
  93               		.section	.text.dance_press_g,"ax",@progbits
  94               	.global	dance_press_g
  96               	dance_press_g:
  97               	.LFB127:
 477:keyboards/ergodox/ez/keymaps/pydemia/keymap.c ****   }
 478:keyboards/ergodox/ez/keymaps/pydemia/keymap.c **** }
 479:keyboards/ergodox/ez/keymaps/pydemia/keymap.c **** 
 480:keyboards/ergodox/ez/keymaps/pydemia/keymap.c **** // G & {}
 481:keyboards/ergodox/ez/keymaps/pydemia/keymap.c **** void dance_press_g (qk_tap_dance_state_t *state, void *user_data) {
  98               		.loc 1 481 0
  99               		.cfi_startproc
 100               	.LVL14:
 101               	/* prologue: function */
 102               	/* frame size = 0 */
 103               	/* stack size = 0 */
 104               	.L__stack_usage = 0
 482:keyboards/ergodox/ez/keymaps/pydemia/keymap.c ****   if (state->count == 1) {
 105               		.loc 1 482 0
 106 0000 FC01      		movw r30,r24
 107 0002 8081      		ld r24,Z
 108               	.LVL15:
 109 0004 8130      		cpi r24,lo8(1)
 110 0006 01F4      		brne .L7
 483:keyboards/ergodox/ez/keymaps/pydemia/keymap.c **** 
 484:keyboards/ergodox/ez/keymaps/pydemia/keymap.c ****     register_code(KC_G);
 111               		.loc 1 484 0
 112 0008 8AE0      		ldi r24,lo8(10)
 113 000a 0E94 0000 		call register_code
 114               	.LVL16:
 485:keyboards/ergodox/ez/keymaps/pydemia/keymap.c ****     unregister_code(KC_G);
 115               		.loc 1 485 0
 116 000e 8AE0      		ldi r24,lo8(10)
 117 0010 0C94 0000 		jmp unregister_code
 118               	.LVL17:
 119               	.L7:
 486:keyboards/ergodox/ez/keymaps/pydemia/keymap.c **** 
 487:keyboards/ergodox/ez/keymaps/pydemia/keymap.c ****   } else {
 488:keyboards/ergodox/ez/keymaps/pydemia/keymap.c ****     clear_keyboard_but_mods();
 120               		.loc 1 488 0
 121 0014 0C94 0000 		jmp clear_keyboard_but_mods
 122               	.LVL18:
 123               		.cfi_endproc
 124               	.LFE127:
 126               		.section	.text.dance_dcbr,"ax",@progbits
 127               	.global	dance_dcbr
 129               	dance_dcbr:
 130               	.LFB128:
 489:keyboards/ergodox/ez/keymaps/pydemia/keymap.c ****   }
 490:keyboards/ergodox/ez/keymaps/pydemia/keymap.c **** }
 491:keyboards/ergodox/ez/keymaps/pydemia/keymap.c **** void dance_dcbr (qk_tap_dance_state_t *state, void *user_data) {
 131               		.loc 1 491 0
 132               		.cfi_startproc
 133               	.LVL19:
 134               	/* prologue: function */
 135               	/* frame size = 0 */
 136               	/* stack size = 0 */
 137               	.L__stack_usage = 0
 492:keyboards/ergodox/ez/keymaps/pydemia/keymap.c ****   if (state->count == 2) {
 138               		.loc 1 492 0
 139 0000 FC01      		movw r30,r24
 140 0002 8081      		ld r24,Z
 141               	.LVL20:
 142 0004 8230      		cpi r24,lo8(2)
 143 0006 01F4      		brne .L9
 493:keyboards/ergodox/ez/keymaps/pydemia/keymap.c **** 
 494:keyboards/ergodox/ez/keymaps/pydemia/keymap.c ****     register_code(KC_LSFT);
 144               		.loc 1 494 0
 145 0008 81EE      		ldi r24,lo8(-31)
 146 000a 0E94 0000 		call register_code
 147               	.LVL21:
 495:keyboards/ergodox/ez/keymaps/pydemia/keymap.c ****     register_code(KC_LBRC);
 148               		.loc 1 495 0
 149 000e 8FE2      		ldi r24,lo8(47)
 150 0010 0E94 0000 		call register_code
 151               	.LVL22:
 496:keyboards/ergodox/ez/keymaps/pydemia/keymap.c ****     unregister_code(KC_LBRC);
 152               		.loc 1 496 0
 153 0014 8FE2      		ldi r24,lo8(47)
 154 0016 0E94 0000 		call unregister_code
 155               	.LVL23:
 497:keyboards/ergodox/ez/keymaps/pydemia/keymap.c **** 
 498:keyboards/ergodox/ez/keymaps/pydemia/keymap.c ****     register_code(KC_RBRC);
 156               		.loc 1 498 0
 157 001a 80E3      		ldi r24,lo8(48)
 158 001c 0E94 0000 		call register_code
 159               	.LVL24:
 499:keyboards/ergodox/ez/keymaps/pydemia/keymap.c ****     unregister_code(KC_RBRC);
 160               		.loc 1 499 0
 161 0020 80E3      		ldi r24,lo8(48)
 162 0022 0E94 0000 		call unregister_code
 163               	.LVL25:
 500:keyboards/ergodox/ez/keymaps/pydemia/keymap.c ****     unregister_code(KC_LSFT);
 164               		.loc 1 500 0
 165 0026 81EE      		ldi r24,lo8(-31)
 166 0028 0E94 0000 		call unregister_code
 167               	.LVL26:
 501:keyboards/ergodox/ez/keymaps/pydemia/keymap.c **** 
 502:keyboards/ergodox/ez/keymaps/pydemia/keymap.c ****     register_code(KC_LEFT);
 168               		.loc 1 502 0
 169 002c 80E5      		ldi r24,lo8(80)
 170 002e 0E94 0000 		call register_code
 171               	.LVL27:
 503:keyboards/ergodox/ez/keymaps/pydemia/keymap.c ****     unregister_code(KC_LEFT);
 172               		.loc 1 503 0
 173 0032 80E5      		ldi r24,lo8(80)
 174 0034 0C94 0000 		jmp unregister_code
 175               	.LVL28:
 176               	.L9:
 504:keyboards/ergodox/ez/keymaps/pydemia/keymap.c **** 
 505:keyboards/ergodox/ez/keymaps/pydemia/keymap.c ****   } else {
 506:keyboards/ergodox/ez/keymaps/pydemia/keymap.c ****     clear_keyboard_but_mods();
 177               		.loc 1 506 0
 178 0038 0C94 0000 		jmp clear_keyboard_but_mods
 179               	.LVL29:
 180               		.cfi_endproc
 181               	.LFE128:
 183               		.section	.text.dance_press_b,"ax",@progbits
 184               	.global	dance_press_b
 186               	dance_press_b:
 187               	.LFB129:
 507:keyboards/ergodox/ez/keymaps/pydemia/keymap.c ****   }
 508:keyboards/ergodox/ez/keymaps/pydemia/keymap.c **** }
 509:keyboards/ergodox/ez/keymaps/pydemia/keymap.c **** 
 510:keyboards/ergodox/ez/keymaps/pydemia/keymap.c **** // B & ()
 511:keyboards/ergodox/ez/keymaps/pydemia/keymap.c **** void dance_press_b (qk_tap_dance_state_t *state, void *user_data) {
 188               		.loc 1 511 0
 189               		.cfi_startproc
 190               	.LVL30:
 191               	/* prologue: function */
 192               	/* frame size = 0 */
 193               	/* stack size = 0 */
 194               	.L__stack_usage = 0
 512:keyboards/ergodox/ez/keymaps/pydemia/keymap.c ****   if (state->count == 1) {
 195               		.loc 1 512 0
 196 0000 FC01      		movw r30,r24
 197 0002 8081      		ld r24,Z
 198               	.LVL31:
 199 0004 8130      		cpi r24,lo8(1)
 200 0006 01F4      		brne .L11
 513:keyboards/ergodox/ez/keymaps/pydemia/keymap.c **** 
 514:keyboards/ergodox/ez/keymaps/pydemia/keymap.c ****     register_code(KC_B);
 201               		.loc 1 514 0
 202 0008 85E0      		ldi r24,lo8(5)
 203 000a 0E94 0000 		call register_code
 204               	.LVL32:
 515:keyboards/ergodox/ez/keymaps/pydemia/keymap.c ****     unregister_code(KC_B);
 205               		.loc 1 515 0
 206 000e 85E0      		ldi r24,lo8(5)
 207 0010 0C94 0000 		jmp unregister_code
 208               	.LVL33:
 209               	.L11:
 516:keyboards/ergodox/ez/keymaps/pydemia/keymap.c **** 
 517:keyboards/ergodox/ez/keymaps/pydemia/keymap.c ****   } else {
 518:keyboards/ergodox/ez/keymaps/pydemia/keymap.c ****     clear_keyboard_but_mods();
 210               		.loc 1 518 0
 211 0014 0C94 0000 		jmp clear_keyboard_but_mods
 212               	.LVL34:
 213               		.cfi_endproc
 214               	.LFE129:
 216               		.section	.text.dance_dprn,"ax",@progbits
 217               	.global	dance_dprn
 219               	dance_dprn:
 220               	.LFB130:
 519:keyboards/ergodox/ez/keymaps/pydemia/keymap.c ****   }
 520:keyboards/ergodox/ez/keymaps/pydemia/keymap.c **** }
 521:keyboards/ergodox/ez/keymaps/pydemia/keymap.c **** void dance_dprn (qk_tap_dance_state_t *state, void *user_data) {
 221               		.loc 1 521 0
 222               		.cfi_startproc
 223               	.LVL35:
 224               	/* prologue: function */
 225               	/* frame size = 0 */
 226               	/* stack size = 0 */
 227               	.L__stack_usage = 0
 522:keyboards/ergodox/ez/keymaps/pydemia/keymap.c ****   if (state->count == 2) {
 228               		.loc 1 522 0
 229 0000 FC01      		movw r30,r24
 230 0002 8081      		ld r24,Z
 231               	.LVL36:
 232 0004 8230      		cpi r24,lo8(2)
 233 0006 01F4      		brne .L13
 523:keyboards/ergodox/ez/keymaps/pydemia/keymap.c **** 
 524:keyboards/ergodox/ez/keymaps/pydemia/keymap.c ****     register_code(KC_LSFT);
 234               		.loc 1 524 0
 235 0008 81EE      		ldi r24,lo8(-31)
 236 000a 0E94 0000 		call register_code
 237               	.LVL37:
 525:keyboards/ergodox/ez/keymaps/pydemia/keymap.c ****     register_code(KC_9);
 238               		.loc 1 525 0
 239 000e 86E2      		ldi r24,lo8(38)
 240 0010 0E94 0000 		call register_code
 241               	.LVL38:
 526:keyboards/ergodox/ez/keymaps/pydemia/keymap.c ****     unregister_code(KC_9);
 242               		.loc 1 526 0
 243 0014 86E2      		ldi r24,lo8(38)
 244 0016 0E94 0000 		call unregister_code
 245               	.LVL39:
 527:keyboards/ergodox/ez/keymaps/pydemia/keymap.c **** 
 528:keyboards/ergodox/ez/keymaps/pydemia/keymap.c ****     register_code(KC_0);
 246               		.loc 1 528 0
 247 001a 87E2      		ldi r24,lo8(39)
 248 001c 0E94 0000 		call register_code
 249               	.LVL40:
 529:keyboards/ergodox/ez/keymaps/pydemia/keymap.c ****     unregister_code(KC_0);
 250               		.loc 1 529 0
 251 0020 87E2      		ldi r24,lo8(39)
 252 0022 0E94 0000 		call unregister_code
 253               	.LVL41:
 530:keyboards/ergodox/ez/keymaps/pydemia/keymap.c ****     unregister_code(KC_LSFT);
 254               		.loc 1 530 0
 255 0026 81EE      		ldi r24,lo8(-31)
 256 0028 0E94 0000 		call unregister_code
 257               	.LVL42:
 531:keyboards/ergodox/ez/keymaps/pydemia/keymap.c **** 
 532:keyboards/ergodox/ez/keymaps/pydemia/keymap.c ****     register_code(KC_LEFT);
 258               		.loc 1 532 0
 259 002c 80E5      		ldi r24,lo8(80)
 260 002e 0E94 0000 		call register_code
 261               	.LVL43:
 533:keyboards/ergodox/ez/keymaps/pydemia/keymap.c ****     unregister_code(KC_LEFT);
 262               		.loc 1 533 0
 263 0032 80E5      		ldi r24,lo8(80)
 264 0034 0C94 0000 		jmp unregister_code
 265               	.LVL44:
 266               	.L13:
 534:keyboards/ergodox/ez/keymaps/pydemia/keymap.c **** 
 535:keyboards/ergodox/ez/keymaps/pydemia/keymap.c ****   } else {
 536:keyboards/ergodox/ez/keymaps/pydemia/keymap.c ****     clear_keyboard_but_mods();
 267               		.loc 1 536 0
 268 0038 0C94 0000 		jmp clear_keyboard_but_mods
 269               	.LVL45:
 270               		.cfi_endproc
 271               	.LFE130:
 273               		.section	.text.dance_press_equal,"ax",@progbits
 274               	.global	dance_press_equal
 276               	dance_press_equal:
 277               	.LFB131:
 537:keyboards/ergodox/ez/keymaps/pydemia/keymap.c ****   }
 538:keyboards/ergodox/ez/keymaps/pydemia/keymap.c **** }
 539:keyboards/ergodox/ez/keymaps/pydemia/keymap.c **** 
 540:keyboards/ergodox/ez/keymaps/pydemia/keymap.c **** 
 541:keyboards/ergodox/ez/keymaps/pydemia/keymap.c **** // = & <-
 542:keyboards/ergodox/ez/keymaps/pydemia/keymap.c **** void dance_press_equal (qk_tap_dance_state_t *state, void *user_data) {
 278               		.loc 1 542 0
 279               		.cfi_startproc
 280               	.LVL46:
 281               	/* prologue: function */
 282               	/* frame size = 0 */
 283               	/* stack size = 0 */
 284               	.L__stack_usage = 0
 543:keyboards/ergodox/ez/keymaps/pydemia/keymap.c ****   if (state->count == 1) {
 285               		.loc 1 543 0
 286 0000 FC01      		movw r30,r24
 287 0002 8081      		ld r24,Z
 288               	.LVL47:
 289 0004 8130      		cpi r24,lo8(1)
 290 0006 01F4      		brne .L15
 544:keyboards/ergodox/ez/keymaps/pydemia/keymap.c **** 
 545:keyboards/ergodox/ez/keymaps/pydemia/keymap.c ****     register_code(KC_EQUAL);
 291               		.loc 1 545 0
 292 0008 8EE2      		ldi r24,lo8(46)
 293 000a 0E94 0000 		call register_code
 294               	.LVL48:
 546:keyboards/ergodox/ez/keymaps/pydemia/keymap.c ****     unregister_code(KC_EQUAL);
 295               		.loc 1 546 0
 296 000e 8EE2      		ldi r24,lo8(46)
 297 0010 0C94 0000 		jmp unregister_code
 298               	.LVL49:
 299               	.L15:
 547:keyboards/ergodox/ez/keymaps/pydemia/keymap.c **** 
 548:keyboards/ergodox/ez/keymaps/pydemia/keymap.c ****   } else {
 549:keyboards/ergodox/ez/keymaps/pydemia/keymap.c ****     clear_keyboard_but_mods();
 300               		.loc 1 549 0
 301 0014 0C94 0000 		jmp clear_keyboard_but_mods
 302               	.LVL50:
 303               		.cfi_endproc
 304               	.LFE131:
 306               		.section	.text.dance_press_rassign,"ax",@progbits
 307               	.global	dance_press_rassign
 309               	dance_press_rassign:
 310               	.LFB132:
 550:keyboards/ergodox/ez/keymaps/pydemia/keymap.c ****   }
 551:keyboards/ergodox/ez/keymaps/pydemia/keymap.c **** }
 552:keyboards/ergodox/ez/keymaps/pydemia/keymap.c **** void dance_press_rassign (qk_tap_dance_state_t *state, void *user_data) {
 311               		.loc 1 552 0
 312               		.cfi_startproc
 313               	.LVL51:
 314               	/* prologue: function */
 315               	/* frame size = 0 */
 316               	/* stack size = 0 */
 317               	.L__stack_usage = 0
 553:keyboards/ergodox/ez/keymaps/pydemia/keymap.c ****   if (state->count == 2) {
 318               		.loc 1 553 0
 319 0000 FC01      		movw r30,r24
 320 0002 8081      		ld r24,Z
 321               	.LVL52:
 322 0004 8230      		cpi r24,lo8(2)
 323 0006 01F4      		brne .L17
 554:keyboards/ergodox/ez/keymaps/pydemia/keymap.c **** 
 555:keyboards/ergodox/ez/keymaps/pydemia/keymap.c ****     register_code(KC_LSFT);
 324               		.loc 1 555 0
 325 0008 81EE      		ldi r24,lo8(-31)
 326 000a 0E94 0000 		call register_code
 327               	.LVL53:
 556:keyboards/ergodox/ez/keymaps/pydemia/keymap.c ****     register_code(KC_COMMA);
 328               		.loc 1 556 0
 329 000e 86E3      		ldi r24,lo8(54)
 330 0010 0E94 0000 		call register_code
 331               	.LVL54:
 557:keyboards/ergodox/ez/keymaps/pydemia/keymap.c ****     unregister_code(KC_COMMA);
 332               		.loc 1 557 0
 333 0014 86E3      		ldi r24,lo8(54)
 334 0016 0E94 0000 		call unregister_code
 335               	.LVL55:
 558:keyboards/ergodox/ez/keymaps/pydemia/keymap.c ****     unregister_code(KC_LSFT);
 336               		.loc 1 558 0
 337 001a 81EE      		ldi r24,lo8(-31)
 338 001c 0E94 0000 		call unregister_code
 339               	.LVL56:
 559:keyboards/ergodox/ez/keymaps/pydemia/keymap.c **** 
 560:keyboards/ergodox/ez/keymaps/pydemia/keymap.c ****     register_code(KC_MINUS);
 340               		.loc 1 560 0
 341 0020 8DE2      		ldi r24,lo8(45)
 342 0022 0E94 0000 		call register_code
 343               	.LVL57:
 561:keyboards/ergodox/ez/keymaps/pydemia/keymap.c ****     unregister_code(KC_MINUS);
 344               		.loc 1 561 0
 345 0026 8DE2      		ldi r24,lo8(45)
 346 0028 0C94 0000 		jmp unregister_code
 347               	.LVL58:
 348               	.L17:
 562:keyboards/ergodox/ez/keymaps/pydemia/keymap.c **** 
 563:keyboards/ergodox/ez/keymaps/pydemia/keymap.c ****   } else {
 564:keyboards/ergodox/ez/keymaps/pydemia/keymap.c ****     clear_keyboard_but_mods();
 349               		.loc 1 564 0
 350 002c 0C94 0000 		jmp clear_keyboard_but_mods
 351               	.LVL59:
 352               		.cfi_endproc
 353               	.LFE132:
 355               		.section	.text.action_get_macro,"ax",@progbits
 356               	.global	action_get_macro
 358               	action_get_macro:
 359               	.LFB124:
 117:keyboards/ergodox/ez/keymaps/pydemia/keymap.c ****   // MACRODOWN only works in this function
 360               		.loc 1 117 0
 361               		.cfi_startproc
 362               	.LVL60:
 363               	/* prologue: function */
 364               	/* frame size = 0 */
 365               	/* stack size = 0 */
 366               	.L__stack_usage = 0
 119:keyboards/ergodox/ez/keymaps/pydemia/keymap.c ****         case 0:
 367               		.loc 1 119 0
 368 0000 462F      		mov r20,r22
 369               	.LVL61:
 370 0002 50E0      		ldi r21,0
 371 0004 4331      		cpi r20,19
 372 0006 5105      		cpc r21,__zero_reg__
 373 0008 00F0      		brlo .+2
 374 000a 00C0      		rjmp .L59
 375 000c DC01      		movw r26,r24
 376 000e FA01      		movw r30,r20
 377 0010 E050      		subi r30,lo8(-(gs(.L21)))
 378 0012 F040      		sbci r31,hi8(-(gs(.L21)))
 379 0014 1296      		adiw r26,2
 380 0016 8C91      		ld r24,X
 381               	.LVL62:
 382 0018 0C94 0000 		jmp __tablejump2__
 383               	.LVL63:
 384               		.section	.progmem.gcc_sw_table.action_get_macro,"a",@progbits
 385               		.p2align	1
 386               	.L21:
 387 0000 0000      		.word gs(.L20)
 388 0002 0000      		.word gs(.L22)
 389 0004 0000      		.word gs(.L23)
 390 0006 0000      		.word gs(.L24)
 391 0008 0000      		.word gs(.L25)
 392 000a 0000      		.word gs(.L26)
 393 000c 0000      		.word gs(.L27)
 394 000e 0000      		.word gs(.L28)
 395 0010 0000      		.word gs(.L29)
 396 0012 0000      		.word gs(.L30)
 397 0014 0000      		.word gs(.L31)
 398 0016 0000      		.word gs(.L32)
 399 0018 0000      		.word gs(.L33)
 400 001a 0000      		.word gs(.L34)
 401 001c 0000      		.word gs(.L35)
 402 001e 0000      		.word gs(.L36)
 403 0020 0000      		.word gs(.L37)
 404 0022 0000      		.word gs(.L38)
 405 0024 0000      		.word gs(.L39)
 406               		.section	.text.action_get_macro
 407               	.L20:
 121:keyboards/ergodox/ez/keymaps/pydemia/keymap.c ****           SEND_STRING (QMK_KEYBOARD "/" QMK_KEYMAP " @ " QMK_VERSION);
 408               		.loc 1 121 0
 409 001c 8823      		tst r24
 410 001e 01F4      		brne .+2
 411 0020 00C0      		rjmp .L59
 122:keyboards/ergodox/ez/keymaps/pydemia/keymap.c ****         }
 412               		.loc 1 122 0
 413 0022 80E0      		ldi r24,lo8(__c.5265)
 414 0024 90E0      		ldi r25,hi8(__c.5265)
 415 0026 00C0      		rjmp .L60
 416               	.L22:
 126:keyboards/ergodox/ez/keymaps/pydemia/keymap.c ****           SEND_STRING ( SIGNITURE );
 417               		.loc 1 126 0
 418 0028 8823      		tst r24
 419 002a 01F4      		brne .+2
 420 002c 00C0      		rjmp .L59
 127:keyboards/ergodox/ez/keymaps/pydemia/keymap.c ****         }
 421               		.loc 1 127 0
 422 002e 80E0      		ldi r24,lo8(__c.5269)
 423 0030 90E0      		ldi r25,hi8(__c.5269)
 424 0032 00C0      		rjmp .L60
 425               	.L23:
 131:keyboards/ergodox/ez/keymaps/pydemia/keymap.c ****           //SEND_STRING ( "<-" );
 426               		.loc 1 131 0
 427 0034 8823      		tst r24
 428 0036 01F4      		brne .+2
 429 0038 00C0      		rjmp .L59
 133:keyboards/ergodox/ez/keymaps/pydemia/keymap.c ****         }
 430               		.loc 1 133 0
 431 003a 80E0      		ldi r24,lo8(__m.5272)
 432 003c 90E0      		ldi r25,hi8(__m.5272)
 433 003e 0895      		ret
 434               	.L24:
 137:keyboards/ergodox/ez/keymaps/pydemia/keymap.c ****           SEND_STRING ( "'%Y%m%d%H%M%S%f'" );
 435               		.loc 1 137 0
 436 0040 8823      		tst r24
 437 0042 01F4      		brne .+2
 438 0044 00C0      		rjmp .L59
 138:keyboards/ergodox/ez/keymaps/pydemia/keymap.c ****           //return MACRO(D(LSFT), T(COMMA), U(LSFT), T(MINUS), END);
 439               		.loc 1 138 0
 440 0046 80E0      		ldi r24,lo8(__c.5275)
 441 0048 90E0      		ldi r25,hi8(__c.5275)
 442               	.L60:
 443 004a 0E94 0000 		call send_string
 444               	.LVL64:
 445 004e 00C0      		rjmp .L59
 446               	.LVL65:
 447               	.L25:
 143:keyboards/ergodox/ez/keymaps/pydemia/keymap.c ****           //SEND_STRING ( "# %%" );
 448               		.loc 1 143 0
 449 0050 8823      		tst r24
 450 0052 01F4      		brne .+2
 451 0054 00C0      		rjmp .L59
 145:keyboards/ergodox/ez/keymaps/pydemia/keymap.c ****         }
 452               		.loc 1 145 0
 453 0056 80E0      		ldi r24,lo8(__m.5278)
 454 0058 90E0      		ldi r25,hi8(__m.5278)
 455 005a 0895      		ret
 456               	.L26:
 149:keyboards/ergodox/ez/keymaps/pydemia/keymap.c ****           //SEND_STRING ( "# %%" );
 457               		.loc 1 149 0
 458 005c 8823      		tst r24
 459 005e 01F4      		brne .+2
 460 0060 00C0      		rjmp .L59
 151:keyboards/ergodox/ez/keymaps/pydemia/keymap.c ****                         T(LEFT), T(LEFT), T(LEFT), T(LEFT), T(LEFT), T(LEFT), END);
 461               		.loc 1 151 0
 462 0062 80E0      		ldi r24,lo8(__m.5281)
 463 0064 90E0      		ldi r25,hi8(__m.5281)
 464 0066 0895      		ret
 465               	.L27:
 156:keyboards/ergodox/ez/keymaps/pydemia/keymap.c ****           SEND_STRING ( SQL_NORMAL_STR );
 466               		.loc 1 156 0
 467 0068 8823      		tst r24
 468 006a 01F4      		brne .+2
 469 006c 00C0      		rjmp .L59
 157:keyboards/ergodox/ez/keymaps/pydemia/keymap.c ****         }
 470               		.loc 1 157 0
 471 006e 80E0      		ldi r24,lo8(__c.5284)
 472 0070 90E0      		ldi r25,hi8(__c.5284)
 473 0072 00C0      		rjmp .L60
 474               	.L28:
 161:keyboards/ergodox/ez/keymaps/pydemia/keymap.c ****           SEND_STRING ( SQL_LEFT_STR );
 475               		.loc 1 161 0
 476 0074 8823      		tst r24
 477 0076 01F0      		breq .L59
 162:keyboards/ergodox/ez/keymaps/pydemia/keymap.c ****         }
 478               		.loc 1 162 0
 479 0078 80E0      		ldi r24,lo8(__c.5287)
 480 007a 90E0      		ldi r25,hi8(__c.5287)
 481 007c 00C0      		rjmp .L60
 482               	.L29:
 166:keyboards/ergodox/ez/keymaps/pydemia/keymap.c ****           SEND_STRING ( SQL_LEFT_SUB_STR );
 483               		.loc 1 166 0
 484 007e 8823      		tst r24
 485 0080 01F0      		breq .L59
 167:keyboards/ergodox/ez/keymaps/pydemia/keymap.c ****         }
 486               		.loc 1 167 0
 487 0082 80E0      		ldi r24,lo8(__c.5290)
 488 0084 90E0      		ldi r25,hi8(__c.5290)
 489 0086 00C0      		rjmp .L60
 490               	.L30:
 171:keyboards/ergodox/ez/keymaps/pydemia/keymap.c ****           SEND_STRING ( PIP_STR );
 491               		.loc 1 171 0
 492 0088 8823      		tst r24
 493 008a 01F0      		breq .L59
 172:keyboards/ergodox/ez/keymaps/pydemia/keymap.c ****         }
 494               		.loc 1 172 0
 495 008c 80E0      		ldi r24,lo8(__c.5293)
 496 008e 90E0      		ldi r25,hi8(__c.5293)
 497 0090 00C0      		rjmp .L60
 498               	.L31:
 176:keyboards/ergodox/ez/keymaps/pydemia/keymap.c ****           SEND_STRING ( __DATE__ );
 499               		.loc 1 176 0
 500 0092 8823      		tst r24
 501 0094 01F0      		breq .L59
 177:keyboards/ergodox/ez/keymaps/pydemia/keymap.c ****         }
 502               		.loc 1 177 0
 503 0096 80E0      		ldi r24,lo8(__c.5296)
 504 0098 90E0      		ldi r25,hi8(__c.5296)
 505 009a 00C0      		rjmp .L60
 506               	.L32:
 181:keyboards/ergodox/ez/keymaps/pydemia/keymap.c ****           SEND_STRING ( __TIME__ );
 507               		.loc 1 181 0
 508 009c 8823      		tst r24
 509 009e 01F0      		breq .L59
 182:keyboards/ergodox/ez/keymaps/pydemia/keymap.c ****         }
 510               		.loc 1 182 0
 511 00a0 80E0      		ldi r24,lo8(__c.5299)
 512 00a2 90E0      		ldi r25,hi8(__c.5299)
 513 00a4 00C0      		rjmp .L60
 514               	.L33:
 186:keyboards/ergodox/ez/keymaps/pydemia/keymap.c ****           SEND_STRING ( DATETIME_STR );
 515               		.loc 1 186 0
 516 00a6 8823      		tst r24
 517 00a8 01F0      		breq .L59
 187:keyboards/ergodox/ez/keymaps/pydemia/keymap.c ****         }
 518               		.loc 1 187 0
 519 00aa 80E0      		ldi r24,lo8(__c.5302)
 520 00ac 90E0      		ldi r25,hi8(__c.5302)
 521 00ae 00C0      		rjmp .L60
 522               	.L34:
 191:keyboards/ergodox/ez/keymaps/pydemia/keymap.c ****           //SEND_STRING ( " );
 523               		.loc 1 191 0
 524 00b0 8823      		tst r24
 525 00b2 01F0      		breq .L59
 193:keyboards/ergodox/ez/keymaps/pydemia/keymap.c ****         }
 526               		.loc 1 193 0
 527 00b4 80E0      		ldi r24,lo8(__m.5305)
 528 00b6 90E0      		ldi r25,hi8(__m.5305)
 529 00b8 0895      		ret
 530               	.L35:
 197:keyboards/ergodox/ez/keymaps/pydemia/keymap.c ****           return MACRO( T(LBRC), T(RBRC), T(LEFT), END );
 531               		.loc 1 197 0
 532 00ba 8823      		tst r24
 533 00bc 01F0      		breq .L59
 198:keyboards/ergodox/ez/keymaps/pydemia/keymap.c ****         }
 534               		.loc 1 198 0
 535 00be 80E0      		ldi r24,lo8(__m.5308)
 536 00c0 90E0      		ldi r25,hi8(__m.5308)
 537 00c2 0895      		ret
 538               	.L36:
 202:keyboards/ergodox/ez/keymaps/pydemia/keymap.c ****           return MACRO( D(LSFT), T(LBRC), T(RBRC), U(LSFT), T(LEFT), END );
 539               		.loc 1 202 0
 540 00c4 8823      		tst r24
 541 00c6 01F0      		breq .L59
 203:keyboards/ergodox/ez/keymaps/pydemia/keymap.c ****           //return MACRO( T(LCBR), T(RCBR), T(LEFT), END );
 542               		.loc 1 203 0
 543 00c8 80E0      		ldi r24,lo8(__m.5311)
 544 00ca 90E0      		ldi r25,hi8(__m.5311)
 545 00cc 0895      		ret
 546               	.L37:
 208:keyboards/ergodox/ez/keymaps/pydemia/keymap.c ****           return MACRO( D(LSFT), T(9), T(0), U(LSFT), T(LEFT), END );
 547               		.loc 1 208 0
 548 00ce 8823      		tst r24
 549 00d0 01F0      		breq .L59
 209:keyboards/ergodox/ez/keymaps/pydemia/keymap.c ****         }
 550               		.loc 1 209 0
 551 00d2 80E0      		ldi r24,lo8(__m.5314)
 552 00d4 90E0      		ldi r25,hi8(__m.5314)
 553 00d6 0895      		ret
 554               	.L38:
 213:keyboards/ergodox/ez/keymaps/pydemia/keymap.c ****           return MACRO( D(LSFT), T(HOME), U(LSFT), END );
 555               		.loc 1 213 0
 556 00d8 8823      		tst r24
 557 00da 01F0      		breq .L59
 214:keyboards/ergodox/ez/keymaps/pydemia/keymap.c ****         }
 558               		.loc 1 214 0
 559 00dc 80E0      		ldi r24,lo8(__m.5317)
 560 00de 90E0      		ldi r25,hi8(__m.5317)
 561 00e0 0895      		ret
 562               	.L39:
 218:keyboards/ergodox/ez/keymaps/pydemia/keymap.c ****           return MACRO( D(LSFT), T(END), U(LSFT), END );
 563               		.loc 1 218 0
 564 00e2 8823      		tst r24
 565 00e4 01F0      		breq .L59
 219:keyboards/ergodox/ez/keymaps/pydemia/keymap.c ****         }
 566               		.loc 1 219 0
 567 00e6 80E0      		ldi r24,lo8(__m.5320)
 568 00e8 90E0      		ldi r25,hi8(__m.5320)
 569 00ea 0895      		ret
 570               	.LVL66:
 571               	.L59:
 227:keyboards/ergodox/ez/keymaps/pydemia/keymap.c **** };
 572               		.loc 1 227 0
 573 00ec 80E0      		ldi r24,0
 574 00ee 90E0      		ldi r25,0
 228:keyboards/ergodox/ez/keymaps/pydemia/keymap.c **** 
 575               		.loc 1 228 0
 576 00f0 0895      		ret
 577               		.cfi_endproc
 578               	.LFE124:
 580               		.section	.text.dance_press_home,"ax",@progbits
 581               	.global	dance_press_home
 583               	dance_press_home:
 584               	.LFB133:
 565:keyboards/ergodox/ez/keymaps/pydemia/keymap.c ****   }
 566:keyboards/ergodox/ez/keymaps/pydemia/keymap.c **** }
 567:keyboards/ergodox/ez/keymaps/pydemia/keymap.c **** 
 568:keyboards/ergodox/ez/keymaps/pydemia/keymap.c **** // = & <-
 569:keyboards/ergodox/ez/keymaps/pydemia/keymap.c **** void dance_press_home (qk_tap_dance_state_t *state, void *user_data) {
 585               		.loc 1 569 0
 586               		.cfi_startproc
 587               	.LVL67:
 588               	/* prologue: function */
 589               	/* frame size = 0 */
 590               	/* stack size = 0 */
 591               	.L__stack_usage = 0
 570:keyboards/ergodox/ez/keymaps/pydemia/keymap.c ****   if (state->count == 1) {
 592               		.loc 1 570 0
 593 0000 FC01      		movw r30,r24
 594 0002 8081      		ld r24,Z
 595               	.LVL68:
 596 0004 8130      		cpi r24,lo8(1)
 597 0006 01F4      		brne .L62
 571:keyboards/ergodox/ez/keymaps/pydemia/keymap.c **** 
 572:keyboards/ergodox/ez/keymaps/pydemia/keymap.c ****     register_code(KC_HOME);
 598               		.loc 1 572 0
 599 0008 8AE4      		ldi r24,lo8(74)
 600 000a 0E94 0000 		call register_code
 601               	.LVL69:
 573:keyboards/ergodox/ez/keymaps/pydemia/keymap.c ****     unregister_code(KC_HOME);
 602               		.loc 1 573 0
 603 000e 8AE4      		ldi r24,lo8(74)
 604 0010 0C94 0000 		jmp unregister_code
 605               	.LVL70:
 606               	.L62:
 574:keyboards/ergodox/ez/keymaps/pydemia/keymap.c **** 
 575:keyboards/ergodox/ez/keymaps/pydemia/keymap.c ****   } else {
 576:keyboards/ergodox/ez/keymaps/pydemia/keymap.c ****     clear_keyboard_but_mods();
 607               		.loc 1 576 0
 608 0014 0C94 0000 		jmp clear_keyboard_but_mods
 609               	.LVL71:
 610               		.cfi_endproc
 611               	.LFE133:
 613               		.section	.text.dance_press_shifthome,"ax",@progbits
 614               	.global	dance_press_shifthome
 616               	dance_press_shifthome:
 617               	.LFB134:
 577:keyboards/ergodox/ez/keymaps/pydemia/keymap.c ****   }
 578:keyboards/ergodox/ez/keymaps/pydemia/keymap.c **** }
 579:keyboards/ergodox/ez/keymaps/pydemia/keymap.c **** void dance_press_shifthome (qk_tap_dance_state_t *state, void *user_data) {
 618               		.loc 1 579 0
 619               		.cfi_startproc
 620               	.LVL72:
 621               	/* prologue: function */
 622               	/* frame size = 0 */
 623               	/* stack size = 0 */
 624               	.L__stack_usage = 0
 580:keyboards/ergodox/ez/keymaps/pydemia/keymap.c ****   if (state->count == 2) {
 625               		.loc 1 580 0
 626 0000 FC01      		movw r30,r24
 627 0002 8081      		ld r24,Z
 628               	.LVL73:
 629 0004 8230      		cpi r24,lo8(2)
 630 0006 01F4      		brne .L64
 581:keyboards/ergodox/ez/keymaps/pydemia/keymap.c **** 
 582:keyboards/ergodox/ez/keymaps/pydemia/keymap.c ****     register_code(KC_LSFT);
 631               		.loc 1 582 0
 632 0008 81EE      		ldi r24,lo8(-31)
 633 000a 0E94 0000 		call register_code
 634               	.LVL74:
 583:keyboards/ergodox/ez/keymaps/pydemia/keymap.c ****     register_code(KC_HOME);
 635               		.loc 1 583 0
 636 000e 8AE4      		ldi r24,lo8(74)
 637 0010 0E94 0000 		call register_code
 638               	.LVL75:
 584:keyboards/ergodox/ez/keymaps/pydemia/keymap.c ****     unregister_code(KC_HOME);
 639               		.loc 1 584 0
 640 0014 8AE4      		ldi r24,lo8(74)
 641 0016 0E94 0000 		call unregister_code
 642               	.LVL76:
 585:keyboards/ergodox/ez/keymaps/pydemia/keymap.c ****     unregister_code(KC_LSFT);
 643               		.loc 1 585 0
 644 001a 81EE      		ldi r24,lo8(-31)
 645 001c 0C94 0000 		jmp unregister_code
 646               	.LVL77:
 647               	.L64:
 586:keyboards/ergodox/ez/keymaps/pydemia/keymap.c **** 
 587:keyboards/ergodox/ez/keymaps/pydemia/keymap.c ****   } else {
 588:keyboards/ergodox/ez/keymaps/pydemia/keymap.c ****     clear_keyboard_but_mods();
 648               		.loc 1 588 0
 649 0020 0C94 0000 		jmp clear_keyboard_but_mods
 650               	.LVL78:
 651               		.cfi_endproc
 652               	.LFE134:
 654               		.section	.text.dance_press_end,"ax",@progbits
 655               	.global	dance_press_end
 657               	dance_press_end:
 658               	.LFB135:
 589:keyboards/ergodox/ez/keymaps/pydemia/keymap.c ****   }
 590:keyboards/ergodox/ez/keymaps/pydemia/keymap.c **** }
 591:keyboards/ergodox/ez/keymaps/pydemia/keymap.c **** 
 592:keyboards/ergodox/ez/keymaps/pydemia/keymap.c **** 
 593:keyboards/ergodox/ez/keymaps/pydemia/keymap.c **** // = & <-
 594:keyboards/ergodox/ez/keymaps/pydemia/keymap.c **** void dance_press_end (qk_tap_dance_state_t *state, void *user_data) {
 659               		.loc 1 594 0
 660               		.cfi_startproc
 661               	.LVL79:
 662               	/* prologue: function */
 663               	/* frame size = 0 */
 664               	/* stack size = 0 */
 665               	.L__stack_usage = 0
 595:keyboards/ergodox/ez/keymaps/pydemia/keymap.c ****   if (state->count == 1) {
 666               		.loc 1 595 0
 667 0000 FC01      		movw r30,r24
 668 0002 8081      		ld r24,Z
 669               	.LVL80:
 670 0004 8130      		cpi r24,lo8(1)
 671 0006 01F4      		brne .L66
 596:keyboards/ergodox/ez/keymaps/pydemia/keymap.c **** 
 597:keyboards/ergodox/ez/keymaps/pydemia/keymap.c ****     register_code(KC_END);
 672               		.loc 1 597 0
 673 0008 8DE4      		ldi r24,lo8(77)
 674 000a 0E94 0000 		call register_code
 675               	.LVL81:
 598:keyboards/ergodox/ez/keymaps/pydemia/keymap.c ****     unregister_code(KC_END);
 676               		.loc 1 598 0
 677 000e 8DE4      		ldi r24,lo8(77)
 678 0010 0C94 0000 		jmp unregister_code
 679               	.LVL82:
 680               	.L66:
 599:keyboards/ergodox/ez/keymaps/pydemia/keymap.c **** 
 600:keyboards/ergodox/ez/keymaps/pydemia/keymap.c ****   } else {
 601:keyboards/ergodox/ez/keymaps/pydemia/keymap.c ****     clear_keyboard_but_mods();
 681               		.loc 1 601 0
 682 0014 0C94 0000 		jmp clear_keyboard_but_mods
 683               	.LVL83:
 684               		.cfi_endproc
 685               	.LFE135:
 687               		.section	.text.dance_press_shiftend,"ax",@progbits
 688               	.global	dance_press_shiftend
 690               	dance_press_shiftend:
 691               	.LFB136:
 602:keyboards/ergodox/ez/keymaps/pydemia/keymap.c ****   }
 603:keyboards/ergodox/ez/keymaps/pydemia/keymap.c **** }
 604:keyboards/ergodox/ez/keymaps/pydemia/keymap.c **** void dance_press_shiftend (qk_tap_dance_state_t *state, void *user_data) {
 692               		.loc 1 604 0
 693               		.cfi_startproc
 694               	.LVL84:
 695               	/* prologue: function */
 696               	/* frame size = 0 */
 697               	/* stack size = 0 */
 698               	.L__stack_usage = 0
 605:keyboards/ergodox/ez/keymaps/pydemia/keymap.c ****   if (state->count == 2) {
 699               		.loc 1 605 0
 700 0000 FC01      		movw r30,r24
 701 0002 8081      		ld r24,Z
 702               	.LVL85:
 703 0004 8230      		cpi r24,lo8(2)
 704 0006 01F4      		brne .L68
 606:keyboards/ergodox/ez/keymaps/pydemia/keymap.c **** 
 607:keyboards/ergodox/ez/keymaps/pydemia/keymap.c ****     register_code(KC_LSFT);
 705               		.loc 1 607 0
 706 0008 81EE      		ldi r24,lo8(-31)
 707 000a 0E94 0000 		call register_code
 708               	.LVL86:
 608:keyboards/ergodox/ez/keymaps/pydemia/keymap.c ****     register_code(KC_END);
 709               		.loc 1 608 0
 710 000e 8DE4      		ldi r24,lo8(77)
 711 0010 0E94 0000 		call register_code
 712               	.LVL87:
 609:keyboards/ergodox/ez/keymaps/pydemia/keymap.c ****     unregister_code(KC_END);
 713               		.loc 1 609 0
 714 0014 8DE4      		ldi r24,lo8(77)
 715 0016 0E94 0000 		call unregister_code
 716               	.LVL88:
 610:keyboards/ergodox/ez/keymaps/pydemia/keymap.c ****     unregister_code(KC_LSFT);
 717               		.loc 1 610 0
 718 001a 81EE      		ldi r24,lo8(-31)
 719 001c 0C94 0000 		jmp unregister_code
 720               	.LVL89:
 721               	.L68:
 611:keyboards/ergodox/ez/keymaps/pydemia/keymap.c **** 
 612:keyboards/ergodox/ez/keymaps/pydemia/keymap.c ****   } else {
 613:keyboards/ergodox/ez/keymaps/pydemia/keymap.c ****     clear_keyboard_but_mods();
 722               		.loc 1 613 0
 723 0020 0C94 0000 		jmp clear_keyboard_but_mods
 724               	.LVL90:
 725               		.cfi_endproc
 726               	.LFE136:
 728               		.section	.rodata.str1.1,"aMS",@progbits,1
 729               	.LC1:
 730 0000 2573 2025 		.string	"%s %d %d"
 730      6420 2564 
 730      00
 731               	.LC0:
 732 0009 4A61 6E46 		.string	"JanFebMarAprMayJunJulAugSepOctNovDec"
 732      6562 4D61 
 732      7241 7072 
 732      4D61 794A 
 732      756E 4A75 
 733               		.section	.text.pre_macro_date_to_int,"ax",@progbits
 734               	.global	pre_macro_date_to_int
 736               	pre_macro_date_to_int:
 737               	.LFB137:
 614:keyboards/ergodox/ez/keymaps/pydemia/keymap.c ****   }
 615:keyboards/ergodox/ez/keymaps/pydemia/keymap.c **** }
 616:keyboards/ergodox/ez/keymaps/pydemia/keymap.c **** // CUSTOM KEYMAP END -------------------------------------------------------
 617:keyboards/ergodox/ez/keymaps/pydemia/keymap.c **** 
 618:keyboards/ergodox/ez/keymaps/pydemia/keymap.c **** 
 619:keyboards/ergodox/ez/keymaps/pydemia/keymap.c **** 
 620:keyboards/ergodox/ez/keymaps/pydemia/keymap.c **** //Tap Dance Declarations
 621:keyboards/ergodox/ez/keymaps/pydemia/keymap.c **** enum {
 622:keyboards/ergodox/ez/keymaps/pydemia/keymap.c ****   ASSIGN_MARK = 0,
 623:keyboards/ergodox/ez/keymaps/pydemia/keymap.c **** 
 624:keyboards/ergodox/ez/keymaps/pydemia/keymap.c ****   F01,
 625:keyboards/ergodox/ez/keymaps/pydemia/keymap.c ****   F02,
 626:keyboards/ergodox/ez/keymaps/pydemia/keymap.c ****   F03,
 627:keyboards/ergodox/ez/keymaps/pydemia/keymap.c ****   F04,
 628:keyboards/ergodox/ez/keymaps/pydemia/keymap.c ****   F05,
 629:keyboards/ergodox/ez/keymaps/pydemia/keymap.c ****   F06,
 630:keyboards/ergodox/ez/keymaps/pydemia/keymap.c ****   F07,
 631:keyboards/ergodox/ez/keymaps/pydemia/keymap.c ****   F08,
 632:keyboards/ergodox/ez/keymaps/pydemia/keymap.c ****   F09,
 633:keyboards/ergodox/ez/keymaps/pydemia/keymap.c ****   F10,
 634:keyboards/ergodox/ez/keymaps/pydemia/keymap.c ****   F11,
 635:keyboards/ergodox/ez/keymaps/pydemia/keymap.c ****   F12,
 636:keyboards/ergodox/ez/keymaps/pydemia/keymap.c **** 
 637:keyboards/ergodox/ez/keymaps/pydemia/keymap.c ****   SFT_CAPS,
 638:keyboards/ergodox/ez/keymaps/pydemia/keymap.c **** 
 639:keyboards/ergodox/ez/keymaps/pydemia/keymap.c ****   D_QUOTE,
 640:keyboards/ergodox/ez/keymaps/pydemia/keymap.c **** 
 641:keyboards/ergodox/ez/keymaps/pydemia/keymap.c ****   PGUP_BWEB,
 642:keyboards/ergodox/ez/keymaps/pydemia/keymap.c ****   PGDN_FWEB,
 643:keyboards/ergodox/ez/keymaps/pydemia/keymap.c **** 
 644:keyboards/ergodox/ez/keymaps/pydemia/keymap.c ****   T_DBRC,
 645:keyboards/ergodox/ez/keymaps/pydemia/keymap.c ****   G_DCBR,
 646:keyboards/ergodox/ez/keymaps/pydemia/keymap.c ****   B_DPRN,
 647:keyboards/ergodox/ez/keymaps/pydemia/keymap.c **** 
 648:keyboards/ergodox/ez/keymaps/pydemia/keymap.c ****   HOME_SFT,
 649:keyboards/ergodox/ez/keymaps/pydemia/keymap.c ****   END_SFT,
 650:keyboards/ergodox/ez/keymaps/pydemia/keymap.c **** 
 651:keyboards/ergodox/ez/keymaps/pydemia/keymap.c ****   J_DBRC,
 652:keyboards/ergodox/ez/keymaps/pydemia/keymap.c ****   K_DCBR,
 653:keyboards/ergodox/ez/keymaps/pydemia/keymap.c ****   L_DPRN
 654:keyboards/ergodox/ez/keymaps/pydemia/keymap.c **** };
 655:keyboards/ergodox/ez/keymaps/pydemia/keymap.c **** 
 656:keyboards/ergodox/ez/keymaps/pydemia/keymap.c **** //Tap Dance Definitions
 657:keyboards/ergodox/ez/keymaps/pydemia/keymap.c **** qk_tap_dance_action_t tap_dance_actions[] = {
 658:keyboards/ergodox/ez/keymaps/pydemia/keymap.c **** 
 659:keyboards/ergodox/ez/keymaps/pydemia/keymap.c ****   [ASSIGN_MARK] = ACTION_TAP_DANCE_FN_ADVANCED (NULL, dance_press_equal, dance_press_rassign), 
 660:keyboards/ergodox/ez/keymaps/pydemia/keymap.c **** 
 661:keyboards/ergodox/ez/keymaps/pydemia/keymap.c ****   [F01] = ACTION_TAP_DANCE_DOUBLE(KC_1, KC_F1),
 662:keyboards/ergodox/ez/keymaps/pydemia/keymap.c ****   [F02] = ACTION_TAP_DANCE_DOUBLE(KC_2, KC_F2),
 663:keyboards/ergodox/ez/keymaps/pydemia/keymap.c ****   [F03] = ACTION_TAP_DANCE_DOUBLE(KC_3, KC_F3),
 664:keyboards/ergodox/ez/keymaps/pydemia/keymap.c ****   [F04] = ACTION_TAP_DANCE_DOUBLE(KC_4, KC_F4),
 665:keyboards/ergodox/ez/keymaps/pydemia/keymap.c ****   [F05] = ACTION_TAP_DANCE_DOUBLE(KC_5, KC_F5),
 666:keyboards/ergodox/ez/keymaps/pydemia/keymap.c ****   [F06] = ACTION_TAP_DANCE_DOUBLE(KC_6, KC_F6),
 667:keyboards/ergodox/ez/keymaps/pydemia/keymap.c ****   [F07] = ACTION_TAP_DANCE_DOUBLE(KC_7, KC_F7),
 668:keyboards/ergodox/ez/keymaps/pydemia/keymap.c ****   [F08] = ACTION_TAP_DANCE_DOUBLE(KC_8, KC_F8),
 669:keyboards/ergodox/ez/keymaps/pydemia/keymap.c ****   [F09] = ACTION_TAP_DANCE_DOUBLE(KC_9, KC_F9),
 670:keyboards/ergodox/ez/keymaps/pydemia/keymap.c ****   [F10] = ACTION_TAP_DANCE_DOUBLE(KC_0, KC_F10),
 671:keyboards/ergodox/ez/keymaps/pydemia/keymap.c ****   [F11] = ACTION_TAP_DANCE_DOUBLE(KC_MINUS, KC_F11),
 672:keyboards/ergodox/ez/keymaps/pydemia/keymap.c ****   [F12] = ACTION_TAP_DANCE_DOUBLE(KC_PLUS, KC_F12),
 673:keyboards/ergodox/ez/keymaps/pydemia/keymap.c **** 
 674:keyboards/ergodox/ez/keymaps/pydemia/keymap.c ****   [SFT_CAPS] = ACTION_TAP_DANCE_DOUBLE(KC_LSFT, KC_CAPS),
 675:keyboards/ergodox/ez/keymaps/pydemia/keymap.c **** 
 676:keyboards/ergodox/ez/keymaps/pydemia/keymap.c ****   [D_QUOTE] = ACTION_TAP_DANCE_DOUBLE(KC_QUOT, LSFT(KC_QUOT)),
 677:keyboards/ergodox/ez/keymaps/pydemia/keymap.c **** 
 678:keyboards/ergodox/ez/keymaps/pydemia/keymap.c ****   [PGUP_BWEB] = ACTION_TAP_DANCE_DOUBLE(KC_PGUP, LALT(KC_LEFT)),
 679:keyboards/ergodox/ez/keymaps/pydemia/keymap.c ****   [PGDN_FWEB] = ACTION_TAP_DANCE_DOUBLE(KC_PGDN, LALT(KC_RGHT)),
 680:keyboards/ergodox/ez/keymaps/pydemia/keymap.c **** 
 681:keyboards/ergodox/ez/keymaps/pydemia/keymap.c ****   [T_DBRC] = ACTION_TAP_DANCE_FN_ADVANCED (NULL, dance_press_t, dance_dbrc),
 682:keyboards/ergodox/ez/keymaps/pydemia/keymap.c ****   [G_DCBR] = ACTION_TAP_DANCE_FN_ADVANCED (NULL, dance_press_g, dance_dcbr),
 683:keyboards/ergodox/ez/keymaps/pydemia/keymap.c ****   [B_DPRN] = ACTION_TAP_DANCE_FN_ADVANCED (NULL, dance_press_b, dance_dprn),
 684:keyboards/ergodox/ez/keymaps/pydemia/keymap.c **** 
 685:keyboards/ergodox/ez/keymaps/pydemia/keymap.c ****   [HOME_SFT] = ACTION_TAP_DANCE_DOUBLE(KC_HOME, LSFT(KC_HOME)),
 686:keyboards/ergodox/ez/keymaps/pydemia/keymap.c ****   [END_SFT]  = ACTION_TAP_DANCE_DOUBLE(KC_END, LSFT(KC_END)),
 687:keyboards/ergodox/ez/keymaps/pydemia/keymap.c **** 
 688:keyboards/ergodox/ez/keymaps/pydemia/keymap.c ****   [J_DBRC] = ACTION_TAP_DANCE_DOUBLE(KC_J, BRC_KEY),
 689:keyboards/ergodox/ez/keymaps/pydemia/keymap.c ****   [K_DCBR] = ACTION_TAP_DANCE_DOUBLE(KC_K, CBR_KEY),
 690:keyboards/ergodox/ez/keymaps/pydemia/keymap.c ****   [L_DPRN] = ACTION_TAP_DANCE_DOUBLE(KC_L, PRN_KEY),
 691:keyboards/ergodox/ez/keymaps/pydemia/keymap.c **** 
 692:keyboards/ergodox/ez/keymaps/pydemia/keymap.c **** };
 693:keyboards/ergodox/ez/keymaps/pydemia/keymap.c **** 
 694:keyboards/ergodox/ez/keymaps/pydemia/keymap.c **** // Tap Dance End --------------------------------------------------------------
 695:keyboards/ergodox/ez/keymaps/pydemia/keymap.c **** 
 696:keyboards/ergodox/ez/keymaps/pydemia/keymap.c **** 
 697:keyboards/ergodox/ez/keymaps/pydemia/keymap.c **** const uint16_t PROGMEM keymaps[][MATRIX_ROWS][MATRIX_COLS] = {
 698:keyboards/ergodox/ez/keymaps/pydemia/keymap.c **** 
 699:keyboards/ergodox/ez/keymaps/pydemia/keymap.c **** /* Keymap 0: Basic layer
 700:keyboards/ergodox/ez/keymaps/pydemia/keymap.c ****  *
 701:keyboards/ergodox/ez/keymaps/pydemia/keymap.c ****  * 
 702:keyboards/ergodox/ez/keymaps/pydemia/keymap.c ****  *   Esc    1    2    3    4    5  CtFn5       6    7    8    9
 703:keyboards/ergodox/ez/keymaps/pydemia/keymap.c ****  * 
 704:keyboards/ergodox/ez/keymaps/pydemia/keymap.c ****  *   Tab    Q    W    E    R   T[]   <-       Ctl   Y    U    I
 705:keyboards/ergodox/ez/keymaps/pydemia/keymap.c ****  * 
 706:keyboards/ergodox/ez/keymaps/pydemia/keymap.c ****  *    ~     A    S    D    F   G{}      
 707:keyboards/ergodox/ez/keymaps/pydemia/keymap.c ****  * 
 708:keyboards/ergodox/ez/keymaps/pydemia/keymap.c ****  *  SftCp   Z    X    C    V   B()  Npd       Fn5   N    M    ,
 709:keyboards/ergodox/ez/keymaps/pydemia/keymap.c ****  * 
 710:keyboards/ergodox/ez/keymaps/pydemia/keymap.c ****  *    CTL  TgM Wn/Cd App  ALT                               RAt  RCl   [
 711:keyboards/ergodox/ez/keymaps/pydemia/keymap.c ****  *    
 712:keyboards/ergodox/ez/keymaps/pydemia/keymap.c ****  *                                    Pup  Pdn   Lft  Rgt 
 713:keyboards/ergodox/ez/keymaps/pydemia/keymap.c ****  *                              
 714:keyboards/ergodox/ez/keymaps/pydemia/keymap.c ****  *                                        Hom   Up            
 715:keyboards/ergodox/ez/keymaps/pydemia/keymap.c ****  *                              Spc  Bsp   Del  
 716:keyboards/ergodox/ez/keymaps/pydemia/keymap.c ****  *                                        End   Dwn           
 717:keyboards/ergodox/ez/keymaps/pydemia/keymap.c ****  *                              
 718:keyboards/ergodox/ez/keymaps/pydemia/keymap.c ****  */
 719:keyboards/ergodox/ez/keymaps/pydemia/keymap.c **** // If it accepts an argument (i.e, is a function), it doesn't need KC_.
 720:keyboards/ergodox/ez/keymaps/pydemia/keymap.c **** // Otherwise, it needs KC_*
 721:keyboards/ergodox/ez/keymaps/pydemia/keymap.c **** 
 722:keyboards/ergodox/ez/keymaps/pydemia/keymap.c **** //Hyper: ALL_T(KC_NO)
 723:keyboards/ergodox/ez/keymaps/pydemia/keymap.c **** //Meh: MEH_T(KC_NO)
 724:keyboards/ergodox/ez/keymaps/pydemia/keymap.c **** [WKEY] = KEYMAP(  // layer 0 : default
 725:keyboards/ergodox/ez/keymaps/pydemia/keymap.c **** // left hand
 726:keyboards/ergodox/ez/keymaps/pydemia/keymap.c **** KC_ESC,           F01_TAP,    F02_TAP,    F03_TAP,      F04_TAP,        F05_TAP,          LCTL(KC_F
 727:keyboards/ergodox/ez/keymaps/pydemia/keymap.c **** LT(MAGI, KC_TAB), KC_Q,       KC_W,       KC_E,         KC_R,           T_DBRC_TAP,       ASSIGN_TA
 728:keyboards/ergodox/ez/keymaps/pydemia/keymap.c **** KC_GRV,           KC_A,       KC_S,       KC_D,         KC_F,           G_DCBR_TAP,
 729:keyboards/ergodox/ez/keymaps/pydemia/keymap.c **** SFT_CAPS_TAP,     KC_Z,       KC_X,       KC_C,         KC_V,           B_DPRN_TAP,       KC_FN1,
 730:keyboards/ergodox/ez/keymaps/pydemia/keymap.c **** CTL_T(KC_LCTL),   KC_FN2,     KC_RGUI,    KC_APP,       ALT_T(KC_LALT),
 731:keyboards/ergodox/ez/keymaps/pydemia/keymap.c ****                                                                         PGUP_BWEB_TAP,    PGDN_FWEB
 732:keyboards/ergodox/ez/keymaps/pydemia/keymap.c ****                                                                         KC_HOME,
 733:keyboards/ergodox/ez/keymaps/pydemia/keymap.c ****                                                       KC_SPC,           KC_BSPC,          KC_END,
 734:keyboards/ergodox/ez/keymaps/pydemia/keymap.c **** // right hand
 735:keyboards/ergodox/ez/keymaps/pydemia/keymap.c **** F06_TAP,          F07_TAP,    F08_TAP,    F09_TAP,      F10_TAP,          F11_TAP,          F12_TAP
 736:keyboards/ergodox/ez/keymaps/pydemia/keymap.c **** ASSIGN_R_KEY,     KC_Y,       KC_U,       KC_I,         KC_O,             KC_P,             KC_BSLS
 737:keyboards/ergodox/ez/keymaps/pydemia/keymap.c ****                   KC_H,       J_DBRC_TAP, K_DCBR_TAP,   L_DPRN_TAP,       KC_SCLN,          D_QUOTE
 738:keyboards/ergodox/ez/keymaps/pydemia/keymap.c **** LCTL(KC_ENT),     KC_N,       KC_M,       KC_COMM,      KC_DOT,           KC_SLSH,          KC_RSFT
 739:keyboards/ergodox/ez/keymaps/pydemia/keymap.c ****                   KC_RALT,    KC_RCTL,    KC_LBRC,      KC_RBRC,          M(16),//KC_FN3,
 740:keyboards/ergodox/ez/keymaps/pydemia/keymap.c **** KC_LEFT,          KC_RGHT, 
 741:keyboards/ergodox/ez/keymaps/pydemia/keymap.c **** KC_UP,
 742:keyboards/ergodox/ez/keymaps/pydemia/keymap.c **** KC_DOWN,          KC_DELT,    KC_ENT
 743:keyboards/ergodox/ez/keymaps/pydemia/keymap.c **** ),
 744:keyboards/ergodox/ez/keymaps/pydemia/keymap.c **** 
 745:keyboards/ergodox/ez/keymaps/pydemia/keymap.c **** /* Keymap 1: Numpad Layer
 746:keyboards/ergodox/ez/keymaps/pydemia/keymap.c ****  *
 747:keyboards/ergodox/ez/keymaps/pydemia/keymap.c ****  * 
 748:keyboards/ergodox/ez/keymaps/pydemia/keymap.c ****  *   Ver                       #%%                             
 749:keyboards/ergodox/ez/keymaps/pydemia/keymap.c ****  * 
 750:keyboards/ergodox/ez/keymaps/pydemia/keymap.c ****  *             DTTM  Dfm   (    )   <-              7    8    9
 751:keyboards/ergodox/ez/keymaps/pydemia/keymap.c ****  * 
 752:keyboards/ergodox/ez/keymaps/pydemia/keymap.c ****  *              DAT  NOW   [    ]       
 753:keyboards/ergodox/ez/keymaps/pydemia/keymap.c ****  * 
 754:keyboards/ergodox/ez/keymaps/pydemia/keymap.c ****  *         PIP  TIM        {    }                   1    2    3
 755:keyboards/ergodox/ez/keymaps/pydemia/keymap.c ****  * 
 756:keyboards/ergodox/ez/keymaps/pydemia/keymap.c ****  *                                                           0    .   Lf
 757:keyboards/ergodox/ez/keymaps/pydemia/keymap.c ****  *    
 758:keyboards/ergodox/ez/keymaps/pydemia/keymap.c ****  *                                    Lft  Rgt   CLf  CRt 
 759:keyboards/ergodox/ez/keymaps/pydemia/keymap.c ****  *                              
 760:keyboards/ergodox/ez/keymaps/pydemia/keymap.c ****  *                                        SHm   PUp           
 761:keyboards/ergodox/ez/keymaps/pydemia/keymap.c ****  *                              Ent  Bsp   Del  
 762:keyboards/ergodox/ez/keymaps/pydemia/keymap.c ****  *                                        SDn   PDn           
 763:keyboards/ergodox/ez/keymaps/pydemia/keymap.c ****  *                              
 764:keyboards/ergodox/ez/keymaps/pydemia/keymap.c ****  */
 765:keyboards/ergodox/ez/keymaps/pydemia/keymap.c **** // SYMBOLS M(0) = Version
 766:keyboards/ergodox/ez/keymaps/pydemia/keymap.c **** [NPAD] = KEYMAP(
 767:keyboards/ergodox/ez/keymaps/pydemia/keymap.c **** // left hand
 768:keyboards/ergodox/ez/keymaps/pydemia/keymap.c **** QMK_VER_KEY,   KC_TRNS,    KC_TRNS,     KC_TRNS,    R_FOLDING_KEY,   SPYD_CELL_KEY,   KC_TRNS,
 769:keyboards/ergodox/ez/keymaps/pydemia/keymap.c **** KC_TRNS,       KC_TRNS,    DTTM_STR_KEY,     PY_DTFM_KEY,     KC_LPRN,  KC_RPRN,  ASSIGN_R_KEY,//KC
 770:keyboards/ergodox/ez/keymaps/pydemia/keymap.c **** KC_TRNS,  KC_TRNS,    DT_STR_KEY,     DTTM_STR_KEY,    KC_LBRC,  KC_RBRC,
 771:keyboards/ergodox/ez/keymaps/pydemia/keymap.c **** KC_TRNS,       PIP_STR_KEY,  TM_STR_KEY,     KC_TRNS,  KC_LCBR,  KC_RCBR,  KC_TRNS,
 772:keyboards/ergodox/ez/keymaps/pydemia/keymap.c **** KC_TRNS, KC_TRNS,  KC_TRNS,  KC_TRNS,  KC_TRNS,
 773:keyboards/ergodox/ez/keymaps/pydemia/keymap.c ****                                                 KC_LEFT,  KC_RGHT,
 774:keyboards/ergodox/ez/keymaps/pydemia/keymap.c ****                                                           LSFT(KC_HOME),
 775:keyboards/ergodox/ez/keymaps/pydemia/keymap.c ****                                        KC_ENT,  KC_BSPC,  LSFT(KC_END),
 776:keyboards/ergodox/ez/keymaps/pydemia/keymap.c **** 
 777:keyboards/ergodox/ez/keymaps/pydemia/keymap.c **** // right hand
 778:keyboards/ergodox/ez/keymaps/pydemia/keymap.c **** KC_TRNS,   KC_TRNS,    KC_TRNS,        KC_TRNS,   KC_TRNS,   KC_TRNS,   KC_TRNS,
 779:keyboards/ergodox/ez/keymaps/pydemia/keymap.c **** KC_TILD, KC_7,    KC_8,    KC_9,    KC_PLUS, KC_MINUS,KC_TRNS, 
 780:keyboards/ergodox/ez/keymaps/pydemia/keymap.c ****         KC_4,    KC_5,    KC_6,    KC_ASTR, KC_SLSH, KC_TRNS,
 781:keyboards/ergodox/ez/keymaps/pydemia/keymap.c **** KC_TRNS, KC_1,    KC_2,    KC_3,    KC_COMM, KC_UP,   KC_TRNS,
 782:keyboards/ergodox/ez/keymaps/pydemia/keymap.c ****         KC_0,    KC_DOT,  KC_LEFT, KC_DOWN, KC_RGHT,
 783:keyboards/ergodox/ez/keymaps/pydemia/keymap.c **** LCTL(KC_LEFT),     LCTL(KC_RGHT),
 784:keyboards/ergodox/ez/keymaps/pydemia/keymap.c **** KC_PGUP,
 785:keyboards/ergodox/ez/keymaps/pydemia/keymap.c **** KC_PGDN,     KC_DELT,  KC_SPC
 786:keyboards/ergodox/ez/keymaps/pydemia/keymap.c **** ),
 787:keyboards/ergodox/ez/keymaps/pydemia/keymap.c **** 
 788:keyboards/ergodox/ez/keymaps/pydemia/keymap.c **** /* Keymap 2: Magic Layer
 789:keyboards/ergodox/ez/keymaps/pydemia/keymap.c ****  *
 790:keyboards/ergodox/ez/keymaps/pydemia/keymap.c ****  * 
 791:keyboards/ergodox/ez/keymaps/pydemia/keymap.c ****  *  SIGN                                                       
 792:keyboards/ergodox/ez/keymaps/pydemia/keymap.c ****  * 
 793:keyboards/ergodox/ez/keymaps/pydemia/keymap.c ****  *          6    7    8    9    0   #%%             7    8    9
 794:keyboards/ergodox/ez/keymaps/pydemia/keymap.c ****  * 
 795:keyboards/ergodox/ez/keymaps/pydemia/keymap.c ****  *         DAT  TIM DTTM   [    ]       
 796:keyboards/ergodox/ez/keymaps/pydemia/keymap.c ****  * 
 797:keyboards/ergodox/ez/keymaps/pydemia/keymap.c ****  *         SQr  LQr  SQr   {    }                   1    2    3
 798:keyboards/ergodox/ez/keymaps/pydemia/keymap.c ****  * 
 799:keyboards/ergodox/ez/keymaps/pydemia/keymap.c ****  *                                                           0    .   Lf
 800:keyboards/ergodox/ez/keymaps/pydemia/keymap.c ****  *    
 801:keyboards/ergodox/ez/keymaps/pydemia/keymap.c ****  *                                    Lft  Rgt   CLf  CRt 
 802:keyboards/ergodox/ez/keymaps/pydemia/keymap.c ****  *                              
 803:keyboards/ergodox/ez/keymaps/pydemia/keymap.c ****  *                                        SHm   PUp           
 804:keyboards/ergodox/ez/keymaps/pydemia/keymap.c ****  *                              Ent  Bsp   Del  
 805:keyboards/ergodox/ez/keymaps/pydemia/keymap.c ****  *                                        SDn   PDn           
 806:keyboards/ergodox/ez/keymaps/pydemia/keymap.c ****  *                              
 807:keyboards/ergodox/ez/keymaps/pydemia/keymap.c ****  */
 808:keyboards/ergodox/ez/keymaps/pydemia/keymap.c **** // MAGI
 809:keyboards/ergodox/ez/keymaps/pydemia/keymap.c **** [MAGI] = KEYMAP(
 810:keyboards/ergodox/ez/keymaps/pydemia/keymap.c **** // left hand
 811:keyboards/ergodox/ez/keymaps/pydemia/keymap.c **** SIGN_KEY,   KC_TRNS,    KC_TRNS,     KC_TRNS,    KC_TRNS,   KC_TRNS,   KC_TRNS,
 812:keyboards/ergodox/ez/keymaps/pydemia/keymap.c **** KC_TRNS,     KC_6,   KC_7,               KC_8,       KC_9,    KC_0,    KC_TRNS,
 813:keyboards/ergodox/ez/keymaps/pydemia/keymap.c **** KC_TRNS,      DT_STR_KEY,   TM_STR_KEY,          DTTM_STR_KEY,    KC_TRNS, KC_TRNS,
 814:keyboards/ergodox/ez/keymaps/pydemia/keymap.c **** KC_TRNS,      SQL_NORMAL_KEY,   SQL_LEFT_KEY,     SQL_LEFTSUB_KEY,  KC_TRNS, KC_TRNS, KC_TRNS,
 815:keyboards/ergodox/ez/keymaps/pydemia/keymap.c **** KC_TRNS,KC_TRNS,KC_TRNS,KC_TRNS,KC_TRNS,
 816:keyboards/ergodox/ez/keymaps/pydemia/keymap.c ****                                	       LSFT(KC_HOME),     LSFT(KC_END),
 817:keyboards/ergodox/ez/keymaps/pydemia/keymap.c ****                                                           KC_PGUP,
 818:keyboards/ergodox/ez/keymaps/pydemia/keymap.c ****                                        KC_SPC,  KC_BSPC,  KC_PGDN,
 819:keyboards/ergodox/ez/keymaps/pydemia/keymap.c **** // right hand
 820:keyboards/ergodox/ez/keymaps/pydemia/keymap.c **** KC_TRNS,   KC_TRNS,         KC_TRNS,        KC_TRNS,   KC_TRNS,   KC_TRNS,   KC_TRNS,
 821:keyboards/ergodox/ez/keymaps/pydemia/keymap.c **** KC_TRNS, KC_TRNS,       KC_TRNS,      KC_TRNS,  KC_TRNS,  KC_TRNS,  KC_TRNS,
 822:keyboards/ergodox/ez/keymaps/pydemia/keymap.c ****         KC_TRNS,       KC_TRNS,      KC_TRNS,  KC_TRNS,  KC_TRNS,  KC_TRNS,
 823:keyboards/ergodox/ez/keymaps/pydemia/keymap.c **** KC_TRNS, KC_TRNS,       KC_TRNS,      KC_TRNS,  KC_TRNS,  KC_TRNS,  KC_TRNS,
 824:keyboards/ergodox/ez/keymaps/pydemia/keymap.c ****                        KC_TRNS,      KC_TRNS,  KC_COMM,  KC_TRNS,  KC_TRNS,
 825:keyboards/ergodox/ez/keymaps/pydemia/keymap.c **** KC_LEFT,     KC_RGHT,
 826:keyboards/ergodox/ez/keymaps/pydemia/keymap.c **** KC_UP,
 827:keyboards/ergodox/ez/keymaps/pydemia/keymap.c **** KC_DOWN,     KC_DELT,  KC_ENT
 828:keyboards/ergodox/ez/keymaps/pydemia/keymap.c **** ),
 829:keyboards/ergodox/ez/keymaps/pydemia/keymap.c **** 
 830:keyboards/ergodox/ez/keymaps/pydemia/keymap.c **** /* Keymap 3: Action Layer
 831:keyboards/ergodox/ez/keymaps/pydemia/keymap.c ****  *
 832:keyboards/ergodox/ez/keymaps/pydemia/keymap.c ****  * 
 833:keyboards/ergodox/ez/keymaps/pydemia/keymap.c ****  *   Esc    1    2    3    4    5  CtFn5       6    7    8    9
 834:keyboards/ergodox/ez/keymaps/pydemia/keymap.c ****  * 
 835:keyboards/ergodox/ez/keymaps/pydemia/keymap.c ****  *   Tab    Q    W    E    R    T    <-       Ctl   Y    U    I
 836:keyboards/ergodox/ez/keymaps/pydemia/keymap.c ****  * 
 837:keyboards/ergodox/ez/keymaps/pydemia/keymap.c ****  *    ~     A    S    D    F    G       
 838:keyboards/ergodox/ez/keymaps/pydemia/keymap.c ****  * 
 839:keyboards/ergodox/ez/keymaps/pydemia/keymap.c ****  *  LSHFT   Z    X    C    V    B   Npd       Fn5   N    M    ,
 840:keyboards/ergodox/ez/keymaps/pydemia/keymap.c ****  * 
 841:keyboards/ergodox/ez/keymaps/pydemia/keymap.c ****  *    CTL  TgM Wn/Cd App  ALT                               RAt  RCl   [
 842:keyboards/ergodox/ez/keymaps/pydemia/keymap.c ****  *    
 843:keyboards/ergodox/ez/keymaps/pydemia/keymap.c ****  *                                    Pup  Pdn   Lft  Rgt 
 844:keyboards/ergodox/ez/keymaps/pydemia/keymap.c ****  *                              
 845:keyboards/ergodox/ez/keymaps/pydemia/keymap.c ****  *                                        Hom   Up            
 846:keyboards/ergodox/ez/keymaps/pydemia/keymap.c ****  *                              Spc  Bsp   Del  
 847:keyboards/ergodox/ez/keymaps/pydemia/keymap.c ****  *                                        End   Dwn           
 848:keyboards/ergodox/ez/keymaps/pydemia/keymap.c ****  *                              
 849:keyboards/ergodox/ez/keymaps/pydemia/keymap.c ****  */
 850:keyboards/ergodox/ez/keymaps/pydemia/keymap.c **** // ACTN
 851:keyboards/ergodox/ez/keymaps/pydemia/keymap.c **** [ACTN] = KEYMAP(  // layer 0 : default
 852:keyboards/ergodox/ez/keymaps/pydemia/keymap.c **** // left hand
 853:keyboards/ergodox/ez/keymaps/pydemia/keymap.c **** TD(0),   KC_1,          KC_2,    KC_3,         KC_4,    KC_5,  LCTL(KC_F5),         // TG(LKEY),
 854:keyboards/ergodox/ez/keymaps/pydemia/keymap.c **** KC_TAB,   KC_Q,          KC_W,    KC_E,         KC_R,    KC_T,  ASSIGN_R_KEY,
 855:keyboards/ergodox/ez/keymaps/pydemia/keymap.c **** KC_GRV,   KC_A,          KC_S,    KC_D,         KC_F,    KC_G,
 856:keyboards/ergodox/ez/keymaps/pydemia/keymap.c **** SFT_T(KC_CAPS),  KC_Z,          KC_X,    KC_C,         KC_V,    KC_B,  KC_FN1,
 857:keyboards/ergodox/ez/keymaps/pydemia/keymap.c **** CTL_T(KC_LCTL), KC_FN2/*LCTL(KC_LALT)*/, KC_LGUI, KC_APP,      ALT_T(KC_LALT),
 858:keyboards/ergodox/ez/keymaps/pydemia/keymap.c ****                                                 KC_PGUP, KC_PGDN,
 859:keyboards/ergodox/ez/keymaps/pydemia/keymap.c ****                                                          KC_HOME,
 860:keyboards/ergodox/ez/keymaps/pydemia/keymap.c ****                                        KC_SPC,  KC_BSPC, KC_END,
 861:keyboards/ergodox/ez/keymaps/pydemia/keymap.c **** // right hand
 862:keyboards/ergodox/ez/keymaps/pydemia/keymap.c **** KC_6,                KC_7,           KC_8,     KC_9,                 KC_0,                 KC_MINUS
 863:keyboards/ergodox/ez/keymaps/pydemia/keymap.c **** LCTL(KC_ENT),        KC_Y,           KC_U,     KC_I,                 KC_O,                 KC_P,   
 864:keyboards/ergodox/ez/keymaps/pydemia/keymap.c ****                      KC_H,           KC_J,     KC_K,                 KC_L,                 KC_SCLN,
 865:keyboards/ergodox/ez/keymaps/pydemia/keymap.c **** LCTL(KC_F5),         KC_N,           KC_M,     KC_COMM,              KC_DOT,               KC_SLSH,
 866:keyboards/ergodox/ez/keymaps/pydemia/keymap.c ****                      KC_RALT,        KC_RCTL,  KC_LBRC,              KC_RBRC,              KC_FN3,
 867:keyboards/ergodox/ez/keymaps/pydemia/keymap.c **** KC_LEFT,     KC_RGHT, 
 868:keyboards/ergodox/ez/keymaps/pydemia/keymap.c **** KC_UP,
 869:keyboards/ergodox/ez/keymaps/pydemia/keymap.c **** KC_DOWN,     KC_DELT,  KC_ENT
 870:keyboards/ergodox/ez/keymaps/pydemia/keymap.c **** ),
 871:keyboards/ergodox/ez/keymaps/pydemia/keymap.c **** /* Keymap 3: Linux Key layer
 872:keyboards/ergodox/ez/keymaps/pydemia/keymap.c ****  *
 873:keyboards/ergodox/ez/keymaps/pydemia/keymap.c ****  * ,--------------------------------------------------.           ,--------------------------------
 874:keyboards/ergodox/ez/keymaps/pydemia/keymap.c ****  * |  Esc   |   1  |   2  |   3  |   4  |   5  | TgLk |           |   6  |   7  |   8  |   9  |   0
 875:keyboards/ergodox/ez/keymaps/pydemia/keymap.c ****  * |--------+------+------+------+------+-------------|           |------+------+------+------+----
 876:keyboards/ergodox/ez/keymaps/pydemia/keymap.c ****  * |  Tab   |   Q  |   W  |   E  |   R  |   T  |      |           |      |   Y  |   U  |   I  |   O
 877:keyboards/ergodox/ez/keymaps/pydemia/keymap.c ****  * |--------+------+------+------+------+------|  =   |           |  <-  |------+------+------+----
 878:keyboards/ergodox/ez/keymaps/pydemia/keymap.c ****  * |   ~    |   A  |   S  |   D  |   F  |   G  |------|           |------|   H  |   J  |   K  |   L
 879:keyboards/ergodox/ez/keymaps/pydemia/keymap.c ****  * |--------+------+------+------+------+------|      |           |CtrlF5|------+------+------+----
 880:keyboards/ergodox/ez/keymaps/pydemia/keymap.c ****  * | LShift |   Z  |   X  |   C  |   V  |   B  |      |           |      |   N  |   M  |   ,  |   .
 881:keyboards/ergodox/ez/keymaps/pydemia/keymap.c ****  * `--------+------+------+------+------+-------------'           `-------------+------+------+----
 882:keyboards/ergodox/ez/keymaps/pydemia/keymap.c ****  *   |LCtrl |CtlAlt|Wn/Cmd| App |  LAlt |                                       | RAlt | RCtl |  [ 
 883:keyboards/ergodox/ez/keymaps/pydemia/keymap.c ****  *   `----------------------------------'                                      `-------------------
 884:keyboards/ergodox/ez/keymaps/pydemia/keymap.c ****  *                                        ,-------------.       ,-------------.
 885:keyboards/ergodox/ez/keymaps/pydemia/keymap.c ****  *                                        | Home | End  |       | CtLf | CtRt |
 886:keyboards/ergodox/ez/keymaps/pydemia/keymap.c ****  *                                 ,------|------|------|       |------+--------+------.
 887:keyboards/ergodox/ez/keymaps/pydemia/keymap.c ****  *                                 |      |      | PgUp |       |  Up  |        |      |
 888:keyboards/ergodox/ez/keymaps/pydemia/keymap.c ****  *                                 | Space|Backsp|------|       |------|  Del   |Enter |
 889:keyboards/ergodox/ez/keymaps/pydemia/keymap.c ****  *                                 |      |ace   | PgDn |       | Down |        |      |
 890:keyboards/ergodox/ez/keymaps/pydemia/keymap.c ****  *                                 `--------------------'       `----------------------'
 891:keyboards/ergodox/ez/keymaps/pydemia/keymap.c ****  */
 892:keyboards/ergodox/ez/keymaps/pydemia/keymap.c **** // If it accepts an argument (i.e, is a function), it doesn't need KC_.
 893:keyboards/ergodox/ez/keymaps/pydemia/keymap.c **** // Otherwise, it needs KC_*
 894:keyboards/ergodox/ez/keymaps/pydemia/keymap.c **** 
 895:keyboards/ergodox/ez/keymaps/pydemia/keymap.c **** //Hyper: ALL_T(KC_NO)
 896:keyboards/ergodox/ez/keymaps/pydemia/keymap.c **** //Meh: MEH_T(KC_NO)
 897:keyboards/ergodox/ez/keymaps/pydemia/keymap.c **** [LKEY] = KEYMAP(  // layer 0 : default
 898:keyboards/ergodox/ez/keymaps/pydemia/keymap.c **** // left hand
 899:keyboards/ergodox/ez/keymaps/pydemia/keymap.c **** KC_ESC,   KC_1,          KC_2,    KC_3,         KC_4,    KC_5,  TG(LKEY),
 900:keyboards/ergodox/ez/keymaps/pydemia/keymap.c **** KC_TAB,   KC_Q,          KC_W,    KC_E,         KC_R,    KC_T,  KC_EQUAL,
 901:keyboards/ergodox/ez/keymaps/pydemia/keymap.c **** KC_GRV,   KC_A,          KC_S,    KC_D,         KC_F,    KC_G,
 902:keyboards/ergodox/ez/keymaps/pydemia/keymap.c **** KC_LSFT,  KC_Z,          KC_X,    KC_C,         KC_V,    KC_B,  LT(NPAD, TG(NPAD)),
 903:keyboards/ergodox/ez/keymaps/pydemia/keymap.c **** KC_LCTRL, LCTL(KC_LALT), KC_LGUI, KC_APP,      KC_LALT,
 904:keyboards/ergodox/ez/keymaps/pydemia/keymap.c ****                                			KC_HOME, KC_END,
 905:keyboards/ergodox/ez/keymaps/pydemia/keymap.c ****                                                          KC_PGUP,
 906:keyboards/ergodox/ez/keymaps/pydemia/keymap.c ****                                        KC_SPC,  KC_DELT, KC_PGDN,
 907:keyboards/ergodox/ez/keymaps/pydemia/keymap.c **** // right hand
 908:keyboards/ergodox/ez/keymaps/pydemia/keymap.c **** KC_6,                KC_7,           KC_8,     KC_9,                 KC_0,                 KC_MINUS
 909:keyboards/ergodox/ez/keymaps/pydemia/keymap.c **** ASSIGN_R_KEY,            KC_Y,           KC_U,     KC_I,                 KC_O,                 KC_P
 910:keyboards/ergodox/ez/keymaps/pydemia/keymap.c ****                      KC_H,           KC_J,     KC_K,                 KC_L,                 KC_SCLN,
 911:keyboards/ergodox/ez/keymaps/pydemia/keymap.c **** LCTL(KC_F5),         KC_N,           KC_M,     KC_COMM,              KC_DOT,               KC_SLSH,
 912:keyboards/ergodox/ez/keymaps/pydemia/keymap.c ****                      KC_RALT,        LSFT(KC_SPC),  KC_LBRC,              KC_RBRC,              KC_
 913:keyboards/ergodox/ez/keymaps/pydemia/keymap.c **** KC_HOME,     KC_END, 
 914:keyboards/ergodox/ez/keymaps/pydemia/keymap.c **** KC_PGUP,
 915:keyboards/ergodox/ez/keymaps/pydemia/keymap.c **** KC_PGDN,     KC_DELT,  KC_ENT
 916:keyboards/ergodox/ez/keymaps/pydemia/keymap.c **** ),
 917:keyboards/ergodox/ez/keymaps/pydemia/keymap.c **** /* Keymap 4: PPT layer
 918:keyboards/ergodox/ez/keymaps/pydemia/keymap.c ****  *
 919:keyboards/ergodox/ez/keymaps/pydemia/keymap.c ****  * ,--------------------------------------------------.           ,--------------------------------
 920:keyboards/ergodox/ez/keymaps/pydemia/keymap.c ****  * |  Esc   |   1  |   2  |   3  |   4  |   5  | TgLk |           |   6  |   7  |   8  |   9  |   0
 921:keyboards/ergodox/ez/keymaps/pydemia/keymap.c ****  * |--------+------+------+------+------+-------------|           |------+------+------+------+----
 922:keyboards/ergodox/ez/keymaps/pydemia/keymap.c ****  * |  Tab   |   Q  |   W  |   E  |   R  |   T  |      |           |      |   Y  |   U  |   I  |   O
 923:keyboards/ergodox/ez/keymaps/pydemia/keymap.c ****  * |--------+------+------+------+------+------|  =   |           |  <-  |------+------+------+----
 924:keyboards/ergodox/ez/keymaps/pydemia/keymap.c ****  * |   ~    |   A  |   S  |   D  |   F  |   G  |------|           |------|   H  |   J  |   K  |   L
 925:keyboards/ergodox/ez/keymaps/pydemia/keymap.c ****  * |--------+------+------+------+------+------|      |           |CtrlF5|------+------+------+----
 926:keyboards/ergodox/ez/keymaps/pydemia/keymap.c ****  * | LShift |   Z  |   X  |   C  |   V  |   B  |      |           |      |   N  |   M  |   ,  |   .
 927:keyboards/ergodox/ez/keymaps/pydemia/keymap.c ****  * `--------+------+------+------+------+-------------'           `-------------+------+------+----
 928:keyboards/ergodox/ez/keymaps/pydemia/keymap.c ****  *   |LCtrl |CtlAlt|Wn/Cmd| App |  LAlt |                                       | RAlt | RCtl |  [ 
 929:keyboards/ergodox/ez/keymaps/pydemia/keymap.c ****  *   `----------------------------------'                                      `-------------------
 930:keyboards/ergodox/ez/keymaps/pydemia/keymap.c ****  *                                        ,-------------.       ,-------------.
 931:keyboards/ergodox/ez/keymaps/pydemia/keymap.c ****  *                                        | Home | End  |       | Left | Right|
 932:keyboards/ergodox/ez/keymaps/pydemia/keymap.c ****  *                                 ,------|------|------|       |------+--------+------.
 933:keyboards/ergodox/ez/keymaps/pydemia/keymap.c ****  *                                 |      |      | PgUp |       |  Up  |        |      |
 934:keyboards/ergodox/ez/keymaps/pydemia/keymap.c ****  *                                 | Space|Backsp|------|       |------|  Del   |Enter |
 935:keyboards/ergodox/ez/keymaps/pydemia/keymap.c ****  *                                 |      |ace   | PgDn |       | Down |        |      |
 936:keyboards/ergodox/ez/keymaps/pydemia/keymap.c ****  *                                 `--------------------'       `----------------------'
 937:keyboards/ergodox/ez/keymaps/pydemia/keymap.c ****  */
 938:keyboards/ergodox/ez/keymaps/pydemia/keymap.c **** // If it accepts an argument (i.e, is a function), it doesn't need KC_.
 939:keyboards/ergodox/ez/keymaps/pydemia/keymap.c **** // Otherwise, it needs KC_*
 940:keyboards/ergodox/ez/keymaps/pydemia/keymap.c **** 
 941:keyboards/ergodox/ez/keymaps/pydemia/keymap.c **** //Hyper: ALL_T(KC_NO)
 942:keyboards/ergodox/ez/keymaps/pydemia/keymap.c **** //Meh: MEH_T(KC_NO)
 943:keyboards/ergodox/ez/keymaps/pydemia/keymap.c **** [PPTK] = KEYMAP(  // layer 0 : default
 944:keyboards/ergodox/ez/keymaps/pydemia/keymap.c **** // left hand
 945:keyboards/ergodox/ez/keymaps/pydemia/keymap.c **** KC_ESC,   KC_1,          KC_2,    KC_3,         KC_4,    KC_5,  TG(LKEY),
 946:keyboards/ergodox/ez/keymaps/pydemia/keymap.c **** KC_TAB,   KC_Q,          KC_W,    KC_E,         KC_R,    KC_T,  KC_EQUAL,
 947:keyboards/ergodox/ez/keymaps/pydemia/keymap.c **** KC_GRV,   KC_A,          KC_S,    KC_D,         KC_F,    KC_G,
 948:keyboards/ergodox/ez/keymaps/pydemia/keymap.c **** KC_LSFT,  KC_Z,          KC_X,    KC_C,         KC_V,    KC_B,  LT(NPAD, TG(NPAD)),
 949:keyboards/ergodox/ez/keymaps/pydemia/keymap.c **** KC_LCTRL, LCTL(KC_LALT), KC_LGUI, KC_APP,      KC_LALT,
 950:keyboards/ergodox/ez/keymaps/pydemia/keymap.c ****                                                 KC_HOME, KC_END,
 951:keyboards/ergodox/ez/keymaps/pydemia/keymap.c ****                                                          KC_PGUP,
 952:keyboards/ergodox/ez/keymaps/pydemia/keymap.c ****                                        KC_SPC,  KC_BSPC, KC_PGDN,
 953:keyboards/ergodox/ez/keymaps/pydemia/keymap.c **** // right hand
 954:keyboards/ergodox/ez/keymaps/pydemia/keymap.c **** KC_6,                KC_7,           KC_8,     KC_9,                 KC_0,                 KC_MINUS
 955:keyboards/ergodox/ez/keymaps/pydemia/keymap.c **** ASSIGN_R_KEY,            KC_Y,           KC_U,     KC_I,                 KC_O,                 KC_P
 956:keyboards/ergodox/ez/keymaps/pydemia/keymap.c ****                      KC_H,           KC_J,     KC_K,                 KC_L,                 KC_SCLN,
 957:keyboards/ergodox/ez/keymaps/pydemia/keymap.c **** LCTL(KC_F5),         KC_N,           KC_M,     KC_COMM,              KC_DOT,               KC_SLSH,
 958:keyboards/ergodox/ez/keymaps/pydemia/keymap.c ****                      KC_RALT,        LSFT(KC_SPC),  KC_LBRC,              KC_RBRC,              KC_
 959:keyboards/ergodox/ez/keymaps/pydemia/keymap.c **** KC_LEFT,     KC_RGHT, 
 960:keyboards/ergodox/ez/keymaps/pydemia/keymap.c **** KC_UP,
 961:keyboards/ergodox/ez/keymaps/pydemia/keymap.c **** KC_DOWN,     KC_DELT,  KC_ENT
 962:keyboards/ergodox/ez/keymaps/pydemia/keymap.c **** ),
 963:keyboards/ergodox/ez/keymaps/pydemia/keymap.c **** };
 964:keyboards/ergodox/ez/keymaps/pydemia/keymap.c **** 
 965:keyboards/ergodox/ez/keymaps/pydemia/keymap.c **** /* Layer _ : ---
 966:keyboards/ergodox/ez/keymaps/pydemia/keymap.c ****  * 
 967:keyboards/ergodox/ez/keymaps/pydemia/keymap.c ****  *                                                                   
 968:keyboards/ergodox/ez/keymaps/pydemia/keymap.c ****  * 
 969:keyboards/ergodox/ez/keymaps/pydemia/keymap.c ****  *            A        A      A      A      A                        
 970:keyboards/ergodox/ez/keymaps/pydemia/keymap.c ****  * 
 971:keyboards/ergodox/ez/keymaps/pydemia/keymap.c ****  *            A        A      A      A      A       
 972:keyboards/ergodox/ez/keymaps/pydemia/keymap.c ****  * 
 973:keyboards/ergodox/ez/keymaps/pydemia/keymap.c ****  *            A        A      A      A      A                        
 974:keyboards/ergodox/ez/keymaps/pydemia/keymap.c ****  * 
 975:keyboards/ergodox/ez/keymaps/pydemia/keymap.c ****  *                 (MO1)         (MO4)                                       (
 976:keyboards/ergodox/ez/keymaps/pydemia/keymap.c ****  *   
 977:keyboards/ergodox/ez/keymaps/pydemia/keymap.c ****  *                                              Ms     Ms        Ms    Ms   
 978:keyboards/ergodox/ez/keymaps/pydemia/keymap.c ****  *                                     
 979:keyboards/ergodox/ez/keymaps/pydemia/keymap.c ****  *                                                      MLC   MRC             
 980:keyboards/ergodox/ez/keymaps/pydemia/keymap.c ****  *                                                    
 981:keyboards/ergodox/ez/keymaps/pydemia/keymap.c ****  *                                                                            
 982:keyboards/ergodox/ez/keymaps/pydemia/keymap.c ****  *                                     
 983:keyboards/ergodox/ez/keymaps/pydemia/keymap.c ****  */
 984:keyboards/ergodox/ez/keymaps/pydemia/keymap.c **** 
 985:keyboards/ergodox/ez/keymaps/pydemia/keymap.c **** /* Layer _ : ---
 986:keyboards/ergodox/ez/keymaps/pydemia/keymap.c ****  * 
 987:keyboards/ergodox/ez/keymaps/pydemia/keymap.c ****  *   TAB    1    2    3    4    5    `             6    7    
 988:keyboards/ergodox/ez/keymaps/pydemia/keymap.c ****  * 
 989:keyboards/ergodox/ez/keymaps/pydemia/keymap.c ****  *    Y     X    V    L    C    W   HOM       END   K    H    G
 990:keyboards/ergodox/ez/keymaps/pydemia/keymap.c ****  * 
 991:keyboards/ergodox/ez/keymaps/pydemia/keymap.c ****  *  Mod3    U    I    A    E    O       
 992:keyboards/ergodox/ez/keymaps/pydemia/keymap.c ****  * 
 993:keyboards/ergodox/ez/keymaps/pydemia/keymap.c ****  *  LSHFT               P    Z                   B    M  
 994:keyboards/ergodox/ez/keymaps/pydemia/keymap.c ****  * 
 995:keyboards/ergodox/ez/keymaps/pydemia/keymap.c ****  *    CTL  ALT  MO1  Win  Mod4                              Mod4 Win  MO
 996:keyboards/ergodox/ez/keymaps/pydemia/keymap.c ****  *    
 997:keyboards/ergodox/ez/keymaps/pydemia/keymap.c ****  *                                     A    A     A    A  
 998:keyboards/ergodox/ez/keymaps/pydemia/keymap.c ****  *                              
 999:keyboards/ergodox/ez/keymaps/pydemia/keymap.c ****  *                                                          
1000:keyboards/ergodox/ez/keymaps/pydemia/keymap.c ****  *                              SPC  RTN   RTN  
1001:keyboards/ergodox/ez/keymaps/pydemia/keymap.c ****  *                                        HYP   MEH           
1002:keyboards/ergodox/ez/keymaps/pydemia/keymap.c ****  *                              
1003:keyboards/ergodox/ez/keymaps/pydemia/keymap.c ****  */
1004:keyboards/ergodox/ez/keymaps/pydemia/keymap.c **** 
1005:keyboards/ergodox/ez/keymaps/pydemia/keymap.c **** 
1006:keyboards/ergodox/ez/keymaps/pydemia/keymap.c **** // --- CUSTOM FORMAT STRING ---
1007:keyboards/ergodox/ez/keymaps/pydemia/keymap.c **** #define QUOTE(...) #__VA_ARGS__
1008:keyboards/ergodox/ez/keymaps/pydemia/keymap.c **** const char *sql_query = QUOTE(
1009:keyboards/ergodox/ez/keymaps/pydemia/keymap.c ****     SELECT word_id
1010:keyboards/ergodox/ez/keymaps/pydemia/keymap.c ****     FROM table1, table2
1011:keyboards/ergodox/ez/keymaps/pydemia/keymap.c ****     WHERE table2.word_id = table1.word_id
1012:keyboards/ergodox/ez/keymaps/pydemia/keymap.c ****     ORDER BY table1.word ASC
1013:keyboards/ergodox/ez/keymaps/pydemia/keymap.c **** );
1014:keyboards/ergodox/ez/keymaps/pydemia/keymap.c **** 
1015:keyboards/ergodox/ez/keymaps/pydemia/keymap.c **** // DATE to INT Function
1016:keyboards/ergodox/ez/keymaps/pydemia/keymap.c **** char pre_macro_date_to_int(const char *str_pre_macro_date)
1017:keyboards/ergodox/ez/keymaps/pydemia/keymap.c **** {
 738               		.loc 1 1017 0
 739               		.cfi_startproc
 740               	.LVL91:
 741 0000 EF92      		push r14
 742               	.LCFI0:
 743               		.cfi_def_cfa_offset 3
 744               		.cfi_offset 14, -2
 745 0002 FF92      		push r15
 746               	.LCFI1:
 747               		.cfi_def_cfa_offset 4
 748               		.cfi_offset 15, -3
 749 0004 0F93      		push r16
 750               	.LCFI2:
 751               		.cfi_def_cfa_offset 5
 752               		.cfi_offset 16, -4
 753 0006 1F93      		push r17
 754               	.LCFI3:
 755               		.cfi_def_cfa_offset 6
 756               		.cfi_offset 17, -5
 757 0008 CF93      		push r28
 758               	.LCFI4:
 759               		.cfi_def_cfa_offset 7
 760               		.cfi_offset 28, -6
 761 000a DF93      		push r29
 762               	.LCFI5:
 763               		.cfi_def_cfa_offset 8
 764               		.cfi_offset 29, -7
 765 000c CDB7      		in r28,__SP_L__
 766 000e DEB7      		in r29,__SP_H__
 767               	.LCFI6:
 768               		.cfi_def_cfa_register 28
 769 0010 AE97      		sbiw r28,46
 770               	.LCFI7:
 771               		.cfi_def_cfa_offset 54
 772 0012 0FB6      		in __tmp_reg__,__SREG__
 773 0014 F894      		cli
 774 0016 DEBF      		out __SP_H__,r29
 775 0018 0FBE      		out __SREG__,__tmp_reg__
 776 001a CDBF      		out __SP_L__,r28
 777               	/* prologue: function */
 778               	/* frame size = 46 */
 779               	/* stack size = 52 */
 780               	.L__stack_usage = 52
 781               	.LVL92:
1018:keyboards/ergodox/ez/keymaps/pydemia/keymap.c ****     const int comfile_date_len = 12;
1019:keyboards/ergodox/ez/keymaps/pydemia/keymap.c ****  
1020:keyboards/ergodox/ez/keymaps/pydemia/keymap.c ****     // error check
1021:keyboards/ergodox/ez/keymaps/pydemia/keymap.c ****     if (NULL == str_pre_macro_date || comfile_date_len - 1 != strlen(str_pre_macro_date))
 782               		.loc 1 1021 0
 783 001c 0097      		sbiw r24,0
 784 001e 01F4      		brne .+2
 785 0020 00C0      		rjmp .L72
 786               		.loc 1 1021 0 is_stmt 0 discriminator 1
 787 0022 FC01      		movw r30,r24
 788               		0:
 789 0024 0190      		ld __tmp_reg__,Z+
 790 0026 0020      		tst __tmp_reg__
 791 0028 01F4      		brne 0b
 792 002a 9F01      		movw r18,r30
 793 002c 2C50      		subi r18,12
 794 002e 3109      		sbc r19,__zero_reg__
 795 0030 2817      		cp r18,r24
 796 0032 3907      		cpc r19,r25
 797 0034 01F0      		breq .+2
 798 0036 00C0      		rjmp .L72
1022:keyboards/ergodox/ez/keymaps/pydemia/keymap.c ****         return 0;
1023:keyboards/ergodox/ez/keymaps/pydemia/keymap.c ****  
1024:keyboards/ergodox/ez/keymaps/pydemia/keymap.c ****     const char month_names[] = "JanFebMarAprMayJunJulAugSepOctNovDec";
 799               		.loc 1 1024 0 is_stmt 1
 800 0038 25E2      		ldi r18,lo8(37)
 801 003a E0E0      		ldi r30,lo8(.LC0)
 802 003c F0E0      		ldi r31,hi8(.LC0)
 803 003e AE01      		movw r20,r28
 804 0040 4F5F      		subi r20,-1
 805 0042 5F4F      		sbci r21,-1
 806 0044 7A01      		movw r14,r20
 807 0046 DA01      		movw r26,r20
 808               		0:
 809 0048 0190      		ld r0,Z+
 810 004a 0D92      		st X+,r0
 811 004c 2A95      		dec r18
 812 004e 01F4      		brne 0b
1025:keyboards/ergodox/ez/keymaps/pydemia/keymap.c ****  
1026:keyboards/ergodox/ez/keymaps/pydemia/keymap.c ****     char s_month[5] = {0,};
 813               		.loc 1 1026 0
 814 0050 8E01      		movw r16,r28
 815 0052 0A5D      		subi r16,-38
 816 0054 1F4F      		sbci r17,-1
 817 0056 25E0      		ldi r18,lo8(5)
 818 0058 F801      		movw r30,r16
 819               		0:
 820 005a 1192      		st Z+,__zero_reg__
 821 005c 2A95      		dec r18
 822 005e 01F4      		brne 0b
1027:keyboards/ergodox/ez/keymaps/pydemia/keymap.c ****     int iyear = 0, iday = 0;
 823               		.loc 1 1027 0
 824 0060 1EA6      		std Y+46,__zero_reg__
 825 0062 1DA6      		std Y+45,__zero_reg__
 826 0064 1CA6      		std Y+44,__zero_reg__
 827 0066 1BA6      		std Y+43,__zero_reg__
1028:keyboards/ergodox/ez/keymaps/pydemia/keymap.c ****  
1029:keyboards/ergodox/ez/keymaps/pydemia/keymap.c ****     sscanf(str_pre_macro_date, "%s %d %d", s_month, &iday, &iyear);
 828               		.loc 1 1029 0
 829 0068 9E01      		movw r18,r28
 830 006a 235D      		subi r18,-45
 831 006c 3F4F      		sbci r19,-1
 832 006e 3F93      		push r19
 833 0070 2F93      		push r18
 834 0072 2250      		subi r18,2
 835 0074 3109      		sbc r19,__zero_reg__
 836 0076 3F93      		push r19
 837 0078 2F93      		push r18
 838 007a 1F93      		push r17
 839 007c 0F93      		push r16
 840 007e 20E0      		ldi r18,lo8(.LC1)
 841 0080 30E0      		ldi r19,hi8(.LC1)
 842 0082 3F93      		push r19
 843 0084 2F93      		push r18
 844 0086 9F93      		push r25
 845 0088 8F93      		push r24
 846 008a 0E94 0000 		call sscanf
 847               	.LVL93:
1030:keyboards/ergodox/ez/keymaps/pydemia/keymap.c ****     int imonth = (strstr(month_names, s_month) - month_names) / 3 + 1;
 848               		.loc 1 1030 0
 849 008e B801      		movw r22,r16
 850 0090 C701      		movw r24,r14
 851 0092 0E94 0000 		call strstr
 852               	.LVL94:
1031:keyboards/ergodox/ez/keymaps/pydemia/keymap.c **** 
1032:keyboards/ergodox/ez/keymaps/pydemia/keymap.c ****     //snprintf(date_string, 100, "%d", date_int);
1033:keyboards/ergodox/ez/keymaps/pydemia/keymap.c ****     return 10000 * iyear + 100 * imonth + iday;
 853               		.loc 1 1033 0
 854 0096 3DA5      		ldd r19,Y+45
 855 0098 2BA5      		ldd r18,Y+43
 856 009a F0E1      		ldi r31,lo8(16)
 857 009c 3F9F      		mul r19,r31
 858 009e 200D      		add r18,r0
 859 00a0 1124      		clr __zero_reg__
1030:keyboards/ergodox/ez/keymaps/pydemia/keymap.c ****     int imonth = (strstr(month_names, s_month) - month_names) / 3 + 1;
 860               		.loc 1 1030 0
 861 00a2 8E19      		sub r24,r14
 862 00a4 9F09      		sbc r25,r15
 863               	.LVL95:
 864 00a6 63E0      		ldi r22,lo8(3)
 865 00a8 70E0      		ldi r23,0
 866 00aa 0E94 0000 		call __divmodhi4
 867               		.loc 1 1033 0
 868 00ae 822F      		mov r24,r18
 869 00b0 34E6      		ldi r19,lo8(100)
 870 00b2 639F      		mul r22,r19
 871 00b4 800D      		add r24,r0
 872 00b6 1124      		clr __zero_reg__
 873 00b8 8C59      		subi r24,lo8(-(100))
 874 00ba 0FB6      		in __tmp_reg__,__SREG__
 875 00bc F894      		cli
 876 00be DEBF      		out __SP_H__,r29
 877 00c0 0FBE      		out __SREG__,__tmp_reg__
 878 00c2 CDBF      		out __SP_L__,r28
 879 00c4 00C0      		rjmp .L70
 880               	.LVL96:
 881               	.L72:
1022:keyboards/ergodox/ez/keymaps/pydemia/keymap.c ****  
 882               		.loc 1 1022 0
 883 00c6 80E0      		ldi r24,0
 884               	.LVL97:
 885               	.L70:
 886               	/* epilogue start */
1034:keyboards/ergodox/ez/keymaps/pydemia/keymap.c **** };
 887               		.loc 1 1034 0
 888 00c8 AE96      		adiw r28,46
 889 00ca 0FB6      		in __tmp_reg__,__SREG__
 890 00cc F894      		cli
 891 00ce DEBF      		out __SP_H__,r29
 892 00d0 0FBE      		out __SREG__,__tmp_reg__
 893 00d2 CDBF      		out __SP_L__,r28
 894 00d4 DF91      		pop r29
 895 00d6 CF91      		pop r28
 896 00d8 1F91      		pop r17
 897 00da 0F91      		pop r16
 898 00dc FF90      		pop r15
 899 00de EF90      		pop r14
 900 00e0 0895      		ret
 901               		.cfi_endproc
 902               	.LFE137:
 904               		.section	.rodata.str1.1
 905               	.LC2:
 906 002e 2564 3A25 		.string	"%d:%d:%d"
 906      643A 2564 
 906      00
 907               		.section	.text.pre_macro_time_to_int,"ax",@progbits
 908               	.global	pre_macro_time_to_int
 910               	pre_macro_time_to_int:
 911               	.LFB138:
1035:keyboards/ergodox/ez/keymaps/pydemia/keymap.c **** 
1036:keyboards/ergodox/ez/keymaps/pydemia/keymap.c **** 
1037:keyboards/ergodox/ez/keymaps/pydemia/keymap.c **** // TIME to INT Functions
1038:keyboards/ergodox/ez/keymaps/pydemia/keymap.c **** int pre_macro_time_to_int(const char *str_pre_macro_time)
1039:keyboards/ergodox/ez/keymaps/pydemia/keymap.c **** {
 912               		.loc 1 1039 0
 913               		.cfi_startproc
 914               	.LVL98:
 915 0000 CF93      		push r28
 916               	.LCFI8:
 917               		.cfi_def_cfa_offset 3
 918               		.cfi_offset 28, -2
 919 0002 DF93      		push r29
 920               	.LCFI9:
 921               		.cfi_def_cfa_offset 4
 922               		.cfi_offset 29, -3
 923 0004 00D0      		rcall .
 924 0006 00D0      		rcall .
 925 0008 00D0      		rcall .
 926               	.LCFI10:
 927               		.cfi_def_cfa_offset 10
 928 000a CDB7      		in r28,__SP_L__
 929 000c DEB7      		in r29,__SP_H__
 930               	.LCFI11:
 931               		.cfi_def_cfa_register 28
 932               	/* prologue: function */
 933               	/* frame size = 6 */
 934               	/* stack size = 8 */
 935               	.L__stack_usage = 8
 936               	.LVL99:
1040:keyboards/ergodox/ez/keymaps/pydemia/keymap.c ****     const int comfile_time_len = 9;
1041:keyboards/ergodox/ez/keymaps/pydemia/keymap.c ****  
1042:keyboards/ergodox/ez/keymaps/pydemia/keymap.c ****     if (NULL == str_pre_macro_time || comfile_time_len -1 != strlen(str_pre_macro_time))
 937               		.loc 1 1042 0
 938 000e 0097      		sbiw r24,0
 939 0010 01F4      		brne .+2
 940 0012 00C0      		rjmp .L76
 941               		.loc 1 1042 0 is_stmt 0 discriminator 1
 942 0014 FC01      		movw r30,r24
 943               		0:
 944 0016 0190      		ld __tmp_reg__,Z+
 945 0018 0020      		tst __tmp_reg__
 946 001a 01F4      		brne 0b
 947 001c 9F01      		movw r18,r30
 948 001e 2950      		subi r18,9
 949 0020 3109      		sbc r19,__zero_reg__
 950 0022 2817      		cp r18,r24
 951 0024 3907      		cpc r19,r25
 952 0026 01F4      		brne .L76
1043:keyboards/ergodox/ez/keymaps/pydemia/keymap.c ****         return 0;
1044:keyboards/ergodox/ez/keymaps/pydemia/keymap.c ****  
1045:keyboards/ergodox/ez/keymaps/pydemia/keymap.c ****     int ihour = 0, iminute = 0, isec = 0;
 953               		.loc 1 1045 0 is_stmt 1
 954 0028 1E82      		std Y+6,__zero_reg__
 955 002a 1D82      		std Y+5,__zero_reg__
 956 002c 1C82      		std Y+4,__zero_reg__
 957 002e 1B82      		std Y+3,__zero_reg__
 958 0030 1A82      		std Y+2,__zero_reg__
 959 0032 1982      		std Y+1,__zero_reg__
1046:keyboards/ergodox/ez/keymaps/pydemia/keymap.c ****     sscanf(str_pre_macro_time, "%d:%d:%d", &ihour, &iminute, &isec);
 960               		.loc 1 1046 0
 961 0034 9E01      		movw r18,r28
 962 0036 2F5F      		subi r18,-1
 963 0038 3F4F      		sbci r19,-1
 964 003a 3F93      		push r19
 965 003c 2F93      		push r18
 966 003e 2E5F      		subi r18,-2
 967 0040 3F4F      		sbci r19,-1
 968 0042 3F93      		push r19
 969 0044 2F93      		push r18
 970 0046 2E5F      		subi r18,-2
 971 0048 3F4F      		sbci r19,-1
 972 004a 3F93      		push r19
 973 004c 2F93      		push r18
 974 004e 20E0      		ldi r18,lo8(.LC2)
 975 0050 30E0      		ldi r19,hi8(.LC2)
 976 0052 3F93      		push r19
 977 0054 2F93      		push r18
 978 0056 9F93      		push r25
 979 0058 8F93      		push r24
 980 005a 0E94 0000 		call sscanf
 981               	.LVL100:
1047:keyboards/ergodox/ez/keymaps/pydemia/keymap.c ****  
1048:keyboards/ergodox/ez/keymaps/pydemia/keymap.c ****     // 030511
1049:keyboards/ergodox/ez/keymaps/pydemia/keymap.c ****     return ihour * 10000 + iminute * 100 + isec;
 982               		.loc 1 1049 0
 983 005e 4D81      		ldd r20,Y+5
 984 0060 5E81      		ldd r21,Y+6
 985 0062 80E1      		ldi r24,lo8(16)
 986 0064 97E2      		ldi r25,lo8(39)
 987 0066 489F      		mul r20,r24
 988 0068 9001      		movw r18,r0
 989 006a 499F      		mul r20,r25
 990 006c 300D      		add r19,r0
 991 006e 589F      		mul r21,r24
 992 0070 300D      		add r19,r0
 993 0072 1124      		clr r1
 994 0074 4B81      		ldd r20,Y+3
 995 0076 5C81      		ldd r21,Y+4
 996 0078 64E6      		ldi r22,lo8(100)
 997 007a 649F      		mul r22,r20
 998 007c C001      		movw r24,r0
 999 007e 659F      		mul r22,r21
 1000 0080 900D      		add r25,r0
 1001 0082 1124      		clr __zero_reg__
 1002 0084 820F      		add r24,r18
 1003 0086 931F      		adc r25,r19
 1004 0088 2981      		ldd r18,Y+1
 1005 008a 3A81      		ldd r19,Y+2
 1006 008c 820F      		add r24,r18
 1007 008e 931F      		adc r25,r19
 1008 0090 0FB6      		in __tmp_reg__,__SREG__
 1009 0092 F894      		cli
 1010 0094 DEBF      		out __SP_H__,r29
 1011 0096 0FBE      		out __SREG__,__tmp_reg__
 1012 0098 CDBF      		out __SP_L__,r28
 1013 009a 00C0      		rjmp .L74
 1014               	.LVL101:
 1015               	.L76:
1043:keyboards/ergodox/ez/keymaps/pydemia/keymap.c ****  
 1016               		.loc 1 1043 0
 1017 009c 80E0      		ldi r24,0
 1018 009e 90E0      		ldi r25,0
 1019               	.LVL102:
 1020               	.L74:
 1021               	/* epilogue start */
1050:keyboards/ergodox/ez/keymaps/pydemia/keymap.c **** };
 1022               		.loc 1 1050 0
 1023 00a0 2696      		adiw r28,6
 1024 00a2 0FB6      		in __tmp_reg__,__SREG__
 1025 00a4 F894      		cli
 1026 00a6 DEBF      		out __SP_H__,r29
 1027 00a8 0FBE      		out __SREG__,__tmp_reg__
 1028 00aa CDBF      		out __SP_L__,r28
 1029 00ac DF91      		pop r29
 1030 00ae CF91      		pop r28
 1031 00b0 0895      		ret
 1032               		.cfi_endproc
 1033               	.LFE138:
 1035               		.section	.text.matrix_init_user,"ax",@progbits
 1036               	.global	matrix_init_user
 1038               	matrix_init_user:
 1039               	.LFB139:
1051:keyboards/ergodox/ez/keymaps/pydemia/keymap.c **** 
1052:keyboards/ergodox/ez/keymaps/pydemia/keymap.c **** 
1053:keyboards/ergodox/ez/keymaps/pydemia/keymap.c **** #define QUOTE(...) #__VA_ARGS__
1054:keyboards/ergodox/ez/keymaps/pydemia/keymap.c **** char *date_str = QUOTE(
1055:keyboards/ergodox/ez/keymaps/pydemia/keymap.c **** "a"
1056:keyboards/ergodox/ez/keymaps/pydemia/keymap.c **** //pre_macro_date_to_int(__DATE__)
1057:keyboards/ergodox/ez/keymaps/pydemia/keymap.c **** );
1058:keyboards/ergodox/ez/keymaps/pydemia/keymap.c **** 
1059:keyboards/ergodox/ez/keymaps/pydemia/keymap.c **** #define FDATE (char const[]){ __DATE__[7], __DATE__[8]}
1060:keyboards/ergodox/ez/keymaps/pydemia/keymap.c **** 
1061:keyboards/ergodox/ez/keymaps/pydemia/keymap.c **** 
1062:keyboards/ergodox/ez/keymaps/pydemia/keymap.c **** 
1063:keyboards/ergodox/ez/keymaps/pydemia/keymap.c **** 
1064:keyboards/ergodox/ez/keymaps/pydemia/keymap.c **** // Runs just one time when the keyboard initializes.
1065:keyboards/ergodox/ez/keymaps/pydemia/keymap.c **** void matrix_init_user(void) {
 1040               		.loc 1 1065 0
 1041               		.cfi_startproc
 1042               	/* prologue: function */
 1043               	/* frame size = 0 */
 1044               	/* stack size = 0 */
 1045               	.L__stack_usage = 0
 1046 0000 0895      		ret
 1047               		.cfi_endproc
 1048               	.LFE139:
 1050               		.section	.text.matrix_scan_user,"ax",@progbits
 1051               	.global	matrix_scan_user
 1053               	matrix_scan_user:
 1054               	.LFB140:
1066:keyboards/ergodox/ez/keymaps/pydemia/keymap.c **** 
1067:keyboards/ergodox/ez/keymaps/pydemia/keymap.c **** };
1068:keyboards/ergodox/ez/keymaps/pydemia/keymap.c **** 
1069:keyboards/ergodox/ez/keymaps/pydemia/keymap.c **** // Print Timestamp Function
1070:keyboards/ergodox/ez/keymaps/pydemia/keymap.c **** /*static macro_t *gettime(void) {
1071:keyboards/ergodox/ez/keymaps/pydemia/keymap.c ****     time_t t = time(NULL);
1072:keyboards/ergodox/ez/keymaps/pydemia/keymap.c ****     struct tm *tm = localtime(&t);
1073:keyboards/ergodox/ez/keymaps/pydemia/keymap.c ****     printf("%s\n", asctime(tm));
1074:keyboards/ergodox/ez/keymaps/pydemia/keymap.c ****     return MACRO_NONE; 
1075:keyboards/ergodox/ez/keymaps/pydemia/keymap.c **** }
1076:keyboards/ergodox/ez/keymaps/pydemia/keymap.c **** */
1077:keyboards/ergodox/ez/keymaps/pydemia/keymap.c **** // Runs constantly in the background, in a loop.
1078:keyboards/ergodox/ez/keymaps/pydemia/keymap.c **** void matrix_scan_user(void) {
 1055               		.loc 1 1078 0
 1056               		.cfi_startproc
 1057               	/* prologue: function */
 1058               	/* frame size = 0 */
 1059               	/* stack size = 0 */
 1060               	.L__stack_usage = 0
1079:keyboards/ergodox/ez/keymaps/pydemia/keymap.c **** 
1080:keyboards/ergodox/ez/keymaps/pydemia/keymap.c ****     uint8_t layer = biton32(layer_state);
 1061               		.loc 1 1080 0
 1062 0000 6091 0000 		lds r22,layer_state
 1063 0004 7091 0000 		lds r23,layer_state+1
 1064 0008 8091 0000 		lds r24,layer_state+2
 1065 000c 9091 0000 		lds r25,layer_state+3
 1066 0010 0E94 0000 		call biton32
 1067               	.LVL103:
 1068               	.LBB20:
 1069               	.LBB21:
 1070               		.file 2 "keyboards/ergodox/ez/ez.h"
   1:keyboards/ergodox/ez/ez.h **** #ifndef ERGODOX_EZ_H
   2:keyboards/ergodox/ez/ez.h **** #define ERGODOX_EZ_H
   3:keyboards/ergodox/ez/ez.h **** 
   4:keyboards/ergodox/ez/ez.h **** #include "quantum.h"
   5:keyboards/ergodox/ez/ez.h **** #include <stdint.h>
   6:keyboards/ergodox/ez/ez.h **** #include <stdbool.h>
   7:keyboards/ergodox/ez/ez.h **** #include "i2cmaster.h"
   8:keyboards/ergodox/ez/ez.h **** #include <util/delay.h>
   9:keyboards/ergodox/ez/ez.h **** 
  10:keyboards/ergodox/ez/ez.h **** #define CPU_PRESCALE(n) (CLKPR = 0x80, CLKPR = (n))
  11:keyboards/ergodox/ez/ez.h **** #define CPU_16MHz       0x00
  12:keyboards/ergodox/ez/ez.h **** 
  13:keyboards/ergodox/ez/ez.h **** // I2C aliases and register addresses (see "mcp23018.md")
  14:keyboards/ergodox/ez/ez.h **** #define I2C_ADDR        0b0100000
  15:keyboards/ergodox/ez/ez.h **** #define I2C_ADDR_WRITE  ( (I2C_ADDR<<1) | I2C_WRITE )
  16:keyboards/ergodox/ez/ez.h **** #define I2C_ADDR_READ   ( (I2C_ADDR<<1) | I2C_READ  )
  17:keyboards/ergodox/ez/ez.h **** #define IODIRA          0x00            // i/o direction register
  18:keyboards/ergodox/ez/ez.h **** #define IODIRB          0x01
  19:keyboards/ergodox/ez/ez.h **** #define GPPUA           0x0C            // GPIO pull-up resistor register
  20:keyboards/ergodox/ez/ez.h **** #define GPPUB           0x0D
  21:keyboards/ergodox/ez/ez.h **** #define GPIOA           0x12            // general purpose i/o port register (write modifies OLAT)
  22:keyboards/ergodox/ez/ez.h **** #define GPIOB           0x13
  23:keyboards/ergodox/ez/ez.h **** #define OLATA           0x14            // output latch register
  24:keyboards/ergodox/ez/ez.h **** #define OLATB           0x15
  25:keyboards/ergodox/ez/ez.h **** 
  26:keyboards/ergodox/ez/ez.h **** extern uint8_t mcp23018_status;
  27:keyboards/ergodox/ez/ez.h **** 
  28:keyboards/ergodox/ez/ez.h **** void init_ergodox(void);
  29:keyboards/ergodox/ez/ez.h **** void ergodox_blink_all_leds(void);
  30:keyboards/ergodox/ez/ez.h **** uint8_t init_mcp23018(void);
  31:keyboards/ergodox/ez/ez.h **** uint8_t ergodox_left_leds_update(void);
  32:keyboards/ergodox/ez/ez.h **** 
  33:keyboards/ergodox/ez/ez.h **** #define LED_BRIGHTNESS_LO       15
  34:keyboards/ergodox/ez/ez.h **** #define LED_BRIGHTNESS_HI       255
  35:keyboards/ergodox/ez/ez.h **** 
  36:keyboards/ergodox/ez/ez.h **** 
  37:keyboards/ergodox/ez/ez.h **** inline void ergodox_board_led_on(void)      { DDRD |=  (1<<6); PORTD |=  (1<<6); }
  38:keyboards/ergodox/ez/ez.h **** inline void ergodox_right_led_1_on(void)    { DDRB |=  (1<<5); PORTB |=  (1<<5); }
  39:keyboards/ergodox/ez/ez.h **** inline void ergodox_right_led_2_on(void)    { DDRB |=  (1<<6); PORTB |=  (1<<6); }
  40:keyboards/ergodox/ez/ez.h **** inline void ergodox_right_led_3_on(void)    { DDRB |=  (1<<7); PORTB |=  (1<<7); }
  41:keyboards/ergodox/ez/ez.h **** inline void ergodox_right_led_on(uint8_t led) { DDRB |= (1<<(led+4)); PORTB |= (1<<(led+4)); }
  42:keyboards/ergodox/ez/ez.h **** 
  43:keyboards/ergodox/ez/ez.h **** inline void ergodox_board_led_off(void)     { DDRD &= ~(1<<6); PORTD &= ~(1<<6); }
 1071               		.loc 2 43 0
 1072 0014 5698      		cbi 0xa,6
 1073 0016 5E98      		cbi 0xb,6
 1074               	.LBE21:
 1075               	.LBE20:
 1076               	.LBB22:
 1077               	.LBB23:
  44:keyboards/ergodox/ez/ez.h **** inline void ergodox_right_led_1_off(void)   { DDRB &= ~(1<<5); PORTB &= ~(1<<5); }
 1078               		.loc 2 44 0
 1079 0018 2598      		cbi 0x4,5
 1080 001a 2D98      		cbi 0x5,5
 1081               	.LBE23:
 1082               	.LBE22:
 1083               	.LBB24:
 1084               	.LBB25:
  45:keyboards/ergodox/ez/ez.h **** inline void ergodox_right_led_2_off(void)   { DDRB &= ~(1<<6); PORTB &= ~(1<<6); }
 1085               		.loc 2 45 0
 1086 001c 2698      		cbi 0x4,6
 1087 001e 2E98      		cbi 0x5,6
 1088               	.LBE25:
 1089               	.LBE24:
 1090               	.LBB26:
 1091               	.LBB27:
  46:keyboards/ergodox/ez/ez.h **** inline void ergodox_right_led_3_off(void)   { DDRB &= ~(1<<7); PORTB &= ~(1<<7); }
 1092               		.loc 2 46 0
 1093 0020 2798      		cbi 0x4,7
 1094 0022 2F98      		cbi 0x5,7
 1095               	.LBE27:
 1096               	.LBE26:
1081:keyboards/ergodox/ez/keymaps/pydemia/keymap.c **** 
1082:keyboards/ergodox/ez/keymaps/pydemia/keymap.c ****     ergodox_board_led_off();
1083:keyboards/ergodox/ez/keymaps/pydemia/keymap.c ****     ergodox_right_led_1_off();
1084:keyboards/ergodox/ez/keymaps/pydemia/keymap.c ****     ergodox_right_led_2_off();
1085:keyboards/ergodox/ez/keymaps/pydemia/keymap.c ****     ergodox_right_led_3_off();
1086:keyboards/ergodox/ez/keymaps/pydemia/keymap.c ****     switch (layer) {
 1097               		.loc 1 1086 0
 1098 0024 8230      		cpi r24,lo8(2)
 1099 0026 01F0      		breq .L85
 1100 0028 00F4      		brsh .L81
 1101 002a 8130      		cpi r24,lo8(1)
 1102 002c 01F0      		breq .L82
 1103 002e 0895      		ret
 1104               	.L81:
 1105 0030 8330      		cpi r24,lo8(3)
 1106 0032 01F0      		breq .L83
 1107 0034 8430      		cpi r24,lo8(4)
 1108 0036 01F0      		breq .L84
 1109 0038 0895      		ret
 1110               	.L82:
 1111               	.LBB28:
 1112               	.LBB29:
  38:keyboards/ergodox/ez/ez.h **** inline void ergodox_right_led_2_on(void)    { DDRB |=  (1<<6); PORTB |=  (1<<6); }
 1113               		.loc 2 38 0
 1114 003a 259A      		sbi 0x4,5
 1115 003c 2D9A      		sbi 0x5,5
 1116 003e 0895      		ret
 1117               	.L83:
 1118               	.LBE29:
 1119               	.LBE28:
 1120               	.LBB30:
 1121               	.LBB31:
  40:keyboards/ergodox/ez/ez.h **** inline void ergodox_right_led_on(uint8_t led) { DDRB |= (1<<(led+4)); PORTB |= (1<<(led+4)); }
 1122               		.loc 2 40 0
 1123 0040 279A      		sbi 0x4,7
 1124 0042 2F9A      		sbi 0x5,7
 1125 0044 0895      		ret
 1126               	.L84:
 1127               	.LBE31:
 1128               	.LBE30:
 1129               	.LBB32:
 1130               	.LBB33:
  38:keyboards/ergodox/ez/ez.h **** inline void ergodox_right_led_2_on(void)    { DDRB |=  (1<<6); PORTB |=  (1<<6); }
 1131               		.loc 2 38 0
 1132 0046 259A      		sbi 0x4,5
 1133 0048 2D9A      		sbi 0x5,5
 1134               	.L85:
 1135               	.LBE33:
 1136               	.LBE32:
 1137               	.LBB34:
 1138               	.LBB35:
  39:keyboards/ergodox/ez/ez.h **** inline void ergodox_right_led_3_on(void)    { DDRB |=  (1<<7); PORTB |=  (1<<7); }
 1139               		.loc 2 39 0
 1140 004a 269A      		sbi 0x4,6
 1141 004c 2E9A      		sbi 0x5,6
 1142 004e 0895      		ret
 1143               	.LBE35:
 1144               	.LBE34:
 1145               		.cfi_endproc
 1146               	.LFE140:
 1148               		.section	.progmem.data.__m.5320,"a",@progbits
 1151               	__m.5320:
 1152 0000 01        		.byte	1
 1153 0001 E1        		.byte	-31
 1154 0002 01        		.byte	1
 1155 0003 4D        		.byte	77
 1156 0004 02        		.byte	2
 1157 0005 4D        		.byte	77
 1158 0006 02        		.byte	2
 1159 0007 E1        		.byte	-31
 1160 0008 00        		.byte	0
 1161               		.section	.progmem.data.__m.5317,"a",@progbits
 1164               	__m.5317:
 1165 0000 01        		.byte	1
 1166 0001 E1        		.byte	-31
 1167 0002 01        		.byte	1
 1168 0003 4A        		.byte	74
 1169 0004 02        		.byte	2
 1170 0005 4A        		.byte	74
 1171 0006 02        		.byte	2
 1172 0007 E1        		.byte	-31
 1173 0008 00        		.byte	0
 1174               		.section	.progmem.data.__m.5314,"a",@progbits
 1177               	__m.5314:
 1178 0000 01        		.byte	1
 1179 0001 E1        		.byte	-31
 1180 0002 01        		.byte	1
 1181 0003 26        		.byte	38
 1182 0004 02        		.byte	2
 1183 0005 26        		.byte	38
 1184 0006 01        		.byte	1
 1185 0007 27        		.byte	39
 1186 0008 02        		.byte	2
 1187 0009 27        		.byte	39
 1188 000a 02        		.byte	2
 1189 000b E1        		.byte	-31
 1190 000c 01        		.byte	1
 1191 000d 50        		.byte	80
 1192 000e 02        		.byte	2
 1193 000f 50        		.byte	80
 1194 0010 00        		.byte	0
 1195               		.section	.progmem.data.__m.5311,"a",@progbits
 1198               	__m.5311:
 1199 0000 01        		.byte	1
 1200 0001 E1        		.byte	-31
 1201 0002 01        		.byte	1
 1202 0003 2F        		.byte	47
 1203 0004 02        		.byte	2
 1204 0005 2F        		.byte	47
 1205 0006 01        		.byte	1
 1206 0007 30        		.byte	48
 1207 0008 02        		.byte	2
 1208 0009 30        		.byte	48
 1209 000a 02        		.byte	2
 1210 000b E1        		.byte	-31
 1211 000c 01        		.byte	1
 1212 000d 50        		.byte	80
 1213 000e 02        		.byte	2
 1214 000f 50        		.byte	80
 1215 0010 00        		.byte	0
 1216               		.section	.progmem.data.__m.5308,"a",@progbits
 1219               	__m.5308:
 1220 0000 01        		.byte	1
 1221 0001 2F        		.byte	47
 1222 0002 02        		.byte	2
 1223 0003 2F        		.byte	47
 1224 0004 01        		.byte	1
 1225 0005 30        		.byte	48
 1226 0006 02        		.byte	2
 1227 0007 30        		.byte	48
 1228 0008 01        		.byte	1
 1229 0009 50        		.byte	80
 1230 000a 02        		.byte	2
 1231 000b 50        		.byte	80
 1232 000c 00        		.byte	0
 1233               		.section	.progmem.data.__m.5305,"a",@progbits
 1236               	__m.5305:
 1237 0000 01        		.byte	1
 1238 0001 E1        		.byte	-31
 1239 0002 01        		.byte	1
 1240 0003 34        		.byte	52
 1241 0004 02        		.byte	2
 1242 0005 34        		.byte	52
 1243 0006 02        		.byte	2
 1244 0007 E1        		.byte	-31
 1245 0008 00        		.byte	0
 1246               		.section	.progmem.data.__c.5302,"a",@progbits
 1249               	__c.5302:
 1250 0000 4A75 6C20 		.string	"Jul 21 2017 01:01:33"
 1250      3231 2032 
 1250      3031 3720 
 1250      3031 3A30 
 1250      313A 3333 
 1251               		.section	.progmem.data.__c.5299,"a",@progbits
 1254               	__c.5299:
 1255 0000 3031 3A30 		.string	"01:01:33"
 1255      313A 3333 
 1255      00
 1256               		.section	.progmem.data.__c.5296,"a",@progbits
 1259               	__c.5296:
 1260 0000 4A75 6C20 		.string	"Jul 21 2017"
 1260      3231 2032 
 1260      3031 3700 
 1261               		.section	.progmem.data.__c.5293,"a",@progbits
 1264               	__c.5293:
 1265 0000 7069 7020 		.string	"pip install --cert=c:/sslproxy.crt "
 1265      696E 7374 
 1265      616C 6C20 
 1265      2D2D 6365 
 1265      7274 3D63 
 1266               		.section	.progmem.data.__c.5290,"a",@progbits
 1269               	__c.5290:
 1270 0000 5345 4C45 		.ascii	"SELECT\r\n     A.*\r\n    ,B.*\r\nFROM\r\n    a.aa A\r\n    "
 1270      4354 0D0A 
 1270      2020 2020 
 1270      2041 2E2A 
 1270      0D0A 2020 
 1271 0032 4C45 4654 		.ascii	"LEFT OUTER JOIN\r\n        (\r\n        SE"
 1271      204F 5554 
 1271      4552 204A 
 1271      4F49 4E0D 
 1271      0A20 2020 
 1272 0058 4C45 4354 		.string	"LECT\r\n             C.col\r\n        FROM\r\n            c.cc C\r\n        WHERE\r\n    
 1272      0D0A 2020 
 1272      2020 2020 
 1272      2020 2020 
 1272      2020 2043 
 1273               		.section	.progmem.data.__c.5287,"a",@progbits
 1276               	__c.5287:
 1277 0000 5345 4C45 		.string	"SELECT\r\n     A.*\r\n    ,B.*\r\nFROM\r\n    a.aa A\r\n    LEFT OUTER JOIN b.bb B\r\n   
 1277      4354 0D0A 
 1277      2020 2020 
 1277      2041 2E2A 
 1277      0D0A 2020 
 1278               		.section	.progmem.data.__c.5284,"a",@progbits
 1281               	__c.5284:
 1282 0000 5345 4C45 		.string	"SELECT\r\n     A.col\r\n    ,A.*\r\nFROM\r\n    a.aa A\r\nWHERE\r\n    A.col = NULL\r\nAN
 1282      4354 0D0A 
 1282      2020 2020 
 1282      2041 2E63 
 1282      6F6C 0D0A 
 1283               		.section	.progmem.data.__m.5281,"a",@progbits
 1286               	__m.5281:
 1287 0000 01        		.byte	1
 1288 0001 E1        		.byte	-31
 1289 0002 01        		.byte	1
 1290 0003 20        		.byte	32
 1291 0004 02        		.byte	2
 1292 0005 20        		.byte	32
 1293 0006 02        		.byte	2
 1294 0007 E1        		.byte	-31
 1295 0008 01        		.byte	1
 1296 0009 2C        		.byte	44
 1297 000a 02        		.byte	2
 1298 000b 2C        		.byte	44
 1299 000c 01        		.byte	1
 1300 000d 2C        		.byte	44
 1301 000e 02        		.byte	2
 1302 000f 2C        		.byte	44
 1303 0010 01        		.byte	1
 1304 0011 2D        		.byte	45
 1305 0012 02        		.byte	2
 1306 0013 2D        		.byte	45
 1307 0014 01        		.byte	1
 1308 0015 2D        		.byte	45
 1309 0016 02        		.byte	2
 1310 0017 2D        		.byte	45
 1311 0018 01        		.byte	1
 1312 0019 2D        		.byte	45
 1313 001a 02        		.byte	2
 1314 001b 2D        		.byte	45
 1315 001c 01        		.byte	1
 1316 001d 2D        		.byte	45
 1317 001e 02        		.byte	2
 1318 001f 2D        		.byte	45
 1319 0020 01        		.byte	1
 1320 0021 50        		.byte	80
 1321 0022 02        		.byte	2
 1322 0023 50        		.byte	80
 1323 0024 01        		.byte	1
 1324 0025 50        		.byte	80
 1325 0026 02        		.byte	2
 1326 0027 50        		.byte	80
 1327 0028 01        		.byte	1
 1328 0029 50        		.byte	80
 1329 002a 02        		.byte	2
 1330 002b 50        		.byte	80
 1331 002c 01        		.byte	1
 1332 002d 50        		.byte	80
 1333 002e 02        		.byte	2
 1334 002f 50        		.byte	80
 1335 0030 01        		.byte	1
 1336 0031 50        		.byte	80
 1337 0032 02        		.byte	2
 1338 0033 50        		.byte	80
 1339 0034 01        		.byte	1
 1340 0035 50        		.byte	80
 1341 0036 02        		.byte	2
 1342 0037 50        		.byte	80
 1343 0038 00        		.byte	0
 1344               		.section	.progmem.data.__m.5278,"a",@progbits
 1347               	__m.5278:
 1348 0000 01        		.byte	1
 1349 0001 E1        		.byte	-31
 1350 0002 01        		.byte	1
 1351 0003 20        		.byte	32
 1352 0004 02        		.byte	2
 1353 0005 20        		.byte	32
 1354 0006 01        		.byte	1
 1355 0007 2C        		.byte	44
 1356 0008 02        		.byte	2
 1357 0009 2C        		.byte	44
 1358 000a 01        		.byte	1
 1359 000b 22        		.byte	34
 1360 000c 02        		.byte	2
 1361 000d 22        		.byte	34
 1362 000e 01        		.byte	1
 1363 000f 22        		.byte	34
 1364 0010 02        		.byte	2
 1365 0011 22        		.byte	34
 1366 0012 02        		.byte	2
 1367 0013 E1        		.byte	-31
 1368 0014 00        		.byte	0
 1369               		.section	.progmem.data.__c.5275,"a",@progbits
 1372               	__c.5275:
 1373 0000 2725 5925 		.string	"'%Y%m%d%H%M%S%f'"
 1373      6D25 6425 
 1373      4825 4D25 
 1373      5325 6627 
 1373      00
 1374               		.section	.progmem.data.__m.5272,"a",@progbits
 1377               	__m.5272:
 1378 0000 01        		.byte	1
 1379 0001 E1        		.byte	-31
 1380 0002 01        		.byte	1
 1381 0003 36        		.byte	54
 1382 0004 02        		.byte	2
 1383 0005 36        		.byte	54
 1384 0006 02        		.byte	2
 1385 0007 E1        		.byte	-31
 1386 0008 01        		.byte	1
 1387 0009 2D        		.byte	45
 1388 000a 02        		.byte	2
 1389 000b 2D        		.byte	45
 1390 000c 00        		.byte	0
 1391               		.section	.progmem.data.__c.5269,"a",@progbits
 1394               	__c.5269:
 1395 0000 2320 2D2A 		.string	"# -*- coding: utf-8 -*- \n'''\n\nCreated on \n\n@author: Young Ju Kim\n'''\n"
 1395      2D20 636F 
 1395      6469 6E67 
 1395      3A20 7574 
 1395      662D 3820 
 1396               		.section	.progmem.data.__c.5265,"a",@progbits
 1399               	__c.5265:
 1400 0000 6572 676F 		.string	"ergodox/pydemia @ fdec56-dirty"
 1400      646F 782F 
 1400      7079 6465 
 1400      6D69 6120 
 1400      4020 6664 
 1401               	.global	date_str
 1402               		.section	.rodata.str1.1
 1403               	.LC3:
 1404 0037 2261 2200 		.string	"\"a\""
 1405               		.section	.data.date_str,"aw",@progbits
 1408               	date_str:
 1409 0000 0000      		.word	.LC3
 1410               	.global	sql_query
 1411               		.section	.rodata.str1.1
 1412               	.LC4:
 1413 003b 5345 4C45 		.string	"SELECT word_id FROM table1, table2 WHERE table2.word_id = table1.word_id ORDER BY table1.
 1413      4354 2077 
 1413      6F72 645F 
 1413      6964 2046 
 1413      524F 4D20 
 1414               		.section	.data.sql_query,"aw",@progbits
 1417               	sql_query:
 1418 0000 0000      		.word	.LC4
 1419               	.global	keymaps
 1420               		.section	.progmem.data.keymaps,"a",@progbits
 1423               	keymaps:
 1424 0000 2900      		.word	41
 1425 0002 2B42      		.word	16939
 1426 0004 3500      		.word	53
 1427 0006 0D71      		.word	28941
 1428 0008 E061      		.word	25056
 1429 000a 0000      		.word	0
 1430 000c 0171      		.word	28929
 1431 000e 1400      		.word	20
 1432 0010 0400      		.word	4
 1433 0012 1D00      		.word	29
 1434 0014 C200      		.word	194
 1435 0016 4D00      		.word	77
 1436 0018 0271      		.word	28930
 1437 001a 1A00      		.word	26
 1438 001c 1600      		.word	22
 1439 001e 1B00      		.word	27
 1440 0020 E700      		.word	231
 1441 0022 2A00      		.word	42
 1442 0024 0371      		.word	28931
 1443 0026 0800      		.word	8
 1444 0028 0700      		.word	7
 1445 002a 0600      		.word	6
 1446 002c 6500      		.word	101
 1447 002e 2C00      		.word	44
 1448 0030 0471      		.word	28932
 1449 0032 1500      		.word	21
 1450 0034 0900      		.word	9
 1451 0036 1900      		.word	25
 1452 0038 E264      		.word	25826
 1453 003a 4A00      		.word	74
 1454 003c 0571      		.word	28933
 1455 003e 1171      		.word	28945
 1456 0040 1271      		.word	28946
 1457 0042 1371      		.word	28947
 1458 0044 0000      		.word	0
 1459 0046 0F71      		.word	28943
 1460 0048 3E01      		.word	318
 1461 004a 0071      		.word	28928
 1462 004c 0000      		.word	0
 1463 004e C100      		.word	193
 1464 0050 0000      		.word	0
 1465 0052 1071      		.word	28944
 1466 0054 0671      		.word	28934
 1467 0056 0230      		.word	12290
 1468 0058 0000      		.word	0
 1469 005a 2801      		.word	296
 1470 005c 0000      		.word	0
 1471 005e 5000      		.word	80
 1472 0060 0771      		.word	28935
 1473 0062 1C00      		.word	28
 1474 0064 0B00      		.word	11
 1475 0066 1100      		.word	17
 1476 0068 0000      		.word	0
 1477 006a 4F00      		.word	79
 1478 006c 0871      		.word	28936
 1479 006e 1800      		.word	24
 1480 0070 1671      		.word	28950
 1481 0072 1000      		.word	16
 1482 0074 E600      		.word	230
 1483 0076 5200      		.word	82
 1484 0078 0971      		.word	28937
 1485 007a 0C00      		.word	12
 1486 007c 1771      		.word	28951
 1487 007e 3600      		.word	54
 1488 0080 E400      		.word	228
 1489 0082 2800      		.word	40
 1490 0084 0A71      		.word	28938
 1491 0086 1200      		.word	18
 1492 0088 1871      		.word	28952
 1493 008a 3700      		.word	55
 1494 008c 2F00      		.word	47
 1495 008e 4C00      		.word	76
 1496 0090 0B71      		.word	28939
 1497 0092 1300      		.word	19
 1498 0094 3300      		.word	51
 1499 0096 3800      		.word	56
 1500 0098 3000      		.word	48
 1501 009a 5100      		.word	81
 1502 009c 0C71      		.word	28940
 1503 009e 3100      		.word	49
 1504 00a0 0E71      		.word	28942
 1505 00a2 E500      		.word	229
 1506 00a4 1030      		.word	12304
 1507 00a6 0000      		.word	0
 1508 00a8 0030      		.word	12288
 1509 00aa 0100      		.word	1
 1510 00ac 0100      		.word	1
 1511 00ae 0100      		.word	1
 1512 00b0 0100      		.word	1
 1513 00b2 0000      		.word	0
 1514 00b4 0100      		.word	1
 1515 00b6 0100      		.word	1
 1516 00b8 0100      		.word	1
 1517 00ba 0930      		.word	12297
 1518 00bc 0100      		.word	1
 1519 00be 4D02      		.word	589
 1520 00c0 0100      		.word	1
 1521 00c2 0C30      		.word	12300
 1522 00c4 0A30      		.word	12298
 1523 00c6 0B30      		.word	12299
 1524 00c8 0100      		.word	1
 1525 00ca 2A00      		.word	42
 1526 00cc 0100      		.word	1
 1527 00ce 0330      		.word	12291
 1528 00d0 0C30      		.word	12300
 1529 00d2 0100      		.word	1
 1530 00d4 0100      		.word	1
 1531 00d6 2800      		.word	40
 1532 00d8 0530      		.word	12293
 1533 00da 2602      		.word	550
 1534 00dc 2F00      		.word	47
 1535 00de 2F02      		.word	559
 1536 00e0 0100      		.word	1
 1537 00e2 4A02      		.word	586
 1538 00e4 0430      		.word	12292
 1539 00e6 2702      		.word	551
 1540 00e8 3000      		.word	48
 1541 00ea 3002      		.word	560
 1542 00ec 0000      		.word	0
 1543 00ee 5000      		.word	80
 1544 00f0 0100      		.word	1
 1545 00f2 0230      		.word	12290
 1546 00f4 0000      		.word	0
 1547 00f6 0100      		.word	1
 1548 00f8 0000      		.word	0
 1549 00fa 4F00      		.word	79
 1550 00fc 0100      		.word	1
 1551 00fe 3502      		.word	565
 1552 0100 0000      		.word	0
 1553 0102 0100      		.word	1
 1554 0104 0000      		.word	0
 1555 0106 5001      		.word	336
 1556 0108 0100      		.word	1
 1557 010a 2400      		.word	36
 1558 010c 2100      		.word	33
 1559 010e 1E00      		.word	30
 1560 0110 0000      		.word	0
 1561 0112 4F01      		.word	335
 1562 0114 0100      		.word	1
 1563 0116 2500      		.word	37
 1564 0118 2200      		.word	34
 1565 011a 1F00      		.word	31
 1566 011c 2700      		.word	39
 1567 011e 4B00      		.word	75
 1568 0120 0100      		.word	1
 1569 0122 2600      		.word	38
 1570 0124 2300      		.word	35
 1571 0126 2000      		.word	32
 1572 0128 3700      		.word	55
 1573 012a 2C00      		.word	44
 1574 012c 0100      		.word	1
 1575 012e 2E02      		.word	558
 1576 0130 2502      		.word	549
 1577 0132 3600      		.word	54
 1578 0134 5000      		.word	80
 1579 0136 4C00      		.word	76
 1580 0138 0100      		.word	1
 1581 013a 2D00      		.word	45
 1582 013c 3800      		.word	56
 1583 013e 5200      		.word	82
 1584 0140 5100      		.word	81
 1585 0142 4E00      		.word	78
 1586 0144 0100      		.word	1
 1587 0146 0100      		.word	1
 1588 0148 0100      		.word	1
 1589 014a 0100      		.word	1
 1590 014c 4F00      		.word	79
 1591 014e 0000      		.word	0
 1592 0150 0130      		.word	12289
 1593 0152 0100      		.word	1
 1594 0154 0100      		.word	1
 1595 0156 0100      		.word	1
 1596 0158 0100      		.word	1
 1597 015a 0000      		.word	0
 1598 015c 0100      		.word	1
 1599 015e 2300      		.word	35
 1600 0160 0A30      		.word	12298
 1601 0162 0630      		.word	12294
 1602 0164 0100      		.word	1
 1603 0166 4E00      		.word	78
 1604 0168 0100      		.word	1
 1605 016a 2400      		.word	36
 1606 016c 0B30      		.word	12299
 1607 016e 0730      		.word	12295
 1608 0170 0100      		.word	1
 1609 0172 2A00      		.word	42
 1610 0174 0100      		.word	1
 1611 0176 2500      		.word	37
 1612 0178 0C30      		.word	12300
 1613 017a 0830      		.word	12296
 1614 017c 0100      		.word	1
 1615 017e 2C00      		.word	44
 1616 0180 0100      		.word	1
 1617 0182 2600      		.word	38
 1618 0184 0100      		.word	1
 1619 0186 0100      		.word	1
 1620 0188 0100      		.word	1
 1621 018a 4B00      		.word	75
 1622 018c 0100      		.word	1
 1623 018e 2700      		.word	39
 1624 0190 0100      		.word	1
 1625 0192 0100      		.word	1
 1626 0194 0000      		.word	0
 1627 0196 4A02      		.word	586
 1628 0198 0100      		.word	1
 1629 019a 0100      		.word	1
 1630 019c 0000      		.word	0
 1631 019e 0100      		.word	1
 1632 01a0 0000      		.word	0
 1633 01a2 4D02      		.word	589
 1634 01a4 0100      		.word	1
 1635 01a6 0100      		.word	1
 1636 01a8 0000      		.word	0
 1637 01aa 0100      		.word	1
 1638 01ac 0000      		.word	0
 1639 01ae 5000      		.word	80
 1640 01b0 0100      		.word	1
 1641 01b2 0100      		.word	1
 1642 01b4 0100      		.word	1
 1643 01b6 0100      		.word	1
 1644 01b8 0000      		.word	0
 1645 01ba 4F00      		.word	79
 1646 01bc 0100      		.word	1
 1647 01be 0100      		.word	1
 1648 01c0 0100      		.word	1
 1649 01c2 0100      		.word	1
 1650 01c4 0100      		.word	1
 1651 01c6 5200      		.word	82
 1652 01c8 0100      		.word	1
 1653 01ca 0100      		.word	1
 1654 01cc 0100      		.word	1
 1655 01ce 0100      		.word	1
 1656 01d0 0100      		.word	1
 1657 01d2 2800      		.word	40
 1658 01d4 0100      		.word	1
 1659 01d6 0100      		.word	1
 1660 01d8 0100      		.word	1
 1661 01da 0100      		.word	1
 1662 01dc 3600      		.word	54
 1663 01de 4C00      		.word	76
 1664 01e0 0100      		.word	1
 1665 01e2 0100      		.word	1
 1666 01e4 0100      		.word	1
 1667 01e6 0100      		.word	1
 1668 01e8 0100      		.word	1
 1669 01ea 5100      		.word	81
 1670 01ec 0100      		.word	1
 1671 01ee 0100      		.word	1
 1672 01f0 0100      		.word	1
 1673 01f2 0100      		.word	1
 1674 01f4 0100      		.word	1
 1675 01f6 0000      		.word	0
 1676 01f8 0071      		.word	28928
 1677 01fa 2B00      		.word	43
 1678 01fc 3500      		.word	53
 1679 01fe 3962      		.word	25145
 1680 0200 E061      		.word	25056
 1681 0202 0000      		.word	0
 1682 0204 1E00      		.word	30
 1683 0206 1400      		.word	20
 1684 0208 0400      		.word	4
 1685 020a 1D00      		.word	29
 1686 020c C200      		.word	194
 1687 020e 4D00      		.word	77
 1688 0210 1F00      		.word	31
 1689 0212 1A00      		.word	26
 1690 0214 1600      		.word	22
 1691 0216 1B00      		.word	27
 1692 0218 E300      		.word	227
 1693 021a 2A00      		.word	42
 1694 021c 2000      		.word	32
 1695 021e 0800      		.word	8
 1696 0220 0700      		.word	7
 1697 0222 0600      		.word	6
 1698 0224 6500      		.word	101
 1699 0226 2C00      		.word	44
 1700 0228 2100      		.word	33
 1701 022a 1500      		.word	21
 1702 022c 0900      		.word	9
 1703 022e 1900      		.word	25
 1704 0230 E264      		.word	25826
 1705 0232 4A00      		.word	74
 1706 0234 2200      		.word	34
 1707 0236 1700      		.word	23
 1708 0238 0A00      		.word	10
 1709 023a 0500      		.word	5
 1710 023c 0000      		.word	0
 1711 023e 4B00      		.word	75
 1712 0240 3E01      		.word	318
 1713 0242 0230      		.word	12290
 1714 0244 0000      		.word	0
 1715 0246 C100      		.word	193
 1716 0248 0000      		.word	0
 1717 024a 4E00      		.word	78
 1718 024c 2300      		.word	35
 1719 024e 2801      		.word	296
 1720 0250 0000      		.word	0
 1721 0252 3E01      		.word	318
 1722 0254 0000      		.word	0
 1723 0256 5000      		.word	80
 1724 0258 2400      		.word	36
 1725 025a 1C00      		.word	28
 1726 025c 0B00      		.word	11
 1727 025e 1100      		.word	17
 1728 0260 0000      		.word	0
 1729 0262 4F00      		.word	79
 1730 0264 2500      		.word	37
 1731 0266 1800      		.word	24
 1732 0268 0D00      		.word	13
 1733 026a 1000      		.word	16
 1734 026c E600      		.word	230
 1735 026e 5200      		.word	82
 1736 0270 2600      		.word	38
 1737 0272 0C00      		.word	12
 1738 0274 0E00      		.word	14
 1739 0276 3600      		.word	54
 1740 0278 E400      		.word	228
 1741 027a 2800      		.word	40
 1742 027c 2700      		.word	39
 1743 027e 1200      		.word	18
 1744 0280 0F00      		.word	15
 1745 0282 3700      		.word	55
 1746 0284 2F00      		.word	47
 1747 0286 4C00      		.word	76
 1748 0288 2D00      		.word	45
 1749 028a 1300      		.word	19
 1750 028c 3300      		.word	51
 1751 028e 3800      		.word	56
 1752 0290 3000      		.word	48
 1753 0292 5100      		.word	81
 1754 0294 2E02      		.word	558
 1755 0296 3100      		.word	49
 1756 0298 3400      		.word	52
 1757 029a E500      		.word	229
 1758 029c C300      		.word	195
 1759 029e 0000      		.word	0
 1760 02a0 2900      		.word	41
 1761 02a2 2B00      		.word	43
 1762 02a4 3500      		.word	53
 1763 02a6 E100      		.word	225
 1764 02a8 E000      		.word	224
 1765 02aa 0000      		.word	0
 1766 02ac 1E00      		.word	30
 1767 02ae 1400      		.word	20
 1768 02b0 0400      		.word	4
 1769 02b2 1D00      		.word	29
 1770 02b4 E201      		.word	482
 1771 02b6 4E00      		.word	78
 1772 02b8 1F00      		.word	31
 1773 02ba 1A00      		.word	26
 1774 02bc 1600      		.word	22
 1775 02be 1B00      		.word	27
 1776 02c0 E300      		.word	227
 1777 02c2 4C00      		.word	76
 1778 02c4 2000      		.word	32
 1779 02c6 0800      		.word	8
 1780 02c8 0700      		.word	7
 1781 02ca 0600      		.word	6
 1782 02cc 6500      		.word	101
 1783 02ce 2C00      		.word	44
 1784 02d0 2100      		.word	33
 1785 02d2 1500      		.word	21
 1786 02d4 0900      		.word	9
 1787 02d6 1900      		.word	25
 1788 02d8 E200      		.word	226
 1789 02da 4B00      		.word	75
 1790 02dc 2200      		.word	34
 1791 02de 1700      		.word	23
 1792 02e0 0A00      		.word	10
 1793 02e2 0500      		.word	5
 1794 02e4 0000      		.word	0
 1795 02e6 4A00      		.word	74
 1796 02e8 0453      		.word	21252
 1797 02ea 2E00      		.word	46
 1798 02ec 0000      		.word	0
 1799 02ee 0153      		.word	21249
 1800 02f0 0000      		.word	0
 1801 02f2 4D00      		.word	77
 1802 02f4 2300      		.word	35
 1803 02f6 0230      		.word	12290
 1804 02f8 0000      		.word	0
 1805 02fa 3E01      		.word	318
 1806 02fc 0000      		.word	0
 1807 02fe 4A00      		.word	74
 1808 0300 2400      		.word	36
 1809 0302 1C00      		.word	28
 1810 0304 0B00      		.word	11
 1811 0306 1100      		.word	17
 1812 0308 0000      		.word	0
 1813 030a 4D00      		.word	77
 1814 030c 2500      		.word	37
 1815 030e 1800      		.word	24
 1816 0310 0D00      		.word	13
 1817 0312 1000      		.word	16
 1818 0314 E600      		.word	230
 1819 0316 4B00      		.word	75
 1820 0318 2600      		.word	38
 1821 031a 0C00      		.word	12
 1822 031c 0E00      		.word	14
 1823 031e 3600      		.word	54
 1824 0320 2C02      		.word	556
 1825 0322 2800      		.word	40
 1826 0324 2700      		.word	39
 1827 0326 1200      		.word	18
 1828 0328 0F00      		.word	15
 1829 032a 3700      		.word	55
 1830 032c 2F00      		.word	47
 1831 032e 4C00      		.word	76
 1832 0330 2D00      		.word	45
 1833 0332 1300      		.word	19
 1834 0334 3300      		.word	51
 1835 0336 3800      		.word	56
 1836 0338 3000      		.word	48
 1837 033a 4E00      		.word	78
 1838 033c 2E02      		.word	558
 1839 033e 3100      		.word	49
 1840 0340 3400      		.word	52
 1841 0342 0157      		.word	22273
 1842 0344 C100      		.word	193
 1843 0346 0000      		.word	0
 1844 0348 2900      		.word	41
 1845 034a 2B00      		.word	43
 1846 034c 3500      		.word	53
 1847 034e E100      		.word	225
 1848 0350 E000      		.word	224
 1849 0352 0000      		.word	0
 1850 0354 1E00      		.word	30
 1851 0356 1400      		.word	20
 1852 0358 0400      		.word	4
 1853 035a 1D00      		.word	29
 1854 035c E201      		.word	482
 1855 035e 4E00      		.word	78
 1856 0360 1F00      		.word	31
 1857 0362 1A00      		.word	26
 1858 0364 1600      		.word	22
 1859 0366 1B00      		.word	27
 1860 0368 E300      		.word	227
 1861 036a 2A00      		.word	42
 1862 036c 2000      		.word	32
 1863 036e 0800      		.word	8
 1864 0370 0700      		.word	7
 1865 0372 0600      		.word	6
 1866 0374 6500      		.word	101
 1867 0376 2C00      		.word	44
 1868 0378 2100      		.word	33
 1869 037a 1500      		.word	21
 1870 037c 0900      		.word	9
 1871 037e 1900      		.word	25
 1872 0380 E200      		.word	226
 1873 0382 4B00      		.word	75
 1874 0384 2200      		.word	34
 1875 0386 1700      		.word	23
 1876 0388 0A00      		.word	10
 1877 038a 0500      		.word	5
 1878 038c 0000      		.word	0
 1879 038e 4A00      		.word	74
 1880 0390 0453      		.word	21252
 1881 0392 2E00      		.word	46
 1882 0394 0000      		.word	0
 1883 0396 0153      		.word	21249
 1884 0398 0000      		.word	0
 1885 039a 4D00      		.word	77
 1886 039c 2300      		.word	35
 1887 039e 0230      		.word	12290
 1888 03a0 0000      		.word	0
 1889 03a2 3E01      		.word	318
 1890 03a4 0000      		.word	0
 1891 03a6 5000      		.word	80
 1892 03a8 2400      		.word	36
 1893 03aa 1C00      		.word	28
 1894 03ac 0B00      		.word	11
 1895 03ae 1100      		.word	17
 1896 03b0 0000      		.word	0
 1897 03b2 4F00      		.word	79
 1898 03b4 2500      		.word	37
 1899 03b6 1800      		.word	24
 1900 03b8 0D00      		.word	13
 1901 03ba 1000      		.word	16
 1902 03bc E600      		.word	230
 1903 03be 5200      		.word	82
 1904 03c0 2600      		.word	38
 1905 03c2 0C00      		.word	12
 1906 03c4 0E00      		.word	14
 1907 03c6 3600      		.word	54
 1908 03c8 2C02      		.word	556
 1909 03ca 2800      		.word	40
 1910 03cc 2700      		.word	39
 1911 03ce 1200      		.word	18
 1912 03d0 0F00      		.word	15
 1913 03d2 3700      		.word	55
 1914 03d4 2F00      		.word	47
 1915 03d6 4C00      		.word	76
 1916 03d8 2D00      		.word	45
 1917 03da 1300      		.word	19
 1918 03dc 3300      		.word	51
 1919 03de 3800      		.word	56
 1920 03e0 3000      		.word	48
 1921 03e2 5100      		.word	81
 1922 03e4 2E02      		.word	558
 1923 03e6 3100      		.word	49
 1924 03e8 3400      		.word	52
 1925 03ea E500      		.word	229
 1926 03ec C100      		.word	193
 1927 03ee 0000      		.word	0
 1928               	.global	tap_dance_actions
 1929               		.section	.data.tap_dance_actions,"aw",@progbits
 1932               	tap_dance_actions:
 1933 0000 0000      		.word	0
 1934 0002 0000      		.word	gs(dance_press_equal)
 1935 0004 0000      		.word	gs(dance_press_rassign)
 1936 0006 0000 0000 		.zero	8
 1936      0000 0000 
 1937 000e 0000      		.word	0
 1938 0010 0000      		.word	0
 1939 0012 0000      		.word	gs(qk_tap_dance_pair_finished)
 1940 0014 0000      		.word	gs(qk_tap_dance_pair_reset)
 1941 0016 0000 0000 		.zero	8
 1941      0000 0000 
 1942 001e 0000      		.word	__compound_literal.0
 1943 0020 0000      		.word	0
 1944 0022 0000      		.word	gs(qk_tap_dance_pair_finished)
 1945 0024 0000      		.word	gs(qk_tap_dance_pair_reset)
 1946 0026 0000 0000 		.zero	8
 1946      0000 0000 
 1947 002e 0000      		.word	__compound_literal.1
 1948 0030 0000      		.word	0
 1949 0032 0000      		.word	gs(qk_tap_dance_pair_finished)
 1950 0034 0000      		.word	gs(qk_tap_dance_pair_reset)
 1951 0036 0000 0000 		.zero	8
 1951      0000 0000 
 1952 003e 0000      		.word	__compound_literal.2
 1953 0040 0000      		.word	0
 1954 0042 0000      		.word	gs(qk_tap_dance_pair_finished)
 1955 0044 0000      		.word	gs(qk_tap_dance_pair_reset)
 1956 0046 0000 0000 		.zero	8
 1956      0000 0000 
 1957 004e 0000      		.word	__compound_literal.3
 1958 0050 0000      		.word	0
 1959 0052 0000      		.word	gs(qk_tap_dance_pair_finished)
 1960 0054 0000      		.word	gs(qk_tap_dance_pair_reset)
 1961 0056 0000 0000 		.zero	8
 1961      0000 0000 
 1962 005e 0000      		.word	__compound_literal.4
 1963 0060 0000      		.word	0
 1964 0062 0000      		.word	gs(qk_tap_dance_pair_finished)
 1965 0064 0000      		.word	gs(qk_tap_dance_pair_reset)
 1966 0066 0000 0000 		.zero	8
 1966      0000 0000 
 1967 006e 0000      		.word	__compound_literal.5
 1968 0070 0000      		.word	0
 1969 0072 0000      		.word	gs(qk_tap_dance_pair_finished)
 1970 0074 0000      		.word	gs(qk_tap_dance_pair_reset)
 1971 0076 0000 0000 		.zero	8
 1971      0000 0000 
 1972 007e 0000      		.word	__compound_literal.6
 1973 0080 0000      		.word	0
 1974 0082 0000      		.word	gs(qk_tap_dance_pair_finished)
 1975 0084 0000      		.word	gs(qk_tap_dance_pair_reset)
 1976 0086 0000 0000 		.zero	8
 1976      0000 0000 
 1977 008e 0000      		.word	__compound_literal.7
 1978 0090 0000      		.word	0
 1979 0092 0000      		.word	gs(qk_tap_dance_pair_finished)
 1980 0094 0000      		.word	gs(qk_tap_dance_pair_reset)
 1981 0096 0000 0000 		.zero	8
 1981      0000 0000 
 1982 009e 0000      		.word	__compound_literal.8
 1983 00a0 0000      		.word	0
 1984 00a2 0000      		.word	gs(qk_tap_dance_pair_finished)
 1985 00a4 0000      		.word	gs(qk_tap_dance_pair_reset)
 1986 00a6 0000 0000 		.zero	8
 1986      0000 0000 
 1987 00ae 0000      		.word	__compound_literal.9
 1988 00b0 0000      		.word	0
 1989 00b2 0000      		.word	gs(qk_tap_dance_pair_finished)
 1990 00b4 0000      		.word	gs(qk_tap_dance_pair_reset)
 1991 00b6 0000 0000 		.zero	8
 1991      0000 0000 
 1992 00be 0000      		.word	__compound_literal.10
 1993 00c0 0000      		.word	0
 1994 00c2 0000      		.word	gs(qk_tap_dance_pair_finished)
 1995 00c4 0000      		.word	gs(qk_tap_dance_pair_reset)
 1996 00c6 0000 0000 		.zero	8
 1996      0000 0000 
 1997 00ce 0000      		.word	__compound_literal.11
 1998 00d0 0000      		.word	0
 1999 00d2 0000      		.word	gs(qk_tap_dance_pair_finished)
 2000 00d4 0000      		.word	gs(qk_tap_dance_pair_reset)
 2001 00d6 0000 0000 		.zero	8
 2001      0000 0000 
 2002 00de 0000      		.word	__compound_literal.12
 2003 00e0 0000      		.word	0
 2004 00e2 0000      		.word	gs(qk_tap_dance_pair_finished)
 2005 00e4 0000      		.word	gs(qk_tap_dance_pair_reset)
 2006 00e6 0000 0000 		.zero	8
 2006      0000 0000 
 2007 00ee 0000      		.word	__compound_literal.13
 2008 00f0 0000      		.word	0
 2009 00f2 0000      		.word	gs(qk_tap_dance_pair_finished)
 2010 00f4 0000      		.word	gs(qk_tap_dance_pair_reset)
 2011 00f6 0000 0000 		.zero	8
 2011      0000 0000 
 2012 00fe 0000      		.word	__compound_literal.14
 2013 0100 0000      		.word	0
 2014 0102 0000      		.word	gs(qk_tap_dance_pair_finished)
 2015 0104 0000      		.word	gs(qk_tap_dance_pair_reset)
 2016 0106 0000 0000 		.zero	8
 2016      0000 0000 
 2017 010e 0000      		.word	__compound_literal.15
 2018 0110 0000      		.word	0
 2019 0112 0000      		.word	gs(dance_press_t)
 2020 0114 0000      		.word	gs(dance_dbrc)
 2021 0116 0000 0000 		.zero	8
 2021      0000 0000 
 2022 011e 0000      		.word	0
 2023 0120 0000      		.word	0
 2024 0122 0000      		.word	gs(dance_press_g)
 2025 0124 0000      		.word	gs(dance_dcbr)
 2026 0126 0000 0000 		.zero	8
 2026      0000 0000 
 2027 012e 0000      		.word	0
 2028 0130 0000      		.word	0
 2029 0132 0000      		.word	gs(dance_press_b)
 2030 0134 0000      		.word	gs(dance_dprn)
 2031 0136 0000 0000 		.zero	8
 2031      0000 0000 
 2032 013e 0000      		.word	0
 2033 0140 0000      		.word	0
 2034 0142 0000      		.word	gs(qk_tap_dance_pair_finished)
 2035 0144 0000      		.word	gs(qk_tap_dance_pair_reset)
 2036 0146 0000 0000 		.zero	8
 2036      0000 0000 
 2037 014e 0000      		.word	__compound_literal.16
 2038 0150 0000      		.word	0
 2039 0152 0000      		.word	gs(qk_tap_dance_pair_finished)
 2040 0154 0000      		.word	gs(qk_tap_dance_pair_reset)
 2041 0156 0000 0000 		.zero	8
 2041      0000 0000 
 2042 015e 0000      		.word	__compound_literal.17
 2043 0160 0000      		.word	0
 2044 0162 0000      		.word	gs(qk_tap_dance_pair_finished)
 2045 0164 0000      		.word	gs(qk_tap_dance_pair_reset)
 2046 0166 0000 0000 		.zero	8
 2046      0000 0000 
 2047 016e 0000      		.word	__compound_literal.18
 2048 0170 0000      		.word	0
 2049 0172 0000      		.word	gs(qk_tap_dance_pair_finished)
 2050 0174 0000      		.word	gs(qk_tap_dance_pair_reset)
 2051 0176 0000 0000 		.zero	8
 2051      0000 0000 
 2052 017e 0000      		.word	__compound_literal.19
 2053 0180 0000      		.word	0
 2054 0182 0000      		.word	gs(qk_tap_dance_pair_finished)
 2055 0184 0000      		.word	gs(qk_tap_dance_pair_reset)
 2056 0186 0000 0000 		.zero	8
 2056      0000 0000 
 2057 018e 0000      		.word	__compound_literal.20
 2058               		.section	.data.__compound_literal.20,"aw",@progbits
 2061               	__compound_literal.20:
 2062 0000 0F00      		.word	15
 2063 0002 1030      		.word	12304
 2064               		.section	.data.__compound_literal.19,"aw",@progbits
 2067               	__compound_literal.19:
 2068 0000 0E00      		.word	14
 2069 0002 0F30      		.word	12303
 2070               		.section	.data.__compound_literal.18,"aw",@progbits
 2073               	__compound_literal.18:
 2074 0000 0D00      		.word	13
 2075 0002 0E30      		.word	12302
 2076               		.section	.data.__compound_literal.17,"aw",@progbits
 2079               	__compound_literal.17:
 2080 0000 4D00      		.word	77
 2081 0002 4D02      		.word	589
 2082               		.section	.data.__compound_literal.16,"aw",@progbits
 2085               	__compound_literal.16:
 2086 0000 4A00      		.word	74
 2087 0002 4A02      		.word	586
 2088               		.section	.data.__compound_literal.15,"aw",@progbits
 2091               	__compound_literal.15:
 2092 0000 4E00      		.word	78
 2093 0002 4F04      		.word	1103
 2094               		.section	.data.__compound_literal.14,"aw",@progbits
 2097               	__compound_literal.14:
 2098 0000 4B00      		.word	75
 2099 0002 5004      		.word	1104
 2100               		.section	.data.__compound_literal.13,"aw",@progbits
 2103               	__compound_literal.13:
 2104 0000 3400      		.word	52
 2105 0002 3402      		.word	564
 2106               		.section	.data.__compound_literal.12,"aw",@progbits
 2109               	__compound_literal.12:
 2110 0000 E100      		.word	225
 2111 0002 3900      		.word	57
 2112               		.section	.data.__compound_literal.11,"aw",@progbits
 2115               	__compound_literal.11:
 2116 0000 2E02      		.word	558
 2117 0002 4500      		.word	69
 2118               		.section	.data.__compound_literal.10,"aw",@progbits
 2121               	__compound_literal.10:
 2122 0000 2D00      		.word	45
 2123 0002 4400      		.word	68
 2124               		.section	.data.__compound_literal.9,"aw",@progbits
 2127               	__compound_literal.9:
 2128 0000 2700      		.word	39
 2129 0002 4300      		.word	67
 2130               		.section	.data.__compound_literal.8,"aw",@progbits
 2133               	__compound_literal.8:
 2134 0000 2600      		.word	38
 2135 0002 4200      		.word	66
 2136               		.section	.data.__compound_literal.7,"aw",@progbits
 2139               	__compound_literal.7:
 2140 0000 2500      		.word	37
 2141 0002 4100      		.word	65
 2142               		.section	.data.__compound_literal.6,"aw",@progbits
 2145               	__compound_literal.6:
 2146 0000 2400      		.word	36
 2147 0002 4000      		.word	64
 2148               		.section	.data.__compound_literal.5,"aw",@progbits
 2151               	__compound_literal.5:
 2152 0000 2300      		.word	35
 2153 0002 3F00      		.word	63
 2154               		.section	.data.__compound_literal.4,"aw",@progbits
 2157               	__compound_literal.4:
 2158 0000 2200      		.word	34
 2159 0002 3E00      		.word	62
 2160               		.section	.data.__compound_literal.3,"aw",@progbits
 2163               	__compound_literal.3:
 2164 0000 2100      		.word	33
 2165 0002 3D00      		.word	61
 2166               		.section	.data.__compound_literal.2,"aw",@progbits
 2169               	__compound_literal.2:
 2170 0000 2000      		.word	32
 2171 0002 3C00      		.word	60
 2172               		.section	.data.__compound_literal.1,"aw",@progbits
 2175               	__compound_literal.1:
 2176 0000 1F00      		.word	31
 2177 0002 3B00      		.word	59
 2178               		.section	.data.__compound_literal.0,"aw",@progbits
 2181               	__compound_literal.0:
 2182 0000 1E00      		.word	30
 2183 0002 3A00      		.word	58
 2184               	.global	fn_actions
 2185               		.section	.progmem.data.fn_actions,"a",@progbits
 2188               	fn_actions:
 2189 0000 0000      		.zero	2
 2190 0002 F0A1      		.word	-24080
 2191 0004 F0A2      		.word	-23824
 2192 0006 F0A3      		.word	-23568
 2193 0008 F0A4      		.word	-23312
 2194               		.text
 2195               	.Letext0:
 2196               		.file 3 "/usr/lib/avr/include/stdint.h"
 2197               		.file 4 "./tmk_core/common/keyboard.h"
 2198               		.file 5 "./tmk_core/common/keycode.h"
 2199               		.file 6 "./tmk_core/common/action_code.h"
 2200               		.file 7 "./tmk_core/common/action_macro.h"
 2201               		.file 8 "./tmk_core/common/action.h"
 2202               		.file 9 "./quantum/keymap.h"
 2203               		.file 10 "./quantum/process_keycode/process_tap_dance.h"
 2204               		.file 11 "./tmk_core/protocol/lufa/LUFA-git/LUFA/Drivers/USB/Core/USBTask.h"
 2205               		.file 12 "./quantum/quantum.h"
 2206               		.file 13 "/usr/lib/avr/include/stdio.h"
 2207               		.file 14 "/usr/lib/avr/include/string.h"
 2208               		.file 15 "./tmk_core/common/util.h"
DEFINED SYMBOLS
                            *ABS*:0000000000000000 keymap.c
     /tmp/ccUzemAG.s:2      *ABS*:000000000000003e __SP_H__
     /tmp/ccUzemAG.s:3      *ABS*:000000000000003d __SP_L__
     /tmp/ccUzemAG.s:4      *ABS*:000000000000003f __SREG__
     /tmp/ccUzemAG.s:5      *ABS*:0000000000000000 __tmp_reg__
     /tmp/ccUzemAG.s:6      *ABS*:0000000000000001 __zero_reg__
     /tmp/ccUzemAG.s:13     .text.dance_press_t:0000000000000000 dance_press_t
     /tmp/ccUzemAG.s:47     .text.dance_dbrc:0000000000000000 dance_dbrc
     /tmp/ccUzemAG.s:96     .text.dance_press_g:0000000000000000 dance_press_g
     /tmp/ccUzemAG.s:129    .text.dance_dcbr:0000000000000000 dance_dcbr
     /tmp/ccUzemAG.s:186    .text.dance_press_b:0000000000000000 dance_press_b
     /tmp/ccUzemAG.s:219    .text.dance_dprn:0000000000000000 dance_dprn
     /tmp/ccUzemAG.s:276    .text.dance_press_equal:0000000000000000 dance_press_equal
     /tmp/ccUzemAG.s:309    .text.dance_press_rassign:0000000000000000 dance_press_rassign
     /tmp/ccUzemAG.s:358    .text.action_get_macro:0000000000000000 action_get_macro
     /tmp/ccUzemAG.s:1399   .progmem.data.__c.5265:0000000000000000 __c.5265
     /tmp/ccUzemAG.s:1394   .progmem.data.__c.5269:0000000000000000 __c.5269
     /tmp/ccUzemAG.s:1377   .progmem.data.__m.5272:0000000000000000 __m.5272
     /tmp/ccUzemAG.s:1372   .progmem.data.__c.5275:0000000000000000 __c.5275
     /tmp/ccUzemAG.s:1347   .progmem.data.__m.5278:0000000000000000 __m.5278
     /tmp/ccUzemAG.s:1286   .progmem.data.__m.5281:0000000000000000 __m.5281
     /tmp/ccUzemAG.s:1281   .progmem.data.__c.5284:0000000000000000 __c.5284
     /tmp/ccUzemAG.s:1276   .progmem.data.__c.5287:0000000000000000 __c.5287
     /tmp/ccUzemAG.s:1269   .progmem.data.__c.5290:0000000000000000 __c.5290
     /tmp/ccUzemAG.s:1264   .progmem.data.__c.5293:0000000000000000 __c.5293
     /tmp/ccUzemAG.s:1259   .progmem.data.__c.5296:0000000000000000 __c.5296
     /tmp/ccUzemAG.s:1254   .progmem.data.__c.5299:0000000000000000 __c.5299
     /tmp/ccUzemAG.s:1249   .progmem.data.__c.5302:0000000000000000 __c.5302
     /tmp/ccUzemAG.s:1236   .progmem.data.__m.5305:0000000000000000 __m.5305
     /tmp/ccUzemAG.s:1219   .progmem.data.__m.5308:0000000000000000 __m.5308
     /tmp/ccUzemAG.s:1198   .progmem.data.__m.5311:0000000000000000 __m.5311
     /tmp/ccUzemAG.s:1177   .progmem.data.__m.5314:0000000000000000 __m.5314
     /tmp/ccUzemAG.s:1164   .progmem.data.__m.5317:0000000000000000 __m.5317
     /tmp/ccUzemAG.s:1151   .progmem.data.__m.5320:0000000000000000 __m.5320
     /tmp/ccUzemAG.s:583    .text.dance_press_home:0000000000000000 dance_press_home
     /tmp/ccUzemAG.s:616    .text.dance_press_shifthome:0000000000000000 dance_press_shifthome
     /tmp/ccUzemAG.s:657    .text.dance_press_end:0000000000000000 dance_press_end
     /tmp/ccUzemAG.s:690    .text.dance_press_shiftend:0000000000000000 dance_press_shiftend
     /tmp/ccUzemAG.s:736    .text.pre_macro_date_to_int:0000000000000000 pre_macro_date_to_int
     /tmp/ccUzemAG.s:910    .text.pre_macro_time_to_int:0000000000000000 pre_macro_time_to_int
     /tmp/ccUzemAG.s:1038   .text.matrix_init_user:0000000000000000 matrix_init_user
     /tmp/ccUzemAG.s:1053   .text.matrix_scan_user:0000000000000000 matrix_scan_user
     /tmp/ccUzemAG.s:1408   .data.date_str:0000000000000000 date_str
     /tmp/ccUzemAG.s:1417   .data.sql_query:0000000000000000 sql_query
     /tmp/ccUzemAG.s:1423   .progmem.data.keymaps:0000000000000000 keymaps
     /tmp/ccUzemAG.s:1932   .data.tap_dance_actions:0000000000000000 tap_dance_actions
     /tmp/ccUzemAG.s:2181   .data.__compound_literal.0:0000000000000000 __compound_literal.0
     /tmp/ccUzemAG.s:2175   .data.__compound_literal.1:0000000000000000 __compound_literal.1
     /tmp/ccUzemAG.s:2169   .data.__compound_literal.2:0000000000000000 __compound_literal.2
     /tmp/ccUzemAG.s:2163   .data.__compound_literal.3:0000000000000000 __compound_literal.3
     /tmp/ccUzemAG.s:2157   .data.__compound_literal.4:0000000000000000 __compound_literal.4
     /tmp/ccUzemAG.s:2151   .data.__compound_literal.5:0000000000000000 __compound_literal.5
     /tmp/ccUzemAG.s:2145   .data.__compound_literal.6:0000000000000000 __compound_literal.6
     /tmp/ccUzemAG.s:2139   .data.__compound_literal.7:0000000000000000 __compound_literal.7
     /tmp/ccUzemAG.s:2133   .data.__compound_literal.8:0000000000000000 __compound_literal.8
     /tmp/ccUzemAG.s:2127   .data.__compound_literal.9:0000000000000000 __compound_literal.9
     /tmp/ccUzemAG.s:2121   .data.__compound_literal.10:0000000000000000 __compound_literal.10
     /tmp/ccUzemAG.s:2115   .data.__compound_literal.11:0000000000000000 __compound_literal.11
     /tmp/ccUzemAG.s:2109   .data.__compound_literal.12:0000000000000000 __compound_literal.12
     /tmp/ccUzemAG.s:2103   .data.__compound_literal.13:0000000000000000 __compound_literal.13
     /tmp/ccUzemAG.s:2097   .data.__compound_literal.14:0000000000000000 __compound_literal.14
     /tmp/ccUzemAG.s:2091   .data.__compound_literal.15:0000000000000000 __compound_literal.15
     /tmp/ccUzemAG.s:2085   .data.__compound_literal.16:0000000000000000 __compound_literal.16
     /tmp/ccUzemAG.s:2079   .data.__compound_literal.17:0000000000000000 __compound_literal.17
     /tmp/ccUzemAG.s:2073   .data.__compound_literal.18:0000000000000000 __compound_literal.18
     /tmp/ccUzemAG.s:2067   .data.__compound_literal.19:0000000000000000 __compound_literal.19
     /tmp/ccUzemAG.s:2061   .data.__compound_literal.20:0000000000000000 __compound_literal.20
     /tmp/ccUzemAG.s:2188   .progmem.data.fn_actions:0000000000000000 fn_actions

UNDEFINED SYMBOLS
register_code
unregister_code
clear_keyboard_but_mods
__tablejump2__
send_string
sscanf
strstr
__divmodhi4
layer_state
biton32
qk_tap_dance_pair_finished
qk_tap_dance_pair_reset
__do_copy_data
