   1               		.file	"keymap.c"
   2               	__SP_H__ = 0x3e
   3               	__SP_L__ = 0x3d
   4               	__SREG__ = 0x3f
   5               	__tmp_reg__ = 0
   6               	__zero_reg__ = 1
   7               		.text
   8               	.Ltext0:
   9               		.cfi_sections	.debug_frame
  10               		.section	.text.dance_press_equal,"ax",@progbits
  11               	.global	dance_press_equal
  13               	dance_press_equal:
  14               	.LVL0:
  15               	.LFB127:
  16               		.file 1 "keyboards/ergodox/ez/keymaps/pydemia/keymap.c"
   1:keyboards/ergodox/ez/keymaps/pydemia/keymap.c **** #include "ergodox.h"
   2:keyboards/ergodox/ez/keymaps/pydemia/keymap.c **** #include "debug.h"
   3:keyboards/ergodox/ez/keymaps/pydemia/keymap.c **** #include "action_layer.h"
   4:keyboards/ergodox/ez/keymaps/pydemia/keymap.c **** #include "version.h"
   5:keyboards/ergodox/ez/keymaps/pydemia/keymap.c **** #include "process_tap_dance.h"
   6:keyboards/ergodox/ez/keymaps/pydemia/keymap.c **** 
   7:keyboards/ergodox/ez/keymaps/pydemia/keymap.c **** #define WKEY 0 // default layer
   8:keyboards/ergodox/ez/keymaps/pydemia/keymap.c **** #define NPAD 1 // Numpad Layer
   9:keyboards/ergodox/ez/keymaps/pydemia/keymap.c **** #define MAGI 2 // Magic Layer
  10:keyboards/ergodox/ez/keymaps/pydemia/keymap.c **** #define ACTN 3 // Action Layer,
  11:keyboards/ergodox/ez/keymaps/pydemia/keymap.c **** #define LCMD 4 // MacOS Layer
  12:keyboards/ergodox/ez/keymaps/pydemia/keymap.c **** #define RESV 5 // Reserved Layer
  13:keyboards/ergodox/ez/keymaps/pydemia/keymap.c **** #define LKEY 6 // Linux Layer
  14:keyboards/ergodox/ez/keymaps/pydemia/keymap.c **** #define PPTK 7 // PPT Layer
  15:keyboards/ergodox/ez/keymaps/pydemia/keymap.c **** 
  16:keyboards/ergodox/ez/keymaps/pydemia/keymap.c **** // Layer Change
  17:keyboards/ergodox/ez/keymaps/pydemia/keymap.c **** const uint16_t PROGMEM fn_actions[] = {
  18:keyboards/ergodox/ez/keymaps/pydemia/keymap.c ****     [1] = ACTION_LAYER_TAP_TOGGLE(NPAD),  // FN1 - Momentary Layer 1 (Numpad Layer)~
  19:keyboards/ergodox/ez/keymaps/pydemia/keymap.c ****     [2] = ACTION_LAYER_TAP_TOGGLE(MAGI),  // FN2 - Momentary Layer 2 (Magic Layer)~
  20:keyboards/ergodox/ez/keymaps/pydemia/keymap.c ****     [3] = ACTION_LAYER_TAP_TOGGLE(ACTN),  // FN3 - Momentary Layer 3 (Action Layer)~
  21:keyboards/ergodox/ez/keymaps/pydemia/keymap.c ****     [4] = ACTION_LAYER_TAP_TOGGLE(LCMD),  // FN4 - Momentary Layer 4 (MacOS Layer)~
  22:keyboards/ergodox/ez/keymaps/pydemia/keymap.c ****     [5] = ACTION_LAYER_TAP_TOGGLE(RESV),  // FN5 - Momentary Layer 5 (Reserved Layer)~
  23:keyboards/ergodox/ez/keymaps/pydemia/keymap.c ****     [6] = ACTION_LAYER_TAP_TOGGLE(LKEY),  // FN6 - Momentary Layer 6 (PPT Layer)~
  24:keyboards/ergodox/ez/keymaps/pydemia/keymap.c **** 
  25:keyboards/ergodox/ez/keymaps/pydemia/keymap.c **** };
  26:keyboards/ergodox/ez/keymaps/pydemia/keymap.c **** 
  27:keyboards/ergodox/ez/keymaps/pydemia/keymap.c **** 
  28:keyboards/ergodox/ez/keymaps/pydemia/keymap.c **** 
  29:keyboards/ergodox/ez/keymaps/pydemia/keymap.c **** 
  30:keyboards/ergodox/ez/keymaps/pydemia/keymap.c **** // Python Code Format
  31:keyboards/ergodox/ez/keymaps/pydemia/keymap.c **** #define SIGNITURE "# -*- coding: utf-8 -*- \n"\
  32:keyboards/ergodox/ez/keymaps/pydemia/keymap.c **** "'''\n"\
  33:keyboards/ergodox/ez/keymaps/pydemia/keymap.c **** "Created  : " __DATE__ " " __TIME__"\n"\
  34:keyboards/ergodox/ez/keymaps/pydemia/keymap.c **** "Modified : " __DATE__ " " __TIME__"\n"\
  35:keyboards/ergodox/ez/keymaps/pydemia/keymap.c **** "\n"\
  36:keyboards/ergodox/ez/keymaps/pydemia/keymap.c **** "@author: Young Ju Kim\n"\
  37:keyboards/ergodox/ez/keymaps/pydemia/keymap.c **** "'''\n"
  38:keyboards/ergodox/ez/keymaps/pydemia/keymap.c **** 
  39:keyboards/ergodox/ez/keymaps/pydemia/keymap.c **** // Query Strings
  40:keyboards/ergodox/ez/keymaps/pydemia/keymap.c **** #define SQL_NORMAL_STR "SELECT\r\n"\
  41:keyboards/ergodox/ez/keymaps/pydemia/keymap.c **** "     A.col\r\n"\
  42:keyboards/ergodox/ez/keymaps/pydemia/keymap.c **** "    ,A.*\r\n"\
  43:keyboards/ergodox/ez/keymaps/pydemia/keymap.c **** "FROM\r\n"\
  44:keyboards/ergodox/ez/keymaps/pydemia/keymap.c **** "    a.aa A\r\n"\
  45:keyboards/ergodox/ez/keymaps/pydemia/keymap.c **** "WHERE\r\n"\
  46:keyboards/ergodox/ez/keymaps/pydemia/keymap.c **** "    A.col = NULL\r\n"\
  47:keyboards/ergodox/ez/keymaps/pydemia/keymap.c **** "AND A.col <> 1\r\n"\
  48:keyboards/ergodox/ez/keymaps/pydemia/keymap.c **** "AND A.col BETWEEN '01' AND '02'\r\n"
  49:keyboards/ergodox/ez/keymaps/pydemia/keymap.c **** 
  50:keyboards/ergodox/ez/keymaps/pydemia/keymap.c **** 
  51:keyboards/ergodox/ez/keymaps/pydemia/keymap.c **** #define SQL_LEFT_STR "SELECT\r\n"\
  52:keyboards/ergodox/ez/keymaps/pydemia/keymap.c **** "     A.*\r\n"\
  53:keyboards/ergodox/ez/keymaps/pydemia/keymap.c **** "    ,B.*\r\n"\
  54:keyboards/ergodox/ez/keymaps/pydemia/keymap.c **** "FROM\r\n"\
  55:keyboards/ergodox/ez/keymaps/pydemia/keymap.c **** "    a.aa A\r\n"\
  56:keyboards/ergodox/ez/keymaps/pydemia/keymap.c **** "    LEFT OUTER JOIN b.bb B\r\n"\
  57:keyboards/ergodox/ez/keymaps/pydemia/keymap.c **** "    ON\r\n"\
  58:keyboards/ergodox/ez/keymaps/pydemia/keymap.c **** "        B.col = A.col --NULL\r\n"\
  59:keyboards/ergodox/ez/keymaps/pydemia/keymap.c **** "    AND B.col = A.col --NULL\r\n"\
  60:keyboards/ergodox/ez/keymaps/pydemia/keymap.c **** "WHERE\r\n"\
  61:keyboards/ergodox/ez/keymaps/pydemia/keymap.c **** "    B.col = NULL\r\n"\
  62:keyboards/ergodox/ez/keymaps/pydemia/keymap.c **** "AND A.col <> 1\r\n"\
  63:keyboards/ergodox/ez/keymaps/pydemia/keymap.c **** "AND A.col BETWEEN '01' AND '02'\r\n"
  64:keyboards/ergodox/ez/keymaps/pydemia/keymap.c **** 
  65:keyboards/ergodox/ez/keymaps/pydemia/keymap.c **** 
  66:keyboards/ergodox/ez/keymaps/pydemia/keymap.c **** #define SQL_LEFT_SUB_STR "SELECT\r\n"\
  67:keyboards/ergodox/ez/keymaps/pydemia/keymap.c **** "     A.*\r\n"\
  68:keyboards/ergodox/ez/keymaps/pydemia/keymap.c **** "    ,B.*\r\n"\
  69:keyboards/ergodox/ez/keymaps/pydemia/keymap.c **** "FROM\r\n"\
  70:keyboards/ergodox/ez/keymaps/pydemia/keymap.c **** "    a.aa A\r\n"\
  71:keyboards/ergodox/ez/keymaps/pydemia/keymap.c **** "    LEFT OUTER JOIN\r\n"\
  72:keyboards/ergodox/ez/keymaps/pydemia/keymap.c **** "        (\r\n"\
  73:keyboards/ergodox/ez/keymaps/pydemia/keymap.c **** "        SELECT\r\n"\
  74:keyboards/ergodox/ez/keymaps/pydemia/keymap.c **** "             C.col\r\n"\
  75:keyboards/ergodox/ez/keymaps/pydemia/keymap.c **** "        FROM\r\n"\
  76:keyboards/ergodox/ez/keymaps/pydemia/keymap.c **** "            c.cc C\r\n"\
  77:keyboards/ergodox/ez/keymaps/pydemia/keymap.c **** "        WHERE\r\n"\
  78:keyboards/ergodox/ez/keymaps/pydemia/keymap.c **** "            C.col = NULL\r\n"\
  79:keyboards/ergodox/ez/keymaps/pydemia/keymap.c **** "        ) B\r\n"\
  80:keyboards/ergodox/ez/keymaps/pydemia/keymap.c **** "    ON\r\n"\
  81:keyboards/ergodox/ez/keymaps/pydemia/keymap.c **** "        B.col = A.col --NULL\r\n"\
  82:keyboards/ergodox/ez/keymaps/pydemia/keymap.c **** "    AND B.col = A.col --NULL\r\n"\
  83:keyboards/ergodox/ez/keymaps/pydemia/keymap.c **** "WHERE\r\n"\
  84:keyboards/ergodox/ez/keymaps/pydemia/keymap.c **** "    B.col = NULL\r\n"\
  85:keyboards/ergodox/ez/keymaps/pydemia/keymap.c **** "AND A.col <> 1\r\n"\
  86:keyboards/ergodox/ez/keymaps/pydemia/keymap.c **** "AND A.col BETWEEN '01' AND '02'\r\n"
  87:keyboards/ergodox/ez/keymaps/pydemia/keymap.c **** 
  88:keyboards/ergodox/ez/keymaps/pydemia/keymap.c **** // pip String
  89:keyboards/ergodox/ez/keymaps/pydemia/keymap.c **** #define PIP_STR "pip install --cert=c:/sslproxy.crt "
  90:keyboards/ergodox/ez/keymaps/pydemia/keymap.c **** 
  91:keyboards/ergodox/ez/keymaps/pydemia/keymap.c **** 
  92:keyboards/ergodox/ez/keymaps/pydemia/keymap.c **** #define DATETIME_STR __DATE__ " " __TIME__
  93:keyboards/ergodox/ez/keymaps/pydemia/keymap.c **** 
  94:keyboards/ergodox/ez/keymaps/pydemia/keymap.c **** #define SQLCOMMENT
  95:keyboards/ergodox/ez/keymaps/pydemia/keymap.c **** 
  96:keyboards/ergodox/ez/keymaps/pydemia/keymap.c **** // Macro Key
  97:keyboards/ergodox/ez/keymaps/pydemia/keymap.c **** 
  98:keyboards/ergodox/ez/keymaps/pydemia/keymap.c **** // MACRO START ---------------------------------------------------------------------
  99:keyboards/ergodox/ez/keymaps/pydemia/keymap.c **** 
 100:keyboards/ergodox/ez/keymaps/pydemia/keymap.c **** 
 101:keyboards/ergodox/ez/keymaps/pydemia/keymap.c **** #define QMK_VER_KEY     M(0)
 102:keyboards/ergodox/ez/keymaps/pydemia/keymap.c **** #define SIGN_KEY        M(1)
 103:keyboards/ergodox/ez/keymaps/pydemia/keymap.c **** #define ASSIGN_R_KEY    M(2)
 104:keyboards/ergodox/ez/keymaps/pydemia/keymap.c **** #define PY_DTFM_KEY     M(3)
 105:keyboards/ergodox/ez/keymaps/pydemia/keymap.c **** #define SPYD_CELL_KEY   M(4)
 106:keyboards/ergodox/ez/keymaps/pydemia/keymap.c **** #define R_FOLDING_KEY   M(5)
 107:keyboards/ergodox/ez/keymaps/pydemia/keymap.c **** #define SQL_NORMAL_KEY  M(6)
 108:keyboards/ergodox/ez/keymaps/pydemia/keymap.c **** #define SQL_LEFT_KEY    M(7)
 109:keyboards/ergodox/ez/keymaps/pydemia/keymap.c **** #define SQL_LEFTSUB_KEY M(8)
 110:keyboards/ergodox/ez/keymaps/pydemia/keymap.c **** #define PIP_STR_KEY     M(9)
 111:keyboards/ergodox/ez/keymaps/pydemia/keymap.c **** #define DT_STR_KEY      M(10)
 112:keyboards/ergodox/ez/keymaps/pydemia/keymap.c **** #define TM_STR_KEY      M(11)
 113:keyboards/ergodox/ez/keymaps/pydemia/keymap.c **** #define DTTM_STR_KEY    M(12)
 114:keyboards/ergodox/ez/keymaps/pydemia/keymap.c **** #define D_QUOTE_KEY     M(13)
 115:keyboards/ergodox/ez/keymaps/pydemia/keymap.c **** #define BRC_KEY         M(14)
 116:keyboards/ergodox/ez/keymaps/pydemia/keymap.c **** #define CBR_KEY         M(15)
 117:keyboards/ergodox/ez/keymaps/pydemia/keymap.c **** #define PRN_KEY         M(16)
 118:keyboards/ergodox/ez/keymaps/pydemia/keymap.c **** #define HOME_SFT_KEY    M(17)
 119:keyboards/ergodox/ez/keymaps/pydemia/keymap.c **** #define END_SFT_KEY     M(18)
 120:keyboards/ergodox/ez/keymaps/pydemia/keymap.c **** #define SQLCOMMENT_KEY  M(19)
 121:keyboards/ergodox/ez/keymaps/pydemia/keymap.c **** 
 122:keyboards/ergodox/ez/keymaps/pydemia/keymap.c **** const macro_t *action_get_macro(keyrecord_t *record, uint8_t id, uint8_t opt )
 123:keyboards/ergodox/ez/keymaps/pydemia/keymap.c **** {
 124:keyboards/ergodox/ez/keymaps/pydemia/keymap.c ****   // MACRODOWN only works in this function
 125:keyboards/ergodox/ez/keymaps/pydemia/keymap.c ****       switch(id) {
 126:keyboards/ergodox/ez/keymaps/pydemia/keymap.c ****         case 0:
 127:keyboards/ergodox/ez/keymaps/pydemia/keymap.c ****         if (record->event.pressed) {
 128:keyboards/ergodox/ez/keymaps/pydemia/keymap.c ****           SEND_STRING (QMK_KEYBOARD "/" QMK_KEYMAP " @ " QMK_VERSION);
 129:keyboards/ergodox/ez/keymaps/pydemia/keymap.c ****         }
 130:keyboards/ergodox/ez/keymaps/pydemia/keymap.c ****         break;
 131:keyboards/ergodox/ez/keymaps/pydemia/keymap.c ****         case 1:
 132:keyboards/ergodox/ez/keymaps/pydemia/keymap.c ****         if (record->event.pressed) { // For resetting EEPROM
 133:keyboards/ergodox/ez/keymaps/pydemia/keymap.c ****           SEND_STRING ( SIGNITURE );
 134:keyboards/ergodox/ez/keymaps/pydemia/keymap.c ****         }
 135:keyboards/ergodox/ez/keymaps/pydemia/keymap.c ****         break;
 136:keyboards/ergodox/ez/keymaps/pydemia/keymap.c ****         case 2:
 137:keyboards/ergodox/ez/keymaps/pydemia/keymap.c ****         if (record->event.pressed) { // <-
 138:keyboards/ergodox/ez/keymaps/pydemia/keymap.c ****           //SEND_STRING ( "<-" );
 139:keyboards/ergodox/ez/keymaps/pydemia/keymap.c ****           return MACRO(D(LSFT), T(COMMA), U(LSFT), T(MINUS), END);
 140:keyboards/ergodox/ez/keymaps/pydemia/keymap.c ****         }
 141:keyboards/ergodox/ez/keymaps/pydemia/keymap.c ****         break;
 142:keyboards/ergodox/ez/keymaps/pydemia/keymap.c ****         case 3:
 143:keyboards/ergodox/ez/keymaps/pydemia/keymap.c ****         if (record->event.pressed) { // '%Y%m%d%H%M%S%f'
 144:keyboards/ergodox/ez/keymaps/pydemia/keymap.c ****           SEND_STRING ( "'%Y%m%d%H%M%S%f'" );
 145:keyboards/ergodox/ez/keymaps/pydemia/keymap.c ****           //return MACRO(D(LSFT), T(COMMA), U(LSFT), T(MINUS), END);
 146:keyboards/ergodox/ez/keymaps/pydemia/keymap.c ****         }
 147:keyboards/ergodox/ez/keymaps/pydemia/keymap.c ****         break;
 148:keyboards/ergodox/ez/keymaps/pydemia/keymap.c ****         case 4:
 149:keyboards/ergodox/ez/keymaps/pydemia/keymap.c ****         if (record->event.pressed) { // # %% (For Python Spyder)
 150:keyboards/ergodox/ez/keymaps/pydemia/keymap.c ****           //SEND_STRING ( "# %%" );
 151:keyboards/ergodox/ez/keymaps/pydemia/keymap.c ****           return MACRO(D(LSFT), T(3), T(SPC), T(5), T(5), U(LSFT), END);
 152:keyboards/ergodox/ez/keymaps/pydemia/keymap.c ****         }
 153:keyboards/ergodox/ez/keymaps/pydemia/keymap.c ****         break;
 154:keyboards/ergodox/ez/keymaps/pydemia/keymap.c ****         case 5:
 155:keyboards/ergodox/ez/keymaps/pydemia/keymap.c ****         if (record->event.pressed) { // # %% (For Python Spyder)
 156:keyboards/ergodox/ez/keymaps/pydemia/keymap.c ****           //SEND_STRING ( "# %%" );
 157:keyboards/ergodox/ez/keymaps/pydemia/keymap.c ****           return MACRO( D(LSFT), T(3), U(LSFT), T(SPC), T(SPC), T(MINUS), T(MINUS), T(MINUS), T(MIN
 158:keyboards/ergodox/ez/keymaps/pydemia/keymap.c ****                         T(LEFT), T(LEFT), T(LEFT), T(LEFT), T(LEFT), END);
 159:keyboards/ergodox/ez/keymaps/pydemia/keymap.c ****         }
 160:keyboards/ergodox/ez/keymaps/pydemia/keymap.c ****         break;
 161:keyboards/ergodox/ez/keymaps/pydemia/keymap.c ****         case 6:
 162:keyboards/ergodox/ez/keymaps/pydemia/keymap.c ****         if (record->event.pressed) { // For resetting EEPROM
 163:keyboards/ergodox/ez/keymaps/pydemia/keymap.c ****           SEND_STRING ( SQL_NORMAL_STR );
 164:keyboards/ergodox/ez/keymaps/pydemia/keymap.c ****         }
 165:keyboards/ergodox/ez/keymaps/pydemia/keymap.c ****         break;
 166:keyboards/ergodox/ez/keymaps/pydemia/keymap.c ****         case 7:
 167:keyboards/ergodox/ez/keymaps/pydemia/keymap.c ****         if (record->event.pressed) { // For resetting EEPROM
 168:keyboards/ergodox/ez/keymaps/pydemia/keymap.c ****           SEND_STRING ( SQL_LEFT_STR );
 169:keyboards/ergodox/ez/keymaps/pydemia/keymap.c ****         }
 170:keyboards/ergodox/ez/keymaps/pydemia/keymap.c ****         break;
 171:keyboards/ergodox/ez/keymaps/pydemia/keymap.c ****         case 8:
 172:keyboards/ergodox/ez/keymaps/pydemia/keymap.c ****         if (record->event.pressed) { // For resetting EEPROM
 173:keyboards/ergodox/ez/keymaps/pydemia/keymap.c ****           SEND_STRING ( SQL_LEFT_SUB_STR );
 174:keyboards/ergodox/ez/keymaps/pydemia/keymap.c ****         }
 175:keyboards/ergodox/ez/keymaps/pydemia/keymap.c ****         break;
 176:keyboards/ergodox/ez/keymaps/pydemia/keymap.c ****         case 9:
 177:keyboards/ergodox/ez/keymaps/pydemia/keymap.c ****         if (record->event.pressed) { // For resetting EEPROM
 178:keyboards/ergodox/ez/keymaps/pydemia/keymap.c ****           SEND_STRING ( PIP_STR );
 179:keyboards/ergodox/ez/keymaps/pydemia/keymap.c ****         }
 180:keyboards/ergodox/ez/keymaps/pydemia/keymap.c ****         break;
 181:keyboards/ergodox/ez/keymaps/pydemia/keymap.c ****         case 10:
 182:keyboards/ergodox/ez/keymaps/pydemia/keymap.c ****         if (record->event.pressed) { // For resetting EEPROM
 183:keyboards/ergodox/ez/keymaps/pydemia/keymap.c ****           SEND_STRING ( __DATE__ );
 184:keyboards/ergodox/ez/keymaps/pydemia/keymap.c ****         }
 185:keyboards/ergodox/ez/keymaps/pydemia/keymap.c ****         break;
 186:keyboards/ergodox/ez/keymaps/pydemia/keymap.c ****         case 11:
 187:keyboards/ergodox/ez/keymaps/pydemia/keymap.c ****         if (record->event.pressed) { // For resetting EEPROM
 188:keyboards/ergodox/ez/keymaps/pydemia/keymap.c ****           SEND_STRING ( __TIME__ );
 189:keyboards/ergodox/ez/keymaps/pydemia/keymap.c ****         }
 190:keyboards/ergodox/ez/keymaps/pydemia/keymap.c ****         break;
 191:keyboards/ergodox/ez/keymaps/pydemia/keymap.c ****         case 12:
 192:keyboards/ergodox/ez/keymaps/pydemia/keymap.c ****         if (record->event.pressed) { // For resetting EEPROM
 193:keyboards/ergodox/ez/keymaps/pydemia/keymap.c ****           SEND_STRING ( DATETIME_STR );
 194:keyboards/ergodox/ez/keymaps/pydemia/keymap.c ****         }
 195:keyboards/ergodox/ez/keymaps/pydemia/keymap.c ****         break;
 196:keyboards/ergodox/ez/keymaps/pydemia/keymap.c ****         case 13:
 197:keyboards/ergodox/ez/keymaps/pydemia/keymap.c ****         if (record->event.pressed) { // For resetting EEPROM
 198:keyboards/ergodox/ez/keymaps/pydemia/keymap.c ****           //SEND_STRING ( " );
 199:keyboards/ergodox/ez/keymaps/pydemia/keymap.c ****           return MACRO(D(LSFT), T(QUOT), U(LSFT), END);
 200:keyboards/ergodox/ez/keymaps/pydemia/keymap.c ****         }
 201:keyboards/ergodox/ez/keymaps/pydemia/keymap.c ****         break;
 202:keyboards/ergodox/ez/keymaps/pydemia/keymap.c ****         case 14:
 203:keyboards/ergodox/ez/keymaps/pydemia/keymap.c ****         if (record->event.pressed) { // For resetting EEPROM
 204:keyboards/ergodox/ez/keymaps/pydemia/keymap.c ****           return MACRO( T(LBRC), T(RBRC), T(LEFT), END );
 205:keyboards/ergodox/ez/keymaps/pydemia/keymap.c ****         }
 206:keyboards/ergodox/ez/keymaps/pydemia/keymap.c ****         break;
 207:keyboards/ergodox/ez/keymaps/pydemia/keymap.c ****         case 15:
 208:keyboards/ergodox/ez/keymaps/pydemia/keymap.c ****         if (record->event.pressed) { // For resetting EEPROM
 209:keyboards/ergodox/ez/keymaps/pydemia/keymap.c ****           return MACRO( D(LSFT), T(LBRC), T(RBRC), U(LSFT), T(LEFT), END );
 210:keyboards/ergodox/ez/keymaps/pydemia/keymap.c ****           //return MACRO( T(LCBR), T(RCBR), T(LEFT), END );
 211:keyboards/ergodox/ez/keymaps/pydemia/keymap.c ****         }
 212:keyboards/ergodox/ez/keymaps/pydemia/keymap.c ****         break;
 213:keyboards/ergodox/ez/keymaps/pydemia/keymap.c ****         case 16:
 214:keyboards/ergodox/ez/keymaps/pydemia/keymap.c ****         if (record->event.pressed) { // For resetting EEPROM
 215:keyboards/ergodox/ez/keymaps/pydemia/keymap.c ****           return MACRO( D(LSFT), T(9), T(0), U(LSFT), T(LEFT), END );
 216:keyboards/ergodox/ez/keymaps/pydemia/keymap.c ****         }
 217:keyboards/ergodox/ez/keymaps/pydemia/keymap.c ****         break;
 218:keyboards/ergodox/ez/keymaps/pydemia/keymap.c ****         case 17:
 219:keyboards/ergodox/ez/keymaps/pydemia/keymap.c ****         if (record->event.pressed) { // For resetting EEPROM
 220:keyboards/ergodox/ez/keymaps/pydemia/keymap.c ****           return MACRO( D(LSFT), T(HOME), U(LSFT), END );
 221:keyboards/ergodox/ez/keymaps/pydemia/keymap.c ****         }
 222:keyboards/ergodox/ez/keymaps/pydemia/keymap.c ****         break;
 223:keyboards/ergodox/ez/keymaps/pydemia/keymap.c ****         case 18:
 224:keyboards/ergodox/ez/keymaps/pydemia/keymap.c ****         if (record->event.pressed) { // For resetting EEPROM
 225:keyboards/ergodox/ez/keymaps/pydemia/keymap.c ****           return MACRO( D(LSFT), T(END), U(LSFT), END );
 226:keyboards/ergodox/ez/keymaps/pydemia/keymap.c ****         }
 227:keyboards/ergodox/ez/keymaps/pydemia/keymap.c ****         break;
 228:keyboards/ergodox/ez/keymaps/pydemia/keymap.c ****         case 19:
 229:keyboards/ergodox/ez/keymaps/pydemia/keymap.c ****         if (record->event.pressed) { // For resetting EEPROM
 230:keyboards/ergodox/ez/keymaps/pydemia/keymap.c ****           return MACRO( T(SLSH), D(LSFT), T(8), U(LSFT), T(ENTER), T(ENTER), D(LSFT), T(8), U(LSFT)
 231:keyboards/ergodox/ez/keymaps/pydemia/keymap.c ****         }
 232:keyboards/ergodox/ez/keymaps/pydemia/keymap.c ****         break;
 233:keyboards/ergodox/ez/keymaps/pydemia/keymap.c **** //        case REQL:
 234:keyboards/ergodox/ez/keymaps/pydemia/keymap.c **** //            return (record->event.pressed ?
 235:keyboards/ergodox/ez/keymaps/pydemia/keymap.c **** //                    MACRO( T(LSFT(KC_COMMA)), T(KC_MINUS), END) : // For resetting EEPROM
 236:keyboards/ergodox/ez/keymaps/pydemia/keymap.c **** //                    MACRO_NONE ) ;
 237:keyboards/ergodox/ez/keymaps/pydemia/keymap.c ****     }
 238:keyboards/ergodox/ez/keymaps/pydemia/keymap.c ****     return MACRO_NONE;
 239:keyboards/ergodox/ez/keymaps/pydemia/keymap.c **** };
 240:keyboards/ergodox/ez/keymaps/pydemia/keymap.c **** 
 241:keyboards/ergodox/ez/keymaps/pydemia/keymap.c **** 
 242:keyboards/ergodox/ez/keymaps/pydemia/keymap.c **** // MACRO END -----------------------------------------------------------------------
 243:keyboards/ergodox/ez/keymaps/pydemia/keymap.c **** 
 244:keyboards/ergodox/ez/keymaps/pydemia/keymap.c **** 
 245:keyboards/ergodox/ez/keymaps/pydemia/keymap.c **** 
 246:keyboards/ergodox/ez/keymaps/pydemia/keymap.c **** // Tap Dance Key
 247:keyboards/ergodox/ez/keymaps/pydemia/keymap.c **** #define ASSIGN_TAP     TD(ASSIGN_MARK)
 248:keyboards/ergodox/ez/keymaps/pydemia/keymap.c **** #define F01_TAP        TD(F01)
 249:keyboards/ergodox/ez/keymaps/pydemia/keymap.c **** #define F02_TAP        TD(F02)
 250:keyboards/ergodox/ez/keymaps/pydemia/keymap.c **** #define F03_TAP        TD(F03)
 251:keyboards/ergodox/ez/keymaps/pydemia/keymap.c **** #define F04_TAP        TD(F04)
 252:keyboards/ergodox/ez/keymaps/pydemia/keymap.c **** #define F05_TAP        TD(F05)
 253:keyboards/ergodox/ez/keymaps/pydemia/keymap.c **** #define F06_TAP        TD(F06)
 254:keyboards/ergodox/ez/keymaps/pydemia/keymap.c **** #define F07_TAP        TD(F07)
 255:keyboards/ergodox/ez/keymaps/pydemia/keymap.c **** #define F08_TAP        TD(F08)
 256:keyboards/ergodox/ez/keymaps/pydemia/keymap.c **** #define F09_TAP        TD(F09)
 257:keyboards/ergodox/ez/keymaps/pydemia/keymap.c **** #define F10_TAP        TD(F10)
 258:keyboards/ergodox/ez/keymaps/pydemia/keymap.c **** #define F11_TAP        TD(F11)
 259:keyboards/ergodox/ez/keymaps/pydemia/keymap.c **** #define F12_TAP        TD(F12)
 260:keyboards/ergodox/ez/keymaps/pydemia/keymap.c **** 
 261:keyboards/ergodox/ez/keymaps/pydemia/keymap.c **** #define CUT_TAP        TD(CUT)
 262:keyboards/ergodox/ez/keymaps/pydemia/keymap.c **** #define COPY_TAP       TD(COPY)
 263:keyboards/ergodox/ez/keymaps/pydemia/keymap.c **** #define PASTE_TAP      TD(PASTE)
 264:keyboards/ergodox/ez/keymaps/pydemia/keymap.c **** 
 265:keyboards/ergodox/ez/keymaps/pydemia/keymap.c **** #define D_QUOTE_TAP    TD(D_QUOTE)
 266:keyboards/ergodox/ez/keymaps/pydemia/keymap.c **** 
 267:keyboards/ergodox/ez/keymaps/pydemia/keymap.c **** #define PGUP_BWEB_TAP  TD(PGUP_BWEB)
 268:keyboards/ergodox/ez/keymaps/pydemia/keymap.c **** #define PGDN_FWEB_TAP  TD(PGDN_FWEB)
 269:keyboards/ergodox/ez/keymaps/pydemia/keymap.c **** /*
 270:keyboards/ergodox/ez/keymaps/pydemia/keymap.c **** #define T_DBRC_TAP     TD(T_DBRC)
 271:keyboards/ergodox/ez/keymaps/pydemia/keymap.c **** #define G_DCBR_TAP     TD(G_DCBR)
 272:keyboards/ergodox/ez/keymaps/pydemia/keymap.c **** #define B_DPRN_TAP     TD(B_DPRN)
 273:keyboards/ergodox/ez/keymaps/pydemia/keymap.c **** */
 274:keyboards/ergodox/ez/keymaps/pydemia/keymap.c **** #define J_DBRC_TAP     TD(J_DBRC)
 275:keyboards/ergodox/ez/keymaps/pydemia/keymap.c **** #define K_DCBR_TAP     TD(K_DCBR)
 276:keyboards/ergodox/ez/keymaps/pydemia/keymap.c **** #define L_DPRN_TAP     TD(L_DPRN)
 277:keyboards/ergodox/ez/keymaps/pydemia/keymap.c **** 
 278:keyboards/ergodox/ez/keymaps/pydemia/keymap.c **** 
 279:keyboards/ergodox/ez/keymaps/pydemia/keymap.c **** // Tap Dance Start ------------------------------------------------------------
 280:keyboards/ergodox/ez/keymaps/pydemia/keymap.c **** 
 281:keyboards/ergodox/ez/keymaps/pydemia/keymap.c **** //In Layer declaration, add tap dance item in place of a key code
 282:keyboards/ergodox/ez/keymaps/pydemia/keymap.c **** 
 283:keyboards/ergodox/ez/keymaps/pydemia/keymap.c **** 
 284:keyboards/ergodox/ez/keymaps/pydemia/keymap.c **** 
 285:keyboards/ergodox/ez/keymaps/pydemia/keymap.c **** // CUSTOM KEYMAP START -----------------------------------------------------
 286:keyboards/ergodox/ez/keymaps/pydemia/keymap.c **** 
 287:keyboards/ergodox/ez/keymaps/pydemia/keymap.c **** // T & []
 288:keyboards/ergodox/ez/keymaps/pydemia/keymap.c **** void dance_press_t (qk_tap_dance_state_t *state, void *user_data) {
 289:keyboards/ergodox/ez/keymaps/pydemia/keymap.c ****   if (state->count == 1) {
 290:keyboards/ergodox/ez/keymaps/pydemia/keymap.c **** 
 291:keyboards/ergodox/ez/keymaps/pydemia/keymap.c ****     register_code(KC_T);
 292:keyboards/ergodox/ez/keymaps/pydemia/keymap.c ****     unregister_code(KC_T);
 293:keyboards/ergodox/ez/keymaps/pydemia/keymap.c **** 
 294:keyboards/ergodox/ez/keymaps/pydemia/keymap.c ****   } else {
 295:keyboards/ergodox/ez/keymaps/pydemia/keymap.c ****     clear_keyboard_but_mods();
 296:keyboards/ergodox/ez/keymaps/pydemia/keymap.c ****   }
 297:keyboards/ergodox/ez/keymaps/pydemia/keymap.c **** }
 298:keyboards/ergodox/ez/keymaps/pydemia/keymap.c **** void dance_dbrc (qk_tap_dance_state_t *state, void *user_data) {
 299:keyboards/ergodox/ez/keymaps/pydemia/keymap.c ****   if (state->count == 2) {
 300:keyboards/ergodox/ez/keymaps/pydemia/keymap.c **** 
 301:keyboards/ergodox/ez/keymaps/pydemia/keymap.c ****     register_code(KC_LBRC);
 302:keyboards/ergodox/ez/keymaps/pydemia/keymap.c ****     unregister_code(KC_LBRC);
 303:keyboards/ergodox/ez/keymaps/pydemia/keymap.c **** 
 304:keyboards/ergodox/ez/keymaps/pydemia/keymap.c ****     register_code(KC_RBRC);
 305:keyboards/ergodox/ez/keymaps/pydemia/keymap.c ****     unregister_code(KC_RBRC);
 306:keyboards/ergodox/ez/keymaps/pydemia/keymap.c **** 
 307:keyboards/ergodox/ez/keymaps/pydemia/keymap.c ****     register_code(KC_LEFT);
 308:keyboards/ergodox/ez/keymaps/pydemia/keymap.c ****     unregister_code(KC_LEFT);
 309:keyboards/ergodox/ez/keymaps/pydemia/keymap.c **** 
 310:keyboards/ergodox/ez/keymaps/pydemia/keymap.c ****   } else {
 311:keyboards/ergodox/ez/keymaps/pydemia/keymap.c ****     clear_keyboard_but_mods();
 312:keyboards/ergodox/ez/keymaps/pydemia/keymap.c ****   }
 313:keyboards/ergodox/ez/keymaps/pydemia/keymap.c **** }
 314:keyboards/ergodox/ez/keymaps/pydemia/keymap.c **** /*
 315:keyboards/ergodox/ez/keymaps/pydemia/keymap.c **** // G & {}
 316:keyboards/ergodox/ez/keymaps/pydemia/keymap.c **** void dance_press_g (qk_tap_dance_state_t *state, void *user_data) {
 317:keyboards/ergodox/ez/keymaps/pydemia/keymap.c ****   if (state->count == 1) {
 318:keyboards/ergodox/ez/keymaps/pydemia/keymap.c **** 
 319:keyboards/ergodox/ez/keymaps/pydemia/keymap.c ****     register_code(KC_G);
 320:keyboards/ergodox/ez/keymaps/pydemia/keymap.c ****     unregister_code(KC_G);
 321:keyboards/ergodox/ez/keymaps/pydemia/keymap.c **** 
 322:keyboards/ergodox/ez/keymaps/pydemia/keymap.c ****   } else {
 323:keyboards/ergodox/ez/keymaps/pydemia/keymap.c ****     clear_keyboard_but_mods();
 324:keyboards/ergodox/ez/keymaps/pydemia/keymap.c ****   }
 325:keyboards/ergodox/ez/keymaps/pydemia/keymap.c **** }
 326:keyboards/ergodox/ez/keymaps/pydemia/keymap.c **** void dance_dcbr (qk_tap_dance_state_t *state, void *user_data) {
 327:keyboards/ergodox/ez/keymaps/pydemia/keymap.c ****   if (state->count == 2) {
 328:keyboards/ergodox/ez/keymaps/pydemia/keymap.c **** 
 329:keyboards/ergodox/ez/keymaps/pydemia/keymap.c ****     register_code(KC_LSFT);
 330:keyboards/ergodox/ez/keymaps/pydemia/keymap.c ****     register_code(KC_LBRC);
 331:keyboards/ergodox/ez/keymaps/pydemia/keymap.c ****     unregister_code(KC_LBRC);
 332:keyboards/ergodox/ez/keymaps/pydemia/keymap.c **** 
 333:keyboards/ergodox/ez/keymaps/pydemia/keymap.c ****     register_code(KC_RBRC);
 334:keyboards/ergodox/ez/keymaps/pydemia/keymap.c ****     unregister_code(KC_RBRC);
 335:keyboards/ergodox/ez/keymaps/pydemia/keymap.c ****     unregister_code(KC_LSFT);
 336:keyboards/ergodox/ez/keymaps/pydemia/keymap.c **** 
 337:keyboards/ergodox/ez/keymaps/pydemia/keymap.c ****     register_code(KC_LEFT);
 338:keyboards/ergodox/ez/keymaps/pydemia/keymap.c ****     unregister_code(KC_LEFT);
 339:keyboards/ergodox/ez/keymaps/pydemia/keymap.c **** 
 340:keyboards/ergodox/ez/keymaps/pydemia/keymap.c ****   } else {
 341:keyboards/ergodox/ez/keymaps/pydemia/keymap.c ****     clear_keyboard_but_mods();
 342:keyboards/ergodox/ez/keymaps/pydemia/keymap.c ****   }
 343:keyboards/ergodox/ez/keymaps/pydemia/keymap.c **** }
 344:keyboards/ergodox/ez/keymaps/pydemia/keymap.c **** 
 345:keyboards/ergodox/ez/keymaps/pydemia/keymap.c **** // B & ()
 346:keyboards/ergodox/ez/keymaps/pydemia/keymap.c **** void dance_press_b (qk_tap_dance_state_t *state, void *user_data) {
 347:keyboards/ergodox/ez/keymaps/pydemia/keymap.c ****   if (state->count == 1) {
 348:keyboards/ergodox/ez/keymaps/pydemia/keymap.c **** 
 349:keyboards/ergodox/ez/keymaps/pydemia/keymap.c ****     register_code(KC_B);
 350:keyboards/ergodox/ez/keymaps/pydemia/keymap.c ****     unregister_code(KC_B);
 351:keyboards/ergodox/ez/keymaps/pydemia/keymap.c **** 
 352:keyboards/ergodox/ez/keymaps/pydemia/keymap.c ****   } else {
 353:keyboards/ergodox/ez/keymaps/pydemia/keymap.c ****     clear_keyboard_but_mods();
 354:keyboards/ergodox/ez/keymaps/pydemia/keymap.c ****   }
 355:keyboards/ergodox/ez/keymaps/pydemia/keymap.c **** }
 356:keyboards/ergodox/ez/keymaps/pydemia/keymap.c **** void dance_dprn (qk_tap_dance_state_t *state, void *user_data) {
 357:keyboards/ergodox/ez/keymaps/pydemia/keymap.c ****   if (state->count == 2) {
 358:keyboards/ergodox/ez/keymaps/pydemia/keymap.c **** 
 359:keyboards/ergodox/ez/keymaps/pydemia/keymap.c ****     register_code(KC_LSFT);
 360:keyboards/ergodox/ez/keymaps/pydemia/keymap.c ****     register_code(KC_9);
 361:keyboards/ergodox/ez/keymaps/pydemia/keymap.c ****     unregister_code(KC_9);
 362:keyboards/ergodox/ez/keymaps/pydemia/keymap.c **** 
 363:keyboards/ergodox/ez/keymaps/pydemia/keymap.c ****     register_code(KC_0);
 364:keyboards/ergodox/ez/keymaps/pydemia/keymap.c ****     unregister_code(KC_0);
 365:keyboards/ergodox/ez/keymaps/pydemia/keymap.c ****     unregister_code(KC_LSFT);
 366:keyboards/ergodox/ez/keymaps/pydemia/keymap.c **** 
 367:keyboards/ergodox/ez/keymaps/pydemia/keymap.c ****     register_code(KC_LEFT);
 368:keyboards/ergodox/ez/keymaps/pydemia/keymap.c ****     unregister_code(KC_LEFT);
 369:keyboards/ergodox/ez/keymaps/pydemia/keymap.c **** 
 370:keyboards/ergodox/ez/keymaps/pydemia/keymap.c ****   } else {
 371:keyboards/ergodox/ez/keymaps/pydemia/keymap.c ****     clear_keyboard_but_mods();
 372:keyboards/ergodox/ez/keymaps/pydemia/keymap.c ****   }
 373:keyboards/ergodox/ez/keymaps/pydemia/keymap.c **** }
 374:keyboards/ergodox/ez/keymaps/pydemia/keymap.c **** */
 375:keyboards/ergodox/ez/keymaps/pydemia/keymap.c **** 
 376:keyboards/ergodox/ez/keymaps/pydemia/keymap.c **** // = & <-
 377:keyboards/ergodox/ez/keymaps/pydemia/keymap.c **** void dance_press_equal (qk_tap_dance_state_t *state, void *user_data) {
  17               		.loc 1 377 71 view -0
  18               		.cfi_startproc
  19               	/* prologue: function */
  20               	/* frame size = 0 */
  21               	/* stack size = 0 */
  22               	.L__stack_usage = 0
 378:keyboards/ergodox/ez/keymaps/pydemia/keymap.c ****   if (state->count == 1) {
  23               		.loc 1 378 3 view .LVU1
  24               		.loc 1 378 6 is_stmt 0 view .LVU2
  25 0000 FC01      		movw r30,r24
  26 0002 8081      		ld r24,Z
  27               	.LVL1:
  28               		.loc 1 378 6 view .LVU3
  29 0004 8130      		cpi r24,lo8(1)
  30 0006 01F4      		brne .L2
 379:keyboards/ergodox/ez/keymaps/pydemia/keymap.c **** 
 380:keyboards/ergodox/ez/keymaps/pydemia/keymap.c ****     register_code(KC_EQUAL);
  31               		.loc 1 380 5 is_stmt 1 view .LVU4
  32 0008 8EE2      		ldi r24,lo8(46)
  33 000a 0E94 0000 		call register_code
  34               	.LVL2:
 381:keyboards/ergodox/ez/keymaps/pydemia/keymap.c ****     unregister_code(KC_EQUAL);
  35               		.loc 1 381 5 view .LVU5
  36 000e 8EE2      		ldi r24,lo8(46)
  37 0010 0C94 0000 		jmp unregister_code
  38               	.LVL3:
  39               	.L2:
 382:keyboards/ergodox/ez/keymaps/pydemia/keymap.c **** 
 383:keyboards/ergodox/ez/keymaps/pydemia/keymap.c ****   } else {
 384:keyboards/ergodox/ez/keymaps/pydemia/keymap.c ****     clear_keyboard_but_mods();
  40               		.loc 1 384 5 view .LVU6
  41 0014 0C94 0000 		jmp clear_keyboard_but_mods
  42               	.LVL4:
  43               		.loc 1 384 5 is_stmt 0 view .LVU7
  44               		.cfi_endproc
  45               	.LFE127:
  47               		.section	.text.dance_press_rassign,"ax",@progbits
  48               	.global	dance_press_rassign
  50               	dance_press_rassign:
  51               	.LVL5:
  52               	.LFB128:
 385:keyboards/ergodox/ez/keymaps/pydemia/keymap.c ****   }
 386:keyboards/ergodox/ez/keymaps/pydemia/keymap.c **** }
 387:keyboards/ergodox/ez/keymaps/pydemia/keymap.c **** void dance_press_rassign (qk_tap_dance_state_t *state, void *user_data) {
  53               		.loc 1 387 73 is_stmt 1 view -0
  54               		.cfi_startproc
  55               	/* prologue: function */
  56               	/* frame size = 0 */
  57               	/* stack size = 0 */
  58               	.L__stack_usage = 0
 388:keyboards/ergodox/ez/keymaps/pydemia/keymap.c ****   if (state->count == 2) {
  59               		.loc 1 388 3 view .LVU9
  60               		.loc 1 388 6 is_stmt 0 view .LVU10
  61 0000 FC01      		movw r30,r24
  62 0002 8081      		ld r24,Z
  63               	.LVL6:
  64               		.loc 1 388 6 view .LVU11
  65 0004 8230      		cpi r24,lo8(2)
  66 0006 01F4      		brne .L4
 389:keyboards/ergodox/ez/keymaps/pydemia/keymap.c **** 
 390:keyboards/ergodox/ez/keymaps/pydemia/keymap.c ****     register_code(KC_LSFT);
  67               		.loc 1 390 5 is_stmt 1 view .LVU12
  68 0008 81EE      		ldi r24,lo8(-31)
  69 000a 0E94 0000 		call register_code
  70               	.LVL7:
 391:keyboards/ergodox/ez/keymaps/pydemia/keymap.c ****     register_code(KC_COMMA);
  71               		.loc 1 391 5 view .LVU13
  72 000e 86E3      		ldi r24,lo8(54)
  73 0010 0E94 0000 		call register_code
  74               	.LVL8:
 392:keyboards/ergodox/ez/keymaps/pydemia/keymap.c ****     unregister_code(KC_COMMA);
  75               		.loc 1 392 5 view .LVU14
  76 0014 86E3      		ldi r24,lo8(54)
  77 0016 0E94 0000 		call unregister_code
  78               	.LVL9:
 393:keyboards/ergodox/ez/keymaps/pydemia/keymap.c ****     unregister_code(KC_LSFT);
  79               		.loc 1 393 5 view .LVU15
  80 001a 81EE      		ldi r24,lo8(-31)
  81 001c 0E94 0000 		call unregister_code
  82               	.LVL10:
 394:keyboards/ergodox/ez/keymaps/pydemia/keymap.c **** 
 395:keyboards/ergodox/ez/keymaps/pydemia/keymap.c ****     register_code(KC_MINUS);
  83               		.loc 1 395 5 view .LVU16
  84 0020 8DE2      		ldi r24,lo8(45)
  85 0022 0E94 0000 		call register_code
  86               	.LVL11:
 396:keyboards/ergodox/ez/keymaps/pydemia/keymap.c ****     unregister_code(KC_MINUS);
  87               		.loc 1 396 5 view .LVU17
  88 0026 8DE2      		ldi r24,lo8(45)
  89 0028 0C94 0000 		jmp unregister_code
  90               	.LVL12:
  91               	.L4:
 397:keyboards/ergodox/ez/keymaps/pydemia/keymap.c **** 
 398:keyboards/ergodox/ez/keymaps/pydemia/keymap.c ****   } else {
 399:keyboards/ergodox/ez/keymaps/pydemia/keymap.c ****     clear_keyboard_but_mods();
  92               		.loc 1 399 5 view .LVU18
  93 002c 0C94 0000 		jmp clear_keyboard_but_mods
  94               	.LVL13:
  95               		.loc 1 399 5 is_stmt 0 view .LVU19
  96               		.cfi_endproc
  97               	.LFE128:
  99               		.section	.text.action_get_macro,"ax",@progbits
 100               	.global	action_get_macro
 102               	action_get_macro:
 103               	.LVL14:
 104               	.LFB124:
 123:keyboards/ergodox/ez/keymaps/pydemia/keymap.c ****   // MACRODOWN only works in this function
 105               		.loc 1 123 1 is_stmt 1 view -0
 106               		.cfi_startproc
 107               	/* prologue: function */
 108               	/* frame size = 0 */
 109               	/* stack size = 0 */
 110               	.L__stack_usage = 0
 125:keyboards/ergodox/ez/keymaps/pydemia/keymap.c ****         case 0:
 111               		.loc 1 125 7 view .LVU21
 112 0000 6431      		cpi r22,lo8(20)
 113 0002 00F4      		brsh .L48
 114 0004 E62F      		mov r30,r22
 115 0006 F0E0      		ldi r31,0
 116 0008 E050      		subi r30,lo8(-(gs(.L8)))
 117 000a F040      		sbci r31,hi8(-(gs(.L8)))
 118 000c DC01      		movw r26,r24
 119 000e 1296      		adiw r26,2
 120 0010 8C91      		ld r24,X
 121               	.LVL15:
 125:keyboards/ergodox/ez/keymaps/pydemia/keymap.c ****         case 0:
 122               		.loc 1 125 7 is_stmt 0 view .LVU22
 123 0012 0C94 0000 		jmp __tablejump2__
 124               		.section	.jumptables.gcc.action_get_macro,"a",@progbits
 125               		.p2align	1
 126               	.L8:
 127 0000 0000      		.word gs(.L27)
 128 0002 0000      		.word gs(.L26)
 129 0004 0000      		.word gs(.L25)
 130 0006 0000      		.word gs(.L24)
 131 0008 0000      		.word gs(.L23)
 132 000a 0000      		.word gs(.L22)
 133 000c 0000      		.word gs(.L21)
 134 000e 0000      		.word gs(.L20)
 135 0010 0000      		.word gs(.L19)
 136 0012 0000      		.word gs(.L18)
 137 0014 0000      		.word gs(.L17)
 138 0016 0000      		.word gs(.L16)
 139 0018 0000      		.word gs(.L15)
 140 001a 0000      		.word gs(.L14)
 141 001c 0000      		.word gs(.L13)
 142 001e 0000      		.word gs(.L12)
 143 0020 0000      		.word gs(.L11)
 144 0022 0000      		.word gs(.L10)
 145 0024 0000      		.word gs(.L9)
 146 0026 0000      		.word gs(.L7)
 147               		.section	.text.action_get_macro
 148               	.L27:
 127:keyboards/ergodox/ez/keymaps/pydemia/keymap.c ****           SEND_STRING (QMK_KEYBOARD "/" QMK_KEYMAP " @ " QMK_VERSION);
 149               		.loc 1 127 9 is_stmt 1 view .LVU23
 127:keyboards/ergodox/ez/keymaps/pydemia/keymap.c ****           SEND_STRING (QMK_KEYBOARD "/" QMK_KEYMAP " @ " QMK_VERSION);
 150               		.loc 1 127 12 is_stmt 0 view .LVU24
 151 0016 8823      		tst r24
 152 0018 01F0      		breq .L48
 128:keyboards/ergodox/ez/keymaps/pydemia/keymap.c ****         }
 153               		.loc 1 128 11 is_stmt 1 view .LVU25
 154               	.LBB2:
 128:keyboards/ergodox/ez/keymaps/pydemia/keymap.c ****         }
 155               		.loc 1 128 11 view .LVU26
 128:keyboards/ergodox/ez/keymaps/pydemia/keymap.c ****         }
 156               		.loc 1 128 11 view .LVU27
 157               	.LBE2:
 158 001a 80E0      		ldi r24,lo8(__c.5362)
 159 001c 90E0      		ldi r25,hi8(__c.5362)
 160               	.L49:
 133:keyboards/ergodox/ez/keymaps/pydemia/keymap.c ****         }
 161               		.loc 1 133 11 is_stmt 0 view .LVU28
 162 001e 0E94 0000 		call send_string
 163               	.LVL16:
 164               	.L48:
 238:keyboards/ergodox/ez/keymaps/pydemia/keymap.c **** };
 165               		.loc 1 238 12 view .LVU29
 166 0022 90E0      		ldi r25,0
 167 0024 80E0      		ldi r24,0
 168               	/* epilogue start */
 239:keyboards/ergodox/ez/keymaps/pydemia/keymap.c **** 
 169               		.loc 1 239 1 view .LVU30
 170 0026 0895      		ret
 171               	.LVL17:
 172               	.L26:
 132:keyboards/ergodox/ez/keymaps/pydemia/keymap.c ****           SEND_STRING ( SIGNITURE );
 173               		.loc 1 132 9 is_stmt 1 view .LVU31
 132:keyboards/ergodox/ez/keymaps/pydemia/keymap.c ****           SEND_STRING ( SIGNITURE );
 174               		.loc 1 132 12 is_stmt 0 view .LVU32
 175 0028 8823      		tst r24
 176 002a 01F0      		breq .L48
 133:keyboards/ergodox/ez/keymaps/pydemia/keymap.c ****         }
 177               		.loc 1 133 11 is_stmt 1 view .LVU33
 178               	.LBB3:
 133:keyboards/ergodox/ez/keymaps/pydemia/keymap.c ****         }
 179               		.loc 1 133 11 view .LVU34
 133:keyboards/ergodox/ez/keymaps/pydemia/keymap.c ****         }
 180               		.loc 1 133 11 view .LVU35
 181               	.LBE3:
 182 002c 80E0      		ldi r24,lo8(__c.5366)
 183 002e 90E0      		ldi r25,hi8(__c.5366)
 184 0030 00C0      		rjmp .L49
 185               	.L25:
 137:keyboards/ergodox/ez/keymaps/pydemia/keymap.c ****           //SEND_STRING ( "<-" );
 186               		.loc 1 137 9 view .LVU36
 137:keyboards/ergodox/ez/keymaps/pydemia/keymap.c ****           //SEND_STRING ( "<-" );
 187               		.loc 1 137 12 is_stmt 0 view .LVU37
 188 0032 8823      		tst r24
 189 0034 01F0      		breq .L48
 139:keyboards/ergodox/ez/keymaps/pydemia/keymap.c ****         }
 190               		.loc 1 139 18 view .LVU38
 191 0036 80E0      		ldi r24,lo8(__m.5369)
 192 0038 90E0      		ldi r25,hi8(__m.5369)
 193 003a 0895      		ret
 194               	.L24:
 143:keyboards/ergodox/ez/keymaps/pydemia/keymap.c ****           SEND_STRING ( "'%Y%m%d%H%M%S%f'" );
 195               		.loc 1 143 9 is_stmt 1 view .LVU39
 143:keyboards/ergodox/ez/keymaps/pydemia/keymap.c ****           SEND_STRING ( "'%Y%m%d%H%M%S%f'" );
 196               		.loc 1 143 12 is_stmt 0 view .LVU40
 197 003c 8823      		tst r24
 198 003e 01F0      		breq .L48
 144:keyboards/ergodox/ez/keymaps/pydemia/keymap.c ****           //return MACRO(D(LSFT), T(COMMA), U(LSFT), T(MINUS), END);
 199               		.loc 1 144 11 is_stmt 1 view .LVU41
 200               	.LBB4:
 144:keyboards/ergodox/ez/keymaps/pydemia/keymap.c ****           //return MACRO(D(LSFT), T(COMMA), U(LSFT), T(MINUS), END);
 201               		.loc 1 144 11 view .LVU42
 144:keyboards/ergodox/ez/keymaps/pydemia/keymap.c ****           //return MACRO(D(LSFT), T(COMMA), U(LSFT), T(MINUS), END);
 202               		.loc 1 144 11 view .LVU43
 203               	.LBE4:
 204 0040 80E0      		ldi r24,lo8(__c.5372)
 205 0042 90E0      		ldi r25,hi8(__c.5372)
 206 0044 00C0      		rjmp .L49
 207               	.L23:
 149:keyboards/ergodox/ez/keymaps/pydemia/keymap.c ****           //SEND_STRING ( "# %%" );
 208               		.loc 1 149 9 view .LVU44
 149:keyboards/ergodox/ez/keymaps/pydemia/keymap.c ****           //SEND_STRING ( "# %%" );
 209               		.loc 1 149 12 is_stmt 0 view .LVU45
 210 0046 8823      		tst r24
 211 0048 01F0      		breq .L48
 151:keyboards/ergodox/ez/keymaps/pydemia/keymap.c ****         }
 212               		.loc 1 151 18 view .LVU46
 213 004a 80E0      		ldi r24,lo8(__m.5375)
 214 004c 90E0      		ldi r25,hi8(__m.5375)
 215 004e 0895      		ret
 216               	.L22:
 155:keyboards/ergodox/ez/keymaps/pydemia/keymap.c ****           //SEND_STRING ( "# %%" );
 217               		.loc 1 155 9 is_stmt 1 view .LVU47
 155:keyboards/ergodox/ez/keymaps/pydemia/keymap.c ****           //SEND_STRING ( "# %%" );
 218               		.loc 1 155 12 is_stmt 0 view .LVU48
 219 0050 8823      		tst r24
 220 0052 01F0      		breq .L48
 157:keyboards/ergodox/ez/keymaps/pydemia/keymap.c ****                         T(LEFT), T(LEFT), T(LEFT), T(LEFT), T(LEFT), END);
 221               		.loc 1 157 18 view .LVU49
 222 0054 80E0      		ldi r24,lo8(__m.5378)
 223 0056 90E0      		ldi r25,hi8(__m.5378)
 224 0058 0895      		ret
 225               	.L21:
 162:keyboards/ergodox/ez/keymaps/pydemia/keymap.c ****           SEND_STRING ( SQL_NORMAL_STR );
 226               		.loc 1 162 9 is_stmt 1 view .LVU50
 162:keyboards/ergodox/ez/keymaps/pydemia/keymap.c ****           SEND_STRING ( SQL_NORMAL_STR );
 227               		.loc 1 162 12 is_stmt 0 view .LVU51
 228 005a 8823      		tst r24
 229 005c 01F0      		breq .L48
 163:keyboards/ergodox/ez/keymaps/pydemia/keymap.c ****         }
 230               		.loc 1 163 11 is_stmt 1 view .LVU52
 231               	.LBB5:
 163:keyboards/ergodox/ez/keymaps/pydemia/keymap.c ****         }
 232               		.loc 1 163 11 view .LVU53
 163:keyboards/ergodox/ez/keymaps/pydemia/keymap.c ****         }
 233               		.loc 1 163 11 view .LVU54
 234               	.LBE5:
 235 005e 80E0      		ldi r24,lo8(__c.5381)
 236 0060 90E0      		ldi r25,hi8(__c.5381)
 237 0062 00C0      		rjmp .L49
 238               	.L20:
 167:keyboards/ergodox/ez/keymaps/pydemia/keymap.c ****           SEND_STRING ( SQL_LEFT_STR );
 239               		.loc 1 167 9 view .LVU55
 167:keyboards/ergodox/ez/keymaps/pydemia/keymap.c ****           SEND_STRING ( SQL_LEFT_STR );
 240               		.loc 1 167 12 is_stmt 0 view .LVU56
 241 0064 8823      		tst r24
 242 0066 01F0      		breq .L48
 168:keyboards/ergodox/ez/keymaps/pydemia/keymap.c ****         }
 243               		.loc 1 168 11 is_stmt 1 view .LVU57
 244               	.LBB6:
 168:keyboards/ergodox/ez/keymaps/pydemia/keymap.c ****         }
 245               		.loc 1 168 11 view .LVU58
 168:keyboards/ergodox/ez/keymaps/pydemia/keymap.c ****         }
 246               		.loc 1 168 11 view .LVU59
 247               	.LBE6:
 248 0068 80E0      		ldi r24,lo8(__c.5384)
 249 006a 90E0      		ldi r25,hi8(__c.5384)
 250 006c 00C0      		rjmp .L49
 251               	.L19:
 172:keyboards/ergodox/ez/keymaps/pydemia/keymap.c ****           SEND_STRING ( SQL_LEFT_SUB_STR );
 252               		.loc 1 172 9 view .LVU60
 172:keyboards/ergodox/ez/keymaps/pydemia/keymap.c ****           SEND_STRING ( SQL_LEFT_SUB_STR );
 253               		.loc 1 172 12 is_stmt 0 view .LVU61
 254 006e 8823      		tst r24
 255 0070 01F0      		breq .L48
 173:keyboards/ergodox/ez/keymaps/pydemia/keymap.c ****         }
 256               		.loc 1 173 11 is_stmt 1 view .LVU62
 257               	.LBB7:
 173:keyboards/ergodox/ez/keymaps/pydemia/keymap.c ****         }
 258               		.loc 1 173 11 view .LVU63
 173:keyboards/ergodox/ez/keymaps/pydemia/keymap.c ****         }
 259               		.loc 1 173 11 view .LVU64
 260               	.LBE7:
 261 0072 80E0      		ldi r24,lo8(__c.5387)
 262 0074 90E0      		ldi r25,hi8(__c.5387)
 263 0076 00C0      		rjmp .L49
 264               	.L18:
 177:keyboards/ergodox/ez/keymaps/pydemia/keymap.c ****           SEND_STRING ( PIP_STR );
 265               		.loc 1 177 9 view .LVU65
 177:keyboards/ergodox/ez/keymaps/pydemia/keymap.c ****           SEND_STRING ( PIP_STR );
 266               		.loc 1 177 12 is_stmt 0 view .LVU66
 267 0078 8823      		tst r24
 268 007a 01F0      		breq .L48
 178:keyboards/ergodox/ez/keymaps/pydemia/keymap.c ****         }
 269               		.loc 1 178 11 is_stmt 1 view .LVU67
 270               	.LBB8:
 178:keyboards/ergodox/ez/keymaps/pydemia/keymap.c ****         }
 271               		.loc 1 178 11 view .LVU68
 178:keyboards/ergodox/ez/keymaps/pydemia/keymap.c ****         }
 272               		.loc 1 178 11 view .LVU69
 273               	.LBE8:
 274 007c 80E0      		ldi r24,lo8(__c.5390)
 275 007e 90E0      		ldi r25,hi8(__c.5390)
 276 0080 00C0      		rjmp .L49
 277               	.L17:
 182:keyboards/ergodox/ez/keymaps/pydemia/keymap.c ****           SEND_STRING ( __DATE__ );
 278               		.loc 1 182 9 view .LVU70
 182:keyboards/ergodox/ez/keymaps/pydemia/keymap.c ****           SEND_STRING ( __DATE__ );
 279               		.loc 1 182 12 is_stmt 0 view .LVU71
 280 0082 8823      		tst r24
 281 0084 01F0      		breq .L48
 183:keyboards/ergodox/ez/keymaps/pydemia/keymap.c ****         }
 282               		.loc 1 183 11 is_stmt 1 view .LVU72
 283               	.LBB9:
 183:keyboards/ergodox/ez/keymaps/pydemia/keymap.c ****         }
 284               		.loc 1 183 11 view .LVU73
 183:keyboards/ergodox/ez/keymaps/pydemia/keymap.c ****         }
 285               		.loc 1 183 11 view .LVU74
 286               	.LBE9:
 287 0086 80E0      		ldi r24,lo8(__c.5393)
 288 0088 90E0      		ldi r25,hi8(__c.5393)
 289 008a 00C0      		rjmp .L49
 290               	.L16:
 187:keyboards/ergodox/ez/keymaps/pydemia/keymap.c ****           SEND_STRING ( __TIME__ );
 291               		.loc 1 187 9 view .LVU75
 187:keyboards/ergodox/ez/keymaps/pydemia/keymap.c ****           SEND_STRING ( __TIME__ );
 292               		.loc 1 187 12 is_stmt 0 view .LVU76
 293 008c 8823      		tst r24
 294 008e 01F0      		breq .L48
 188:keyboards/ergodox/ez/keymaps/pydemia/keymap.c ****         }
 295               		.loc 1 188 11 is_stmt 1 view .LVU77
 296               	.LBB10:
 188:keyboards/ergodox/ez/keymaps/pydemia/keymap.c ****         }
 297               		.loc 1 188 11 view .LVU78
 188:keyboards/ergodox/ez/keymaps/pydemia/keymap.c ****         }
 298               		.loc 1 188 11 view .LVU79
 299               	.LBE10:
 300 0090 80E0      		ldi r24,lo8(__c.5396)
 301 0092 90E0      		ldi r25,hi8(__c.5396)
 302 0094 00C0      		rjmp .L49
 303               	.L15:
 192:keyboards/ergodox/ez/keymaps/pydemia/keymap.c ****           SEND_STRING ( DATETIME_STR );
 304               		.loc 1 192 9 view .LVU80
 192:keyboards/ergodox/ez/keymaps/pydemia/keymap.c ****           SEND_STRING ( DATETIME_STR );
 305               		.loc 1 192 12 is_stmt 0 view .LVU81
 306 0096 8823      		tst r24
 307 0098 01F0      		breq .L48
 193:keyboards/ergodox/ez/keymaps/pydemia/keymap.c ****         }
 308               		.loc 1 193 11 is_stmt 1 view .LVU82
 309               	.LBB11:
 193:keyboards/ergodox/ez/keymaps/pydemia/keymap.c ****         }
 310               		.loc 1 193 11 view .LVU83
 193:keyboards/ergodox/ez/keymaps/pydemia/keymap.c ****         }
 311               		.loc 1 193 11 view .LVU84
 312               	.LBE11:
 313 009a 80E0      		ldi r24,lo8(__c.5399)
 314 009c 90E0      		ldi r25,hi8(__c.5399)
 315 009e 00C0      		rjmp .L49
 316               	.L14:
 197:keyboards/ergodox/ez/keymaps/pydemia/keymap.c ****           //SEND_STRING ( " );
 317               		.loc 1 197 9 view .LVU85
 197:keyboards/ergodox/ez/keymaps/pydemia/keymap.c ****           //SEND_STRING ( " );
 318               		.loc 1 197 12 is_stmt 0 view .LVU86
 319 00a0 8823      		tst r24
 320 00a2 01F4      		brne .+2
 321 00a4 00C0      		rjmp .L48
 199:keyboards/ergodox/ez/keymaps/pydemia/keymap.c ****         }
 322               		.loc 1 199 18 view .LVU87
 323 00a6 80E0      		ldi r24,lo8(__m.5402)
 324 00a8 90E0      		ldi r25,hi8(__m.5402)
 325 00aa 0895      		ret
 326               	.L13:
 203:keyboards/ergodox/ez/keymaps/pydemia/keymap.c ****           return MACRO( T(LBRC), T(RBRC), T(LEFT), END );
 327               		.loc 1 203 9 is_stmt 1 view .LVU88
 203:keyboards/ergodox/ez/keymaps/pydemia/keymap.c ****           return MACRO( T(LBRC), T(RBRC), T(LEFT), END );
 328               		.loc 1 203 12 is_stmt 0 view .LVU89
 329 00ac 8823      		tst r24
 330 00ae 01F4      		brne .+2
 331 00b0 00C0      		rjmp .L48
 204:keyboards/ergodox/ez/keymaps/pydemia/keymap.c ****         }
 332               		.loc 1 204 18 view .LVU90
 333 00b2 80E0      		ldi r24,lo8(__m.5405)
 334 00b4 90E0      		ldi r25,hi8(__m.5405)
 335 00b6 0895      		ret
 336               	.L12:
 208:keyboards/ergodox/ez/keymaps/pydemia/keymap.c ****           return MACRO( D(LSFT), T(LBRC), T(RBRC), U(LSFT), T(LEFT), END );
 337               		.loc 1 208 9 is_stmt 1 view .LVU91
 208:keyboards/ergodox/ez/keymaps/pydemia/keymap.c ****           return MACRO( D(LSFT), T(LBRC), T(RBRC), U(LSFT), T(LEFT), END );
 338               		.loc 1 208 12 is_stmt 0 view .LVU92
 339 00b8 8823      		tst r24
 340 00ba 01F4      		brne .+2
 341 00bc 00C0      		rjmp .L48
 209:keyboards/ergodox/ez/keymaps/pydemia/keymap.c ****           //return MACRO( T(LCBR), T(RCBR), T(LEFT), END );
 342               		.loc 1 209 18 view .LVU93
 343 00be 80E0      		ldi r24,lo8(__m.5408)
 344 00c0 90E0      		ldi r25,hi8(__m.5408)
 345 00c2 0895      		ret
 346               	.L11:
 214:keyboards/ergodox/ez/keymaps/pydemia/keymap.c ****           return MACRO( D(LSFT), T(9), T(0), U(LSFT), T(LEFT), END );
 347               		.loc 1 214 9 is_stmt 1 view .LVU94
 214:keyboards/ergodox/ez/keymaps/pydemia/keymap.c ****           return MACRO( D(LSFT), T(9), T(0), U(LSFT), T(LEFT), END );
 348               		.loc 1 214 12 is_stmt 0 view .LVU95
 349 00c4 8823      		tst r24
 350 00c6 01F4      		brne .+2
 351 00c8 00C0      		rjmp .L48
 215:keyboards/ergodox/ez/keymaps/pydemia/keymap.c ****         }
 352               		.loc 1 215 18 view .LVU96
 353 00ca 80E0      		ldi r24,lo8(__m.5411)
 354 00cc 90E0      		ldi r25,hi8(__m.5411)
 355 00ce 0895      		ret
 356               	.L10:
 219:keyboards/ergodox/ez/keymaps/pydemia/keymap.c ****           return MACRO( D(LSFT), T(HOME), U(LSFT), END );
 357               		.loc 1 219 9 is_stmt 1 view .LVU97
 219:keyboards/ergodox/ez/keymaps/pydemia/keymap.c ****           return MACRO( D(LSFT), T(HOME), U(LSFT), END );
 358               		.loc 1 219 12 is_stmt 0 view .LVU98
 359 00d0 8823      		tst r24
 360 00d2 01F4      		brne .+2
 361 00d4 00C0      		rjmp .L48
 220:keyboards/ergodox/ez/keymaps/pydemia/keymap.c ****         }
 362               		.loc 1 220 18 view .LVU99
 363 00d6 80E0      		ldi r24,lo8(__m.5414)
 364 00d8 90E0      		ldi r25,hi8(__m.5414)
 365 00da 0895      		ret
 366               	.L9:
 224:keyboards/ergodox/ez/keymaps/pydemia/keymap.c ****           return MACRO( D(LSFT), T(END), U(LSFT), END );
 367               		.loc 1 224 9 is_stmt 1 view .LVU100
 224:keyboards/ergodox/ez/keymaps/pydemia/keymap.c ****           return MACRO( D(LSFT), T(END), U(LSFT), END );
 368               		.loc 1 224 12 is_stmt 0 view .LVU101
 369 00dc 8823      		tst r24
 370 00de 01F4      		brne .+2
 371 00e0 00C0      		rjmp .L48
 225:keyboards/ergodox/ez/keymaps/pydemia/keymap.c ****         }
 372               		.loc 1 225 18 view .LVU102
 373 00e2 80E0      		ldi r24,lo8(__m.5417)
 374 00e4 90E0      		ldi r25,hi8(__m.5417)
 375 00e6 0895      		ret
 376               	.L7:
 229:keyboards/ergodox/ez/keymaps/pydemia/keymap.c ****           return MACRO( T(SLSH), D(LSFT), T(8), U(LSFT), T(ENTER), T(ENTER), D(LSFT), T(8), U(LSFT)
 377               		.loc 1 229 9 is_stmt 1 view .LVU103
 229:keyboards/ergodox/ez/keymaps/pydemia/keymap.c ****           return MACRO( T(SLSH), D(LSFT), T(8), U(LSFT), T(ENTER), T(ENTER), D(LSFT), T(8), U(LSFT)
 378               		.loc 1 229 12 is_stmt 0 view .LVU104
 379 00e8 8823      		tst r24
 380 00ea 01F4      		brne .+2
 381 00ec 00C0      		rjmp .L48
 230:keyboards/ergodox/ez/keymaps/pydemia/keymap.c ****         }
 382               		.loc 1 230 18 view .LVU105
 383 00ee 80E0      		ldi r24,lo8(__m.5420)
 384 00f0 90E0      		ldi r25,hi8(__m.5420)
 385 00f2 0895      		ret
 386               		.cfi_endproc
 387               	.LFE124:
 389               		.section	.text.dance_press_t,"ax",@progbits
 390               	.global	dance_press_t
 392               	dance_press_t:
 393               	.LVL18:
 394               	.LFB125:
 288:keyboards/ergodox/ez/keymaps/pydemia/keymap.c ****   if (state->count == 1) {
 395               		.loc 1 288 67 is_stmt 1 view -0
 396               		.cfi_startproc
 397               	/* prologue: function */
 398               	/* frame size = 0 */
 399               	/* stack size = 0 */
 400               	.L__stack_usage = 0
 289:keyboards/ergodox/ez/keymaps/pydemia/keymap.c **** 
 401               		.loc 1 289 3 view .LVU107
 289:keyboards/ergodox/ez/keymaps/pydemia/keymap.c **** 
 402               		.loc 1 289 6 is_stmt 0 view .LVU108
 403 0000 FC01      		movw r30,r24
 404 0002 8081      		ld r24,Z
 405               	.LVL19:
 289:keyboards/ergodox/ez/keymaps/pydemia/keymap.c **** 
 406               		.loc 1 289 6 view .LVU109
 407 0004 8130      		cpi r24,lo8(1)
 408 0006 01F4      		brne .L51
 291:keyboards/ergodox/ez/keymaps/pydemia/keymap.c ****     unregister_code(KC_T);
 409               		.loc 1 291 5 is_stmt 1 view .LVU110
 410 0008 87E1      		ldi r24,lo8(23)
 411 000a 0E94 0000 		call register_code
 412               	.LVL20:
 292:keyboards/ergodox/ez/keymaps/pydemia/keymap.c **** 
 413               		.loc 1 292 5 view .LVU111
 414 000e 87E1      		ldi r24,lo8(23)
 415 0010 0C94 0000 		jmp unregister_code
 416               	.LVL21:
 417               	.L51:
 295:keyboards/ergodox/ez/keymaps/pydemia/keymap.c ****   }
 418               		.loc 1 295 5 view .LVU112
 419 0014 0C94 0000 		jmp clear_keyboard_but_mods
 420               	.LVL22:
 295:keyboards/ergodox/ez/keymaps/pydemia/keymap.c ****   }
 421               		.loc 1 295 5 is_stmt 0 view .LVU113
 422               		.cfi_endproc
 423               	.LFE125:
 425               		.section	.text.dance_dbrc,"ax",@progbits
 426               	.global	dance_dbrc
 428               	dance_dbrc:
 429               	.LVL23:
 430               	.LFB126:
 298:keyboards/ergodox/ez/keymaps/pydemia/keymap.c ****   if (state->count == 2) {
 431               		.loc 1 298 64 is_stmt 1 view -0
 432               		.cfi_startproc
 433               	/* prologue: function */
 434               	/* frame size = 0 */
 435               	/* stack size = 0 */
 436               	.L__stack_usage = 0
 299:keyboards/ergodox/ez/keymaps/pydemia/keymap.c **** 
 437               		.loc 1 299 3 view .LVU115
 299:keyboards/ergodox/ez/keymaps/pydemia/keymap.c **** 
 438               		.loc 1 299 6 is_stmt 0 view .LVU116
 439 0000 FC01      		movw r30,r24
 440 0002 8081      		ld r24,Z
 441               	.LVL24:
 299:keyboards/ergodox/ez/keymaps/pydemia/keymap.c **** 
 442               		.loc 1 299 6 view .LVU117
 443 0004 8230      		cpi r24,lo8(2)
 444 0006 01F4      		brne .L53
 301:keyboards/ergodox/ez/keymaps/pydemia/keymap.c ****     unregister_code(KC_LBRC);
 445               		.loc 1 301 5 is_stmt 1 view .LVU118
 446 0008 8FE2      		ldi r24,lo8(47)
 447 000a 0E94 0000 		call register_code
 448               	.LVL25:
 302:keyboards/ergodox/ez/keymaps/pydemia/keymap.c **** 
 449               		.loc 1 302 5 view .LVU119
 450 000e 8FE2      		ldi r24,lo8(47)
 451 0010 0E94 0000 		call unregister_code
 452               	.LVL26:
 304:keyboards/ergodox/ez/keymaps/pydemia/keymap.c ****     unregister_code(KC_RBRC);
 453               		.loc 1 304 5 view .LVU120
 454 0014 80E3      		ldi r24,lo8(48)
 455 0016 0E94 0000 		call register_code
 456               	.LVL27:
 305:keyboards/ergodox/ez/keymaps/pydemia/keymap.c **** 
 457               		.loc 1 305 5 view .LVU121
 458 001a 80E3      		ldi r24,lo8(48)
 459 001c 0E94 0000 		call unregister_code
 460               	.LVL28:
 307:keyboards/ergodox/ez/keymaps/pydemia/keymap.c ****     unregister_code(KC_LEFT);
 461               		.loc 1 307 5 view .LVU122
 462 0020 80E5      		ldi r24,lo8(80)
 463 0022 0E94 0000 		call register_code
 464               	.LVL29:
 308:keyboards/ergodox/ez/keymaps/pydemia/keymap.c **** 
 465               		.loc 1 308 5 view .LVU123
 466 0026 80E5      		ldi r24,lo8(80)
 467 0028 0C94 0000 		jmp unregister_code
 468               	.LVL30:
 469               	.L53:
 311:keyboards/ergodox/ez/keymaps/pydemia/keymap.c ****   }
 470               		.loc 1 311 5 view .LVU124
 471 002c 0C94 0000 		jmp clear_keyboard_but_mods
 472               	.LVL31:
 311:keyboards/ergodox/ez/keymaps/pydemia/keymap.c ****   }
 473               		.loc 1 311 5 is_stmt 0 view .LVU125
 474               		.cfi_endproc
 475               	.LFE126:
 477               		.section	.text.dance_press_home,"ax",@progbits
 478               	.global	dance_press_home
 480               	dance_press_home:
 481               	.LVL32:
 482               	.LFB129:
 400:keyboards/ergodox/ez/keymaps/pydemia/keymap.c ****   }
 401:keyboards/ergodox/ez/keymaps/pydemia/keymap.c **** }
 402:keyboards/ergodox/ez/keymaps/pydemia/keymap.c **** 
 403:keyboards/ergodox/ez/keymaps/pydemia/keymap.c **** // = & <-
 404:keyboards/ergodox/ez/keymaps/pydemia/keymap.c **** void dance_press_home (qk_tap_dance_state_t *state, void *user_data) {
 483               		.loc 1 404 70 is_stmt 1 view -0
 484               		.cfi_startproc
 485               	/* prologue: function */
 486               	/* frame size = 0 */
 487               	/* stack size = 0 */
 488               	.L__stack_usage = 0
 405:keyboards/ergodox/ez/keymaps/pydemia/keymap.c ****   if (state->count == 1) {
 489               		.loc 1 405 3 view .LVU127
 490               		.loc 1 405 6 is_stmt 0 view .LVU128
 491 0000 FC01      		movw r30,r24
 492 0002 8081      		ld r24,Z
 493               	.LVL33:
 494               		.loc 1 405 6 view .LVU129
 495 0004 8130      		cpi r24,lo8(1)
 496 0006 01F4      		brne .L55
 406:keyboards/ergodox/ez/keymaps/pydemia/keymap.c **** 
 407:keyboards/ergodox/ez/keymaps/pydemia/keymap.c ****     register_code(KC_HOME);
 497               		.loc 1 407 5 is_stmt 1 view .LVU130
 498 0008 8AE4      		ldi r24,lo8(74)
 499 000a 0E94 0000 		call register_code
 500               	.LVL34:
 408:keyboards/ergodox/ez/keymaps/pydemia/keymap.c ****     unregister_code(KC_HOME);
 501               		.loc 1 408 5 view .LVU131
 502 000e 8AE4      		ldi r24,lo8(74)
 503 0010 0C94 0000 		jmp unregister_code
 504               	.LVL35:
 505               	.L55:
 409:keyboards/ergodox/ez/keymaps/pydemia/keymap.c **** 
 410:keyboards/ergodox/ez/keymaps/pydemia/keymap.c ****   } else {
 411:keyboards/ergodox/ez/keymaps/pydemia/keymap.c ****     clear_keyboard_but_mods();
 506               		.loc 1 411 5 view .LVU132
 507 0014 0C94 0000 		jmp clear_keyboard_but_mods
 508               	.LVL36:
 509               		.loc 1 411 5 is_stmt 0 view .LVU133
 510               		.cfi_endproc
 511               	.LFE129:
 513               		.section	.text.dance_press_shifthome,"ax",@progbits
 514               	.global	dance_press_shifthome
 516               	dance_press_shifthome:
 517               	.LVL37:
 518               	.LFB130:
 412:keyboards/ergodox/ez/keymaps/pydemia/keymap.c ****   }
 413:keyboards/ergodox/ez/keymaps/pydemia/keymap.c **** }
 414:keyboards/ergodox/ez/keymaps/pydemia/keymap.c **** void dance_press_shifthome (qk_tap_dance_state_t *state, void *user_data) {
 519               		.loc 1 414 75 is_stmt 1 view -0
 520               		.cfi_startproc
 521               	/* prologue: function */
 522               	/* frame size = 0 */
 523               	/* stack size = 0 */
 524               	.L__stack_usage = 0
 415:keyboards/ergodox/ez/keymaps/pydemia/keymap.c ****   if (state->count == 2) {
 525               		.loc 1 415 3 view .LVU135
 526               		.loc 1 415 6 is_stmt 0 view .LVU136
 527 0000 FC01      		movw r30,r24
 528 0002 8081      		ld r24,Z
 529               	.LVL38:
 530               		.loc 1 415 6 view .LVU137
 531 0004 8230      		cpi r24,lo8(2)
 532 0006 01F4      		brne .L57
 416:keyboards/ergodox/ez/keymaps/pydemia/keymap.c **** 
 417:keyboards/ergodox/ez/keymaps/pydemia/keymap.c ****     register_code(KC_LSFT);
 533               		.loc 1 417 5 is_stmt 1 view .LVU138
 534 0008 81EE      		ldi r24,lo8(-31)
 535 000a 0E94 0000 		call register_code
 536               	.LVL39:
 418:keyboards/ergodox/ez/keymaps/pydemia/keymap.c ****     register_code(KC_HOME);
 537               		.loc 1 418 5 view .LVU139
 538 000e 8AE4      		ldi r24,lo8(74)
 539 0010 0E94 0000 		call register_code
 540               	.LVL40:
 419:keyboards/ergodox/ez/keymaps/pydemia/keymap.c ****     unregister_code(KC_HOME);
 541               		.loc 1 419 5 view .LVU140
 542 0014 8AE4      		ldi r24,lo8(74)
 543 0016 0E94 0000 		call unregister_code
 544               	.LVL41:
 420:keyboards/ergodox/ez/keymaps/pydemia/keymap.c ****     unregister_code(KC_LSFT);
 545               		.loc 1 420 5 view .LVU141
 546 001a 81EE      		ldi r24,lo8(-31)
 547 001c 0C94 0000 		jmp unregister_code
 548               	.LVL42:
 549               	.L57:
 421:keyboards/ergodox/ez/keymaps/pydemia/keymap.c **** 
 422:keyboards/ergodox/ez/keymaps/pydemia/keymap.c ****   } else {
 423:keyboards/ergodox/ez/keymaps/pydemia/keymap.c ****     clear_keyboard_but_mods();
 550               		.loc 1 423 5 view .LVU142
 551 0020 0C94 0000 		jmp clear_keyboard_but_mods
 552               	.LVL43:
 553               		.loc 1 423 5 is_stmt 0 view .LVU143
 554               		.cfi_endproc
 555               	.LFE130:
 557               		.section	.text.dance_press_end,"ax",@progbits
 558               	.global	dance_press_end
 560               	dance_press_end:
 561               	.LVL44:
 562               	.LFB131:
 424:keyboards/ergodox/ez/keymaps/pydemia/keymap.c ****   }
 425:keyboards/ergodox/ez/keymaps/pydemia/keymap.c **** }
 426:keyboards/ergodox/ez/keymaps/pydemia/keymap.c **** 
 427:keyboards/ergodox/ez/keymaps/pydemia/keymap.c **** 
 428:keyboards/ergodox/ez/keymaps/pydemia/keymap.c **** // = & <-
 429:keyboards/ergodox/ez/keymaps/pydemia/keymap.c **** void dance_press_end (qk_tap_dance_state_t *state, void *user_data) {
 563               		.loc 1 429 69 is_stmt 1 view -0
 564               		.cfi_startproc
 565               	/* prologue: function */
 566               	/* frame size = 0 */
 567               	/* stack size = 0 */
 568               	.L__stack_usage = 0
 430:keyboards/ergodox/ez/keymaps/pydemia/keymap.c ****   if (state->count == 1) {
 569               		.loc 1 430 3 view .LVU145
 570               		.loc 1 430 6 is_stmt 0 view .LVU146
 571 0000 FC01      		movw r30,r24
 572 0002 8081      		ld r24,Z
 573               	.LVL45:
 574               		.loc 1 430 6 view .LVU147
 575 0004 8130      		cpi r24,lo8(1)
 576 0006 01F4      		brne .L59
 431:keyboards/ergodox/ez/keymaps/pydemia/keymap.c **** 
 432:keyboards/ergodox/ez/keymaps/pydemia/keymap.c ****     register_code(KC_END);
 577               		.loc 1 432 5 is_stmt 1 view .LVU148
 578 0008 8DE4      		ldi r24,lo8(77)
 579 000a 0E94 0000 		call register_code
 580               	.LVL46:
 433:keyboards/ergodox/ez/keymaps/pydemia/keymap.c ****     unregister_code(KC_END);
 581               		.loc 1 433 5 view .LVU149
 582 000e 8DE4      		ldi r24,lo8(77)
 583 0010 0C94 0000 		jmp unregister_code
 584               	.LVL47:
 585               	.L59:
 434:keyboards/ergodox/ez/keymaps/pydemia/keymap.c **** 
 435:keyboards/ergodox/ez/keymaps/pydemia/keymap.c ****   } else {
 436:keyboards/ergodox/ez/keymaps/pydemia/keymap.c ****     clear_keyboard_but_mods();
 586               		.loc 1 436 5 view .LVU150
 587 0014 0C94 0000 		jmp clear_keyboard_but_mods
 588               	.LVL48:
 589               		.loc 1 436 5 is_stmt 0 view .LVU151
 590               		.cfi_endproc
 591               	.LFE131:
 593               		.section	.text.dance_press_shiftend,"ax",@progbits
 594               	.global	dance_press_shiftend
 596               	dance_press_shiftend:
 597               	.LVL49:
 598               	.LFB132:
 437:keyboards/ergodox/ez/keymaps/pydemia/keymap.c ****   }
 438:keyboards/ergodox/ez/keymaps/pydemia/keymap.c **** }
 439:keyboards/ergodox/ez/keymaps/pydemia/keymap.c **** void dance_press_shiftend (qk_tap_dance_state_t *state, void *user_data) {
 599               		.loc 1 439 74 is_stmt 1 view -0
 600               		.cfi_startproc
 601               	/* prologue: function */
 602               	/* frame size = 0 */
 603               	/* stack size = 0 */
 604               	.L__stack_usage = 0
 440:keyboards/ergodox/ez/keymaps/pydemia/keymap.c ****   if (state->count == 2) {
 605               		.loc 1 440 3 view .LVU153
 606               		.loc 1 440 6 is_stmt 0 view .LVU154
 607 0000 FC01      		movw r30,r24
 608 0002 8081      		ld r24,Z
 609               	.LVL50:
 610               		.loc 1 440 6 view .LVU155
 611 0004 8230      		cpi r24,lo8(2)
 612 0006 01F4      		brne .L61
 441:keyboards/ergodox/ez/keymaps/pydemia/keymap.c **** 
 442:keyboards/ergodox/ez/keymaps/pydemia/keymap.c ****     register_code(KC_LSFT);
 613               		.loc 1 442 5 is_stmt 1 view .LVU156
 614 0008 81EE      		ldi r24,lo8(-31)
 615 000a 0E94 0000 		call register_code
 616               	.LVL51:
 443:keyboards/ergodox/ez/keymaps/pydemia/keymap.c ****     register_code(KC_END);
 617               		.loc 1 443 5 view .LVU157
 618 000e 8DE4      		ldi r24,lo8(77)
 619 0010 0E94 0000 		call register_code
 620               	.LVL52:
 444:keyboards/ergodox/ez/keymaps/pydemia/keymap.c ****     unregister_code(KC_END);
 621               		.loc 1 444 5 view .LVU158
 622 0014 8DE4      		ldi r24,lo8(77)
 623 0016 0E94 0000 		call unregister_code
 624               	.LVL53:
 445:keyboards/ergodox/ez/keymaps/pydemia/keymap.c ****     unregister_code(KC_LSFT);
 625               		.loc 1 445 5 view .LVU159
 626 001a 81EE      		ldi r24,lo8(-31)
 627 001c 0C94 0000 		jmp unregister_code
 628               	.LVL54:
 629               	.L61:
 446:keyboards/ergodox/ez/keymaps/pydemia/keymap.c **** 
 447:keyboards/ergodox/ez/keymaps/pydemia/keymap.c ****   } else {
 448:keyboards/ergodox/ez/keymaps/pydemia/keymap.c ****     clear_keyboard_but_mods();
 630               		.loc 1 448 5 view .LVU160
 631 0020 0C94 0000 		jmp clear_keyboard_but_mods
 632               	.LVL55:
 633               		.loc 1 448 5 is_stmt 0 view .LVU161
 634               		.cfi_endproc
 635               	.LFE132:
 637               		.section	.rodata.pre_macro_date_to_int.str1.1,"aMS",@progbits,1
 638               	.LC1:
 639 0000 2573 2025 		.string	"%s %d %d"
 639      6420 2564 
 639      00
 640               	.LC0:
 641 0009 4A61 6E46 		.string	"JanFebMarAprMayJunJulAugSepOctNovDec"
 641      6562 4D61 
 641      7241 7072 
 641      4D61 794A 
 641      756E 4A75 
 642               		.section	.text.pre_macro_date_to_int,"ax",@progbits
 643               	.global	pre_macro_date_to_int
 645               	pre_macro_date_to_int:
 646               	.LVL56:
 647               	.LFB133:
 449:keyboards/ergodox/ez/keymaps/pydemia/keymap.c ****   }
 450:keyboards/ergodox/ez/keymaps/pydemia/keymap.c **** }
 451:keyboards/ergodox/ez/keymaps/pydemia/keymap.c **** // CUSTOM KEYMAP END -------------------------------------------------------
 452:keyboards/ergodox/ez/keymaps/pydemia/keymap.c **** 
 453:keyboards/ergodox/ez/keymaps/pydemia/keymap.c **** 
 454:keyboards/ergodox/ez/keymaps/pydemia/keymap.c **** 
 455:keyboards/ergodox/ez/keymaps/pydemia/keymap.c **** //Tap Dance Declarations
 456:keyboards/ergodox/ez/keymaps/pydemia/keymap.c **** enum {
 457:keyboards/ergodox/ez/keymaps/pydemia/keymap.c ****   ASSIGN_MARK = 0,
 458:keyboards/ergodox/ez/keymaps/pydemia/keymap.c **** 
 459:keyboards/ergodox/ez/keymaps/pydemia/keymap.c ****   F01,
 460:keyboards/ergodox/ez/keymaps/pydemia/keymap.c ****   F02,
 461:keyboards/ergodox/ez/keymaps/pydemia/keymap.c ****   F03,
 462:keyboards/ergodox/ez/keymaps/pydemia/keymap.c ****   F04,
 463:keyboards/ergodox/ez/keymaps/pydemia/keymap.c ****   F05,
 464:keyboards/ergodox/ez/keymaps/pydemia/keymap.c ****   F06,
 465:keyboards/ergodox/ez/keymaps/pydemia/keymap.c ****   F07,
 466:keyboards/ergodox/ez/keymaps/pydemia/keymap.c ****   F08,
 467:keyboards/ergodox/ez/keymaps/pydemia/keymap.c ****   F09,
 468:keyboards/ergodox/ez/keymaps/pydemia/keymap.c ****   F10,
 469:keyboards/ergodox/ez/keymaps/pydemia/keymap.c ****   F11,
 470:keyboards/ergodox/ez/keymaps/pydemia/keymap.c ****   F12,
 471:keyboards/ergodox/ez/keymaps/pydemia/keymap.c **** 
 472:keyboards/ergodox/ez/keymaps/pydemia/keymap.c ****   D_QUOTE,
 473:keyboards/ergodox/ez/keymaps/pydemia/keymap.c **** 
 474:keyboards/ergodox/ez/keymaps/pydemia/keymap.c ****   PGUP_BWEB,
 475:keyboards/ergodox/ez/keymaps/pydemia/keymap.c ****   PGDN_FWEB,
 476:keyboards/ergodox/ez/keymaps/pydemia/keymap.c **** /*
 477:keyboards/ergodox/ez/keymaps/pydemia/keymap.c ****   T_DBRC,
 478:keyboards/ergodox/ez/keymaps/pydemia/keymap.c ****   G_DCBR,
 479:keyboards/ergodox/ez/keymaps/pydemia/keymap.c ****   B_DPRN,
 480:keyboards/ergodox/ez/keymaps/pydemia/keymap.c **** */
 481:keyboards/ergodox/ez/keymaps/pydemia/keymap.c ****   HOME_SFT,
 482:keyboards/ergodox/ez/keymaps/pydemia/keymap.c ****   END_SFT,
 483:keyboards/ergodox/ez/keymaps/pydemia/keymap.c **** 
 484:keyboards/ergodox/ez/keymaps/pydemia/keymap.c ****   J_DBRC,
 485:keyboards/ergodox/ez/keymaps/pydemia/keymap.c ****   K_DCBR,
 486:keyboards/ergodox/ez/keymaps/pydemia/keymap.c ****   L_DPRN
 487:keyboards/ergodox/ez/keymaps/pydemia/keymap.c **** };
 488:keyboards/ergodox/ez/keymaps/pydemia/keymap.c **** 
 489:keyboards/ergodox/ez/keymaps/pydemia/keymap.c **** //Tap Dance Definitions
 490:keyboards/ergodox/ez/keymaps/pydemia/keymap.c **** qk_tap_dance_action_t tap_dance_actions[] = {
 491:keyboards/ergodox/ez/keymaps/pydemia/keymap.c **** 
 492:keyboards/ergodox/ez/keymaps/pydemia/keymap.c ****   [ASSIGN_MARK] = ACTION_TAP_DANCE_FN_ADVANCED (NULL, dance_press_equal, dance_press_rassign),
 493:keyboards/ergodox/ez/keymaps/pydemia/keymap.c **** 
 494:keyboards/ergodox/ez/keymaps/pydemia/keymap.c ****   [F01] = ACTION_TAP_DANCE_DOUBLE(KC_1, KC_F1),
 495:keyboards/ergodox/ez/keymaps/pydemia/keymap.c ****   [F02] = ACTION_TAP_DANCE_DOUBLE(KC_2, KC_F2),
 496:keyboards/ergodox/ez/keymaps/pydemia/keymap.c ****   [F03] = ACTION_TAP_DANCE_DOUBLE(KC_3, KC_F3),
 497:keyboards/ergodox/ez/keymaps/pydemia/keymap.c ****   [F04] = ACTION_TAP_DANCE_DOUBLE(KC_4, KC_F4),
 498:keyboards/ergodox/ez/keymaps/pydemia/keymap.c ****   [F05] = ACTION_TAP_DANCE_DOUBLE(KC_5, KC_F5),
 499:keyboards/ergodox/ez/keymaps/pydemia/keymap.c ****   [F06] = ACTION_TAP_DANCE_DOUBLE(KC_6, KC_F6),
 500:keyboards/ergodox/ez/keymaps/pydemia/keymap.c ****   [F07] = ACTION_TAP_DANCE_DOUBLE(KC_7, KC_F7),
 501:keyboards/ergodox/ez/keymaps/pydemia/keymap.c ****   [F08] = ACTION_TAP_DANCE_DOUBLE(KC_8, KC_F8),
 502:keyboards/ergodox/ez/keymaps/pydemia/keymap.c ****   [F09] = ACTION_TAP_DANCE_DOUBLE(KC_9, KC_F9),
 503:keyboards/ergodox/ez/keymaps/pydemia/keymap.c ****   [F10] = ACTION_TAP_DANCE_DOUBLE(KC_0, KC_F10),
 504:keyboards/ergodox/ez/keymaps/pydemia/keymap.c ****   [F11] = ACTION_TAP_DANCE_DOUBLE(KC_MINUS, KC_F11),
 505:keyboards/ergodox/ez/keymaps/pydemia/keymap.c ****   [F12] = ACTION_TAP_DANCE_DOUBLE(KC_PLUS, KC_F12),
 506:keyboards/ergodox/ez/keymaps/pydemia/keymap.c **** 
 507:keyboards/ergodox/ez/keymaps/pydemia/keymap.c ****   [D_QUOTE] = ACTION_TAP_DANCE_DOUBLE(KC_QUOT, LSFT(KC_QUOT)),
 508:keyboards/ergodox/ez/keymaps/pydemia/keymap.c **** 
 509:keyboards/ergodox/ez/keymaps/pydemia/keymap.c ****   [PGUP_BWEB] = ACTION_TAP_DANCE_DOUBLE(KC_PGUP, LALT(KC_LEFT)),
 510:keyboards/ergodox/ez/keymaps/pydemia/keymap.c ****   [PGDN_FWEB] = ACTION_TAP_DANCE_DOUBLE(KC_PGDN, LALT(KC_RGHT)),
 511:keyboards/ergodox/ez/keymaps/pydemia/keymap.c **** /*
 512:keyboards/ergodox/ez/keymaps/pydemia/keymap.c ****   [T_DBRC] = ACTION_TAP_DANCE_FN_ADVANCED (NULL, dance_press_t, dance_dbrc),
 513:keyboards/ergodox/ez/keymaps/pydemia/keymap.c ****   [G_DCBR] = ACTION_TAP_DANCE_FN_ADVANCED (NULL, dance_press_g, dance_dcbr),
 514:keyboards/ergodox/ez/keymaps/pydemia/keymap.c ****   [B_DPRN] = ACTION_TAP_DANCE_FN_ADVANCED (NULL, dance_press_b, dance_dprn),
 515:keyboards/ergodox/ez/keymaps/pydemia/keymap.c **** */
 516:keyboards/ergodox/ez/keymaps/pydemia/keymap.c ****   [HOME_SFT] = ACTION_TAP_DANCE_DOUBLE(KC_HOME, LSFT(KC_HOME)),
 517:keyboards/ergodox/ez/keymaps/pydemia/keymap.c ****   [END_SFT]  = ACTION_TAP_DANCE_DOUBLE(KC_END, LSFT(KC_END)),
 518:keyboards/ergodox/ez/keymaps/pydemia/keymap.c **** 
 519:keyboards/ergodox/ez/keymaps/pydemia/keymap.c ****   [J_DBRC] = ACTION_TAP_DANCE_DOUBLE(KC_J, BRC_KEY),
 520:keyboards/ergodox/ez/keymaps/pydemia/keymap.c ****   [K_DCBR] = ACTION_TAP_DANCE_DOUBLE(KC_K, CBR_KEY),
 521:keyboards/ergodox/ez/keymaps/pydemia/keymap.c ****   [L_DPRN] = ACTION_TAP_DANCE_DOUBLE(KC_L, PRN_KEY),
 522:keyboards/ergodox/ez/keymaps/pydemia/keymap.c **** 
 523:keyboards/ergodox/ez/keymaps/pydemia/keymap.c **** };
 524:keyboards/ergodox/ez/keymaps/pydemia/keymap.c **** 
 525:keyboards/ergodox/ez/keymaps/pydemia/keymap.c **** // Tap Dance End --------------------------------------------------------------
 526:keyboards/ergodox/ez/keymaps/pydemia/keymap.c **** 
 527:keyboards/ergodox/ez/keymaps/pydemia/keymap.c **** 
 528:keyboards/ergodox/ez/keymaps/pydemia/keymap.c **** const uint16_t PROGMEM keymaps[][MATRIX_ROWS][MATRIX_COLS] = {
 529:keyboards/ergodox/ez/keymaps/pydemia/keymap.c **** 
 530:keyboards/ergodox/ez/keymaps/pydemia/keymap.c **** /* Keymap 0: Basic layer
 531:keyboards/ergodox/ez/keymaps/pydemia/keymap.c ****  *
 532:keyboards/ergodox/ez/keymaps/pydemia/keymap.c ****  * 
 533:keyboards/ergodox/ez/keymaps/pydemia/keymap.c ****  *   Esc    1    2    3    4    5  CtFn5       6    7    8    9
 534:keyboards/ergodox/ez/keymaps/pydemia/keymap.c ****  * 
 535:keyboards/ergodox/ez/keymaps/pydemia/keymap.c ****  *   Tab    Q    W    E    R   T[]  Tg         <-   Y    U    I
 536:keyboards/ergodox/ez/keymaps/pydemia/keymap.c ****  * 
 537:keyboards/ergodox/ez/keymaps/pydemia/keymap.c ****  *    ~     A    S    D    F   G{}      
 538:keyboards/ergodox/ez/keymaps/pydemia/keymap.c ****  * 
 539:keyboards/ergodox/ez/keymaps/pydemia/keymap.c ****  *   Sft    Z    X    C    V   B()  Npd             N    M    ,
 540:keyboards/ergodox/ez/keymaps/pydemia/keymap.c ****  * 
 541:keyboards/ergodox/ez/keymaps/pydemia/keymap.c ****  *    CTL  App Wn/Cd TgA  ALT                               RAt  RCl   [
 542:keyboards/ergodox/ez/keymaps/pydemia/keymap.c ****  *    
 543:keyboards/ergodox/ez/keymaps/pydemia/keymap.c ****  *                                    TgM CtEnt  Lft  Rgt 
 544:keyboards/ergodox/ez/keymaps/pydemia/keymap.c ****  *                              
 545:keyboards/ergodox/ez/keymaps/pydemia/keymap.c ****  *                                        Hom   Up            
 546:keyboards/ergodox/ez/keymaps/pydemia/keymap.c ****  *                              Spc  Bsp   Del  
 547:keyboards/ergodox/ez/keymaps/pydemia/keymap.c ****  *                                        End   Dwn           
 548:keyboards/ergodox/ez/keymaps/pydemia/keymap.c ****  *                              
 549:keyboards/ergodox/ez/keymaps/pydemia/keymap.c ****  */
 550:keyboards/ergodox/ez/keymaps/pydemia/keymap.c **** // If it accepts an argument (i.e, is a function), it doesn't need KC_.
 551:keyboards/ergodox/ez/keymaps/pydemia/keymap.c **** // Otherwise, it needs KC_*
 552:keyboards/ergodox/ez/keymaps/pydemia/keymap.c **** 
 553:keyboards/ergodox/ez/keymaps/pydemia/keymap.c **** //Hyper: ALL_T(KC_NO)
 554:keyboards/ergodox/ez/keymaps/pydemia/keymap.c **** //Meh: MEH_T(KC_NO)
 555:keyboards/ergodox/ez/keymaps/pydemia/keymap.c **** [WKEY] = KEYMAP(  // layer 0 : default
 556:keyboards/ergodox/ez/keymaps/pydemia/keymap.c **** // left hand
 557:keyboards/ergodox/ez/keymaps/pydemia/keymap.c **** KC_ESC,           KC_1,           KC_2,           KC_3,         KC_4,           KC_5,       LCTL(KC
 558:keyboards/ergodox/ez/keymaps/pydemia/keymap.c **** KC_TAB,           KC_Q,           KC_W,           KC_E,         KC_R,           KC_T,       KC_FN4,
 559:keyboards/ergodox/ez/keymaps/pydemia/keymap.c **** KC_GRV,           KC_A,           KC_S,           KC_D,         KC_F,           KC_G,
 560:keyboards/ergodox/ez/keymaps/pydemia/keymap.c **** KC_LSFT,          KC_Z,           KC_X,           KC_C,         KC_V,           KC_B,       KC_FN1,
 561:keyboards/ergodox/ez/keymaps/pydemia/keymap.c **** CTL_T(KC_LCTL),   KC_APP,         KC_LGUI,        KC_FN3,       ALT_T(KC_LALT),
 562:keyboards/ergodox/ez/keymaps/pydemia/keymap.c ****                                                                         KC_FN2,           LCTL(KC_E
 563:keyboards/ergodox/ez/keymaps/pydemia/keymap.c ****                                                                                           KC_HOME,
 564:keyboards/ergodox/ez/keymaps/pydemia/keymap.c ****                                                       KC_SPC,           KC_BSPC,          KC_END,
 565:keyboards/ergodox/ez/keymaps/pydemia/keymap.c **** // right hand
 566:keyboards/ergodox/ez/keymaps/pydemia/keymap.c **** KC_6,             KC_7,       KC_8,       KC_9,         KC_0,             KC_MINUS,         KC_PLUS
 567:keyboards/ergodox/ez/keymaps/pydemia/keymap.c **** ASSIGN_TAP,       KC_Y,       KC_U,       KC_I,         KC_O,             KC_P,             KC_BSLS
 568:keyboards/ergodox/ez/keymaps/pydemia/keymap.c ****                   KC_H,       KC_J,       KC_K,         KC_L,             KC_SCLN,          D_QUOTE
 569:keyboards/ergodox/ez/keymaps/pydemia/keymap.c **** KC_FN4,           KC_N,       KC_M,       KC_COMM,      KC_DOT,           KC_SLSH,          KC_RSFT
 570:keyboards/ergodox/ez/keymaps/pydemia/keymap.c ****                   KC_RALT,    KC_RCTL,    KC_LBRC,      KC_RBRC,          M(16),//KC_FN3,
 571:keyboards/ergodox/ez/keymaps/pydemia/keymap.c **** KC_LEFT,          KC_RGHT,
 572:keyboards/ergodox/ez/keymaps/pydemia/keymap.c **** KC_UP,
 573:keyboards/ergodox/ez/keymaps/pydemia/keymap.c **** KC_DOWN,          KC_DELT,    KC_ENT
 574:keyboards/ergodox/ez/keymaps/pydemia/keymap.c **** ),
 575:keyboards/ergodox/ez/keymaps/pydemia/keymap.c **** 
 576:keyboards/ergodox/ez/keymaps/pydemia/keymap.c **** /* Keymap 1: Numpad Layer
 577:keyboards/ergodox/ez/keymaps/pydemia/keymap.c ****  *
 578:keyboards/ergodox/ez/keymaps/pydemia/keymap.c ****  * 
 579:keyboards/ergodox/ez/keymaps/pydemia/keymap.c ****  *                   Dfm  #--  #%%           Calc              
 580:keyboards/ergodox/ez/keymaps/pydemia/keymap.c ****  * 
 581:keyboards/ergodox/ez/keymaps/pydemia/keymap.c ****  *                   ( )   (    )             <-    7    8    9
 582:keyboards/ergodox/ez/keymaps/pydemia/keymap.c ****  * 
 583:keyboards/ergodox/ez/keymaps/pydemia/keymap.c ****  *                   [ ]   [    ]       
 584:keyboards/ergodox/ez/keymaps/pydemia/keymap.c ****  * 
 585:keyboards/ergodox/ez/keymaps/pydemia/keymap.c ****  *                   { }   {    }                   1    2    3
 586:keyboards/ergodox/ez/keymaps/pydemia/keymap.c ****  * 
 587:keyboards/ergodox/ez/keymaps/pydemia/keymap.c ****  *                                                           0    .   Lf
 588:keyboards/ergodox/ez/keymaps/pydemia/keymap.c ****  *    
 589:keyboards/ergodox/ez/keymaps/pydemia/keymap.c ****  *                                        AlEnt  CLf  CRt 
 590:keyboards/ergodox/ez/keymaps/pydemia/keymap.c ****  *                              
 591:keyboards/ergodox/ez/keymaps/pydemia/keymap.c ****  *                                        SHm   PUp           
 592:keyboards/ergodox/ez/keymaps/pydemia/keymap.c ****  *                              Spc  Bsp   Del  
 593:keyboards/ergodox/ez/keymaps/pydemia/keymap.c ****  *                                        SDn   PDn           
 594:keyboards/ergodox/ez/keymaps/pydemia/keymap.c ****  *                              
 595:keyboards/ergodox/ez/keymaps/pydemia/keymap.c ****  */
 596:keyboards/ergodox/ez/keymaps/pydemia/keymap.c **** // SYMBOLS M(0) = Version
 597:keyboards/ergodox/ez/keymaps/pydemia/keymap.c **** [NPAD] = KEYMAP( //QMK_VER_KEY
 598:keyboards/ergodox/ez/keymaps/pydemia/keymap.c **** //SQLCOMMENT_KEY, SQL_NORMAL_KEY, SQL_LEFT_KEY, SQL_LEFTSUB_KEY
 599:keyboards/ergodox/ez/keymaps/pydemia/keymap.c **** // left hand
 600:keyboards/ergodox/ez/keymaps/pydemia/keymap.c **** KC_TRNS,        KC_TRNS,      KC_TRNS,        PY_DTFM_KEY,    R_FOLDING_KEY,   SPYD_CELL_KEY,   KC_
 601:keyboards/ergodox/ez/keymaps/pydemia/keymap.c **** KC_TRNS,        KC_TRNS,      KC_TRNS,        M(16),          KC_LPRN,         KC_RPRN,         KC_
 602:keyboards/ergodox/ez/keymaps/pydemia/keymap.c **** KC_TRNS,        KC_TRNS,      KC_TRNS,        M(14),          KC_LBRC,         KC_RBRC,
 603:keyboards/ergodox/ez/keymaps/pydemia/keymap.c **** KC_TRNS,        KC_TRNS,      KC_TRNS,        M(15),          KC_LCBR,         KC_RCBR,         KC_
 604:keyboards/ergodox/ez/keymaps/pydemia/keymap.c **** KC_TRNS,        KC_TRNS,      KC_TRNS,        KC_TRNS,        KC_TRNS,
 605:keyboards/ergodox/ez/keymaps/pydemia/keymap.c ****                                                                                         KC_TRNS,   
 606:keyboards/ergodox/ez/keymaps/pydemia/keymap.c ****                                                                                                    
 607:keyboards/ergodox/ez/keymaps/pydemia/keymap.c ****                                                                        KC_SPC,          KC_BSPC,   
 608:keyboards/ergodox/ez/keymaps/pydemia/keymap.c **** 
 609:keyboards/ergodox/ez/keymaps/pydemia/keymap.c **** // right hand
 610:keyboards/ergodox/ez/keymaps/pydemia/keymap.c **** KC_CALC,          KC_TRNS,           KC_TRNS,        KC_TRNS,          KC_TRNS,         KC_TRNS,   
 611:keyboards/ergodox/ez/keymaps/pydemia/keymap.c **** ASSIGN_R_KEY,     KC_7,              KC_8,           KC_9,             KC_PLUS,         KC_MINUS,  
 612:keyboards/ergodox/ez/keymaps/pydemia/keymap.c ****                   KC_4,              KC_5,           KC_6,             KC_ASTR,         KC_SLSH,   
 613:keyboards/ergodox/ez/keymaps/pydemia/keymap.c **** KC_MINUS,         KC_1,              KC_2,           KC_3,             KC_COMM,         KC_UP,     
 614:keyboards/ergodox/ez/keymaps/pydemia/keymap.c ****                   KC_0,              KC_DOT,         KC_LEFT,          KC_DOWN,         KC_RGHT,
 615:keyboards/ergodox/ez/keymaps/pydemia/keymap.c **** LCTL(KC_LEFT),    LCTL(KC_RGHT),
 616:keyboards/ergodox/ez/keymaps/pydemia/keymap.c **** KC_PGUP,
 617:keyboards/ergodox/ez/keymaps/pydemia/keymap.c **** KC_PGDN,          KC_DELT,           KC_ENT
 618:keyboards/ergodox/ez/keymaps/pydemia/keymap.c **** ),
 619:keyboards/ergodox/ez/keymaps/pydemia/keymap.c **** 
 620:keyboards/ergodox/ez/keymaps/pydemia/keymap.c **** 
 621:keyboards/ergodox/ez/keymaps/pydemia/keymap.c **** /* Keymap 2: Magic Layer
 622:keyboards/ergodox/ez/keymaps/pydemia/keymap.c ****  *
 623:keyboards/ergodox/ez/keymaps/pydemia/keymap.c ****  * 
 624:keyboards/ergodox/ez/keymaps/pydemia/keymap.c ****  *  SIGN    1    2    3    4    5            Calc              
 625:keyboards/ergodox/ez/keymaps/pydemia/keymap.c ****  * 
 626:keyboards/ergodox/ez/keymaps/pydemia/keymap.c ****  *          6    7    8    9    0              +    7    8    9
 627:keyboards/ergodox/ez/keymaps/pydemia/keymap.c ****  * 
 628:keyboards/ergodox/ez/keymaps/pydemia/keymap.c ****  *                                      
 629:keyboards/ergodox/ez/keymaps/pydemia/keymap.c ****  * 
 630:keyboards/ergodox/ez/keymaps/pydemia/keymap.c ****  *                                                  1    2    3
 631:keyboards/ergodox/ez/keymaps/pydemia/keymap.c ****  * 
 632:keyboards/ergodox/ez/keymaps/pydemia/keymap.c ****  *                                                           0    .   Lf
 633:keyboards/ergodox/ez/keymaps/pydemia/keymap.c ****  *    
 634:keyboards/ergodox/ez/keymaps/pydemia/keymap.c ****  *                                        AlEnt  CLf  CRt 
 635:keyboards/ergodox/ez/keymaps/pydemia/keymap.c ****  *                              
 636:keyboards/ergodox/ez/keymaps/pydemia/keymap.c ****  *                                        SHm   PUp           
 637:keyboards/ergodox/ez/keymaps/pydemia/keymap.c ****  *                              Ent  Bsp   Del  
 638:keyboards/ergodox/ez/keymaps/pydemia/keymap.c ****  *                                        SDn   PDn           
 639:keyboards/ergodox/ez/keymaps/pydemia/keymap.c ****  *                              
 640:keyboards/ergodox/ez/keymaps/pydemia/keymap.c ****  */
 641:keyboards/ergodox/ez/keymaps/pydemia/keymap.c **** // MAGI
 642:keyboards/ergodox/ez/keymaps/pydemia/keymap.c **** [MAGI] = KEYMAP(
 643:keyboards/ergodox/ez/keymaps/pydemia/keymap.c **** // left hand
 644:keyboards/ergodox/ez/keymaps/pydemia/keymap.c **** SIGN_KEY,     KC_1,          KC_2,          KC_3,          KC_4,        KC_5,          KC_TRNS,
 645:keyboards/ergodox/ez/keymaps/pydemia/keymap.c **** KC_TRNS,      KC_6,          KC_7,          KC_8,          KC_9,        KC_0,          KC_TRNS,
 646:keyboards/ergodox/ez/keymaps/pydemia/keymap.c **** KC_TRNS,      KC_TRNS,       KC_TRNS,       KC_TRNS,       KC_TRNS,     KC_TRNS,
 647:keyboards/ergodox/ez/keymaps/pydemia/keymap.c **** KC_TRNS,      KC_TRNS,       KC_TRNS,       KC_TRNS,       KC_TRNS,     KC_TRNS,       KC_TRNS,
 648:keyboards/ergodox/ez/keymaps/pydemia/keymap.c **** KC_TRNS,      KC_TRNS,       KC_TRNS,       KC_TRNS,       KC_TRNS,
 649:keyboards/ergodox/ez/keymaps/pydemia/keymap.c ****                                	                                                   KC_TRNS,        
 650:keyboards/ergodox/ez/keymaps/pydemia/keymap.c ****                                                                                                    
 651:keyboards/ergodox/ez/keymaps/pydemia/keymap.c ****                                                                      KC_SPC,       KC_BSPC,        
 652:keyboards/ergodox/ez/keymaps/pydemia/keymap.c **** // right hand
 653:keyboards/ergodox/ez/keymaps/pydemia/keymap.c **** KC_CALC,          KC_TRNS,           KC_TRNS,        KC_TRNS,          KC_TRNS,         KC_TRNS,   
 654:keyboards/ergodox/ez/keymaps/pydemia/keymap.c **** KC_PLUS,          KC_7,              KC_8,           KC_9,             KC_PLUS,         KC_MINUS,  
 655:keyboards/ergodox/ez/keymaps/pydemia/keymap.c ****                   KC_4,              KC_5,           KC_6,             KC_ASTR,         KC_SLSH,   
 656:keyboards/ergodox/ez/keymaps/pydemia/keymap.c **** KC_MINUS,         KC_1,              KC_2,           KC_3,             KC_COMM,         KC_UP,     
 657:keyboards/ergodox/ez/keymaps/pydemia/keymap.c ****                   KC_0,              KC_DOT,         KC_LEFT,          KC_DOWN,         KC_RGHT,
 658:keyboards/ergodox/ez/keymaps/pydemia/keymap.c **** KC_LEFT,          KC_RGHT,
 659:keyboards/ergodox/ez/keymaps/pydemia/keymap.c **** KC_UP,
 660:keyboards/ergodox/ez/keymaps/pydemia/keymap.c **** KC_DOWN,          KC_DELT,          KC_ENT
 661:keyboards/ergodox/ez/keymaps/pydemia/keymap.c **** ),
 662:keyboards/ergodox/ez/keymaps/pydemia/keymap.c **** 
 663:keyboards/ergodox/ez/keymaps/pydemia/keymap.c **** /* Keymap 3: Action Layer
 664:keyboards/ergodox/ez/keymaps/pydemia/keymap.c ****  *
 665:keyboards/ergodox/ez/keymaps/pydemia/keymap.c ****  * 
 666:keyboards/ergodox/ez/keymaps/pydemia/keymap.c ****  *  QMKVer F1   F2   F3   F4   F5                              
 667:keyboards/ergodox/ez/keymaps/pydemia/keymap.c ****  * 
 668:keyboards/ergodox/ez/keymaps/pydemia/keymap.c ****  *         F6   F7   F8   F9   F10                             
 669:keyboards/ergodox/ez/keymaps/pydemia/keymap.c ****  * 
 670:keyboards/ergodox/ez/keymaps/pydemia/keymap.c ****  *         F11  F12  F13  F14  F15      
 671:keyboards/ergodox/ez/keymaps/pydemia/keymap.c ****  * 
 672:keyboards/ergodox/ez/keymaps/pydemia/keymap.c ****  *                                                             
 673:keyboards/ergodox/ez/keymaps/pydemia/keymap.c ****  * 
 674:keyboards/ergodox/ez/keymaps/pydemia/keymap.c ****  *                                                                      
 675:keyboards/ergodox/ez/keymaps/pydemia/keymap.c ****  *    
 676:keyboards/ergodox/ez/keymaps/pydemia/keymap.c ****  *                                               CLf  CRt 
 677:keyboards/ergodox/ez/keymaps/pydemia/keymap.c ****  *                              
 678:keyboards/ergodox/ez/keymaps/pydemia/keymap.c ****  *                              Ctl  Alt  Hom   PUp           
 679:keyboards/ergodox/ez/keymaps/pydemia/keymap.c ****  *                              Ent  Ent   Del  
 680:keyboards/ergodox/ez/keymaps/pydemia/keymap.c ****  *                                        End   PDn           
 681:keyboards/ergodox/ez/keymaps/pydemia/keymap.c ****  *                              
 682:keyboards/ergodox/ez/keymaps/pydemia/keymap.c ****  */
 683:keyboards/ergodox/ez/keymaps/pydemia/keymap.c **** // ACTN
 684:keyboards/ergodox/ez/keymaps/pydemia/keymap.c **** [ACTN] = KEYMAP(
 685:keyboards/ergodox/ez/keymaps/pydemia/keymap.c **** // left hand
 686:keyboards/ergodox/ez/keymaps/pydemia/keymap.c **** QMK_VER_KEY,   KC_F1,             KC_F2,          KC_F3,           KC_F4,           KC_F5,         
 687:keyboards/ergodox/ez/keymaps/pydemia/keymap.c **** KC_TRNS,       KC_F6,             KC_F7,          KC_F8,           KC_F9,           KC_F10,        
 688:keyboards/ergodox/ez/keymaps/pydemia/keymap.c **** KC_TRNS,       KC_F11,            KC_F12,         KC_F13,          KC_F14,          KC_F15,
 689:keyboards/ergodox/ez/keymaps/pydemia/keymap.c **** KC_TRNS,       KC_TRNS,           KC_TRNS,        KC_TRNS,         KC_TRNS,         KC_TRNS,       
 690:keyboards/ergodox/ez/keymaps/pydemia/keymap.c **** KC_TRNS,       KC_TRNS,           KC_TRNS,        KC_TRNS,         KC_TRNS,
 691:keyboards/ergodox/ez/keymaps/pydemia/keymap.c ****                                	                                                    KC_TRNS,       
 692:keyboards/ergodox/ez/keymaps/pydemia/keymap.c ****                                                                                                    
 693:keyboards/ergodox/ez/keymaps/pydemia/keymap.c ****                                                                    CTL_T(KC_ENT),    ALT_T(KC_ENT),
 694:keyboards/ergodox/ez/keymaps/pydemia/keymap.c **** // right hand
 695:keyboards/ergodox/ez/keymaps/pydemia/keymap.c **** KC_TRNS,   KC_TRNS,         KC_TRNS,        KC_PAUSE,   KC_TRNS,   KC_TRNS,   KC_TRNS,
 696:keyboards/ergodox/ez/keymaps/pydemia/keymap.c **** KC_TRNS, KC_TRNS,       KC_TRNS,      KC_TRNS,  KC_TRNS,  KC_TRNS,  KC_TRNS,
 697:keyboards/ergodox/ez/keymaps/pydemia/keymap.c ****         KC_TRNS,       KC_TRNS,      KC_TRNS,  KC_TRNS,  KC_TRNS,  KC_TRNS,
 698:keyboards/ergodox/ez/keymaps/pydemia/keymap.c **** KC_TRNS, KC_TRNS,       KC_TRNS,      KC_TRNS,  KC_TRNS,  KC_TRNS,  KC_TRNS,
 699:keyboards/ergodox/ez/keymaps/pydemia/keymap.c ****                        KC_TRNS,      KC_TRNS,  KC_COMM,  KC_TRNS,  KC_TRNS,
 700:keyboards/ergodox/ez/keymaps/pydemia/keymap.c **** KC_LEFT,     KC_RGHT,
 701:keyboards/ergodox/ez/keymaps/pydemia/keymap.c **** KC_UP,
 702:keyboards/ergodox/ez/keymaps/pydemia/keymap.c **** KC_DOWN,     KC_DELT,  KC_ENT
 703:keyboards/ergodox/ez/keymaps/pydemia/keymap.c **** ),
 704:keyboards/ergodox/ez/keymaps/pydemia/keymap.c **** /* Keymap 4: Lcmd Layer
 705:keyboards/ergodox/ez/keymaps/pydemia/keymap.c ****  *
 706:keyboards/ergodox/ez/keymaps/pydemia/keymap.c ****  * 
 707:keyboards/ergodox/ez/keymaps/pydemia/keymap.c ****  *   Esc    1    2    3    4    5  CtFn5       6    7    8    9
 708:keyboards/ergodox/ez/keymaps/pydemia/keymap.c ****  * 
 709:keyboards/ergodox/ez/keymaps/pydemia/keymap.c ****  *   Tab    Q    W    E    R   T[]   <-       Tg    Y    U    I
 710:keyboards/ergodox/ez/keymaps/pydemia/keymap.c ****  * 
 711:keyboards/ergodox/ez/keymaps/pydemia/keymap.c ****  *    ~     A    S    D    F   G{}      
 712:keyboards/ergodox/ez/keymaps/pydemia/keymap.c ****  * 
 713:keyboards/ergodox/ez/keymaps/pydemia/keymap.c ****  *   Sft    Z    X    C    V   B()  Npd             N    M    ,
 714:keyboards/ergodox/ez/keymaps/pydemia/keymap.c ****  * 
 715:keyboards/ergodox/ez/keymaps/pydemia/keymap.c ****  *    Cmd CtCmd Ctl  App  ALT                              CdSpc RCl   [
 716:keyboards/ergodox/ez/keymaps/pydemia/keymap.c ****  *    
 717:keyboards/ergodox/ez/keymaps/pydemia/keymap.c ****  *                                    TgA CtEnt  Lft  Rgt 
 718:keyboards/ergodox/ez/keymaps/pydemia/keymap.c ****  *                              
 719:keyboards/ergodox/ez/keymaps/pydemia/keymap.c ****  *                                        Hom   Up            
 720:keyboards/ergodox/ez/keymaps/pydemia/keymap.c ****  *                              Spc  Bsp   Del  
 721:keyboards/ergodox/ez/keymaps/pydemia/keymap.c ****  *                                        End   Dwn           
 722:keyboards/ergodox/ez/keymaps/pydemia/keymap.c ****  *                              
 723:keyboards/ergodox/ez/keymaps/pydemia/keymap.c ****  */
 724:keyboards/ergodox/ez/keymaps/pydemia/keymap.c **** // LCMD
 725:keyboards/ergodox/ez/keymaps/pydemia/keymap.c **** [LCMD] = KEYMAP(
 726:keyboards/ergodox/ez/keymaps/pydemia/keymap.c **** // left hand
 727:keyboards/ergodox/ez/keymaps/pydemia/keymap.c **** KC_ESC,           KC_1,           KC_2,           KC_3,         KC_4,           KC_5,       LSFT(KC
 728:keyboards/ergodox/ez/keymaps/pydemia/keymap.c **** KC_TAB,           KC_Q,           KC_W,           KC_E,         KC_R,           KC_T,       ASSIGN_
 729:keyboards/ergodox/ez/keymaps/pydemia/keymap.c **** KC_GRV,           KC_A,           KC_S,           KC_D,         KC_F,           KC_G,
 730:keyboards/ergodox/ez/keymaps/pydemia/keymap.c **** KC_LSFT,          KC_Z,           KC_X,           KC_C,         KC_V,           KC_B,       KC_FN1,
 731:keyboards/ergodox/ez/keymaps/pydemia/keymap.c **** CTL_T(KC_LCTL),   KC_TRNS,        KC_LGUI,        KC_APP,       ALT_T(KC_LALT),
 732:keyboards/ergodox/ez/keymaps/pydemia/keymap.c ****                                                                         KC_FN3,           LCTL(KC_E
 733:keyboards/ergodox/ez/keymaps/pydemia/keymap.c ****                                                                                           KC_HOME,
 734:keyboards/ergodox/ez/keymaps/pydemia/keymap.c ****                                                       KC_SPC,           KC_BSPC,          KC_END,
 735:keyboards/ergodox/ez/keymaps/pydemia/keymap.c **** // right hand
 736:keyboards/ergodox/ez/keymaps/pydemia/keymap.c **** KC_6,             KC_7,           KC_8,       KC_9,         KC_0,             KC_MINUS,         KC_
 737:keyboards/ergodox/ez/keymaps/pydemia/keymap.c **** KC_TRNS,          KC_Y,           KC_U,       KC_I,         KC_O,             KC_P,             KC_
 738:keyboards/ergodox/ez/keymaps/pydemia/keymap.c ****                   KC_H,           KC_J,       KC_K,         KC_L,             KC_SCLN,          D_Q
 739:keyboards/ergodox/ez/keymaps/pydemia/keymap.c **** KC_TRNS,          KC_N,           KC_M,       KC_COMM,      KC_DOT,           KC_SLSH,          KC_
 740:keyboards/ergodox/ez/keymaps/pydemia/keymap.c ****                   KC_RALT,        KC_RGUI,    KC_LBRC,      KC_RBRC,          M(16),//KC_FN3,
 741:keyboards/ergodox/ez/keymaps/pydemia/keymap.c **** KC_LEFT,          KC_RGHT,
 742:keyboards/ergodox/ez/keymaps/pydemia/keymap.c **** KC_UP,
 743:keyboards/ergodox/ez/keymaps/pydemia/keymap.c **** KC_DOWN,          KC_DELT,    KC_ENT
 744:keyboards/ergodox/ez/keymaps/pydemia/keymap.c **** ),
 745:keyboards/ergodox/ez/keymaps/pydemia/keymap.c **** /* Keymap 5: Reserved Layer
 746:keyboards/ergodox/ez/keymaps/pydemia/keymap.c ****  *
 747:keyboards/ergodox/ez/keymaps/pydemia/keymap.c ****  * 
 748:keyboards/ergodox/ez/keymaps/pydemia/keymap.c ****  *   Esc    1    2    3    4    5  CtFn5       6    7    8    9
 749:keyboards/ergodox/ez/keymaps/pydemia/keymap.c ****  * 
 750:keyboards/ergodox/ez/keymaps/pydemia/keymap.c ****  *   Tab    Q    W    E    R    T    <-       Ctl   Y    U    I
 751:keyboards/ergodox/ez/keymaps/pydemia/keymap.c ****  * 
 752:keyboards/ergodox/ez/keymaps/pydemia/keymap.c ****  *    ~     A    S    D    F    G       
 753:keyboards/ergodox/ez/keymaps/pydemia/keymap.c ****  * 
 754:keyboards/ergodox/ez/keymaps/pydemia/keymap.c ****  *  LSHFT   Z    X    C    V    B   Npd       Fn5   N    M    ,
 755:keyboards/ergodox/ez/keymaps/pydemia/keymap.c ****  * 
 756:keyboards/ergodox/ez/keymaps/pydemia/keymap.c ****  *    CTL  TgM Wn/Cd App  ALT                               RAt  RCl   [
 757:keyboards/ergodox/ez/keymaps/pydemia/keymap.c ****  *    
 758:keyboards/ergodox/ez/keymaps/pydemia/keymap.c ****  *                                    Pup  Pdn   Lft  Rgt 
 759:keyboards/ergodox/ez/keymaps/pydemia/keymap.c ****  *                              
 760:keyboards/ergodox/ez/keymaps/pydemia/keymap.c ****  *                                        Hom   Up            
 761:keyboards/ergodox/ez/keymaps/pydemia/keymap.c ****  *                              Spc  Bsp   Del  
 762:keyboards/ergodox/ez/keymaps/pydemia/keymap.c ****  *                                        End   Dwn           
 763:keyboards/ergodox/ez/keymaps/pydemia/keymap.c ****  *                              
 764:keyboards/ergodox/ez/keymaps/pydemia/keymap.c ****  */
 765:keyboards/ergodox/ez/keymaps/pydemia/keymap.c **** // RESV
 766:keyboards/ergodox/ez/keymaps/pydemia/keymap.c **** [RESV] = KEYMAP(  // layer 0 : default
 767:keyboards/ergodox/ez/keymaps/pydemia/keymap.c **** // left hand
 768:keyboards/ergodox/ez/keymaps/pydemia/keymap.c **** TD(0),    KC_1,          KC_2,    KC_3,         KC_4,    KC_5,  LCTL(KC_F5),         // TG(LKEY),
 769:keyboards/ergodox/ez/keymaps/pydemia/keymap.c **** KC_TAB,   KC_Q,          KC_W,    KC_E,         KC_R,    KC_T,  ASSIGN_R_KEY,
 770:keyboards/ergodox/ez/keymaps/pydemia/keymap.c **** KC_GRV,   KC_A,          KC_S,    KC_D,         KC_F,    KC_G,
 771:keyboards/ergodox/ez/keymaps/pydemia/keymap.c **** SFT_T(KC_CAPS),  KC_Z,          KC_X,    KC_C,         KC_V,    KC_B,  KC_FN1,
 772:keyboards/ergodox/ez/keymaps/pydemia/keymap.c **** CTL_T(KC_LCTL), KC_FN2/*LCTL(KC_LALT)*/, KC_LGUI, KC_APP,      ALT_T(KC_LALT),
 773:keyboards/ergodox/ez/keymaps/pydemia/keymap.c ****                                                 KC_PGUP, KC_PGDN,
 774:keyboards/ergodox/ez/keymaps/pydemia/keymap.c ****                                                          KC_HOME,
 775:keyboards/ergodox/ez/keymaps/pydemia/keymap.c ****                                        KC_SPC,  KC_BSPC, KC_END,
 776:keyboards/ergodox/ez/keymaps/pydemia/keymap.c **** // right hand
 777:keyboards/ergodox/ez/keymaps/pydemia/keymap.c **** KC_6,                KC_7,           KC_8,     KC_9,                 KC_0,                 KC_MINUS
 778:keyboards/ergodox/ez/keymaps/pydemia/keymap.c **** LCTL(KC_ENT),        KC_Y,           KC_U,     KC_I,                 KC_O,                 KC_P,   
 779:keyboards/ergodox/ez/keymaps/pydemia/keymap.c ****                      KC_H,           KC_J,     KC_K,                 KC_L,                 KC_SCLN,
 780:keyboards/ergodox/ez/keymaps/pydemia/keymap.c **** LCTL(KC_F5),         KC_N,           KC_M,     KC_COMM,              KC_DOT,               KC_SLSH,
 781:keyboards/ergodox/ez/keymaps/pydemia/keymap.c ****                      KC_RALT,        KC_RCTL,  KC_LBRC,              KC_RBRC,              M(16),//
 782:keyboards/ergodox/ez/keymaps/pydemia/keymap.c **** KC_LEFT,     KC_RGHT,
 783:keyboards/ergodox/ez/keymaps/pydemia/keymap.c **** KC_UP,
 784:keyboards/ergodox/ez/keymaps/pydemia/keymap.c **** KC_DOWN,     KC_DELT,  KC_ENT
 785:keyboards/ergodox/ez/keymaps/pydemia/keymap.c **** ),
 786:keyboards/ergodox/ez/keymaps/pydemia/keymap.c **** /* Keymap 6: Linux Key layer
 787:keyboards/ergodox/ez/keymaps/pydemia/keymap.c ****  *
 788:keyboards/ergodox/ez/keymaps/pydemia/keymap.c ****  * ,--------------------------------------------------.           ,--------------------------------
 789:keyboards/ergodox/ez/keymaps/pydemia/keymap.c ****  * |  Esc   |   1  |   2  |   3  |   4  |   5  | TgLk |           |   6  |   7  |   8  |   9  |   0
 790:keyboards/ergodox/ez/keymaps/pydemia/keymap.c ****  * |--------+------+------+------+------+-------------|           |------+------+------+------+----
 791:keyboards/ergodox/ez/keymaps/pydemia/keymap.c ****  * |  Tab   |   Q  |   W  |   E  |   R  |   T  |      |           |      |   Y  |   U  |   I  |   O
 792:keyboards/ergodox/ez/keymaps/pydemia/keymap.c ****  * |--------+------+------+------+------+------|  =   |           |  <-  |------+------+------+----
 793:keyboards/ergodox/ez/keymaps/pydemia/keymap.c ****  * |   ~    |   A  |   S  |   D  |   F  |   G  |------|           |------|   H  |   J  |   K  |   L
 794:keyboards/ergodox/ez/keymaps/pydemia/keymap.c ****  * |--------+------+------+------+------+------|      |           |CtrlF5|------+------+------+----
 795:keyboards/ergodox/ez/keymaps/pydemia/keymap.c ****  * | LShift |   Z  |   X  |   C  |   V  |   B  |      |           |      |   N  |   M  |   ,  |   .
 796:keyboards/ergodox/ez/keymaps/pydemia/keymap.c ****  * `--------+------+------+------+------+-------------'           `-------------+------+------+----
 797:keyboards/ergodox/ez/keymaps/pydemia/keymap.c ****  *   |LCtrl |CtlAlt|Wn/Cmd| App |  LAlt |                                       | RAlt | RCtl |  [ 
 798:keyboards/ergodox/ez/keymaps/pydemia/keymap.c ****  *   `----------------------------------'                                      `-------------------
 799:keyboards/ergodox/ez/keymaps/pydemia/keymap.c ****  *                                        ,-------------.       ,-------------.
 800:keyboards/ergodox/ez/keymaps/pydemia/keymap.c ****  *                                        | Home | End  |       | CtLf | CtRt |
 801:keyboards/ergodox/ez/keymaps/pydemia/keymap.c ****  *                                 ,------|------|------|       |------+--------+------.
 802:keyboards/ergodox/ez/keymaps/pydemia/keymap.c ****  *                                 |      |      | PgUp |       |  Up  |        |      |
 803:keyboards/ergodox/ez/keymaps/pydemia/keymap.c ****  *                                 | Space|Backsp|------|       |------|  Del   |Enter |
 804:keyboards/ergodox/ez/keymaps/pydemia/keymap.c ****  *                                 |      |ace   | PgDn |       | Down |        |      |
 805:keyboards/ergodox/ez/keymaps/pydemia/keymap.c ****  *                                 `--------------------'       `----------------------'
 806:keyboards/ergodox/ez/keymaps/pydemia/keymap.c ****  */
 807:keyboards/ergodox/ez/keymaps/pydemia/keymap.c **** // If it accepts an argument (i.e, is a function), it doesn't need KC_.
 808:keyboards/ergodox/ez/keymaps/pydemia/keymap.c **** // Otherwise, it needs KC_*
 809:keyboards/ergodox/ez/keymaps/pydemia/keymap.c **** 
 810:keyboards/ergodox/ez/keymaps/pydemia/keymap.c **** //Hyper: ALL_T(KC_NO)
 811:keyboards/ergodox/ez/keymaps/pydemia/keymap.c **** //Meh: MEH_T(KC_NO)
 812:keyboards/ergodox/ez/keymaps/pydemia/keymap.c **** [LKEY] = KEYMAP(  // layer 0 : default
 813:keyboards/ergodox/ez/keymaps/pydemia/keymap.c **** // left hand
 814:keyboards/ergodox/ez/keymaps/pydemia/keymap.c **** KC_ESC,   KC_1,          KC_2,    KC_3,         KC_4,    KC_5,  TG(LKEY),
 815:keyboards/ergodox/ez/keymaps/pydemia/keymap.c **** KC_TAB,   KC_Q,          KC_W,    KC_E,         KC_R,    KC_T,  KC_EQUAL,
 816:keyboards/ergodox/ez/keymaps/pydemia/keymap.c **** KC_GRV,   KC_A,          KC_S,    KC_D,         KC_F,    KC_G,
 817:keyboards/ergodox/ez/keymaps/pydemia/keymap.c **** KC_LSFT,  KC_Z,          KC_X,    KC_C,         KC_V,    KC_B,  LT(NPAD, TG(NPAD)),
 818:keyboards/ergodox/ez/keymaps/pydemia/keymap.c **** KC_LCTRL, LCTL(KC_LALT), KC_LGUI, KC_APP,      KC_LALT,
 819:keyboards/ergodox/ez/keymaps/pydemia/keymap.c ****                                			KC_HOME, KC_END,
 820:keyboards/ergodox/ez/keymaps/pydemia/keymap.c ****                                                          KC_PGUP,
 821:keyboards/ergodox/ez/keymaps/pydemia/keymap.c ****                                        KC_SPC,  KC_DELT, KC_PGDN,
 822:keyboards/ergodox/ez/keymaps/pydemia/keymap.c **** // right hand
 823:keyboards/ergodox/ez/keymaps/pydemia/keymap.c **** KC_6,                KC_7,           KC_8,     KC_9,                 KC_0,                 KC_MINUS
 824:keyboards/ergodox/ez/keymaps/pydemia/keymap.c **** ASSIGN_R_KEY,            KC_Y,           KC_U,     KC_I,                 KC_O,                 KC_P
 825:keyboards/ergodox/ez/keymaps/pydemia/keymap.c ****                      KC_H,           KC_J,     KC_K,                 KC_L,                 KC_SCLN,
 826:keyboards/ergodox/ez/keymaps/pydemia/keymap.c **** LCTL(KC_F5),         KC_N,           KC_M,     KC_COMM,              KC_DOT,               KC_SLSH,
 827:keyboards/ergodox/ez/keymaps/pydemia/keymap.c ****                      KC_RALT,        LSFT(KC_SPC),  KC_LBRC,              KC_RBRC,              KC_
 828:keyboards/ergodox/ez/keymaps/pydemia/keymap.c **** KC_HOME,     KC_END,
 829:keyboards/ergodox/ez/keymaps/pydemia/keymap.c **** KC_PGUP,
 830:keyboards/ergodox/ez/keymaps/pydemia/keymap.c **** KC_PGDN,     KC_DELT,  KC_ENT
 831:keyboards/ergodox/ez/keymaps/pydemia/keymap.c **** ),
 832:keyboards/ergodox/ez/keymaps/pydemia/keymap.c **** /* Keymap 4: PPT layer
 833:keyboards/ergodox/ez/keymaps/pydemia/keymap.c ****  *
 834:keyboards/ergodox/ez/keymaps/pydemia/keymap.c ****  * ,--------------------------------------------------.           ,--------------------------------
 835:keyboards/ergodox/ez/keymaps/pydemia/keymap.c ****  * |  Esc   |   1  |   2  |   3  |   4  |   5  | TgLk |           |   6  |   7  |   8  |   9  |   0
 836:keyboards/ergodox/ez/keymaps/pydemia/keymap.c ****  * |--------+------+------+------+------+-------------|           |------+------+------+------+----
 837:keyboards/ergodox/ez/keymaps/pydemia/keymap.c ****  * |  Tab   |   Q  |   W  |   E  |   R  |   T  |      |           |      |   Y  |   U  |   I  |   O
 838:keyboards/ergodox/ez/keymaps/pydemia/keymap.c ****  * |--------+------+------+------+------+------|  =   |           |  <-  |------+------+------+----
 839:keyboards/ergodox/ez/keymaps/pydemia/keymap.c ****  * |   ~    |   A  |   S  |   D  |   F  |   G  |------|           |------|   H  |   J  |   K  |   L
 840:keyboards/ergodox/ez/keymaps/pydemia/keymap.c ****  * |--------+------+------+------+------+------|      |           |CtrlF5|------+------+------+----
 841:keyboards/ergodox/ez/keymaps/pydemia/keymap.c ****  * | LShift |   Z  |   X  |   C  |   V  |   B  |      |           |      |   N  |   M  |   ,  |   .
 842:keyboards/ergodox/ez/keymaps/pydemia/keymap.c ****  * `--------+------+------+------+------+-------------'           `-------------+------+------+----
 843:keyboards/ergodox/ez/keymaps/pydemia/keymap.c ****  *   |LCtrl |CtlAlt|Wn/Cmd| App |  LAlt |                                       | RAlt | RCtl |  [ 
 844:keyboards/ergodox/ez/keymaps/pydemia/keymap.c ****  *   `----------------------------------'                                      `-------------------
 845:keyboards/ergodox/ez/keymaps/pydemia/keymap.c ****  *                                        ,-------------.       ,-------------.
 846:keyboards/ergodox/ez/keymaps/pydemia/keymap.c ****  *                                        | Home | End  |       | Left | Right|
 847:keyboards/ergodox/ez/keymaps/pydemia/keymap.c ****  *                                 ,------|------|------|       |------+--------+------.
 848:keyboards/ergodox/ez/keymaps/pydemia/keymap.c ****  *                                 |      |      | PgUp |       |  Up  |        |      |
 849:keyboards/ergodox/ez/keymaps/pydemia/keymap.c ****  *                                 | Space|Backsp|------|       |------|  Del   |Enter |
 850:keyboards/ergodox/ez/keymaps/pydemia/keymap.c ****  *                                 |      |ace   | PgDn |       | Down |        |      |
 851:keyboards/ergodox/ez/keymaps/pydemia/keymap.c ****  *                                 `--------------------'       `----------------------'
 852:keyboards/ergodox/ez/keymaps/pydemia/keymap.c ****  */
 853:keyboards/ergodox/ez/keymaps/pydemia/keymap.c **** // If it accepts an argument (i.e, is a function), it doesn't need KC_.
 854:keyboards/ergodox/ez/keymaps/pydemia/keymap.c **** // Otherwise, it needs KC_*
 855:keyboards/ergodox/ez/keymaps/pydemia/keymap.c **** 
 856:keyboards/ergodox/ez/keymaps/pydemia/keymap.c **** //Hyper: ALL_T(KC_NO)
 857:keyboards/ergodox/ez/keymaps/pydemia/keymap.c **** //Meh: MEH_T(KC_NO)
 858:keyboards/ergodox/ez/keymaps/pydemia/keymap.c **** [PPTK] = KEYMAP(  // layer 0 : default
 859:keyboards/ergodox/ez/keymaps/pydemia/keymap.c **** // left hand
 860:keyboards/ergodox/ez/keymaps/pydemia/keymap.c **** KC_ESC,   KC_1,          KC_2,    KC_3,         KC_4,    KC_5,  TG(LKEY),
 861:keyboards/ergodox/ez/keymaps/pydemia/keymap.c **** KC_TAB,   KC_Q,          KC_W,    KC_E,         KC_R,    KC_T,  KC_EQUAL,
 862:keyboards/ergodox/ez/keymaps/pydemia/keymap.c **** KC_GRV,   KC_A,          KC_S,    KC_D,         KC_F,    KC_G,
 863:keyboards/ergodox/ez/keymaps/pydemia/keymap.c **** KC_LSFT,  KC_Z,          KC_X,    KC_C,         KC_V,    KC_B,  LT(NPAD, TG(NPAD)),
 864:keyboards/ergodox/ez/keymaps/pydemia/keymap.c **** KC_LCTRL, LCTL(KC_LALT), KC_LGUI, KC_APP,      KC_LALT,
 865:keyboards/ergodox/ez/keymaps/pydemia/keymap.c ****                                                 KC_HOME, KC_END,
 866:keyboards/ergodox/ez/keymaps/pydemia/keymap.c ****                                                          KC_PGUP,
 867:keyboards/ergodox/ez/keymaps/pydemia/keymap.c ****                                        KC_SPC,  KC_BSPC, KC_PGDN,
 868:keyboards/ergodox/ez/keymaps/pydemia/keymap.c **** // right hand
 869:keyboards/ergodox/ez/keymaps/pydemia/keymap.c **** KC_6,                KC_7,           KC_8,     KC_9,                 KC_0,                 KC_MINUS
 870:keyboards/ergodox/ez/keymaps/pydemia/keymap.c **** ASSIGN_R_KEY,            KC_Y,           KC_U,     KC_I,                 KC_O,                 KC_P
 871:keyboards/ergodox/ez/keymaps/pydemia/keymap.c ****                      KC_H,           KC_J,     KC_K,                 KC_L,                 KC_SCLN,
 872:keyboards/ergodox/ez/keymaps/pydemia/keymap.c **** LCTL(KC_F5),         KC_N,           KC_M,     KC_COMM,              KC_DOT,               KC_SLSH,
 873:keyboards/ergodox/ez/keymaps/pydemia/keymap.c ****                      KC_RALT,        LSFT(KC_SPC),  KC_LBRC,              KC_RBRC,              KC_
 874:keyboards/ergodox/ez/keymaps/pydemia/keymap.c **** KC_LEFT,     KC_RGHT,
 875:keyboards/ergodox/ez/keymaps/pydemia/keymap.c **** KC_UP,
 876:keyboards/ergodox/ez/keymaps/pydemia/keymap.c **** KC_DOWN,     KC_DELT,  KC_ENT
 877:keyboards/ergodox/ez/keymaps/pydemia/keymap.c **** ),
 878:keyboards/ergodox/ez/keymaps/pydemia/keymap.c **** };
 879:keyboards/ergodox/ez/keymaps/pydemia/keymap.c **** 
 880:keyboards/ergodox/ez/keymaps/pydemia/keymap.c **** // /* Keymap 4: Mac OS Layer
 881:keyboards/ergodox/ez/keymaps/pydemia/keymap.c **** //  *
 882:keyboards/ergodox/ez/keymaps/pydemia/keymap.c **** //  * 
 883:keyboards/ergodox/ez/keymaps/pydemia/keymap.c **** //  *   Esc    1    2    3    4    5  CtFn5       6    7    8  
 884:keyboards/ergodox/ez/keymaps/pydemia/keymap.c **** //  * 
 885:keyboards/ergodox/ez/keymaps/pydemia/keymap.c **** //  *   Tab    Q    W    E    R   T[]   <-       Tg    Y    U  
 886:keyboards/ergodox/ez/keymaps/pydemia/keymap.c **** //  * 
 887:keyboards/ergodox/ez/keymaps/pydemia/keymap.c **** //  *    ~     A    S    D    F   G{}      
 888:keyboards/ergodox/ez/keymaps/pydemia/keymap.c **** //  * 
 889:keyboards/ergodox/ez/keymaps/pydemia/keymap.c **** //  *   Sft    Z    X    C    V   B()  Npd             N    M  
 890:keyboards/ergodox/ez/keymaps/pydemia/keymap.c **** //  * 
 891:keyboards/ergodox/ez/keymaps/pydemia/keymap.c **** //  *    Cmd CtCmd Ctl  App  ALT                              CdSpc RCl 
 892:keyboards/ergodox/ez/keymaps/pydemia/keymap.c **** //  *   
 893:keyboards/ergodox/ez/keymaps/pydemia/keymap.c **** //  *                                    TgA CtEnt  Lft  Rgt 
 894:keyboards/ergodox/ez/keymaps/pydemia/keymap.c **** //  *                              
 895:keyboards/ergodox/ez/keymaps/pydemia/keymap.c **** //  *                                        Hom   Up            
 896:keyboards/ergodox/ez/keymaps/pydemia/keymap.c **** //  *                              Spc  Bsp   Del 
 897:keyboards/ergodox/ez/keymaps/pydemia/keymap.c **** //  *                                        End   Dwn           
 898:keyboards/ergodox/ez/keymaps/pydemia/keymap.c **** //  *                              
 899:keyboards/ergodox/ez/keymaps/pydemia/keymap.c **** //  */
 900:keyboards/ergodox/ez/keymaps/pydemia/keymap.c **** // // MOSL
 901:keyboards/ergodox/ez/keymaps/pydemia/keymap.c **** // [MOSL] = KEYMAP(
 902:keyboards/ergodox/ez/keymaps/pydemia/keymap.c **** // // left hand
 903:keyboards/ergodox/ez/keymaps/pydemia/keymap.c **** // KC_ESC,           KC_1,           KC_2,           KC_3,         KC_4,           KC_5,       LSFT
 904:keyboards/ergodox/ez/keymaps/pydemia/keymap.c **** // KC_TAB,           KC_Q,           KC_W,           KC_E,         KC_R,           KC_T,       ASSI
 905:keyboards/ergodox/ez/keymaps/pydemia/keymap.c **** // KC_GRV,           KC_A,           KC_S,           KC_D,         KC_F,           KC_G,
 906:keyboards/ergodox/ez/keymaps/pydemia/keymap.c **** // KC_LSFT,          KC_Z,           KC_X,           KC_C,         KC_V,           KC_B,       KC_F
 907:keyboards/ergodox/ez/keymaps/pydemia/keymap.c **** // CTL_T(KC_LCTL),   KC_TRNS,        KC_LGUI,        KC_APP,       ALT_T(KC_LALT),
 908:keyboards/ergodox/ez/keymaps/pydemia/keymap.c **** //                                                                         KC_FN3,           LCTL(K
 909:keyboards/ergodox/ez/keymaps/pydemia/keymap.c **** //                                                                                           KC_HOM
 910:keyboards/ergodox/ez/keymaps/pydemia/keymap.c **** //                                                       KC_SPC,           KC_BSPC,          KC_END
 911:keyboards/ergodox/ez/keymaps/pydemia/keymap.c **** // // right hand
 912:keyboards/ergodox/ez/keymaps/pydemia/keymap.c **** // KC_6,             KC_7,           KC_8,       KC_9,         KC_0,             KC_MINUS,         
 913:keyboards/ergodox/ez/keymaps/pydemia/keymap.c **** // KC_TRNS,          KC_Y,           KC_U,       KC_I,         KC_O,             KC_P,             
 914:keyboards/ergodox/ez/keymaps/pydemia/keymap.c **** //                   KC_H,           KC_J,       KC_K,         KC_L,             KC_SCLN,          
 915:keyboards/ergodox/ez/keymaps/pydemia/keymap.c **** // KC_TRNS,          KC_N,           KC_M,       KC_COMM,      KC_DOT,           KC_SLSH,          
 916:keyboards/ergodox/ez/keymaps/pydemia/keymap.c **** //                   KC_RALT,        KC_RGUI,    KC_LBRC,      KC_RBRC,          M(16),//KC_FN3,
 917:keyboards/ergodox/ez/keymaps/pydemia/keymap.c **** // KC_LEFT,          KC_RGHT,
 918:keyboards/ergodox/ez/keymaps/pydemia/keymap.c **** // KC_UP,
 919:keyboards/ergodox/ez/keymaps/pydemia/keymap.c **** // KC_DOWN,          KC_DELT,    KC_ENT
 920:keyboards/ergodox/ez/keymaps/pydemia/keymap.c **** // ),
 921:keyboards/ergodox/ez/keymaps/pydemia/keymap.c **** /* Layer _ : ---
 922:keyboards/ergodox/ez/keymaps/pydemia/keymap.c ****  * 
 923:keyboards/ergodox/ez/keymaps/pydemia/keymap.c ****  *                                                                   
 924:keyboards/ergodox/ez/keymaps/pydemia/keymap.c ****  * 
 925:keyboards/ergodox/ez/keymaps/pydemia/keymap.c ****  *            A        A      A      A      A                        
 926:keyboards/ergodox/ez/keymaps/pydemia/keymap.c ****  * 
 927:keyboards/ergodox/ez/keymaps/pydemia/keymap.c ****  *            A        A      A      A      A       
 928:keyboards/ergodox/ez/keymaps/pydemia/keymap.c ****  * 
 929:keyboards/ergodox/ez/keymaps/pydemia/keymap.c ****  *            A        A      A      A      A                        
 930:keyboards/ergodox/ez/keymaps/pydemia/keymap.c ****  * 
 931:keyboards/ergodox/ez/keymaps/pydemia/keymap.c ****  *                 (MO1)         (MO4)                                       (
 932:keyboards/ergodox/ez/keymaps/pydemia/keymap.c ****  *   
 933:keyboards/ergodox/ez/keymaps/pydemia/keymap.c ****  *                                              Ms     Ms        Ms    Ms   
 934:keyboards/ergodox/ez/keymaps/pydemia/keymap.c ****  *                                     
 935:keyboards/ergodox/ez/keymaps/pydemia/keymap.c ****  *                                                      MLC   MRC             
 936:keyboards/ergodox/ez/keymaps/pydemia/keymap.c ****  *                                                    
 937:keyboards/ergodox/ez/keymaps/pydemia/keymap.c ****  *                                                                            
 938:keyboards/ergodox/ez/keymaps/pydemia/keymap.c ****  *                                     
 939:keyboards/ergodox/ez/keymaps/pydemia/keymap.c ****  */
 940:keyboards/ergodox/ez/keymaps/pydemia/keymap.c **** 
 941:keyboards/ergodox/ez/keymaps/pydemia/keymap.c **** /* Layer _ : ---
 942:keyboards/ergodox/ez/keymaps/pydemia/keymap.c ****  * 
 943:keyboards/ergodox/ez/keymaps/pydemia/keymap.c ****  *   TAB    1    2    3    4    5    `             6    7    
 944:keyboards/ergodox/ez/keymaps/pydemia/keymap.c ****  * 
 945:keyboards/ergodox/ez/keymaps/pydemia/keymap.c ****  *    Y     X    V    L    C    W   HOM       END   K    H    G
 946:keyboards/ergodox/ez/keymaps/pydemia/keymap.c ****  * 
 947:keyboards/ergodox/ez/keymaps/pydemia/keymap.c ****  *  Mod3    U    I    A    E    O       
 948:keyboards/ergodox/ez/keymaps/pydemia/keymap.c ****  * 
 949:keyboards/ergodox/ez/keymaps/pydemia/keymap.c ****  *  LSHFT               P    Z                   B    M  
 950:keyboards/ergodox/ez/keymaps/pydemia/keymap.c ****  * 
 951:keyboards/ergodox/ez/keymaps/pydemia/keymap.c ****  *    CTL  ALT  MO1  Win  Mod4                              Mod4 Win  MO
 952:keyboards/ergodox/ez/keymaps/pydemia/keymap.c ****  *    
 953:keyboards/ergodox/ez/keymaps/pydemia/keymap.c ****  *                                     A    A     A    A  
 954:keyboards/ergodox/ez/keymaps/pydemia/keymap.c ****  *                              
 955:keyboards/ergodox/ez/keymaps/pydemia/keymap.c ****  *                                                          
 956:keyboards/ergodox/ez/keymaps/pydemia/keymap.c ****  *                              SPC  RTN   RTN  
 957:keyboards/ergodox/ez/keymaps/pydemia/keymap.c ****  *                                        HYP   MEH           
 958:keyboards/ergodox/ez/keymaps/pydemia/keymap.c ****  *                              
 959:keyboards/ergodox/ez/keymaps/pydemia/keymap.c ****  */
 960:keyboards/ergodox/ez/keymaps/pydemia/keymap.c **** 
 961:keyboards/ergodox/ez/keymaps/pydemia/keymap.c **** 
 962:keyboards/ergodox/ez/keymaps/pydemia/keymap.c **** // --- CUSTOM FORMAT STRING ---
 963:keyboards/ergodox/ez/keymaps/pydemia/keymap.c **** #define QUOTE(...) #__VA_ARGS__
 964:keyboards/ergodox/ez/keymaps/pydemia/keymap.c **** const char *sql_query = QUOTE(
 965:keyboards/ergodox/ez/keymaps/pydemia/keymap.c ****     SELECT word_id
 966:keyboards/ergodox/ez/keymaps/pydemia/keymap.c ****     FROM table1, table2
 967:keyboards/ergodox/ez/keymaps/pydemia/keymap.c ****     WHERE table2.word_id = table1.word_id
 968:keyboards/ergodox/ez/keymaps/pydemia/keymap.c ****     ORDER BY table1.word ASC
 969:keyboards/ergodox/ez/keymaps/pydemia/keymap.c **** );
 970:keyboards/ergodox/ez/keymaps/pydemia/keymap.c **** 
 971:keyboards/ergodox/ez/keymaps/pydemia/keymap.c **** // DATE to INT Function
 972:keyboards/ergodox/ez/keymaps/pydemia/keymap.c **** char pre_macro_date_to_int(const char *str_pre_macro_date)
 973:keyboards/ergodox/ez/keymaps/pydemia/keymap.c **** {
 648               		.loc 1 973 1 is_stmt 1 view -0
 649               		.cfi_startproc
 650               		.loc 1 973 1 is_stmt 0 view .LVU163
 651 0000 EF92      		push r14
 652               	.LCFI0:
 653               		.cfi_def_cfa_offset 3
 654               		.cfi_offset 14, -2
 655 0002 FF92      		push r15
 656               	.LCFI1:
 657               		.cfi_def_cfa_offset 4
 658               		.cfi_offset 15, -3
 659 0004 0F93      		push r16
 660               	.LCFI2:
 661               		.cfi_def_cfa_offset 5
 662               		.cfi_offset 16, -4
 663 0006 1F93      		push r17
 664               	.LCFI3:
 665               		.cfi_def_cfa_offset 6
 666               		.cfi_offset 17, -5
 667 0008 CF93      		push r28
 668               	.LCFI4:
 669               		.cfi_def_cfa_offset 7
 670               		.cfi_offset 28, -6
 671 000a DF93      		push r29
 672               	.LCFI5:
 673               		.cfi_def_cfa_offset 8
 674               		.cfi_offset 29, -7
 675 000c CDB7      		in r28,__SP_L__
 676 000e DEB7      		in r29,__SP_H__
 677               	.LCFI6:
 678               		.cfi_def_cfa_register 28
 679 0010 AE97      		sbiw r28,46
 680               	.LCFI7:
 681               		.cfi_def_cfa_offset 54
 682 0012 0FB6      		in __tmp_reg__,__SREG__
 683 0014 F894      		cli
 684 0016 DEBF      		out __SP_H__,r29
 685 0018 0FBE      		out __SREG__,__tmp_reg__
 686 001a CDBF      		out __SP_L__,r28
 687               	/* prologue: function */
 688               	/* frame size = 46 */
 689               	/* stack size = 52 */
 690               	.L__stack_usage = 52
 974:keyboards/ergodox/ez/keymaps/pydemia/keymap.c ****     const int comfile_date_len = 12;
 691               		.loc 1 974 5 is_stmt 1 view .LVU164
 692               	.LVL57:
 975:keyboards/ergodox/ez/keymaps/pydemia/keymap.c **** 
 976:keyboards/ergodox/ez/keymaps/pydemia/keymap.c ****     // error check
 977:keyboards/ergodox/ez/keymaps/pydemia/keymap.c ****     if (NULL == str_pre_macro_date || comfile_date_len - 1 != strlen(str_pre_macro_date))
 693               		.loc 1 977 5 view .LVU165
 694               		.loc 1 977 8 is_stmt 0 view .LVU166
 695 001c 0097      		sbiw r24,0
 696 001e 01F4      		brne .+2
 697 0020 00C0      		rjmp .L65
 698               		.loc 1 977 63 discriminator 1 view .LVU167
 699 0022 FC01      		movw r30,r24
 700               		0:
 701 0024 0190      		ld __tmp_reg__,Z+
 702 0026 0020      		tst __tmp_reg__
 703 0028 01F4      		brne 0b
 704 002a 9F01      		movw r18,r30
 705 002c 2C50      		subi r18,12
 706 002e 3109      		sbc r19,__zero_reg__
 707               		.loc 1 977 36 discriminator 1 view .LVU168
 708 0030 2817      		cp r18,r24
 709 0032 3907      		cpc r19,r25
 710 0034 01F0      		breq .+2
 711 0036 00C0      		rjmp .L65
 978:keyboards/ergodox/ez/keymaps/pydemia/keymap.c ****         return 0;
 979:keyboards/ergodox/ez/keymaps/pydemia/keymap.c **** 
 980:keyboards/ergodox/ez/keymaps/pydemia/keymap.c ****     const char month_names[] = "JanFebMarAprMayJunJulAugSepOctNovDec";
 712               		.loc 1 980 5 is_stmt 1 view .LVU169
 713               		.loc 1 980 16 is_stmt 0 view .LVU170
 714 0038 25E2      		ldi r18,lo8(37)
 715 003a E0E0      		ldi r30,lo8(.LC0)
 716 003c F0E0      		ldi r31,hi8(.LC0)
 717 003e AE01      		movw r20,r28
 718 0040 4F5F      		subi r20,-1
 719 0042 5F4F      		sbci r21,-1
 720 0044 7A01      		movw r14,r20
 721 0046 DA01      		movw r26,r20
 722               		0:
 723 0048 0190      		ld r0,Z+
 724 004a 0D92      		st X+,r0
 725 004c 2A95      		dec r18
 726 004e 01F4      		brne 0b
 981:keyboards/ergodox/ez/keymaps/pydemia/keymap.c **** 
 982:keyboards/ergodox/ez/keymaps/pydemia/keymap.c ****     char s_month[5] = {0,};
 727               		.loc 1 982 5 is_stmt 1 view .LVU171
 728               		.loc 1 982 10 is_stmt 0 view .LVU172
 729 0050 8E01      		movw r16,r28
 730 0052 0A5D      		subi r16,-38
 731 0054 1F4F      		sbci r17,-1
 732 0056 25E0      		ldi r18,lo8(5)
 733 0058 F801      		movw r30,r16
 734               		0:
 735 005a 1192      		st Z+,__zero_reg__
 736 005c 2A95      		dec r18
 737 005e 01F4      		brne 0b
 983:keyboards/ergodox/ez/keymaps/pydemia/keymap.c ****     int iyear = 0, iday = 0;
 738               		.loc 1 983 5 is_stmt 1 view .LVU173
 739               		.loc 1 983 9 is_stmt 0 view .LVU174
 740 0060 1EA6      		std Y+46,__zero_reg__
 741 0062 1DA6      		std Y+45,__zero_reg__
 742               		.loc 1 983 20 view .LVU175
 743 0064 1CA6      		std Y+44,__zero_reg__
 744 0066 1BA6      		std Y+43,__zero_reg__
 984:keyboards/ergodox/ez/keymaps/pydemia/keymap.c **** 
 985:keyboards/ergodox/ez/keymaps/pydemia/keymap.c ****     sscanf(str_pre_macro_date, "%s %d %d", s_month, &iday, &iyear);
 745               		.loc 1 985 5 is_stmt 1 view .LVU176
 746 0068 9E01      		movw r18,r28
 747 006a 235D      		subi r18,-45
 748 006c 3F4F      		sbci r19,-1
 749 006e 3F93      		push r19
 750 0070 2F93      		push r18
 751 0072 2250      		subi r18,2
 752 0074 3109      		sbc r19,__zero_reg__
 753 0076 3F93      		push r19
 754 0078 2F93      		push r18
 755 007a 1F93      		push r17
 756 007c 0F93      		push r16
 757 007e 20E0      		ldi r18,lo8(.LC1)
 758 0080 30E0      		ldi r19,hi8(.LC1)
 759 0082 3F93      		push r19
 760 0084 2F93      		push r18
 761 0086 9F93      		push r25
 762 0088 8F93      		push r24
 763 008a 0E94 0000 		call sscanf
 764               	.LVL58:
 986:keyboards/ergodox/ez/keymaps/pydemia/keymap.c ****     int imonth = (strstr(month_names, s_month) - month_names) / 3 + 1;
 765               		.loc 1 986 5 view .LVU177
 766               		.loc 1 986 19 is_stmt 0 view .LVU178
 767 008e B801      		movw r22,r16
 768 0090 C701      		movw r24,r14
 769 0092 0E94 0000 		call strstr
 770               	.LVL59:
 987:keyboards/ergodox/ez/keymaps/pydemia/keymap.c **** 
 988:keyboards/ergodox/ez/keymaps/pydemia/keymap.c ****     //snprintf(date_string, 100, "%d", date_int);
 989:keyboards/ergodox/ez/keymaps/pydemia/keymap.c ****     return 10000 * iyear + 100 * imonth + iday;
 771               		.loc 1 989 5 is_stmt 1 view .LVU179
 986:keyboards/ergodox/ez/keymaps/pydemia/keymap.c ****     int imonth = (strstr(month_names, s_month) - month_names) / 3 + 1;
 772               		.loc 1 986 48 is_stmt 0 view .LVU180
 773 0096 8E19      		sub r24,r14
 774 0098 9F09      		sbc r25,r15
 775               	.LVL60:
 986:keyboards/ergodox/ez/keymaps/pydemia/keymap.c ****     int imonth = (strstr(month_names, s_month) - month_names) / 3 + 1;
 776               		.loc 1 986 63 view .LVU181
 777 009a 63E0      		ldi r22,lo8(3)
 778 009c 70E0      		ldi r23,0
 779 009e 0E94 0000 		call __divmodhi4
 780               		.loc 1 989 26 view .LVU182
 781 00a2 84E6      		ldi r24,lo8(100)
 782 00a4 869F      		mul r24,r22
 783 00a6 800D      		add r24,r0
 784 00a8 1124      		clr __zero_reg__
 785 00aa 9DA5      		ldd r25,Y+45
 786 00ac 9295      		swap r25
 787 00ae 907F      		andi r25,lo8(-16)
 788               		.loc 1 989 41 view .LVU183
 789 00b0 2BA5      		ldd r18,Y+43
 790 00b2 920F      		add r25,r18
 791 00b4 890F      		add r24,r25
 792 00b6 0FB6      		in __tmp_reg__,__SREG__
 793 00b8 F894      		cli
 794 00ba DEBF      		out __SP_H__,r29
 795 00bc 0FBE      		out __SREG__,__tmp_reg__
 796 00be CDBF      		out __SP_L__,r28
 797               	.L62:
 798               	/* epilogue start */
 990:keyboards/ergodox/ez/keymaps/pydemia/keymap.c **** };
 799               		.loc 1 990 1 view .LVU184
 800 00c0 AE96      		adiw r28,46
 801 00c2 0FB6      		in __tmp_reg__,__SREG__
 802 00c4 F894      		cli
 803 00c6 DEBF      		out __SP_H__,r29
 804 00c8 0FBE      		out __SREG__,__tmp_reg__
 805 00ca CDBF      		out __SP_L__,r28
 806 00cc DF91      		pop r29
 807 00ce CF91      		pop r28
 808 00d0 1F91      		pop r17
 809 00d2 0F91      		pop r16
 810 00d4 FF90      		pop r15
 811 00d6 EF90      		pop r14
 812 00d8 0895      		ret
 813               	.LVL61:
 814               	.L65:
 978:keyboards/ergodox/ez/keymaps/pydemia/keymap.c **** 
 815               		.loc 1 978 16 view .LVU185
 816 00da 80E0      		ldi r24,0
 817               	.LVL62:
 978:keyboards/ergodox/ez/keymaps/pydemia/keymap.c **** 
 818               		.loc 1 978 16 view .LVU186
 819 00dc 00C0      		rjmp .L62
 820               		.cfi_endproc
 821               	.LFE133:
 823               		.section	.rodata.pre_macro_time_to_int.str1.1,"aMS",@progbits,1
 824               	.LC2:
 825 0000 2564 3A25 		.string	"%d:%d:%d"
 825      643A 2564 
 825      00
 826               		.section	.text.pre_macro_time_to_int,"ax",@progbits
 827               	.global	pre_macro_time_to_int
 829               	pre_macro_time_to_int:
 830               	.LVL63:
 831               	.LFB134:
 991:keyboards/ergodox/ez/keymaps/pydemia/keymap.c **** 
 992:keyboards/ergodox/ez/keymaps/pydemia/keymap.c **** 
 993:keyboards/ergodox/ez/keymaps/pydemia/keymap.c **** // TIME to INT Functions
 994:keyboards/ergodox/ez/keymaps/pydemia/keymap.c **** int pre_macro_time_to_int(const char *str_pre_macro_time)
 995:keyboards/ergodox/ez/keymaps/pydemia/keymap.c **** {
 832               		.loc 1 995 1 is_stmt 1 view -0
 833               		.cfi_startproc
 834               		.loc 1 995 1 is_stmt 0 view .LVU188
 835 0000 CF93      		push r28
 836               	.LCFI8:
 837               		.cfi_def_cfa_offset 3
 838               		.cfi_offset 28, -2
 839 0002 DF93      		push r29
 840               	.LCFI9:
 841               		.cfi_def_cfa_offset 4
 842               		.cfi_offset 29, -3
 843 0004 00D0      		rcall .
 844 0006 00D0      		rcall .
 845 0008 00D0      		rcall .
 846               	.LCFI10:
 847               		.cfi_def_cfa_offset 10
 848 000a CDB7      		in r28,__SP_L__
 849 000c DEB7      		in r29,__SP_H__
 850               	.LCFI11:
 851               		.cfi_def_cfa_register 28
 852               	/* prologue: function */
 853               	/* frame size = 6 */
 854               	/* stack size = 8 */
 855               	.L__stack_usage = 8
 996:keyboards/ergodox/ez/keymaps/pydemia/keymap.c ****     const int comfile_time_len = 9;
 856               		.loc 1 996 5 is_stmt 1 view .LVU189
 857               	.LVL64:
 997:keyboards/ergodox/ez/keymaps/pydemia/keymap.c **** 
 998:keyboards/ergodox/ez/keymaps/pydemia/keymap.c ****     if (NULL == str_pre_macro_time || comfile_time_len -1 != strlen(str_pre_macro_time))
 858               		.loc 1 998 5 view .LVU190
 859               		.loc 1 998 8 is_stmt 0 view .LVU191
 860 000e 0097      		sbiw r24,0
 861 0010 01F4      		brne .+2
 862 0012 00C0      		rjmp .L69
 863               		.loc 1 998 62 discriminator 1 view .LVU192
 864 0014 FC01      		movw r30,r24
 865               		0:
 866 0016 0190      		ld __tmp_reg__,Z+
 867 0018 0020      		tst __tmp_reg__
 868 001a 01F4      		brne 0b
 869 001c 9F01      		movw r18,r30
 870 001e 2950      		subi r18,9
 871 0020 3109      		sbc r19,__zero_reg__
 872               		.loc 1 998 36 discriminator 1 view .LVU193
 873 0022 2817      		cp r18,r24
 874 0024 3907      		cpc r19,r25
 875 0026 01F0      		breq .+2
 876 0028 00C0      		rjmp .L69
 999:keyboards/ergodox/ez/keymaps/pydemia/keymap.c ****         return 0;
1000:keyboards/ergodox/ez/keymaps/pydemia/keymap.c **** 
1001:keyboards/ergodox/ez/keymaps/pydemia/keymap.c ****     int ihour = 0, iminute = 0, isec = 0;
 877               		.loc 1 1001 5 is_stmt 1 view .LVU194
 878               		.loc 1 1001 9 is_stmt 0 view .LVU195
 879 002a 1E82      		std Y+6,__zero_reg__
 880 002c 1D82      		std Y+5,__zero_reg__
 881               		.loc 1 1001 20 view .LVU196
 882 002e 1C82      		std Y+4,__zero_reg__
 883 0030 1B82      		std Y+3,__zero_reg__
 884               		.loc 1 1001 33 view .LVU197
 885 0032 1A82      		std Y+2,__zero_reg__
 886 0034 1982      		std Y+1,__zero_reg__
1002:keyboards/ergodox/ez/keymaps/pydemia/keymap.c ****     sscanf(str_pre_macro_time, "%d:%d:%d", &ihour, &iminute, &isec);
 887               		.loc 1 1002 5 is_stmt 1 view .LVU198
 888 0036 9E01      		movw r18,r28
 889 0038 2F5F      		subi r18,-1
 890 003a 3F4F      		sbci r19,-1
 891 003c 3F93      		push r19
 892 003e 2F93      		push r18
 893 0040 2E5F      		subi r18,-2
 894 0042 3F4F      		sbci r19,-1
 895 0044 3F93      		push r19
 896 0046 2F93      		push r18
 897 0048 2E5F      		subi r18,-2
 898 004a 3F4F      		sbci r19,-1
 899 004c 3F93      		push r19
 900 004e 2F93      		push r18
 901 0050 20E0      		ldi r18,lo8(.LC2)
 902 0052 30E0      		ldi r19,hi8(.LC2)
 903 0054 3F93      		push r19
 904 0056 2F93      		push r18
 905 0058 9F93      		push r25
 906 005a 8F93      		push r24
 907 005c 0E94 0000 		call sscanf
 908               	.LVL65:
1003:keyboards/ergodox/ez/keymaps/pydemia/keymap.c **** 
1004:keyboards/ergodox/ez/keymaps/pydemia/keymap.c ****     // 030511
1005:keyboards/ergodox/ez/keymaps/pydemia/keymap.c ****     return ihour * 10000 + iminute * 100 + isec;
 909               		.loc 1 1005 5 view .LVU199
 910               		.loc 1 1005 18 is_stmt 0 view .LVU200
 911 0060 4D81      		ldd r20,Y+5
 912 0062 5E81      		ldd r21,Y+6
 913 0064 20E1      		ldi r18,lo8(16)
 914 0066 37E2      		ldi r19,lo8(39)
 915 0068 429F      		mul r20,r18
 916 006a C001      		movw r24,r0
 917 006c 439F      		mul r20,r19
 918 006e 900D      		add r25,r0
 919 0070 529F      		mul r21,r18
 920 0072 900D      		add r25,r0
 921 0074 1124      		clr r1
 922               		.loc 1 1005 36 view .LVU201
 923 0076 4B81      		ldd r20,Y+3
 924 0078 5C81      		ldd r21,Y+4
 925 007a 64E6      		ldi r22,lo8(100)
 926 007c 649F      		mul r22,r20
 927 007e 9001      		movw r18,r0
 928 0080 659F      		mul r22,r21
 929 0082 300D      		add r19,r0
 930 0084 1124      		clr __zero_reg__
 931               		.loc 1 1005 26 view .LVU202
 932 0086 820F      		add r24,r18
 933 0088 931F      		adc r25,r19
 934               		.loc 1 1005 42 view .LVU203
 935 008a 2981      		ldd r18,Y+1
 936 008c 3A81      		ldd r19,Y+2
 937 008e 820F      		add r24,r18
 938 0090 931F      		adc r25,r19
 939 0092 0FB6      		in __tmp_reg__,__SREG__
 940 0094 F894      		cli
 941 0096 DEBF      		out __SP_H__,r29
 942 0098 0FBE      		out __SREG__,__tmp_reg__
 943 009a CDBF      		out __SP_L__,r28
 944               	.L66:
 945               	/* epilogue start */
1006:keyboards/ergodox/ez/keymaps/pydemia/keymap.c **** };
 946               		.loc 1 1006 1 view .LVU204
 947 009c 2696      		adiw r28,6
 948 009e 0FB6      		in __tmp_reg__,__SREG__
 949 00a0 F894      		cli
 950 00a2 DEBF      		out __SP_H__,r29
 951 00a4 0FBE      		out __SREG__,__tmp_reg__
 952 00a6 CDBF      		out __SP_L__,r28
 953 00a8 DF91      		pop r29
 954 00aa CF91      		pop r28
 955 00ac 0895      		ret
 956               	.LVL66:
 957               	.L69:
 999:keyboards/ergodox/ez/keymaps/pydemia/keymap.c **** 
 958               		.loc 1 999 16 view .LVU205
 959 00ae 90E0      		ldi r25,0
 960 00b0 80E0      		ldi r24,0
 961               	.LVL67:
 999:keyboards/ergodox/ez/keymaps/pydemia/keymap.c **** 
 962               		.loc 1 999 16 view .LVU206
 963 00b2 00C0      		rjmp .L66
 964               		.cfi_endproc
 965               	.LFE134:
 967               		.section	.text.matrix_init_user,"ax",@progbits
 968               	.global	matrix_init_user
 970               	matrix_init_user:
 971               	.LFB135:
1007:keyboards/ergodox/ez/keymaps/pydemia/keymap.c **** 
1008:keyboards/ergodox/ez/keymaps/pydemia/keymap.c **** 
1009:keyboards/ergodox/ez/keymaps/pydemia/keymap.c **** #define QUOTE(...) #__VA_ARGS__
1010:keyboards/ergodox/ez/keymaps/pydemia/keymap.c **** char *date_str = QUOTE(
1011:keyboards/ergodox/ez/keymaps/pydemia/keymap.c **** "a"
1012:keyboards/ergodox/ez/keymaps/pydemia/keymap.c **** //pre_macro_date_to_int(__DATE__)
1013:keyboards/ergodox/ez/keymaps/pydemia/keymap.c **** );
1014:keyboards/ergodox/ez/keymaps/pydemia/keymap.c **** 
1015:keyboards/ergodox/ez/keymaps/pydemia/keymap.c **** #define FDATE (char const[]){ __DATE__[7], __DATE__[8]}
1016:keyboards/ergodox/ez/keymaps/pydemia/keymap.c **** 
1017:keyboards/ergodox/ez/keymaps/pydemia/keymap.c **** 
1018:keyboards/ergodox/ez/keymaps/pydemia/keymap.c **** 
1019:keyboards/ergodox/ez/keymaps/pydemia/keymap.c **** 
1020:keyboards/ergodox/ez/keymaps/pydemia/keymap.c **** // Runs just one time when the keyboard initializes.
1021:keyboards/ergodox/ez/keymaps/pydemia/keymap.c **** void matrix_init_user(void) {
 972               		.loc 1 1021 29 is_stmt 1 view -0
 973               		.cfi_startproc
 974               	/* prologue: function */
 975               	/* frame size = 0 */
 976               	/* stack size = 0 */
 977               	.L__stack_usage = 0
1022:keyboards/ergodox/ez/keymaps/pydemia/keymap.c **** 
1023:keyboards/ergodox/ez/keymaps/pydemia/keymap.c **** };
 978               		.loc 1 1023 1 view .LVU208
 979               	/* epilogue start */
 980 0000 0895      		ret
 981               		.cfi_endproc
 982               	.LFE135:
 984               		.section	.text.matrix_scan_user,"ax",@progbits
 985               	.global	matrix_scan_user
 987               	matrix_scan_user:
 988               	.LFB136:
1024:keyboards/ergodox/ez/keymaps/pydemia/keymap.c **** 
1025:keyboards/ergodox/ez/keymaps/pydemia/keymap.c **** // Print Timestamp Function
1026:keyboards/ergodox/ez/keymaps/pydemia/keymap.c **** /*static macro_t *gettime(void) {
1027:keyboards/ergodox/ez/keymaps/pydemia/keymap.c ****     time_t t = time(NULL);
1028:keyboards/ergodox/ez/keymaps/pydemia/keymap.c ****     struct tm *tm = localtime(&t);
1029:keyboards/ergodox/ez/keymaps/pydemia/keymap.c ****     printf("%s\n", asctime(tm));
1030:keyboards/ergodox/ez/keymaps/pydemia/keymap.c ****     return MACRO_NONE;
1031:keyboards/ergodox/ez/keymaps/pydemia/keymap.c **** }
1032:keyboards/ergodox/ez/keymaps/pydemia/keymap.c **** */
1033:keyboards/ergodox/ez/keymaps/pydemia/keymap.c **** // Runs constantly in the background, in a loop.
1034:keyboards/ergodox/ez/keymaps/pydemia/keymap.c **** void matrix_scan_user(void) {
 989               		.loc 1 1034 29 view -0
 990               		.cfi_startproc
 991 0000 CF93      		push r28
 992               	.LCFI12:
 993               		.cfi_def_cfa_offset 3
 994               		.cfi_offset 28, -2
 995               	/* prologue: function */
 996               	/* frame size = 0 */
 997               	/* stack size = 1 */
 998               	.L__stack_usage = 1
1035:keyboards/ergodox/ez/keymaps/pydemia/keymap.c **** 
1036:keyboards/ergodox/ez/keymaps/pydemia/keymap.c ****     uint8_t layer = biton32(layer_state);
 999               		.loc 1 1036 5 view .LVU210
 1000               		.loc 1 1036 21 is_stmt 0 view .LVU211
 1001 0002 6091 0000 		lds r22,layer_state
 1002 0006 7091 0000 		lds r23,layer_state+1
 1003 000a 8091 0000 		lds r24,layer_state+2
 1004 000e 9091 0000 		lds r25,layer_state+3
 1005 0012 0E94 0000 		call biton32
 1006               	.LVL68:
 1007 0016 C82F      		mov r28,r24
 1008               	.LVL69:
1037:keyboards/ergodox/ez/keymaps/pydemia/keymap.c **** 
1038:keyboards/ergodox/ez/keymaps/pydemia/keymap.c ****     ergodox_board_led_off();
 1009               		.loc 1 1038 5 is_stmt 1 view .LVU212
 1010 0018 0E94 0000 		call ergodox_board_led_off
 1011               	.LVL70:
1039:keyboards/ergodox/ez/keymaps/pydemia/keymap.c ****     ergodox_right_led_1_off();
 1012               		.loc 1 1039 5 view .LVU213
 1013 001c 0E94 0000 		call ergodox_right_led_1_off
 1014               	.LVL71:
1040:keyboards/ergodox/ez/keymaps/pydemia/keymap.c ****     ergodox_right_led_2_off();
 1015               		.loc 1 1040 5 view .LVU214
 1016 0020 0E94 0000 		call ergodox_right_led_2_off
 1017               	.LVL72:
1041:keyboards/ergodox/ez/keymaps/pydemia/keymap.c ****     ergodox_right_led_3_off();
 1018               		.loc 1 1041 5 view .LVU215
 1019 0024 0E94 0000 		call ergodox_right_led_3_off
 1020               	.LVL73:
1042:keyboards/ergodox/ez/keymaps/pydemia/keymap.c ****     switch (layer) {
 1021               		.loc 1 1042 5 view .LVU216
 1022 0028 C230      		cpi r28,lo8(2)
 1023 002a 01F0      		breq .L72
 1024 002c 00F4      		brsh .L73
 1025 002e C130      		cpi r28,lo8(1)
 1026 0030 01F0      		breq .L74
 1027               	.L71:
 1028               	/* epilogue start */
1043:keyboards/ergodox/ez/keymaps/pydemia/keymap.c ****       // TODO: Make this relevant to the ErgoDox EZ.
1044:keyboards/ergodox/ez/keymaps/pydemia/keymap.c ****         case 1:
1045:keyboards/ergodox/ez/keymaps/pydemia/keymap.c ****             ergodox_right_led_2_off();
1046:keyboards/ergodox/ez/keymaps/pydemia/keymap.c ****             ergodox_right_led_3_off();
1047:keyboards/ergodox/ez/keymaps/pydemia/keymap.c ****             ergodox_right_led_1_on();
1048:keyboards/ergodox/ez/keymaps/pydemia/keymap.c ****             break;
1049:keyboards/ergodox/ez/keymaps/pydemia/keymap.c ****         case 2:
1050:keyboards/ergodox/ez/keymaps/pydemia/keymap.c ****             ergodox_right_led_1_off();
1051:keyboards/ergodox/ez/keymaps/pydemia/keymap.c ****             ergodox_right_led_3_off();
1052:keyboards/ergodox/ez/keymaps/pydemia/keymap.c ****             ergodox_right_led_2_on();
1053:keyboards/ergodox/ez/keymaps/pydemia/keymap.c ****             break;
1054:keyboards/ergodox/ez/keymaps/pydemia/keymap.c ****         case 3:
1055:keyboards/ergodox/ez/keymaps/pydemia/keymap.c ****             ergodox_right_led_1_off();
1056:keyboards/ergodox/ez/keymaps/pydemia/keymap.c ****             ergodox_right_led_2_off();
1057:keyboards/ergodox/ez/keymaps/pydemia/keymap.c ****             ergodox_right_led_3_on();
1058:keyboards/ergodox/ez/keymaps/pydemia/keymap.c ****             break;
1059:keyboards/ergodox/ez/keymaps/pydemia/keymap.c ****         case 4:
1060:keyboards/ergodox/ez/keymaps/pydemia/keymap.c ****             ergodox_right_led_3_off();
1061:keyboards/ergodox/ez/keymaps/pydemia/keymap.c ****             ergodox_right_led_1_on();
1062:keyboards/ergodox/ez/keymaps/pydemia/keymap.c ****             ergodox_right_led_2_on();
1063:keyboards/ergodox/ez/keymaps/pydemia/keymap.c ****             break;
1064:keyboards/ergodox/ez/keymaps/pydemia/keymap.c ****         default:
1065:keyboards/ergodox/ez/keymaps/pydemia/keymap.c ****             // none
1066:keyboards/ergodox/ez/keymaps/pydemia/keymap.c ****             break;
1067:keyboards/ergodox/ez/keymaps/pydemia/keymap.c ****     }
1068:keyboards/ergodox/ez/keymaps/pydemia/keymap.c **** }
 1029               		.loc 1 1068 1 is_stmt 0 view .LVU217
 1030 0032 CF91      		pop r28
 1031               	.LVL74:
 1032               		.loc 1 1068 1 view .LVU218
 1033 0034 0895      		ret
 1034               	.LVL75:
 1035               	.L73:
 1036               		.loc 1 1068 1 view .LVU219
 1037 0036 C330      		cpi r28,lo8(3)
 1038 0038 01F0      		breq .L76
 1039 003a C430      		cpi r28,lo8(4)
 1040 003c 01F4      		brne .L71
1060:keyboards/ergodox/ez/keymaps/pydemia/keymap.c ****             ergodox_right_led_1_on();
 1041               		.loc 1 1060 13 is_stmt 1 view .LVU220
 1042 003e 0E94 0000 		call ergodox_right_led_3_off
 1043               	.LVL76:
1061:keyboards/ergodox/ez/keymaps/pydemia/keymap.c ****             ergodox_right_led_2_on();
 1044               		.loc 1 1061 13 view .LVU221
 1045 0042 0E94 0000 		call ergodox_right_led_1_on
 1046               	.LVL77:
 1047 0046 00C0      		rjmp .L78
 1048               	.L74:
1045:keyboards/ergodox/ez/keymaps/pydemia/keymap.c ****             ergodox_right_led_3_off();
 1049               		.loc 1 1045 13 view .LVU222
 1050 0048 0E94 0000 		call ergodox_right_led_2_off
 1051               	.LVL78:
1046:keyboards/ergodox/ez/keymaps/pydemia/keymap.c ****             ergodox_right_led_1_on();
 1052               		.loc 1 1046 13 view .LVU223
 1053 004c 0E94 0000 		call ergodox_right_led_3_off
 1054               	.LVL79:
1047:keyboards/ergodox/ez/keymaps/pydemia/keymap.c ****             break;
 1055               		.loc 1 1047 13 view .LVU224
 1056               	/* epilogue start */
 1057               		.loc 1 1068 1 is_stmt 0 view .LVU225
 1058 0050 CF91      		pop r28
 1059               	.LVL80:
1047:keyboards/ergodox/ez/keymaps/pydemia/keymap.c ****             break;
 1060               		.loc 1 1047 13 view .LVU226
 1061 0052 0C94 0000 		jmp ergodox_right_led_1_on
 1062               	.LVL81:
 1063               	.L72:
1050:keyboards/ergodox/ez/keymaps/pydemia/keymap.c ****             ergodox_right_led_3_off();
 1064               		.loc 1 1050 13 is_stmt 1 view .LVU227
 1065 0056 0E94 0000 		call ergodox_right_led_1_off
 1066               	.LVL82:
1051:keyboards/ergodox/ez/keymaps/pydemia/keymap.c ****             ergodox_right_led_2_on();
 1067               		.loc 1 1051 13 view .LVU228
 1068 005a 0E94 0000 		call ergodox_right_led_3_off
 1069               	.LVL83:
1052:keyboards/ergodox/ez/keymaps/pydemia/keymap.c ****             break;
 1070               		.loc 1 1052 13 view .LVU229
 1071               	.L78:
1062:keyboards/ergodox/ez/keymaps/pydemia/keymap.c ****             break;
 1072               		.loc 1 1062 13 view .LVU230
 1073               	/* epilogue start */
 1074               		.loc 1 1068 1 is_stmt 0 view .LVU231
 1075 005e CF91      		pop r28
 1076               	.LVL84:
1062:keyboards/ergodox/ez/keymaps/pydemia/keymap.c ****             break;
 1077               		.loc 1 1062 13 view .LVU232
 1078 0060 0C94 0000 		jmp ergodox_right_led_2_on
 1079               	.LVL85:
 1080               	.L76:
1055:keyboards/ergodox/ez/keymaps/pydemia/keymap.c ****             ergodox_right_led_2_off();
 1081               		.loc 1 1055 13 is_stmt 1 view .LVU233
 1082 0064 0E94 0000 		call ergodox_right_led_1_off
 1083               	.LVL86:
1056:keyboards/ergodox/ez/keymaps/pydemia/keymap.c ****             ergodox_right_led_3_on();
 1084               		.loc 1 1056 13 view .LVU234
 1085 0068 0E94 0000 		call ergodox_right_led_2_off
 1086               	.LVL87:
1057:keyboards/ergodox/ez/keymaps/pydemia/keymap.c ****             break;
 1087               		.loc 1 1057 13 view .LVU235
 1088               	/* epilogue start */
 1089               		.loc 1 1068 1 is_stmt 0 view .LVU236
 1090 006c CF91      		pop r28
 1091               	.LVL88:
1057:keyboards/ergodox/ez/keymaps/pydemia/keymap.c ****             break;
 1092               		.loc 1 1057 13 view .LVU237
 1093 006e 0C94 0000 		jmp ergodox_right_led_3_on
 1094               	.LVL89:
 1095               		.cfi_endproc
 1096               	.LFE136:
 1098               		.section	.progmem.data.__m.5420,"a",@progbits
 1101               	__m.5420:
 1102 0000 01        		.byte	1
 1103 0001 38        		.byte	56
 1104 0002 02        		.byte	2
 1105 0003 38        		.byte	56
 1106 0004 01        		.byte	1
 1107 0005 E1        		.byte	-31
 1108 0006 01        		.byte	1
 1109 0007 25        		.byte	37
 1110 0008 02        		.byte	2
 1111 0009 25        		.byte	37
 1112 000a 02        		.byte	2
 1113 000b E1        		.byte	-31
 1114 000c 01        		.byte	1
 1115 000d 28        		.byte	40
 1116 000e 02        		.byte	2
 1117 000f 28        		.byte	40
 1118 0010 01        		.byte	1
 1119 0011 28        		.byte	40
 1120 0012 02        		.byte	2
 1121 0013 28        		.byte	40
 1122 0014 01        		.byte	1
 1123 0015 E1        		.byte	-31
 1124 0016 01        		.byte	1
 1125 0017 25        		.byte	37
 1126 0018 02        		.byte	2
 1127 0019 25        		.byte	37
 1128 001a 02        		.byte	2
 1129 001b E1        		.byte	-31
 1130 001c 01        		.byte	1
 1131 001d 38        		.byte	56
 1132 001e 02        		.byte	2
 1133 001f 38        		.byte	56
 1134 0020 01        		.byte	1
 1135 0021 52        		.byte	82
 1136 0022 02        		.byte	2
 1137 0023 52        		.byte	82
 1138 0024 00        		.byte	0
 1139               		.section	.progmem.data.__m.5417,"a",@progbits
 1142               	__m.5417:
 1143 0000 01        		.byte	1
 1144 0001 E1        		.byte	-31
 1145 0002 01        		.byte	1
 1146 0003 4D        		.byte	77
 1147 0004 02        		.byte	2
 1148 0005 4D        		.byte	77
 1149 0006 02        		.byte	2
 1150 0007 E1        		.byte	-31
 1151 0008 00        		.byte	0
 1152               		.section	.progmem.data.__m.5414,"a",@progbits
 1155               	__m.5414:
 1156 0000 01        		.byte	1
 1157 0001 E1        		.byte	-31
 1158 0002 01        		.byte	1
 1159 0003 4A        		.byte	74
 1160 0004 02        		.byte	2
 1161 0005 4A        		.byte	74
 1162 0006 02        		.byte	2
 1163 0007 E1        		.byte	-31
 1164 0008 00        		.byte	0
 1165               		.section	.progmem.data.__m.5411,"a",@progbits
 1168               	__m.5411:
 1169 0000 01        		.byte	1
 1170 0001 E1        		.byte	-31
 1171 0002 01        		.byte	1
 1172 0003 26        		.byte	38
 1173 0004 02        		.byte	2
 1174 0005 26        		.byte	38
 1175 0006 01        		.byte	1
 1176 0007 27        		.byte	39
 1177 0008 02        		.byte	2
 1178 0009 27        		.byte	39
 1179 000a 02        		.byte	2
 1180 000b E1        		.byte	-31
 1181 000c 01        		.byte	1
 1182 000d 50        		.byte	80
 1183 000e 02        		.byte	2
 1184 000f 50        		.byte	80
 1185 0010 00        		.byte	0
 1186               		.section	.progmem.data.__m.5408,"a",@progbits
 1189               	__m.5408:
 1190 0000 01        		.byte	1
 1191 0001 E1        		.byte	-31
 1192 0002 01        		.byte	1
 1193 0003 2F        		.byte	47
 1194 0004 02        		.byte	2
 1195 0005 2F        		.byte	47
 1196 0006 01        		.byte	1
 1197 0007 30        		.byte	48
 1198 0008 02        		.byte	2
 1199 0009 30        		.byte	48
 1200 000a 02        		.byte	2
 1201 000b E1        		.byte	-31
 1202 000c 01        		.byte	1
 1203 000d 50        		.byte	80
 1204 000e 02        		.byte	2
 1205 000f 50        		.byte	80
 1206 0010 00        		.byte	0
 1207               		.section	.progmem.data.__m.5405,"a",@progbits
 1210               	__m.5405:
 1211 0000 01        		.byte	1
 1212 0001 2F        		.byte	47
 1213 0002 02        		.byte	2
 1214 0003 2F        		.byte	47
 1215 0004 01        		.byte	1
 1216 0005 30        		.byte	48
 1217 0006 02        		.byte	2
 1218 0007 30        		.byte	48
 1219 0008 01        		.byte	1
 1220 0009 50        		.byte	80
 1221 000a 02        		.byte	2
 1222 000b 50        		.byte	80
 1223 000c 00        		.byte	0
 1224               		.section	.progmem.data.__m.5402,"a",@progbits
 1227               	__m.5402:
 1228 0000 01        		.byte	1
 1229 0001 E1        		.byte	-31
 1230 0002 01        		.byte	1
 1231 0003 34        		.byte	52
 1232 0004 02        		.byte	2
 1233 0005 34        		.byte	52
 1234 0006 02        		.byte	2
 1235 0007 E1        		.byte	-31
 1236 0008 00        		.byte	0
 1237               		.section	.progmem.data.__c.5399,"a",@progbits
 1240               	__c.5399:
 1241 0000 4D61 7920 		.string	"May 13 2019 14:50:21"
 1241      3133 2032 
 1241      3031 3920 
 1241      3134 3A35 
 1241      303A 3231 
 1242               		.section	.progmem.data.__c.5396,"a",@progbits
 1245               	__c.5396:
 1246 0000 3134 3A35 		.string	"14:50:21"
 1246      303A 3231 
 1246      00
 1247               		.section	.progmem.data.__c.5393,"a",@progbits
 1250               	__c.5393:
 1251 0000 4D61 7920 		.string	"May 13 2019"
 1251      3133 2032 
 1251      3031 3900 
 1252               		.section	.progmem.data.__c.5390,"a",@progbits
 1255               	__c.5390:
 1256 0000 7069 7020 		.string	"pip install --cert=c:/sslproxy.crt "
 1256      696E 7374 
 1256      616C 6C20 
 1256      2D2D 6365 
 1256      7274 3D63 
 1257               		.section	.progmem.data.__c.5387,"a",@progbits
 1260               	__c.5387:
 1261 0000 5345 4C45 		.ascii	"SELECT\r\n     A.*\r\n    ,B.*\r\nFROM\r\n    a.aa A\r\n    "
 1261      4354 0D0A 
 1261      2020 2020 
 1261      2041 2E2A 
 1261      0D0A 2020 
 1262 0032 4C45 4654 		.ascii	"LEFT OUTER JOIN\r\n        (\r\n        SE"
 1262      204F 5554 
 1262      4552 204A 
 1262      4F49 4E0D 
 1262      0A20 2020 
 1263 0058 4C45 4354 		.string	"LECT\r\n             C.col\r\n        FROM\r\n            c.cc C\r\n        WHERE\r\n    
 1263      0D0A 2020 
 1263      2020 2020 
 1263      2020 2020 
 1263      2020 2043 
 1264               		.section	.progmem.data.__c.5384,"a",@progbits
 1267               	__c.5384:
 1268 0000 5345 4C45 		.string	"SELECT\r\n     A.*\r\n    ,B.*\r\nFROM\r\n    a.aa A\r\n    LEFT OUTER JOIN b.bb B\r\n   
 1268      4354 0D0A 
 1268      2020 2020 
 1268      2041 2E2A 
 1268      0D0A 2020 
 1269               		.section	.progmem.data.__c.5381,"a",@progbits
 1272               	__c.5381:
 1273 0000 5345 4C45 		.string	"SELECT\r\n     A.col\r\n    ,A.*\r\nFROM\r\n    a.aa A\r\nWHERE\r\n    A.col = NULL\r\nAN
 1273      4354 0D0A 
 1273      2020 2020 
 1273      2041 2E63 
 1273      6F6C 0D0A 
 1274               		.section	.progmem.data.__m.5378,"a",@progbits
 1277               	__m.5378:
 1278 0000 01        		.byte	1
 1279 0001 E1        		.byte	-31
 1280 0002 01        		.byte	1
 1281 0003 20        		.byte	32
 1282 0004 02        		.byte	2
 1283 0005 20        		.byte	32
 1284 0006 02        		.byte	2
 1285 0007 E1        		.byte	-31
 1286 0008 01        		.byte	1
 1287 0009 2C        		.byte	44
 1288 000a 02        		.byte	2
 1289 000b 2C        		.byte	44
 1290 000c 01        		.byte	1
 1291 000d 2C        		.byte	44
 1292 000e 02        		.byte	2
 1293 000f 2C        		.byte	44
 1294 0010 01        		.byte	1
 1295 0011 2D        		.byte	45
 1296 0012 02        		.byte	2
 1297 0013 2D        		.byte	45
 1298 0014 01        		.byte	1
 1299 0015 2D        		.byte	45
 1300 0016 02        		.byte	2
 1301 0017 2D        		.byte	45
 1302 0018 01        		.byte	1
 1303 0019 2D        		.byte	45
 1304 001a 02        		.byte	2
 1305 001b 2D        		.byte	45
 1306 001c 01        		.byte	1
 1307 001d 2D        		.byte	45
 1308 001e 02        		.byte	2
 1309 001f 2D        		.byte	45
 1310 0020 01        		.byte	1
 1311 0021 50        		.byte	80
 1312 0022 02        		.byte	2
 1313 0023 50        		.byte	80
 1314 0024 01        		.byte	1
 1315 0025 50        		.byte	80
 1316 0026 02        		.byte	2
 1317 0027 50        		.byte	80
 1318 0028 01        		.byte	1
 1319 0029 50        		.byte	80
 1320 002a 02        		.byte	2
 1321 002b 50        		.byte	80
 1322 002c 01        		.byte	1
 1323 002d 50        		.byte	80
 1324 002e 02        		.byte	2
 1325 002f 50        		.byte	80
 1326 0030 01        		.byte	1
 1327 0031 50        		.byte	80
 1328 0032 02        		.byte	2
 1329 0033 50        		.byte	80
 1330 0034 00        		.byte	0
 1331               		.section	.progmem.data.__m.5375,"a",@progbits
 1334               	__m.5375:
 1335 0000 01        		.byte	1
 1336 0001 E1        		.byte	-31
 1337 0002 01        		.byte	1
 1338 0003 20        		.byte	32
 1339 0004 02        		.byte	2
 1340 0005 20        		.byte	32
 1341 0006 01        		.byte	1
 1342 0007 2C        		.byte	44
 1343 0008 02        		.byte	2
 1344 0009 2C        		.byte	44
 1345 000a 01        		.byte	1
 1346 000b 22        		.byte	34
 1347 000c 02        		.byte	2
 1348 000d 22        		.byte	34
 1349 000e 01        		.byte	1
 1350 000f 22        		.byte	34
 1351 0010 02        		.byte	2
 1352 0011 22        		.byte	34
 1353 0012 02        		.byte	2
 1354 0013 E1        		.byte	-31
 1355 0014 00        		.byte	0
 1356               		.section	.progmem.data.__c.5372,"a",@progbits
 1359               	__c.5372:
 1360 0000 2725 5925 		.string	"'%Y%m%d%H%M%S%f'"
 1360      6D25 6425 
 1360      4825 4D25 
 1360      5325 6627 
 1360      00
 1361               		.section	.progmem.data.__m.5369,"a",@progbits
 1364               	__m.5369:
 1365 0000 01        		.byte	1
 1366 0001 E1        		.byte	-31
 1367 0002 01        		.byte	1
 1368 0003 36        		.byte	54
 1369 0004 02        		.byte	2
 1370 0005 36        		.byte	54
 1371 0006 02        		.byte	2
 1372 0007 E1        		.byte	-31
 1373 0008 01        		.byte	1
 1374 0009 2D        		.byte	45
 1375 000a 02        		.byte	2
 1376 000b 2D        		.byte	45
 1377 000c 00        		.byte	0
 1378               		.section	.progmem.data.__c.5366,"a",@progbits
 1381               	__c.5366:
 1382 0000 2320 2D2A 		.string	"# -*- coding: utf-8 -*- \n'''\nCreated  : May 13 2019 14:50:21\nModified : May 13 2019 14
 1382      2D20 636F 
 1382      6469 6E67 
 1382      3A20 7574 
 1382      662D 3820 
 1383               		.section	.progmem.data.__c.5362,"a",@progbits
 1386               	__c.5362:
 1387 0000 6572 676F 		.string	"ergodox/pydemia @ a0258c-dirty"
 1387      646F 782F 
 1387      7079 6465 
 1387      6D69 6120 
 1387      4020 6130 
 1388               	.global	date_str
 1389               		.section	.rodata.str1.1,"aMS",@progbits,1
 1390               	.LC3:
 1391 0000 2261 2200 		.string	"\"a\""
 1392               		.section	.data.date_str,"aw",@progbits
 1395               	date_str:
 1396 0000 0000      		.word	.LC3
 1397               	.global	sql_query
 1398               		.section	.rodata.str1.1
 1399               	.LC4:
 1400 0004 5345 4C45 		.string	"SELECT word_id FROM table1, table2 WHERE table2.word_id = table1.word_id ORDER BY table1.
 1400      4354 2077 
 1400      6F72 645F 
 1400      6964 2046 
 1400      524F 4D20 
 1401               		.section	.data.sql_query,"aw",@progbits
 1404               	sql_query:
 1405 0000 0000      		.word	.LC4
 1406               	.global	keymaps
 1407               		.section	.progmem.data.keymaps,"a",@progbits
 1410               	keymaps:
 1411 0000 2900      		.word	41
 1412 0002 2B00      		.word	43
 1413 0004 3500      		.word	53
 1414 0006 E100      		.word	225
 1415 0008 E061      		.word	25056
 1416 000a 0000      		.word	0
 1417 000c 1E00      		.word	30
 1418 000e 1400      		.word	20
 1419 0010 0400      		.word	4
 1420 0012 1D00      		.word	29
 1421 0014 6500      		.word	101
 1422 0016 4D00      		.word	77
 1423 0018 1F00      		.word	31
 1424 001a 1A00      		.word	26
 1425 001c 1600      		.word	22
 1426 001e 1B00      		.word	27
 1427 0020 E300      		.word	227
 1428 0022 2A00      		.word	42
 1429 0024 2000      		.word	32
 1430 0026 0800      		.word	8
 1431 0028 0700      		.word	7
 1432 002a 0600      		.word	6
 1433 002c C300      		.word	195
 1434 002e 2C00      		.word	44
 1435 0030 2100      		.word	33
 1436 0032 1500      		.word	21
 1437 0034 0900      		.word	9
 1438 0036 1900      		.word	25
 1439 0038 E264      		.word	25826
 1440 003a 4A00      		.word	74
 1441 003c 2200      		.word	34
 1442 003e 1700      		.word	23
 1443 0040 0A00      		.word	10
 1444 0042 0500      		.word	5
 1445 0044 0000      		.word	0
 1446 0046 C200      		.word	194
 1447 0048 3E01      		.word	318
 1448 004a C400      		.word	196
 1449 004c 0000      		.word	0
 1450 004e C100      		.word	193
 1451 0050 0000      		.word	0
 1452 0052 2801      		.word	296
 1453 0054 2300      		.word	35
 1454 0056 0071      		.word	28928
 1455 0058 0000      		.word	0
 1456 005a C400      		.word	196
 1457 005c 0000      		.word	0
 1458 005e 5000      		.word	80
 1459 0060 2400      		.word	36
 1460 0062 1C00      		.word	28
 1461 0064 0B00      		.word	11
 1462 0066 1100      		.word	17
 1463 0068 0000      		.word	0
 1464 006a 4F00      		.word	79
 1465 006c 2500      		.word	37
 1466 006e 1800      		.word	24
 1467 0070 0D00      		.word	13
 1468 0072 1000      		.word	16
 1469 0074 E600      		.word	230
 1470 0076 5200      		.word	82
 1471 0078 2600      		.word	38
 1472 007a 0C00      		.word	12
 1473 007c 0E00      		.word	14
 1474 007e 3600      		.word	54
 1475 0080 E400      		.word	228
 1476 0082 2800      		.word	40
 1477 0084 2700      		.word	39
 1478 0086 1200      		.word	18
 1479 0088 0F00      		.word	15
 1480 008a 3700      		.word	55
 1481 008c 2F00      		.word	47
 1482 008e 4C00      		.word	76
 1483 0090 2D00      		.word	45
 1484 0092 1300      		.word	19
 1485 0094 3300      		.word	51
 1486 0096 3800      		.word	56
 1487 0098 3000      		.word	48
 1488 009a 5100      		.word	81
 1489 009c 2E02      		.word	558
 1490 009e 3100      		.word	49
 1491 00a0 0D71      		.word	28941
 1492 00a2 E500      		.word	229
 1493 00a4 1030      		.word	12304
 1494 00a6 0000      		.word	0
 1495 00a8 0100      		.word	1
 1496 00aa 0100      		.word	1
 1497 00ac 0100      		.word	1
 1498 00ae 0100      		.word	1
 1499 00b0 0100      		.word	1
 1500 00b2 0000      		.word	0
 1501 00b4 0100      		.word	1
 1502 00b6 0100      		.word	1
 1503 00b8 0100      		.word	1
 1504 00ba 0100      		.word	1
 1505 00bc 0100      		.word	1
 1506 00be 4D02      		.word	589
 1507 00c0 0100      		.word	1
 1508 00c2 0100      		.word	1
 1509 00c4 0100      		.word	1
 1510 00c6 0100      		.word	1
 1511 00c8 0100      		.word	1
 1512 00ca 2A00      		.word	42
 1513 00cc 0330      		.word	12291
 1514 00ce 1030      		.word	12304
 1515 00d0 0E30      		.word	12302
 1516 00d2 0F30      		.word	12303
 1517 00d4 0100      		.word	1
 1518 00d6 2C00      		.word	44
 1519 00d8 0530      		.word	12293
 1520 00da 2602      		.word	550
 1521 00dc 2F00      		.word	47
 1522 00de 2F02      		.word	559
 1523 00e0 0100      		.word	1
 1524 00e2 4A02      		.word	586
 1525 00e4 0430      		.word	12292
 1526 00e6 2702      		.word	551
 1527 00e8 3000      		.word	48
 1528 00ea 3002      		.word	560
 1529 00ec 0000      		.word	0
 1530 00ee 0100      		.word	1
 1531 00f0 0100      		.word	1
 1532 00f2 0100      		.word	1
 1533 00f4 0000      		.word	0
 1534 00f6 0100      		.word	1
 1535 00f8 0000      		.word	0
 1536 00fa 2804      		.word	1064
 1537 00fc B200      		.word	178
 1538 00fe 0230      		.word	12290
 1539 0100 0000      		.word	0
 1540 0102 2D00      		.word	45
 1541 0104 0000      		.word	0
 1542 0106 5001      		.word	336
 1543 0108 0100      		.word	1
 1544 010a 2400      		.word	36
 1545 010c 2100      		.word	33
 1546 010e 1E00      		.word	30
 1547 0110 0000      		.word	0
 1548 0112 4F01      		.word	335
 1549 0114 0100      		.word	1
 1550 0116 2500      		.word	37
 1551 0118 2200      		.word	34
 1552 011a 1F00      		.word	31
 1553 011c 2700      		.word	39
 1554 011e 4B00      		.word	75
 1555 0120 0100      		.word	1
 1556 0122 2600      		.word	38
 1557 0124 2300      		.word	35
 1558 0126 2000      		.word	32
 1559 0128 3700      		.word	55
 1560 012a 2800      		.word	40
 1561 012c 0100      		.word	1
 1562 012e 2E02      		.word	558
 1563 0130 2502      		.word	549
 1564 0132 3600      		.word	54
 1565 0134 5000      		.word	80
 1566 0136 4C00      		.word	76
 1567 0138 0100      		.word	1
 1568 013a 2D00      		.word	45
 1569 013c 3800      		.word	56
 1570 013e 5200      		.word	82
 1571 0140 5100      		.word	81
 1572 0142 4E00      		.word	78
 1573 0144 4600      		.word	70
 1574 0146 B300      		.word	179
 1575 0148 0100      		.word	1
 1576 014a 0100      		.word	1
 1577 014c 4F00      		.word	79
 1578 014e 0000      		.word	0
 1579 0150 0130      		.word	12289
 1580 0152 0100      		.word	1
 1581 0154 0100      		.word	1
 1582 0156 0100      		.word	1
 1583 0158 0100      		.word	1
 1584 015a 0000      		.word	0
 1585 015c 1E00      		.word	30
 1586 015e 2300      		.word	35
 1587 0160 0100      		.word	1
 1588 0162 0100      		.word	1
 1589 0164 0100      		.word	1
 1590 0166 4E00      		.word	78
 1591 0168 1F00      		.word	31
 1592 016a 2400      		.word	36
 1593 016c 0100      		.word	1
 1594 016e 0100      		.word	1
 1595 0170 0100      		.word	1
 1596 0172 2A00      		.word	42
 1597 0174 2000      		.word	32
 1598 0176 2500      		.word	37
 1599 0178 0100      		.word	1
 1600 017a 0100      		.word	1
 1601 017c 0100      		.word	1
 1602 017e 2C00      		.word	44
 1603 0180 2100      		.word	33
 1604 0182 2600      		.word	38
 1605 0184 0100      		.word	1
 1606 0186 0100      		.word	1
 1607 0188 0100      		.word	1
 1608 018a 4B00      		.word	75
 1609 018c 2200      		.word	34
 1610 018e 2700      		.word	39
 1611 0190 0100      		.word	1
 1612 0192 0100      		.word	1
 1613 0194 0000      		.word	0
 1614 0196 0100      		.word	1
 1615 0198 0100      		.word	1
 1616 019a 0100      		.word	1
 1617 019c 0000      		.word	0
 1618 019e 0100      		.word	1
 1619 01a0 0000      		.word	0
 1620 01a2 2804      		.word	1064
 1621 01a4 B200      		.word	178
 1622 01a6 2E02      		.word	558
 1623 01a8 0000      		.word	0
 1624 01aa 2D00      		.word	45
 1625 01ac 0000      		.word	0
 1626 01ae 5000      		.word	80
 1627 01b0 0100      		.word	1
 1628 01b2 2400      		.word	36
 1629 01b4 2100      		.word	33
 1630 01b6 1E00      		.word	30
 1631 01b8 0000      		.word	0
 1632 01ba 4F00      		.word	79
 1633 01bc 0100      		.word	1
 1634 01be 2500      		.word	37
 1635 01c0 2200      		.word	34
 1636 01c2 1F00      		.word	31
 1637 01c4 2700      		.word	39
 1638 01c6 5200      		.word	82
 1639 01c8 0100      		.word	1
 1640 01ca 2600      		.word	38
 1641 01cc 2300      		.word	35
 1642 01ce 2000      		.word	32
 1643 01d0 3700      		.word	55
 1644 01d2 2800      		.word	40
 1645 01d4 0100      		.word	1
 1646 01d6 2E02      		.word	558
 1647 01d8 2502      		.word	549
 1648 01da 3600      		.word	54
 1649 01dc 5000      		.word	80
 1650 01de 4C00      		.word	76
 1651 01e0 0100      		.word	1
 1652 01e2 2D00      		.word	45
 1653 01e4 3800      		.word	56
 1654 01e6 5200      		.word	82
 1655 01e8 5100      		.word	81
 1656 01ea 5100      		.word	81
 1657 01ec 4600      		.word	70
 1658 01ee B300      		.word	179
 1659 01f0 0100      		.word	1
 1660 01f2 0100      		.word	1
 1661 01f4 4F00      		.word	79
 1662 01f6 0000      		.word	0
 1663 01f8 0030      		.word	12288
 1664 01fa 0100      		.word	1
 1665 01fc 0100      		.word	1
 1666 01fe 0100      		.word	1
 1667 0200 0100      		.word	1
 1668 0202 0000      		.word	0
 1669 0204 3A00      		.word	58
 1670 0206 3F00      		.word	63
 1671 0208 4400      		.word	68
 1672 020a 0100      		.word	1
 1673 020c 0100      		.word	1
 1674 020e 4D00      		.word	77
 1675 0210 3B00      		.word	59
 1676 0212 4000      		.word	64
 1677 0214 4500      		.word	69
 1678 0216 0100      		.word	1
 1679 0218 0100      		.word	1
 1680 021a 2864      		.word	25640
 1681 021c 3C00      		.word	60
 1682 021e 4100      		.word	65
 1683 0220 6800      		.word	104
 1684 0222 0100      		.word	1
 1685 0224 0100      		.word	1
 1686 0226 2861      		.word	24872
 1687 0228 3D00      		.word	61
 1688 022a 4200      		.word	66
 1689 022c 6900      		.word	105
 1690 022e 0100      		.word	1
 1691 0230 0100      		.word	1
 1692 0232 4A00      		.word	74
 1693 0234 3E00      		.word	62
 1694 0236 4300      		.word	67
 1695 0238 6A00      		.word	106
 1696 023a 0100      		.word	1
 1697 023c 0000      		.word	0
 1698 023e 0100      		.word	1
 1699 0240 0100      		.word	1
 1700 0242 0100      		.word	1
 1701 0244 0000      		.word	0
 1702 0246 0100      		.word	1
 1703 0248 0000      		.word	0
 1704 024a 0100      		.word	1
 1705 024c 0100      		.word	1
 1706 024e 0100      		.word	1
 1707 0250 0000      		.word	0
 1708 0252 0100      		.word	1
 1709 0254 0000      		.word	0
 1710 0256 5000      		.word	80
 1711 0258 0100      		.word	1
 1712 025a 0100      		.word	1
 1713 025c 0100      		.word	1
 1714 025e 0100      		.word	1
 1715 0260 0000      		.word	0
 1716 0262 4F00      		.word	79
 1717 0264 0100      		.word	1
 1718 0266 0100      		.word	1
 1719 0268 0100      		.word	1
 1720 026a 0100      		.word	1
 1721 026c 0100      		.word	1
 1722 026e 5200      		.word	82
 1723 0270 4800      		.word	72
 1724 0272 0100      		.word	1
 1725 0274 0100      		.word	1
 1726 0276 0100      		.word	1
 1727 0278 0100      		.word	1
 1728 027a 2800      		.word	40
 1729 027c 0100      		.word	1
 1730 027e 0100      		.word	1
 1731 0280 0100      		.word	1
 1732 0282 0100      		.word	1
 1733 0284 3600      		.word	54
 1734 0286 4C00      		.word	76
 1735 0288 0100      		.word	1
 1736 028a 0100      		.word	1
 1737 028c 0100      		.word	1
 1738 028e 0100      		.word	1
 1739 0290 0100      		.word	1
 1740 0292 5100      		.word	81
 1741 0294 0100      		.word	1
 1742 0296 0100      		.word	1
 1743 0298 0100      		.word	1
 1744 029a 0100      		.word	1
 1745 029c 0100      		.word	1
 1746 029e 0000      		.word	0
 1747 02a0 2900      		.word	41
 1748 02a2 2B00      		.word	43
 1749 02a4 3500      		.word	53
 1750 02a6 E100      		.word	225
 1751 02a8 E061      		.word	25056
 1752 02aa 0000      		.word	0
 1753 02ac 1E00      		.word	30
 1754 02ae 1400      		.word	20
 1755 02b0 0400      		.word	4
 1756 02b2 1D00      		.word	29
 1757 02b4 0100      		.word	1
 1758 02b6 4D00      		.word	77
 1759 02b8 1F00      		.word	31
 1760 02ba 1A00      		.word	26
 1761 02bc 1600      		.word	22
 1762 02be 1B00      		.word	27
 1763 02c0 E300      		.word	227
 1764 02c2 2A00      		.word	42
 1765 02c4 2000      		.word	32
 1766 02c6 0800      		.word	8
 1767 02c8 0700      		.word	7
 1768 02ca 0600      		.word	6
 1769 02cc 6500      		.word	101
 1770 02ce 2C00      		.word	44
 1771 02d0 2100      		.word	33
 1772 02d2 1500      		.word	21
 1773 02d4 0900      		.word	9
 1774 02d6 1900      		.word	25
 1775 02d8 E264      		.word	25826
 1776 02da 4A00      		.word	74
 1777 02dc 2200      		.word	34
 1778 02de 1700      		.word	23
 1779 02e0 0A00      		.word	10
 1780 02e2 0500      		.word	5
 1781 02e4 0000      		.word	0
 1782 02e6 C300      		.word	195
 1783 02e8 2802      		.word	552
 1784 02ea 0071      		.word	28928
 1785 02ec 0000      		.word	0
 1786 02ee C100      		.word	193
 1787 02f0 0000      		.word	0
 1788 02f2 2801      		.word	296
 1789 02f4 2300      		.word	35
 1790 02f6 0100      		.word	1
 1791 02f8 0000      		.word	0
 1792 02fa 0100      		.word	1
 1793 02fc 0000      		.word	0
 1794 02fe 5000      		.word	80
 1795 0300 2400      		.word	36
 1796 0302 1C00      		.word	28
 1797 0304 0B00      		.word	11
 1798 0306 1100      		.word	17
 1799 0308 0000      		.word	0
 1800 030a 4F00      		.word	79
 1801 030c 2500      		.word	37
 1802 030e 1800      		.word	24
 1803 0310 0D00      		.word	13
 1804 0312 1000      		.word	16
 1805 0314 E600      		.word	230
 1806 0316 5200      		.word	82
 1807 0318 2600      		.word	38
 1808 031a 0C00      		.word	12
 1809 031c 0E00      		.word	14
 1810 031e 3600      		.word	54
 1811 0320 E700      		.word	231
 1812 0322 2800      		.word	40
 1813 0324 2700      		.word	39
 1814 0326 1200      		.word	18
 1815 0328 0F00      		.word	15
 1816 032a 3700      		.word	55
 1817 032c 2F00      		.word	47
 1818 032e 4C00      		.word	76
 1819 0330 2D00      		.word	45
 1820 0332 1300      		.word	19
 1821 0334 3300      		.word	51
 1822 0336 3800      		.word	56
 1823 0338 3000      		.word	48
 1824 033a 5100      		.word	81
 1825 033c 2E02      		.word	558
 1826 033e 3100      		.word	49
 1827 0340 0D71      		.word	28941
 1828 0342 E500      		.word	229
 1829 0344 1030      		.word	12304
 1830 0346 0000      		.word	0
 1831 0348 0071      		.word	28928
 1832 034a 2B00      		.word	43
 1833 034c 3500      		.word	53
 1834 034e 3962      		.word	25145
 1835 0350 E061      		.word	25056
 1836 0352 0000      		.word	0
 1837 0354 1E00      		.word	30
 1838 0356 1400      		.word	20
 1839 0358 0400      		.word	4
 1840 035a 1D00      		.word	29
 1841 035c C200      		.word	194
 1842 035e 4D00      		.word	77
 1843 0360 1F00      		.word	31
 1844 0362 1A00      		.word	26
 1845 0364 1600      		.word	22
 1846 0366 1B00      		.word	27
 1847 0368 E300      		.word	227
 1848 036a 2A00      		.word	42
 1849 036c 2000      		.word	32
 1850 036e 0800      		.word	8
 1851 0370 0700      		.word	7
 1852 0372 0600      		.word	6
 1853 0374 6500      		.word	101
 1854 0376 2C00      		.word	44
 1855 0378 2100      		.word	33
 1856 037a 1500      		.word	21
 1857 037c 0900      		.word	9
 1858 037e 1900      		.word	25
 1859 0380 E264      		.word	25826
 1860 0382 4A00      		.word	74
 1861 0384 2200      		.word	34
 1862 0386 1700      		.word	23
 1863 0388 0A00      		.word	10
 1864 038a 0500      		.word	5
 1865 038c 0000      		.word	0
 1866 038e 4B00      		.word	75
 1867 0390 3E01      		.word	318
 1868 0392 0230      		.word	12290
 1869 0394 0000      		.word	0
 1870 0396 C100      		.word	193
 1871 0398 0000      		.word	0
 1872 039a 4E00      		.word	78
 1873 039c 2300      		.word	35
 1874 039e 2801      		.word	296
 1875 03a0 0000      		.word	0
 1876 03a2 3E01      		.word	318
 1877 03a4 0000      		.word	0
 1878 03a6 5000      		.word	80
 1879 03a8 2400      		.word	36
 1880 03aa 1C00      		.word	28
 1881 03ac 0B00      		.word	11
 1882 03ae 1100      		.word	17
 1883 03b0 0000      		.word	0
 1884 03b2 4F00      		.word	79
 1885 03b4 2500      		.word	37
 1886 03b6 1800      		.word	24
 1887 03b8 0D00      		.word	13
 1888 03ba 1000      		.word	16
 1889 03bc E600      		.word	230
 1890 03be 5200      		.word	82
 1891 03c0 2600      		.word	38
 1892 03c2 0C00      		.word	12
 1893 03c4 0E00      		.word	14
 1894 03c6 3600      		.word	54
 1895 03c8 E400      		.word	228
 1896 03ca 2800      		.word	40
 1897 03cc 2700      		.word	39
 1898 03ce 1200      		.word	18
 1899 03d0 0F00      		.word	15
 1900 03d2 3700      		.word	55
 1901 03d4 2F00      		.word	47
 1902 03d6 4C00      		.word	76
 1903 03d8 2D00      		.word	45
 1904 03da 1300      		.word	19
 1905 03dc 3300      		.word	51
 1906 03de 3800      		.word	56
 1907 03e0 3000      		.word	48
 1908 03e2 5100      		.word	81
 1909 03e4 2E02      		.word	558
 1910 03e6 3100      		.word	49
 1911 03e8 3400      		.word	52
 1912 03ea E500      		.word	229
 1913 03ec 1030      		.word	12304
 1914 03ee 0000      		.word	0
 1915 03f0 2900      		.word	41
 1916 03f2 2B00      		.word	43
 1917 03f4 3500      		.word	53
 1918 03f6 E100      		.word	225
 1919 03f8 E000      		.word	224
 1920 03fa 0000      		.word	0
 1921 03fc 1E00      		.word	30
 1922 03fe 1400      		.word	20
 1923 0400 0400      		.word	4
 1924 0402 1D00      		.word	29
 1925 0404 E201      		.word	482
 1926 0406 4E00      		.word	78
 1927 0408 1F00      		.word	31
 1928 040a 1A00      		.word	26
 1929 040c 1600      		.word	22
 1930 040e 1B00      		.word	27
 1931 0410 E300      		.word	227
 1932 0412 4C00      		.word	76
 1933 0414 2000      		.word	32
 1934 0416 0800      		.word	8
 1935 0418 0700      		.word	7
 1936 041a 0600      		.word	6
 1937 041c 6500      		.word	101
 1938 041e 2C00      		.word	44
 1939 0420 2100      		.word	33
 1940 0422 1500      		.word	21
 1941 0424 0900      		.word	9
 1942 0426 1900      		.word	25
 1943 0428 E200      		.word	226
 1944 042a 4B00      		.word	75
 1945 042c 2200      		.word	34
 1946 042e 1700      		.word	23
 1947 0430 0A00      		.word	10
 1948 0432 0500      		.word	5
 1949 0434 0000      		.word	0
 1950 0436 4A00      		.word	74
 1951 0438 0653      		.word	21254
 1952 043a 2E00      		.word	46
 1953 043c 0000      		.word	0
 1954 043e 0153      		.word	21249
 1955 0440 0000      		.word	0
 1956 0442 4D00      		.word	77
 1957 0444 2300      		.word	35
 1958 0446 0230      		.word	12290
 1959 0448 0000      		.word	0
 1960 044a 3E01      		.word	318
 1961 044c 0000      		.word	0
 1962 044e 4A00      		.word	74
 1963 0450 2400      		.word	36
 1964 0452 1C00      		.word	28
 1965 0454 0B00      		.word	11
 1966 0456 1100      		.word	17
 1967 0458 0000      		.word	0
 1968 045a 4D00      		.word	77
 1969 045c 2500      		.word	37
 1970 045e 1800      		.word	24
 1971 0460 0D00      		.word	13
 1972 0462 1000      		.word	16
 1973 0464 E600      		.word	230
 1974 0466 4B00      		.word	75
 1975 0468 2600      		.word	38
 1976 046a 0C00      		.word	12
 1977 046c 0E00      		.word	14
 1978 046e 3600      		.word	54
 1979 0470 2C02      		.word	556
 1980 0472 2800      		.word	40
 1981 0474 2700      		.word	39
 1982 0476 1200      		.word	18
 1983 0478 0F00      		.word	15
 1984 047a 3700      		.word	55
 1985 047c 2F00      		.word	47
 1986 047e 4C00      		.word	76
 1987 0480 2D00      		.word	45
 1988 0482 1300      		.word	19
 1989 0484 3300      		.word	51
 1990 0486 3800      		.word	56
 1991 0488 3000      		.word	48
 1992 048a 4E00      		.word	78
 1993 048c 2E02      		.word	558
 1994 048e 3100      		.word	49
 1995 0490 3400      		.word	52
 1996 0492 0157      		.word	22273
 1997 0494 C100      		.word	193
 1998 0496 0000      		.word	0
 1999 0498 2900      		.word	41
 2000 049a 2B00      		.word	43
 2001 049c 3500      		.word	53
 2002 049e E100      		.word	225
 2003 04a0 E000      		.word	224
 2004 04a2 0000      		.word	0
 2005 04a4 1E00      		.word	30
 2006 04a6 1400      		.word	20
 2007 04a8 0400      		.word	4
 2008 04aa 1D00      		.word	29
 2009 04ac E201      		.word	482
 2010 04ae 4E00      		.word	78
 2011 04b0 1F00      		.word	31
 2012 04b2 1A00      		.word	26
 2013 04b4 1600      		.word	22
 2014 04b6 1B00      		.word	27
 2015 04b8 E300      		.word	227
 2016 04ba 2A00      		.word	42
 2017 04bc 2000      		.word	32
 2018 04be 0800      		.word	8
 2019 04c0 0700      		.word	7
 2020 04c2 0600      		.word	6
 2021 04c4 6500      		.word	101
 2022 04c6 2C00      		.word	44
 2023 04c8 2100      		.word	33
 2024 04ca 1500      		.word	21
 2025 04cc 0900      		.word	9
 2026 04ce 1900      		.word	25
 2027 04d0 E200      		.word	226
 2028 04d2 4B00      		.word	75
 2029 04d4 2200      		.word	34
 2030 04d6 1700      		.word	23
 2031 04d8 0A00      		.word	10
 2032 04da 0500      		.word	5
 2033 04dc 0000      		.word	0
 2034 04de 4A00      		.word	74
 2035 04e0 0653      		.word	21254
 2036 04e2 2E00      		.word	46
 2037 04e4 0000      		.word	0
 2038 04e6 0153      		.word	21249
 2039 04e8 0000      		.word	0
 2040 04ea 4D00      		.word	77
 2041 04ec 2300      		.word	35
 2042 04ee 0230      		.word	12290
 2043 04f0 0000      		.word	0
 2044 04f2 3E01      		.word	318
 2045 04f4 0000      		.word	0
 2046 04f6 5000      		.word	80
 2047 04f8 2400      		.word	36
 2048 04fa 1C00      		.word	28
 2049 04fc 0B00      		.word	11
 2050 04fe 1100      		.word	17
 2051 0500 0000      		.word	0
 2052 0502 4F00      		.word	79
 2053 0504 2500      		.word	37
 2054 0506 1800      		.word	24
 2055 0508 0D00      		.word	13
 2056 050a 1000      		.word	16
 2057 050c E600      		.word	230
 2058 050e 5200      		.word	82
 2059 0510 2600      		.word	38
 2060 0512 0C00      		.word	12
 2061 0514 0E00      		.word	14
 2062 0516 3600      		.word	54
 2063 0518 2C02      		.word	556
 2064 051a 2800      		.word	40
 2065 051c 2700      		.word	39
 2066 051e 1200      		.word	18
 2067 0520 0F00      		.word	15
 2068 0522 3700      		.word	55
 2069 0524 2F00      		.word	47
 2070 0526 4C00      		.word	76
 2071 0528 2D00      		.word	45
 2072 052a 1300      		.word	19
 2073 052c 3300      		.word	51
 2074 052e 3800      		.word	56
 2075 0530 3000      		.word	48
 2076 0532 5100      		.word	81
 2077 0534 2E02      		.word	558
 2078 0536 3100      		.word	49
 2079 0538 3400      		.word	52
 2080 053a E500      		.word	229
 2081 053c C100      		.word	193
 2082 053e 0000      		.word	0
 2083               	.global	tap_dance_actions
 2084               		.section	.data.tap_dance_actions,"aw",@progbits
 2087               	tap_dance_actions:
 2088 0000 0000      		.word	0
 2089 0002 0000      		.word	gs(dance_press_equal)
 2090 0004 0000      		.word	gs(dance_press_rassign)
 2091 0006 0000 0000 		.zero	8
 2091      0000 0000 
 2092 000e 0000      		.word	0
 2093 0010 0000      		.word	0
 2094 0012 0000      		.word	gs(qk_tap_dance_pair_finished)
 2095 0014 0000      		.word	gs(qk_tap_dance_pair_reset)
 2096 0016 0000 0000 		.zero	8
 2096      0000 0000 
 2097 001e 0000      		.word	__compound_literal.0
 2098 0020 0000      		.word	0
 2099 0022 0000      		.word	gs(qk_tap_dance_pair_finished)
 2100 0024 0000      		.word	gs(qk_tap_dance_pair_reset)
 2101 0026 0000 0000 		.zero	8
 2101      0000 0000 
 2102 002e 0000      		.word	__compound_literal.1
 2103 0030 0000      		.word	0
 2104 0032 0000      		.word	gs(qk_tap_dance_pair_finished)
 2105 0034 0000      		.word	gs(qk_tap_dance_pair_reset)
 2106 0036 0000 0000 		.zero	8
 2106      0000 0000 
 2107 003e 0000      		.word	__compound_literal.2
 2108 0040 0000      		.word	0
 2109 0042 0000      		.word	gs(qk_tap_dance_pair_finished)
 2110 0044 0000      		.word	gs(qk_tap_dance_pair_reset)
 2111 0046 0000 0000 		.zero	8
 2111      0000 0000 
 2112 004e 0000      		.word	__compound_literal.3
 2113 0050 0000      		.word	0
 2114 0052 0000      		.word	gs(qk_tap_dance_pair_finished)
 2115 0054 0000      		.word	gs(qk_tap_dance_pair_reset)
 2116 0056 0000 0000 		.zero	8
 2116      0000 0000 
 2117 005e 0000      		.word	__compound_literal.4
 2118 0060 0000      		.word	0
 2119 0062 0000      		.word	gs(qk_tap_dance_pair_finished)
 2120 0064 0000      		.word	gs(qk_tap_dance_pair_reset)
 2121 0066 0000 0000 		.zero	8
 2121      0000 0000 
 2122 006e 0000      		.word	__compound_literal.5
 2123 0070 0000      		.word	0
 2124 0072 0000      		.word	gs(qk_tap_dance_pair_finished)
 2125 0074 0000      		.word	gs(qk_tap_dance_pair_reset)
 2126 0076 0000 0000 		.zero	8
 2126      0000 0000 
 2127 007e 0000      		.word	__compound_literal.6
 2128 0080 0000      		.word	0
 2129 0082 0000      		.word	gs(qk_tap_dance_pair_finished)
 2130 0084 0000      		.word	gs(qk_tap_dance_pair_reset)
 2131 0086 0000 0000 		.zero	8
 2131      0000 0000 
 2132 008e 0000      		.word	__compound_literal.7
 2133 0090 0000      		.word	0
 2134 0092 0000      		.word	gs(qk_tap_dance_pair_finished)
 2135 0094 0000      		.word	gs(qk_tap_dance_pair_reset)
 2136 0096 0000 0000 		.zero	8
 2136      0000 0000 
 2137 009e 0000      		.word	__compound_literal.8
 2138 00a0 0000      		.word	0
 2139 00a2 0000      		.word	gs(qk_tap_dance_pair_finished)
 2140 00a4 0000      		.word	gs(qk_tap_dance_pair_reset)
 2141 00a6 0000 0000 		.zero	8
 2141      0000 0000 
 2142 00ae 0000      		.word	__compound_literal.9
 2143 00b0 0000      		.word	0
 2144 00b2 0000      		.word	gs(qk_tap_dance_pair_finished)
 2145 00b4 0000      		.word	gs(qk_tap_dance_pair_reset)
 2146 00b6 0000 0000 		.zero	8
 2146      0000 0000 
 2147 00be 0000      		.word	__compound_literal.10
 2148 00c0 0000      		.word	0
 2149 00c2 0000      		.word	gs(qk_tap_dance_pair_finished)
 2150 00c4 0000      		.word	gs(qk_tap_dance_pair_reset)
 2151 00c6 0000 0000 		.zero	8
 2151      0000 0000 
 2152 00ce 0000      		.word	__compound_literal.11
 2153 00d0 0000      		.word	0
 2154 00d2 0000      		.word	gs(qk_tap_dance_pair_finished)
 2155 00d4 0000      		.word	gs(qk_tap_dance_pair_reset)
 2156 00d6 0000 0000 		.zero	8
 2156      0000 0000 
 2157 00de 0000      		.word	__compound_literal.12
 2158 00e0 0000      		.word	0
 2159 00e2 0000      		.word	gs(qk_tap_dance_pair_finished)
 2160 00e4 0000      		.word	gs(qk_tap_dance_pair_reset)
 2161 00e6 0000 0000 		.zero	8
 2161      0000 0000 
 2162 00ee 0000      		.word	__compound_literal.13
 2163 00f0 0000      		.word	0
 2164 00f2 0000      		.word	gs(qk_tap_dance_pair_finished)
 2165 00f4 0000      		.word	gs(qk_tap_dance_pair_reset)
 2166 00f6 0000 0000 		.zero	8
 2166      0000 0000 
 2167 00fe 0000      		.word	__compound_literal.14
 2168 0100 0000      		.word	0
 2169 0102 0000      		.word	gs(qk_tap_dance_pair_finished)
 2170 0104 0000      		.word	gs(qk_tap_dance_pair_reset)
 2171 0106 0000 0000 		.zero	8
 2171      0000 0000 
 2172 010e 0000      		.word	__compound_literal.15
 2173 0110 0000      		.word	0
 2174 0112 0000      		.word	gs(qk_tap_dance_pair_finished)
 2175 0114 0000      		.word	gs(qk_tap_dance_pair_reset)
 2176 0116 0000 0000 		.zero	8
 2176      0000 0000 
 2177 011e 0000      		.word	__compound_literal.16
 2178 0120 0000      		.word	0
 2179 0122 0000      		.word	gs(qk_tap_dance_pair_finished)
 2180 0124 0000      		.word	gs(qk_tap_dance_pair_reset)
 2181 0126 0000 0000 		.zero	8
 2181      0000 0000 
 2182 012e 0000      		.word	__compound_literal.17
 2183 0130 0000      		.word	0
 2184 0132 0000      		.word	gs(qk_tap_dance_pair_finished)
 2185 0134 0000      		.word	gs(qk_tap_dance_pair_reset)
 2186 0136 0000 0000 		.zero	8
 2186      0000 0000 
 2187 013e 0000      		.word	__compound_literal.18
 2188 0140 0000      		.word	0
 2189 0142 0000      		.word	gs(qk_tap_dance_pair_finished)
 2190 0144 0000      		.word	gs(qk_tap_dance_pair_reset)
 2191 0146 0000 0000 		.zero	8
 2191      0000 0000 
 2192 014e 0000      		.word	__compound_literal.19
 2193               		.section	.data.__compound_literal.19,"aw",@progbits
 2196               	__compound_literal.19:
 2197 0000 0F00      		.word	15
 2198 0002 1030      		.word	12304
 2199               		.section	.data.__compound_literal.18,"aw",@progbits
 2202               	__compound_literal.18:
 2203 0000 0E00      		.word	14
 2204 0002 0F30      		.word	12303
 2205               		.section	.data.__compound_literal.17,"aw",@progbits
 2208               	__compound_literal.17:
 2209 0000 0D00      		.word	13
 2210 0002 0E30      		.word	12302
 2211               		.section	.data.__compound_literal.16,"aw",@progbits
 2214               	__compound_literal.16:
 2215 0000 4D00      		.word	77
 2216 0002 4D02      		.word	589
 2217               		.section	.data.__compound_literal.15,"aw",@progbits
 2220               	__compound_literal.15:
 2221 0000 4A00      		.word	74
 2222 0002 4A02      		.word	586
 2223               		.section	.data.__compound_literal.14,"aw",@progbits
 2226               	__compound_literal.14:
 2227 0000 4E00      		.word	78
 2228 0002 4F04      		.word	1103
 2229               		.section	.data.__compound_literal.13,"aw",@progbits
 2232               	__compound_literal.13:
 2233 0000 4B00      		.word	75
 2234 0002 5004      		.word	1104
 2235               		.section	.data.__compound_literal.12,"aw",@progbits
 2238               	__compound_literal.12:
 2239 0000 3400      		.word	52
 2240 0002 3402      		.word	564
 2241               		.section	.data.__compound_literal.11,"aw",@progbits
 2244               	__compound_literal.11:
 2245 0000 2E02      		.word	558
 2246 0002 4500      		.word	69
 2247               		.section	.data.__compound_literal.10,"aw",@progbits
 2250               	__compound_literal.10:
 2251 0000 2D00      		.word	45
 2252 0002 4400      		.word	68
 2253               		.section	.data.__compound_literal.9,"aw",@progbits
 2256               	__compound_literal.9:
 2257 0000 2700      		.word	39
 2258 0002 4300      		.word	67
 2259               		.section	.data.__compound_literal.8,"aw",@progbits
 2262               	__compound_literal.8:
 2263 0000 2600      		.word	38
 2264 0002 4200      		.word	66
 2265               		.section	.data.__compound_literal.7,"aw",@progbits
 2268               	__compound_literal.7:
 2269 0000 2500      		.word	37
 2270 0002 4100      		.word	65
 2271               		.section	.data.__compound_literal.6,"aw",@progbits
 2274               	__compound_literal.6:
 2275 0000 2400      		.word	36
 2276 0002 4000      		.word	64
 2277               		.section	.data.__compound_literal.5,"aw",@progbits
 2280               	__compound_literal.5:
 2281 0000 2300      		.word	35
 2282 0002 3F00      		.word	63
 2283               		.section	.data.__compound_literal.4,"aw",@progbits
 2286               	__compound_literal.4:
 2287 0000 2200      		.word	34
 2288 0002 3E00      		.word	62
 2289               		.section	.data.__compound_literal.3,"aw",@progbits
 2292               	__compound_literal.3:
 2293 0000 2100      		.word	33
 2294 0002 3D00      		.word	61
 2295               		.section	.data.__compound_literal.2,"aw",@progbits
 2298               	__compound_literal.2:
 2299 0000 2000      		.word	32
 2300 0002 3C00      		.word	60
 2301               		.section	.data.__compound_literal.1,"aw",@progbits
 2304               	__compound_literal.1:
 2305 0000 1F00      		.word	31
 2306 0002 3B00      		.word	59
 2307               		.section	.data.__compound_literal.0,"aw",@progbits
 2310               	__compound_literal.0:
 2311 0000 1E00      		.word	30
 2312 0002 3A00      		.word	58
 2313               	.global	fn_actions
 2314               		.section	.progmem.data.fn_actions,"a",@progbits
 2317               	fn_actions:
 2318 0000 0000      		.zero	2
 2319 0002 F0A1      		.word	-24080
 2320 0004 F0A2      		.word	-23824
 2321 0006 F0A3      		.word	-23568
 2322 0008 F0A4      		.word	-23312
 2323 000a F0A5      		.word	-23056
 2324 000c F0A6      		.word	-22800
 2325               		.text
 2326               	.Letext0:
 2327               		.file 2 "/usr/local/Cellar/avr-gcc/8.1.0/avr/include/stdint.h"
 2328               		.file 3 "/usr/local/Cellar/avr-gcc/8.1.0/lib/avr-gcc/8/gcc/avr/8.1.0/include/stddef.h"
 2329               		.file 4 "./tmk_core/common/keyboard.h"
 2330               		.file 5 "./tmk_core/common/keycode.h"
 2331               		.file 6 "./tmk_core/common/action_code.h"
 2332               		.file 7 "./tmk_core/common/action_macro.h"
 2333               		.file 8 "./tmk_core/common/action.h"
 2334               		.file 9 "./tmk_core/protocol/lufa/LUFA-git/LUFA/Drivers/USB/Core/AVR8/../StdRequestType.h"
 2335               		.file 10 "./tmk_core/protocol/lufa/LUFA-git/LUFA/Drivers/USB/Core/AVR8/../DeviceStandardReq.h"
 2336               		.file 11 "./tmk_core/protocol/lufa/LUFA-git/LUFA/Drivers/USB/Core/USBTask.h"
 2337               		.file 12 "./tmk_core/protocol/lufa/LUFA-git/LUFA/Drivers/USB/Core/HostStandardReq.h"
 2338               		.file 13 "/usr/local/Cellar/avr-gcc/8.1.0/avr/include/stdio.h"
 2339               		.file 14 "./tmk_core/common/report.h"
 2340               		.file 15 "./tmk_core/common/host.h"
 2341               		.file 16 "./tmk_core/common/debug.h"
 2342               		.file 17 "./quantum/keycode_config.h"
 2343               		.file 18 "./quantum/keymap.h"
 2344               		.file 19 "./tmk_core/common/action_layer.h"
 2345               		.file 20 "./tmk_core/common/timer.h"
 2346               		.file 21 "./tmk_core/common/action_util.h"
 2347               		.file 22 "/usr/local/Cellar/avr-gcc/8.1.0/avr/include/stdlib.h"
 2348               		.file 23 "./quantum/process_keycode/process_tap_dance.h"
 2349               		.file 24 "keyboards/ergodox/ez/ez.h"
 2350               		.file 25 "./tmk_core/common/util.h"
 2351               		.file 26 "/usr/local/Cellar/avr-gcc/8.1.0/avr/include/string.h"
 2352               		.file 27 "./quantum/quantum.h"
DEFINED SYMBOLS
                            *ABS*:0000000000000000 keymap.c
/var/folders/_c/44sm70yj4mq2k0mvzts6tsbc0000gn/T//ccEnZE4n.s:2      *ABS*:000000000000003e __SP_H__
/var/folders/_c/44sm70yj4mq2k0mvzts6tsbc0000gn/T//ccEnZE4n.s:3      *ABS*:000000000000003d __SP_L__
/var/folders/_c/44sm70yj4mq2k0mvzts6tsbc0000gn/T//ccEnZE4n.s:4      *ABS*:000000000000003f __SREG__
/var/folders/_c/44sm70yj4mq2k0mvzts6tsbc0000gn/T//ccEnZE4n.s:5      *ABS*:0000000000000000 __tmp_reg__
/var/folders/_c/44sm70yj4mq2k0mvzts6tsbc0000gn/T//ccEnZE4n.s:6      *ABS*:0000000000000001 __zero_reg__
/var/folders/_c/44sm70yj4mq2k0mvzts6tsbc0000gn/T//ccEnZE4n.s:13     .text.dance_press_equal:0000000000000000 dance_press_equal
/var/folders/_c/44sm70yj4mq2k0mvzts6tsbc0000gn/T//ccEnZE4n.s:50     .text.dance_press_rassign:0000000000000000 dance_press_rassign
/var/folders/_c/44sm70yj4mq2k0mvzts6tsbc0000gn/T//ccEnZE4n.s:102    .text.action_get_macro:0000000000000000 action_get_macro
/var/folders/_c/44sm70yj4mq2k0mvzts6tsbc0000gn/T//ccEnZE4n.s:1386   .progmem.data.__c.5362:0000000000000000 __c.5362
/var/folders/_c/44sm70yj4mq2k0mvzts6tsbc0000gn/T//ccEnZE4n.s:1381   .progmem.data.__c.5366:0000000000000000 __c.5366
/var/folders/_c/44sm70yj4mq2k0mvzts6tsbc0000gn/T//ccEnZE4n.s:1364   .progmem.data.__m.5369:0000000000000000 __m.5369
/var/folders/_c/44sm70yj4mq2k0mvzts6tsbc0000gn/T//ccEnZE4n.s:1359   .progmem.data.__c.5372:0000000000000000 __c.5372
/var/folders/_c/44sm70yj4mq2k0mvzts6tsbc0000gn/T//ccEnZE4n.s:1334   .progmem.data.__m.5375:0000000000000000 __m.5375
/var/folders/_c/44sm70yj4mq2k0mvzts6tsbc0000gn/T//ccEnZE4n.s:1277   .progmem.data.__m.5378:0000000000000000 __m.5378
/var/folders/_c/44sm70yj4mq2k0mvzts6tsbc0000gn/T//ccEnZE4n.s:1272   .progmem.data.__c.5381:0000000000000000 __c.5381
/var/folders/_c/44sm70yj4mq2k0mvzts6tsbc0000gn/T//ccEnZE4n.s:1267   .progmem.data.__c.5384:0000000000000000 __c.5384
/var/folders/_c/44sm70yj4mq2k0mvzts6tsbc0000gn/T//ccEnZE4n.s:1260   .progmem.data.__c.5387:0000000000000000 __c.5387
/var/folders/_c/44sm70yj4mq2k0mvzts6tsbc0000gn/T//ccEnZE4n.s:1255   .progmem.data.__c.5390:0000000000000000 __c.5390
/var/folders/_c/44sm70yj4mq2k0mvzts6tsbc0000gn/T//ccEnZE4n.s:1250   .progmem.data.__c.5393:0000000000000000 __c.5393
/var/folders/_c/44sm70yj4mq2k0mvzts6tsbc0000gn/T//ccEnZE4n.s:1245   .progmem.data.__c.5396:0000000000000000 __c.5396
/var/folders/_c/44sm70yj4mq2k0mvzts6tsbc0000gn/T//ccEnZE4n.s:1240   .progmem.data.__c.5399:0000000000000000 __c.5399
/var/folders/_c/44sm70yj4mq2k0mvzts6tsbc0000gn/T//ccEnZE4n.s:1227   .progmem.data.__m.5402:0000000000000000 __m.5402
/var/folders/_c/44sm70yj4mq2k0mvzts6tsbc0000gn/T//ccEnZE4n.s:1210   .progmem.data.__m.5405:0000000000000000 __m.5405
/var/folders/_c/44sm70yj4mq2k0mvzts6tsbc0000gn/T//ccEnZE4n.s:1189   .progmem.data.__m.5408:0000000000000000 __m.5408
/var/folders/_c/44sm70yj4mq2k0mvzts6tsbc0000gn/T//ccEnZE4n.s:1168   .progmem.data.__m.5411:0000000000000000 __m.5411
/var/folders/_c/44sm70yj4mq2k0mvzts6tsbc0000gn/T//ccEnZE4n.s:1155   .progmem.data.__m.5414:0000000000000000 __m.5414
/var/folders/_c/44sm70yj4mq2k0mvzts6tsbc0000gn/T//ccEnZE4n.s:1142   .progmem.data.__m.5417:0000000000000000 __m.5417
/var/folders/_c/44sm70yj4mq2k0mvzts6tsbc0000gn/T//ccEnZE4n.s:1101   .progmem.data.__m.5420:0000000000000000 __m.5420
/var/folders/_c/44sm70yj4mq2k0mvzts6tsbc0000gn/T//ccEnZE4n.s:392    .text.dance_press_t:0000000000000000 dance_press_t
/var/folders/_c/44sm70yj4mq2k0mvzts6tsbc0000gn/T//ccEnZE4n.s:428    .text.dance_dbrc:0000000000000000 dance_dbrc
/var/folders/_c/44sm70yj4mq2k0mvzts6tsbc0000gn/T//ccEnZE4n.s:480    .text.dance_press_home:0000000000000000 dance_press_home
/var/folders/_c/44sm70yj4mq2k0mvzts6tsbc0000gn/T//ccEnZE4n.s:516    .text.dance_press_shifthome:0000000000000000 dance_press_shifthome
/var/folders/_c/44sm70yj4mq2k0mvzts6tsbc0000gn/T//ccEnZE4n.s:560    .text.dance_press_end:0000000000000000 dance_press_end
/var/folders/_c/44sm70yj4mq2k0mvzts6tsbc0000gn/T//ccEnZE4n.s:596    .text.dance_press_shiftend:0000000000000000 dance_press_shiftend
/var/folders/_c/44sm70yj4mq2k0mvzts6tsbc0000gn/T//ccEnZE4n.s:645    .text.pre_macro_date_to_int:0000000000000000 pre_macro_date_to_int
/var/folders/_c/44sm70yj4mq2k0mvzts6tsbc0000gn/T//ccEnZE4n.s:829    .text.pre_macro_time_to_int:0000000000000000 pre_macro_time_to_int
/var/folders/_c/44sm70yj4mq2k0mvzts6tsbc0000gn/T//ccEnZE4n.s:970    .text.matrix_init_user:0000000000000000 matrix_init_user
/var/folders/_c/44sm70yj4mq2k0mvzts6tsbc0000gn/T//ccEnZE4n.s:987    .text.matrix_scan_user:0000000000000000 matrix_scan_user
/var/folders/_c/44sm70yj4mq2k0mvzts6tsbc0000gn/T//ccEnZE4n.s:1395   .data.date_str:0000000000000000 date_str
/var/folders/_c/44sm70yj4mq2k0mvzts6tsbc0000gn/T//ccEnZE4n.s:1404   .data.sql_query:0000000000000000 sql_query
/var/folders/_c/44sm70yj4mq2k0mvzts6tsbc0000gn/T//ccEnZE4n.s:1410   .progmem.data.keymaps:0000000000000000 keymaps
/var/folders/_c/44sm70yj4mq2k0mvzts6tsbc0000gn/T//ccEnZE4n.s:2087   .data.tap_dance_actions:0000000000000000 tap_dance_actions
/var/folders/_c/44sm70yj4mq2k0mvzts6tsbc0000gn/T//ccEnZE4n.s:2310   .data.__compound_literal.0:0000000000000000 __compound_literal.0
/var/folders/_c/44sm70yj4mq2k0mvzts6tsbc0000gn/T//ccEnZE4n.s:2304   .data.__compound_literal.1:0000000000000000 __compound_literal.1
/var/folders/_c/44sm70yj4mq2k0mvzts6tsbc0000gn/T//ccEnZE4n.s:2298   .data.__compound_literal.2:0000000000000000 __compound_literal.2
/var/folders/_c/44sm70yj4mq2k0mvzts6tsbc0000gn/T//ccEnZE4n.s:2292   .data.__compound_literal.3:0000000000000000 __compound_literal.3
/var/folders/_c/44sm70yj4mq2k0mvzts6tsbc0000gn/T//ccEnZE4n.s:2286   .data.__compound_literal.4:0000000000000000 __compound_literal.4
/var/folders/_c/44sm70yj4mq2k0mvzts6tsbc0000gn/T//ccEnZE4n.s:2280   .data.__compound_literal.5:0000000000000000 __compound_literal.5
/var/folders/_c/44sm70yj4mq2k0mvzts6tsbc0000gn/T//ccEnZE4n.s:2274   .data.__compound_literal.6:0000000000000000 __compound_literal.6
/var/folders/_c/44sm70yj4mq2k0mvzts6tsbc0000gn/T//ccEnZE4n.s:2268   .data.__compound_literal.7:0000000000000000 __compound_literal.7
/var/folders/_c/44sm70yj4mq2k0mvzts6tsbc0000gn/T//ccEnZE4n.s:2262   .data.__compound_literal.8:0000000000000000 __compound_literal.8
/var/folders/_c/44sm70yj4mq2k0mvzts6tsbc0000gn/T//ccEnZE4n.s:2256   .data.__compound_literal.9:0000000000000000 __compound_literal.9
/var/folders/_c/44sm70yj4mq2k0mvzts6tsbc0000gn/T//ccEnZE4n.s:2250   .data.__compound_literal.10:0000000000000000 __compound_literal.10
/var/folders/_c/44sm70yj4mq2k0mvzts6tsbc0000gn/T//ccEnZE4n.s:2244   .data.__compound_literal.11:0000000000000000 __compound_literal.11
/var/folders/_c/44sm70yj4mq2k0mvzts6tsbc0000gn/T//ccEnZE4n.s:2238   .data.__compound_literal.12:0000000000000000 __compound_literal.12
/var/folders/_c/44sm70yj4mq2k0mvzts6tsbc0000gn/T//ccEnZE4n.s:2232   .data.__compound_literal.13:0000000000000000 __compound_literal.13
/var/folders/_c/44sm70yj4mq2k0mvzts6tsbc0000gn/T//ccEnZE4n.s:2226   .data.__compound_literal.14:0000000000000000 __compound_literal.14
/var/folders/_c/44sm70yj4mq2k0mvzts6tsbc0000gn/T//ccEnZE4n.s:2220   .data.__compound_literal.15:0000000000000000 __compound_literal.15
/var/folders/_c/44sm70yj4mq2k0mvzts6tsbc0000gn/T//ccEnZE4n.s:2214   .data.__compound_literal.16:0000000000000000 __compound_literal.16
/var/folders/_c/44sm70yj4mq2k0mvzts6tsbc0000gn/T//ccEnZE4n.s:2208   .data.__compound_literal.17:0000000000000000 __compound_literal.17
/var/folders/_c/44sm70yj4mq2k0mvzts6tsbc0000gn/T//ccEnZE4n.s:2202   .data.__compound_literal.18:0000000000000000 __compound_literal.18
/var/folders/_c/44sm70yj4mq2k0mvzts6tsbc0000gn/T//ccEnZE4n.s:2196   .data.__compound_literal.19:0000000000000000 __compound_literal.19
/var/folders/_c/44sm70yj4mq2k0mvzts6tsbc0000gn/T//ccEnZE4n.s:2317   .progmem.data.fn_actions:0000000000000000 fn_actions

UNDEFINED SYMBOLS
register_code
unregister_code
clear_keyboard_but_mods
__tablejump2__
send_string
sscanf
strstr
__divmodhi4
layer_state
biton32
ergodox_board_led_off
ergodox_right_led_1_off
ergodox_right_led_2_off
ergodox_right_led_3_off
ergodox_right_led_1_on
ergodox_right_led_2_on
ergodox_right_led_3_on
qk_tap_dance_pair_finished
qk_tap_dance_pair_reset
__do_copy_data
