   1               		.file	"lufa.c"
   2               	__SP_H__ = 0x3e
   3               	__SP_L__ = 0x3d
   4               	__SREG__ = 0x3f
   5               	__tmp_reg__ = 0
   6               	__zero_reg__ = 1
   7               		.text
   8               	.Ltext0:
   9               		.cfi_sections	.debug_frame
  10               		.section	.text.keyboard_leds,"ax",@progbits
  12               	keyboard_leds:
  13               	.LFB115:
  14               		.file 1 "./tmk_core/protocol/lufa/lufa.c"
   1:./tmk_core/protocol/lufa/lufa.c **** /*
   2:./tmk_core/protocol/lufa/lufa.c ****  * Copyright 2012 Jun Wako <wakojun@gmail.com>
   3:./tmk_core/protocol/lufa/lufa.c ****  * This file is based on:
   4:./tmk_core/protocol/lufa/lufa.c ****  *     LUFA-120219/Demos/Device/Lowlevel/KeyboardMouse
   5:./tmk_core/protocol/lufa/lufa.c ****  *     LUFA-120219/Demos/Device/Lowlevel/GenericHID
   6:./tmk_core/protocol/lufa/lufa.c ****  */
   7:./tmk_core/protocol/lufa/lufa.c **** 
   8:./tmk_core/protocol/lufa/lufa.c **** /*
   9:./tmk_core/protocol/lufa/lufa.c ****              LUFA Library
  10:./tmk_core/protocol/lufa/lufa.c ****      Copyright (C) Dean Camera, 2012.
  11:./tmk_core/protocol/lufa/lufa.c **** 
  12:./tmk_core/protocol/lufa/lufa.c ****   dean [at] fourwalledcubicle [dot] com
  13:./tmk_core/protocol/lufa/lufa.c ****            www.lufa-lib.org
  14:./tmk_core/protocol/lufa/lufa.c **** */
  15:./tmk_core/protocol/lufa/lufa.c **** 
  16:./tmk_core/protocol/lufa/lufa.c **** /*
  17:./tmk_core/protocol/lufa/lufa.c ****   Copyright 2012  Dean Camera (dean [at] fourwalledcubicle [dot] com)
  18:./tmk_core/protocol/lufa/lufa.c ****   Copyright 2010  Denver Gingerich (denver [at] ossguy [dot] com)
  19:./tmk_core/protocol/lufa/lufa.c **** 
  20:./tmk_core/protocol/lufa/lufa.c ****   Permission to use, copy, modify, distribute, and sell this
  21:./tmk_core/protocol/lufa/lufa.c ****   software and its documentation for any purpose is hereby granted
  22:./tmk_core/protocol/lufa/lufa.c ****   without fee, provided that the above copyright notice appear in
  23:./tmk_core/protocol/lufa/lufa.c ****   all copies and that both that the copyright notice and this
  24:./tmk_core/protocol/lufa/lufa.c ****   permission notice and warranty disclaimer appear in supporting
  25:./tmk_core/protocol/lufa/lufa.c ****   documentation, and that the name of the author not be used in
  26:./tmk_core/protocol/lufa/lufa.c ****   advertising or publicity pertaining to distribution of the
  27:./tmk_core/protocol/lufa/lufa.c ****   software without specific, written prior permission.
  28:./tmk_core/protocol/lufa/lufa.c **** 
  29:./tmk_core/protocol/lufa/lufa.c ****   The author disclaim all warranties with regard to this
  30:./tmk_core/protocol/lufa/lufa.c ****   software, including all implied warranties of merchantability
  31:./tmk_core/protocol/lufa/lufa.c ****   and fitness.  In no event shall the author be liable for any
  32:./tmk_core/protocol/lufa/lufa.c ****   special, indirect or consequential damages or any damages
  33:./tmk_core/protocol/lufa/lufa.c ****   whatsoever resulting from loss of use, data or profits, whether
  34:./tmk_core/protocol/lufa/lufa.c ****   in an action of contract, negligence or other tortious action,
  35:./tmk_core/protocol/lufa/lufa.c ****   arising out of or in connection with the use or performance of
  36:./tmk_core/protocol/lufa/lufa.c ****   this software.
  37:./tmk_core/protocol/lufa/lufa.c **** */
  38:./tmk_core/protocol/lufa/lufa.c **** 
  39:./tmk_core/protocol/lufa/lufa.c **** #include "report.h"
  40:./tmk_core/protocol/lufa/lufa.c **** #include "host.h"
  41:./tmk_core/protocol/lufa/lufa.c **** #include "host_driver.h"
  42:./tmk_core/protocol/lufa/lufa.c **** #include "keyboard.h"
  43:./tmk_core/protocol/lufa/lufa.c **** #include "action.h"
  44:./tmk_core/protocol/lufa/lufa.c **** #include "led.h"
  45:./tmk_core/protocol/lufa/lufa.c **** #include "sendchar.h"
  46:./tmk_core/protocol/lufa/lufa.c **** #include "debug.h"
  47:./tmk_core/protocol/lufa/lufa.c **** #ifdef SLEEP_LED_ENABLE
  48:./tmk_core/protocol/lufa/lufa.c **** #include "sleep_led.h"
  49:./tmk_core/protocol/lufa/lufa.c **** #endif
  50:./tmk_core/protocol/lufa/lufa.c **** #include "suspend.h"
  51:./tmk_core/protocol/lufa/lufa.c **** 
  52:./tmk_core/protocol/lufa/lufa.c **** #include "descriptor.h"
  53:./tmk_core/protocol/lufa/lufa.c **** #include "lufa.h"
  54:./tmk_core/protocol/lufa/lufa.c **** 
  55:./tmk_core/protocol/lufa/lufa.c **** #ifdef NKRO_ENABLE
  56:./tmk_core/protocol/lufa/lufa.c ****   #include "keycode_config.h"
  57:./tmk_core/protocol/lufa/lufa.c **** 
  58:./tmk_core/protocol/lufa/lufa.c ****   extern keymap_config_t keymap_config;
  59:./tmk_core/protocol/lufa/lufa.c **** #endif
  60:./tmk_core/protocol/lufa/lufa.c **** 
  61:./tmk_core/protocol/lufa/lufa.c **** 
  62:./tmk_core/protocol/lufa/lufa.c **** #ifdef AUDIO_ENABLE
  63:./tmk_core/protocol/lufa/lufa.c ****     #include <audio.h>
  64:./tmk_core/protocol/lufa/lufa.c **** #endif
  65:./tmk_core/protocol/lufa/lufa.c **** 
  66:./tmk_core/protocol/lufa/lufa.c **** #ifdef BLUETOOTH_ENABLE
  67:./tmk_core/protocol/lufa/lufa.c ****     #include "bluetooth.h"
  68:./tmk_core/protocol/lufa/lufa.c **** #endif
  69:./tmk_core/protocol/lufa/lufa.c **** 
  70:./tmk_core/protocol/lufa/lufa.c **** #ifdef VIRTSER_ENABLE
  71:./tmk_core/protocol/lufa/lufa.c ****     #include "virtser.h"
  72:./tmk_core/protocol/lufa/lufa.c **** #endif
  73:./tmk_core/protocol/lufa/lufa.c **** 
  74:./tmk_core/protocol/lufa/lufa.c **** uint8_t keyboard_idle = 0;
  75:./tmk_core/protocol/lufa/lufa.c **** /* 0: Boot Protocol, 1: Report Protocol(default) */
  76:./tmk_core/protocol/lufa/lufa.c **** uint8_t keyboard_protocol = 1;
  77:./tmk_core/protocol/lufa/lufa.c **** static uint8_t keyboard_led_stats = 0;
  78:./tmk_core/protocol/lufa/lufa.c **** 
  79:./tmk_core/protocol/lufa/lufa.c **** static report_keyboard_t keyboard_report_sent;
  80:./tmk_core/protocol/lufa/lufa.c **** 
  81:./tmk_core/protocol/lufa/lufa.c **** #ifdef MIDI_ENABLE
  82:./tmk_core/protocol/lufa/lufa.c **** void usb_send_func(MidiDevice * device, uint16_t cnt, uint8_t byte0, uint8_t byte1, uint8_t byte2);
  83:./tmk_core/protocol/lufa/lufa.c **** void usb_get_midi(MidiDevice * device);
  84:./tmk_core/protocol/lufa/lufa.c **** void midi_usb_init(MidiDevice * device);
  85:./tmk_core/protocol/lufa/lufa.c **** #endif
  86:./tmk_core/protocol/lufa/lufa.c **** 
  87:./tmk_core/protocol/lufa/lufa.c **** /* Host driver */
  88:./tmk_core/protocol/lufa/lufa.c **** static uint8_t keyboard_leds(void);
  89:./tmk_core/protocol/lufa/lufa.c **** static void send_keyboard(report_keyboard_t *report);
  90:./tmk_core/protocol/lufa/lufa.c **** static void send_mouse(report_mouse_t *report);
  91:./tmk_core/protocol/lufa/lufa.c **** static void send_system(uint16_t data);
  92:./tmk_core/protocol/lufa/lufa.c **** static void send_consumer(uint16_t data);
  93:./tmk_core/protocol/lufa/lufa.c **** host_driver_t lufa_driver = {
  94:./tmk_core/protocol/lufa/lufa.c ****     keyboard_leds,
  95:./tmk_core/protocol/lufa/lufa.c ****     send_keyboard,
  96:./tmk_core/protocol/lufa/lufa.c ****     send_mouse,
  97:./tmk_core/protocol/lufa/lufa.c ****     send_system,
  98:./tmk_core/protocol/lufa/lufa.c ****     send_consumer,
  99:./tmk_core/protocol/lufa/lufa.c **** #ifdef MIDI_ENABLE
 100:./tmk_core/protocol/lufa/lufa.c ****     usb_send_func,
 101:./tmk_core/protocol/lufa/lufa.c ****     usb_get_midi,
 102:./tmk_core/protocol/lufa/lufa.c ****     midi_usb_init
 103:./tmk_core/protocol/lufa/lufa.c **** #endif
 104:./tmk_core/protocol/lufa/lufa.c **** };
 105:./tmk_core/protocol/lufa/lufa.c **** 
 106:./tmk_core/protocol/lufa/lufa.c **** /*******************************************************************************
 107:./tmk_core/protocol/lufa/lufa.c ****  * MIDI
 108:./tmk_core/protocol/lufa/lufa.c ****  ******************************************************************************/
 109:./tmk_core/protocol/lufa/lufa.c **** 
 110:./tmk_core/protocol/lufa/lufa.c **** #ifdef MIDI_ENABLE
 111:./tmk_core/protocol/lufa/lufa.c **** USB_ClassInfo_MIDI_Device_t USB_MIDI_Interface =
 112:./tmk_core/protocol/lufa/lufa.c **** {
 113:./tmk_core/protocol/lufa/lufa.c ****   .Config =
 114:./tmk_core/protocol/lufa/lufa.c ****   {
 115:./tmk_core/protocol/lufa/lufa.c ****     .StreamingInterfaceNumber = AS_INTERFACE,
 116:./tmk_core/protocol/lufa/lufa.c ****     .DataINEndpoint           =
 117:./tmk_core/protocol/lufa/lufa.c ****     {
 118:./tmk_core/protocol/lufa/lufa.c ****       .Address          = MIDI_STREAM_IN_EPADDR,
 119:./tmk_core/protocol/lufa/lufa.c ****       .Size             = MIDI_STREAM_EPSIZE,
 120:./tmk_core/protocol/lufa/lufa.c ****       .Banks            = 1,
 121:./tmk_core/protocol/lufa/lufa.c ****     },
 122:./tmk_core/protocol/lufa/lufa.c ****     .DataOUTEndpoint          =
 123:./tmk_core/protocol/lufa/lufa.c ****     {
 124:./tmk_core/protocol/lufa/lufa.c ****       .Address          = MIDI_STREAM_OUT_EPADDR,
 125:./tmk_core/protocol/lufa/lufa.c ****       .Size             = MIDI_STREAM_EPSIZE,
 126:./tmk_core/protocol/lufa/lufa.c ****       .Banks            = 1,
 127:./tmk_core/protocol/lufa/lufa.c ****     },
 128:./tmk_core/protocol/lufa/lufa.c ****   },
 129:./tmk_core/protocol/lufa/lufa.c **** };
 130:./tmk_core/protocol/lufa/lufa.c **** 
 131:./tmk_core/protocol/lufa/lufa.c **** #define SYSEX_START_OR_CONT 0x40
 132:./tmk_core/protocol/lufa/lufa.c **** #define SYSEX_ENDS_IN_1 0x50
 133:./tmk_core/protocol/lufa/lufa.c **** #define SYSEX_ENDS_IN_2 0x60
 134:./tmk_core/protocol/lufa/lufa.c **** #define SYSEX_ENDS_IN_3 0x70
 135:./tmk_core/protocol/lufa/lufa.c **** 
 136:./tmk_core/protocol/lufa/lufa.c **** #define SYS_COMMON_1 0x50
 137:./tmk_core/protocol/lufa/lufa.c **** #define SYS_COMMON_2 0x20
 138:./tmk_core/protocol/lufa/lufa.c **** #define SYS_COMMON_3 0x30
 139:./tmk_core/protocol/lufa/lufa.c **** #endif
 140:./tmk_core/protocol/lufa/lufa.c **** 
 141:./tmk_core/protocol/lufa/lufa.c **** #ifdef VIRTSER_ENABLE
 142:./tmk_core/protocol/lufa/lufa.c **** USB_ClassInfo_CDC_Device_t cdc_device =
 143:./tmk_core/protocol/lufa/lufa.c **** {
 144:./tmk_core/protocol/lufa/lufa.c ****   .Config =
 145:./tmk_core/protocol/lufa/lufa.c ****   {
 146:./tmk_core/protocol/lufa/lufa.c ****     .ControlInterfaceNumber = CCI_INTERFACE,
 147:./tmk_core/protocol/lufa/lufa.c ****     .DataINEndpoint         =
 148:./tmk_core/protocol/lufa/lufa.c ****     {
 149:./tmk_core/protocol/lufa/lufa.c ****       .Address		= CDC_IN_EPADDR,
 150:./tmk_core/protocol/lufa/lufa.c ****       .Size		= CDC_EPSIZE,
 151:./tmk_core/protocol/lufa/lufa.c ****       .Banks		= 1,
 152:./tmk_core/protocol/lufa/lufa.c ****     },
 153:./tmk_core/protocol/lufa/lufa.c ****     .DataOUTEndpoint	    =
 154:./tmk_core/protocol/lufa/lufa.c ****     {
 155:./tmk_core/protocol/lufa/lufa.c ****       .Address		= CDC_OUT_EPADDR,
 156:./tmk_core/protocol/lufa/lufa.c ****       .Size		= CDC_EPSIZE,
 157:./tmk_core/protocol/lufa/lufa.c ****       .Banks		= 1,
 158:./tmk_core/protocol/lufa/lufa.c ****     },
 159:./tmk_core/protocol/lufa/lufa.c ****     .NotificationEndpoint   =
 160:./tmk_core/protocol/lufa/lufa.c ****     {
 161:./tmk_core/protocol/lufa/lufa.c ****       .Address		= CDC_NOTIFICATION_EPADDR,
 162:./tmk_core/protocol/lufa/lufa.c ****       .Size		= CDC_NOTIFICATION_EPSIZE,
 163:./tmk_core/protocol/lufa/lufa.c ****       .Banks		= 1,
 164:./tmk_core/protocol/lufa/lufa.c ****     },
 165:./tmk_core/protocol/lufa/lufa.c ****   },
 166:./tmk_core/protocol/lufa/lufa.c **** };
 167:./tmk_core/protocol/lufa/lufa.c **** #endif
 168:./tmk_core/protocol/lufa/lufa.c **** 
 169:./tmk_core/protocol/lufa/lufa.c **** 
 170:./tmk_core/protocol/lufa/lufa.c **** /*******************************************************************************
 171:./tmk_core/protocol/lufa/lufa.c ****  * Console
 172:./tmk_core/protocol/lufa/lufa.c ****  ******************************************************************************/
 173:./tmk_core/protocol/lufa/lufa.c **** #ifdef CONSOLE_ENABLE
 174:./tmk_core/protocol/lufa/lufa.c **** static void Console_Task(void)
 175:./tmk_core/protocol/lufa/lufa.c **** {
 176:./tmk_core/protocol/lufa/lufa.c ****     /* Device must be connected and configured for the task to run */
 177:./tmk_core/protocol/lufa/lufa.c ****     if (USB_DeviceState != DEVICE_STATE_Configured)
 178:./tmk_core/protocol/lufa/lufa.c ****         return;
 179:./tmk_core/protocol/lufa/lufa.c **** 
 180:./tmk_core/protocol/lufa/lufa.c ****     uint8_t ep = Endpoint_GetCurrentEndpoint();
 181:./tmk_core/protocol/lufa/lufa.c **** 
 182:./tmk_core/protocol/lufa/lufa.c **** #if 0
 183:./tmk_core/protocol/lufa/lufa.c ****     // TODO: impl receivechar()/recvchar()
 184:./tmk_core/protocol/lufa/lufa.c ****     Endpoint_SelectEndpoint(CONSOLE_OUT_EPNUM);
 185:./tmk_core/protocol/lufa/lufa.c **** 
 186:./tmk_core/protocol/lufa/lufa.c ****     /* Check to see if a packet has been sent from the host */
 187:./tmk_core/protocol/lufa/lufa.c ****     if (Endpoint_IsOUTReceived())
 188:./tmk_core/protocol/lufa/lufa.c ****     {
 189:./tmk_core/protocol/lufa/lufa.c ****         /* Check to see if the packet contains data */
 190:./tmk_core/protocol/lufa/lufa.c ****         if (Endpoint_IsReadWriteAllowed())
 191:./tmk_core/protocol/lufa/lufa.c ****         {
 192:./tmk_core/protocol/lufa/lufa.c ****             /* Create a temporary buffer to hold the read in report from the host */
 193:./tmk_core/protocol/lufa/lufa.c ****             uint8_t ConsoleData[CONSOLE_EPSIZE];
 194:./tmk_core/protocol/lufa/lufa.c **** 
 195:./tmk_core/protocol/lufa/lufa.c ****             /* Read Console Report Data */
 196:./tmk_core/protocol/lufa/lufa.c ****             Endpoint_Read_Stream_LE(&ConsoleData, sizeof(ConsoleData), NULL);
 197:./tmk_core/protocol/lufa/lufa.c **** 
 198:./tmk_core/protocol/lufa/lufa.c ****             /* Process Console Report Data */
 199:./tmk_core/protocol/lufa/lufa.c ****             //ProcessConsoleHIDReport(ConsoleData);
 200:./tmk_core/protocol/lufa/lufa.c ****         }
 201:./tmk_core/protocol/lufa/lufa.c **** 
 202:./tmk_core/protocol/lufa/lufa.c ****         /* Finalize the stream transfer to send the last packet */
 203:./tmk_core/protocol/lufa/lufa.c ****         Endpoint_ClearOUT();
 204:./tmk_core/protocol/lufa/lufa.c ****     }
 205:./tmk_core/protocol/lufa/lufa.c **** #endif
 206:./tmk_core/protocol/lufa/lufa.c **** 
 207:./tmk_core/protocol/lufa/lufa.c ****     /* IN packet */
 208:./tmk_core/protocol/lufa/lufa.c ****     Endpoint_SelectEndpoint(CONSOLE_IN_EPNUM);
 209:./tmk_core/protocol/lufa/lufa.c ****     if (!Endpoint_IsEnabled() || !Endpoint_IsConfigured()) {
 210:./tmk_core/protocol/lufa/lufa.c ****         Endpoint_SelectEndpoint(ep);
 211:./tmk_core/protocol/lufa/lufa.c ****         return;
 212:./tmk_core/protocol/lufa/lufa.c ****     }
 213:./tmk_core/protocol/lufa/lufa.c **** 
 214:./tmk_core/protocol/lufa/lufa.c ****     // fill empty bank
 215:./tmk_core/protocol/lufa/lufa.c ****     while (Endpoint_IsReadWriteAllowed())
 216:./tmk_core/protocol/lufa/lufa.c ****         Endpoint_Write_8(0);
 217:./tmk_core/protocol/lufa/lufa.c **** 
 218:./tmk_core/protocol/lufa/lufa.c ****     // flash senchar packet
 219:./tmk_core/protocol/lufa/lufa.c ****     if (Endpoint_IsINReady()) {
 220:./tmk_core/protocol/lufa/lufa.c ****         Endpoint_ClearIN();
 221:./tmk_core/protocol/lufa/lufa.c ****     }
 222:./tmk_core/protocol/lufa/lufa.c **** 
 223:./tmk_core/protocol/lufa/lufa.c ****     Endpoint_SelectEndpoint(ep);
 224:./tmk_core/protocol/lufa/lufa.c **** }
 225:./tmk_core/protocol/lufa/lufa.c **** #endif
 226:./tmk_core/protocol/lufa/lufa.c **** 
 227:./tmk_core/protocol/lufa/lufa.c **** 
 228:./tmk_core/protocol/lufa/lufa.c **** /*******************************************************************************
 229:./tmk_core/protocol/lufa/lufa.c ****  * USB Events
 230:./tmk_core/protocol/lufa/lufa.c ****  ******************************************************************************/
 231:./tmk_core/protocol/lufa/lufa.c **** /*
 232:./tmk_core/protocol/lufa/lufa.c ****  * Event Order of Plug in:
 233:./tmk_core/protocol/lufa/lufa.c ****  * 0) EVENT_USB_Device_Connect
 234:./tmk_core/protocol/lufa/lufa.c ****  * 1) EVENT_USB_Device_Suspend
 235:./tmk_core/protocol/lufa/lufa.c ****  * 2) EVENT_USB_Device_Reset
 236:./tmk_core/protocol/lufa/lufa.c ****  * 3) EVENT_USB_Device_Wake
 237:./tmk_core/protocol/lufa/lufa.c **** */
 238:./tmk_core/protocol/lufa/lufa.c **** void EVENT_USB_Device_Connect(void)
 239:./tmk_core/protocol/lufa/lufa.c **** {
 240:./tmk_core/protocol/lufa/lufa.c ****     print("[C]");
 241:./tmk_core/protocol/lufa/lufa.c ****     /* For battery powered device */
 242:./tmk_core/protocol/lufa/lufa.c ****     if (!USB_IsInitialized) {
 243:./tmk_core/protocol/lufa/lufa.c ****         USB_Disable();
 244:./tmk_core/protocol/lufa/lufa.c ****         USB_Init();
 245:./tmk_core/protocol/lufa/lufa.c ****         USB_Device_EnableSOFEvents();
 246:./tmk_core/protocol/lufa/lufa.c ****     }
 247:./tmk_core/protocol/lufa/lufa.c **** }
 248:./tmk_core/protocol/lufa/lufa.c **** 
 249:./tmk_core/protocol/lufa/lufa.c **** void EVENT_USB_Device_Disconnect(void)
 250:./tmk_core/protocol/lufa/lufa.c **** {
 251:./tmk_core/protocol/lufa/lufa.c ****     print("[D]");
 252:./tmk_core/protocol/lufa/lufa.c ****     /* For battery powered device */
 253:./tmk_core/protocol/lufa/lufa.c ****     USB_IsInitialized = false;
 254:./tmk_core/protocol/lufa/lufa.c **** /* TODO: This doesn't work. After several plug in/outs can not be enumerated.
 255:./tmk_core/protocol/lufa/lufa.c ****     if (USB_IsInitialized) {
 256:./tmk_core/protocol/lufa/lufa.c ****         USB_Disable();  // Disable all interrupts
 257:./tmk_core/protocol/lufa/lufa.c **** 	USB_Controller_Enable();
 258:./tmk_core/protocol/lufa/lufa.c ****         USB_INT_Enable(USB_INT_VBUSTI);
 259:./tmk_core/protocol/lufa/lufa.c ****     }
 260:./tmk_core/protocol/lufa/lufa.c **** */
 261:./tmk_core/protocol/lufa/lufa.c **** }
 262:./tmk_core/protocol/lufa/lufa.c **** 
 263:./tmk_core/protocol/lufa/lufa.c **** void EVENT_USB_Device_Reset(void)
 264:./tmk_core/protocol/lufa/lufa.c **** {
 265:./tmk_core/protocol/lufa/lufa.c ****     print("[R]");
 266:./tmk_core/protocol/lufa/lufa.c **** }
 267:./tmk_core/protocol/lufa/lufa.c **** 
 268:./tmk_core/protocol/lufa/lufa.c **** void EVENT_USB_Device_Suspend()
 269:./tmk_core/protocol/lufa/lufa.c **** {
 270:./tmk_core/protocol/lufa/lufa.c ****     print("[S]");
 271:./tmk_core/protocol/lufa/lufa.c **** #ifdef SLEEP_LED_ENABLE
 272:./tmk_core/protocol/lufa/lufa.c ****     sleep_led_enable();
 273:./tmk_core/protocol/lufa/lufa.c **** #endif
 274:./tmk_core/protocol/lufa/lufa.c **** }
 275:./tmk_core/protocol/lufa/lufa.c **** 
 276:./tmk_core/protocol/lufa/lufa.c **** void EVENT_USB_Device_WakeUp()
 277:./tmk_core/protocol/lufa/lufa.c **** {
 278:./tmk_core/protocol/lufa/lufa.c ****     print("[W]");
 279:./tmk_core/protocol/lufa/lufa.c ****     suspend_wakeup_init();
 280:./tmk_core/protocol/lufa/lufa.c **** 
 281:./tmk_core/protocol/lufa/lufa.c **** #ifdef SLEEP_LED_ENABLE
 282:./tmk_core/protocol/lufa/lufa.c ****     sleep_led_disable();
 283:./tmk_core/protocol/lufa/lufa.c ****     // NOTE: converters may not accept this
 284:./tmk_core/protocol/lufa/lufa.c ****     led_set(host_keyboard_leds());
 285:./tmk_core/protocol/lufa/lufa.c **** #endif
 286:./tmk_core/protocol/lufa/lufa.c **** }
 287:./tmk_core/protocol/lufa/lufa.c **** 
 288:./tmk_core/protocol/lufa/lufa.c **** #ifdef CONSOLE_ENABLE
 289:./tmk_core/protocol/lufa/lufa.c **** static bool console_flush = false;
 290:./tmk_core/protocol/lufa/lufa.c **** #define CONSOLE_FLUSH_SET(b)   do { \
 291:./tmk_core/protocol/lufa/lufa.c ****     uint8_t sreg = SREG; cli(); console_flush = b; SREG = sreg; \
 292:./tmk_core/protocol/lufa/lufa.c **** } while (0)
 293:./tmk_core/protocol/lufa/lufa.c **** 
 294:./tmk_core/protocol/lufa/lufa.c **** // called every 1ms
 295:./tmk_core/protocol/lufa/lufa.c **** void EVENT_USB_Device_StartOfFrame(void)
 296:./tmk_core/protocol/lufa/lufa.c **** {
 297:./tmk_core/protocol/lufa/lufa.c ****     static uint8_t count;
 298:./tmk_core/protocol/lufa/lufa.c ****     if (++count % 50) return;
 299:./tmk_core/protocol/lufa/lufa.c ****     count = 0;
 300:./tmk_core/protocol/lufa/lufa.c **** 
 301:./tmk_core/protocol/lufa/lufa.c ****     if (!console_flush) return;
 302:./tmk_core/protocol/lufa/lufa.c ****     Console_Task();
 303:./tmk_core/protocol/lufa/lufa.c ****     console_flush = false;
 304:./tmk_core/protocol/lufa/lufa.c **** }
 305:./tmk_core/protocol/lufa/lufa.c **** #endif
 306:./tmk_core/protocol/lufa/lufa.c **** 
 307:./tmk_core/protocol/lufa/lufa.c **** /** Event handler for the USB_ConfigurationChanged event.
 308:./tmk_core/protocol/lufa/lufa.c ****  * This is fired when the host sets the current configuration of the USB device after enumeration.
 309:./tmk_core/protocol/lufa/lufa.c ****  *
 310:./tmk_core/protocol/lufa/lufa.c ****  * ATMega32u2 supports dual bank(ping-pong mode) only on endpoint 3 and 4,
 311:./tmk_core/protocol/lufa/lufa.c ****  * it is safe to use singl bank for all endpoints.
 312:./tmk_core/protocol/lufa/lufa.c ****  */
 313:./tmk_core/protocol/lufa/lufa.c **** void EVENT_USB_Device_ConfigurationChanged(void)
 314:./tmk_core/protocol/lufa/lufa.c **** {
 315:./tmk_core/protocol/lufa/lufa.c ****     bool ConfigSuccess = true;
 316:./tmk_core/protocol/lufa/lufa.c **** 
 317:./tmk_core/protocol/lufa/lufa.c ****     /* Setup Keyboard HID Report Endpoints */
 318:./tmk_core/protocol/lufa/lufa.c ****     ConfigSuccess &= ENDPOINT_CONFIG(KEYBOARD_IN_EPNUM, EP_TYPE_INTERRUPT, ENDPOINT_DIR_IN,
 319:./tmk_core/protocol/lufa/lufa.c ****                                      KEYBOARD_EPSIZE, ENDPOINT_BANK_SINGLE);
 320:./tmk_core/protocol/lufa/lufa.c **** 
 321:./tmk_core/protocol/lufa/lufa.c **** #ifdef MOUSE_ENABLE
 322:./tmk_core/protocol/lufa/lufa.c ****     /* Setup Mouse HID Report Endpoint */
 323:./tmk_core/protocol/lufa/lufa.c ****     ConfigSuccess &= ENDPOINT_CONFIG(MOUSE_IN_EPNUM, EP_TYPE_INTERRUPT, ENDPOINT_DIR_IN,
 324:./tmk_core/protocol/lufa/lufa.c ****                                      MOUSE_EPSIZE, ENDPOINT_BANK_SINGLE);
 325:./tmk_core/protocol/lufa/lufa.c **** #endif
 326:./tmk_core/protocol/lufa/lufa.c **** 
 327:./tmk_core/protocol/lufa/lufa.c **** #ifdef EXTRAKEY_ENABLE
 328:./tmk_core/protocol/lufa/lufa.c ****     /* Setup Extra HID Report Endpoint */
 329:./tmk_core/protocol/lufa/lufa.c ****     ConfigSuccess &= ENDPOINT_CONFIG(EXTRAKEY_IN_EPNUM, EP_TYPE_INTERRUPT, ENDPOINT_DIR_IN,
 330:./tmk_core/protocol/lufa/lufa.c ****                                      EXTRAKEY_EPSIZE, ENDPOINT_BANK_SINGLE);
 331:./tmk_core/protocol/lufa/lufa.c **** #endif
 332:./tmk_core/protocol/lufa/lufa.c **** 
 333:./tmk_core/protocol/lufa/lufa.c **** #ifdef CONSOLE_ENABLE
 334:./tmk_core/protocol/lufa/lufa.c ****     /* Setup Console HID Report Endpoints */
 335:./tmk_core/protocol/lufa/lufa.c ****     ConfigSuccess &= ENDPOINT_CONFIG(CONSOLE_IN_EPNUM, EP_TYPE_INTERRUPT, ENDPOINT_DIR_IN,
 336:./tmk_core/protocol/lufa/lufa.c ****                                      CONSOLE_EPSIZE, ENDPOINT_BANK_SINGLE);
 337:./tmk_core/protocol/lufa/lufa.c **** #if 0
 338:./tmk_core/protocol/lufa/lufa.c ****     ConfigSuccess &= ENDPOINT_CONFIG(CONSOLE_OUT_EPNUM, EP_TYPE_INTERRUPT, ENDPOINT_DIR_OUT,
 339:./tmk_core/protocol/lufa/lufa.c ****                                      CONSOLE_EPSIZE, ENDPOINT_BANK_SINGLE);
 340:./tmk_core/protocol/lufa/lufa.c **** #endif
 341:./tmk_core/protocol/lufa/lufa.c **** #endif
 342:./tmk_core/protocol/lufa/lufa.c **** 
 343:./tmk_core/protocol/lufa/lufa.c **** #ifdef NKRO_ENABLE
 344:./tmk_core/protocol/lufa/lufa.c ****     /* Setup NKRO HID Report Endpoints */
 345:./tmk_core/protocol/lufa/lufa.c ****     ConfigSuccess &= ENDPOINT_CONFIG(NKRO_IN_EPNUM, EP_TYPE_INTERRUPT, ENDPOINT_DIR_IN,
 346:./tmk_core/protocol/lufa/lufa.c ****                                      NKRO_EPSIZE, ENDPOINT_BANK_SINGLE);
 347:./tmk_core/protocol/lufa/lufa.c **** #endif
 348:./tmk_core/protocol/lufa/lufa.c **** 
 349:./tmk_core/protocol/lufa/lufa.c **** #ifdef MIDI_ENABLE
 350:./tmk_core/protocol/lufa/lufa.c ****     ConfigSuccess &= Endpoint_ConfigureEndpoint(MIDI_STREAM_IN_EPADDR, EP_TYPE_BULK, MIDI_STREAM_EP
 351:./tmk_core/protocol/lufa/lufa.c ****     ConfigSuccess &= Endpoint_ConfigureEndpoint(MIDI_STREAM_OUT_EPADDR, EP_TYPE_BULK, MIDI_STREAM_E
 352:./tmk_core/protocol/lufa/lufa.c **** #endif
 353:./tmk_core/protocol/lufa/lufa.c **** 
 354:./tmk_core/protocol/lufa/lufa.c **** #ifdef VIRTSER_ENABLE
 355:./tmk_core/protocol/lufa/lufa.c ****     ConfigSuccess &= Endpoint_ConfigureEndpoint(CDC_NOTIFICATION_EPADDR, EP_TYPE_INTERRUPT, CDC_NOT
 356:./tmk_core/protocol/lufa/lufa.c ****     ConfigSuccess &= Endpoint_ConfigureEndpoint(CDC_OUT_EPADDR, EP_TYPE_BULK, CDC_EPSIZE, ENDPOINT_
 357:./tmk_core/protocol/lufa/lufa.c ****     ConfigSuccess &= Endpoint_ConfigureEndpoint(CDC_IN_EPADDR, EP_TYPE_BULK, CDC_EPSIZE, ENDPOINT_B
 358:./tmk_core/protocol/lufa/lufa.c **** #endif
 359:./tmk_core/protocol/lufa/lufa.c **** }
 360:./tmk_core/protocol/lufa/lufa.c **** 
 361:./tmk_core/protocol/lufa/lufa.c **** /*
 362:./tmk_core/protocol/lufa/lufa.c **** Appendix G: HID Request Support Requirements
 363:./tmk_core/protocol/lufa/lufa.c **** 
 364:./tmk_core/protocol/lufa/lufa.c **** The following table enumerates the requests that need to be supported by various types of HID class
 365:./tmk_core/protocol/lufa/lufa.c **** 
 366:./tmk_core/protocol/lufa/lufa.c **** Device type     GetReport   SetReport   GetIdle     SetIdle     GetProtocol SetProtocol
 367:./tmk_core/protocol/lufa/lufa.c **** ------------------------------------------------------------------------------------------
 368:./tmk_core/protocol/lufa/lufa.c **** Boot Mouse      Required    Optional    Optional    Optional    Required    Required
 369:./tmk_core/protocol/lufa/lufa.c **** Non-Boot Mouse  Required    Optional    Optional    Optional    Optional    Optional
 370:./tmk_core/protocol/lufa/lufa.c **** Boot Keyboard   Required    Optional    Required    Required    Required    Required
 371:./tmk_core/protocol/lufa/lufa.c **** Non-Boot Keybrd Required    Optional    Required    Required    Optional    Optional
 372:./tmk_core/protocol/lufa/lufa.c **** Other Device    Required    Optional    Optional    Optional    Optional    Optional
 373:./tmk_core/protocol/lufa/lufa.c **** */
 374:./tmk_core/protocol/lufa/lufa.c **** /** Event handler for the USB_ControlRequest event.
 375:./tmk_core/protocol/lufa/lufa.c ****  *  This is fired before passing along unhandled control requests to the library for processing int
 376:./tmk_core/protocol/lufa/lufa.c ****  */
 377:./tmk_core/protocol/lufa/lufa.c **** void EVENT_USB_Device_ControlRequest(void)
 378:./tmk_core/protocol/lufa/lufa.c **** {
 379:./tmk_core/protocol/lufa/lufa.c ****     uint8_t* ReportData = NULL;
 380:./tmk_core/protocol/lufa/lufa.c ****     uint8_t  ReportSize = 0;
 381:./tmk_core/protocol/lufa/lufa.c **** 
 382:./tmk_core/protocol/lufa/lufa.c ****     /* Handle HID Class specific requests */
 383:./tmk_core/protocol/lufa/lufa.c ****     switch (USB_ControlRequest.bRequest)
 384:./tmk_core/protocol/lufa/lufa.c ****     {
 385:./tmk_core/protocol/lufa/lufa.c ****         case HID_REQ_GetReport:
 386:./tmk_core/protocol/lufa/lufa.c ****             if (USB_ControlRequest.bmRequestType == (REQDIR_DEVICETOHOST | REQTYPE_CLASS | REQREC_I
 387:./tmk_core/protocol/lufa/lufa.c ****             {
 388:./tmk_core/protocol/lufa/lufa.c ****                 Endpoint_ClearSETUP();
 389:./tmk_core/protocol/lufa/lufa.c **** 
 390:./tmk_core/protocol/lufa/lufa.c ****                 // Interface
 391:./tmk_core/protocol/lufa/lufa.c ****                 switch (USB_ControlRequest.wIndex) {
 392:./tmk_core/protocol/lufa/lufa.c ****                 case KEYBOARD_INTERFACE:
 393:./tmk_core/protocol/lufa/lufa.c ****                     // TODO: test/check
 394:./tmk_core/protocol/lufa/lufa.c ****                     ReportData = (uint8_t*)&keyboard_report_sent;
 395:./tmk_core/protocol/lufa/lufa.c ****                     ReportSize = sizeof(keyboard_report_sent);
 396:./tmk_core/protocol/lufa/lufa.c ****                     break;
 397:./tmk_core/protocol/lufa/lufa.c ****                 }
 398:./tmk_core/protocol/lufa/lufa.c **** 
 399:./tmk_core/protocol/lufa/lufa.c ****                 /* Write the report data to the control endpoint */
 400:./tmk_core/protocol/lufa/lufa.c ****                 Endpoint_Write_Control_Stream_LE(ReportData, ReportSize);
 401:./tmk_core/protocol/lufa/lufa.c ****                 Endpoint_ClearOUT();
 402:./tmk_core/protocol/lufa/lufa.c ****             }
 403:./tmk_core/protocol/lufa/lufa.c **** 
 404:./tmk_core/protocol/lufa/lufa.c ****             break;
 405:./tmk_core/protocol/lufa/lufa.c ****         case HID_REQ_SetReport:
 406:./tmk_core/protocol/lufa/lufa.c ****             if (USB_ControlRequest.bmRequestType == (REQDIR_HOSTTODEVICE | REQTYPE_CLASS | REQREC_I
 407:./tmk_core/protocol/lufa/lufa.c ****             {
 408:./tmk_core/protocol/lufa/lufa.c **** 
 409:./tmk_core/protocol/lufa/lufa.c ****                 // Interface
 410:./tmk_core/protocol/lufa/lufa.c ****                 switch (USB_ControlRequest.wIndex) {
 411:./tmk_core/protocol/lufa/lufa.c ****                 case KEYBOARD_INTERFACE:
 412:./tmk_core/protocol/lufa/lufa.c **** #ifdef NKRO_ENABLE
 413:./tmk_core/protocol/lufa/lufa.c ****                 case NKRO_INTERFACE:
 414:./tmk_core/protocol/lufa/lufa.c **** #endif
 415:./tmk_core/protocol/lufa/lufa.c ****                     Endpoint_ClearSETUP();
 416:./tmk_core/protocol/lufa/lufa.c **** 
 417:./tmk_core/protocol/lufa/lufa.c ****                     while (!(Endpoint_IsOUTReceived())) {
 418:./tmk_core/protocol/lufa/lufa.c ****                         if (USB_DeviceState == DEVICE_STATE_Unattached)
 419:./tmk_core/protocol/lufa/lufa.c ****                           return;
 420:./tmk_core/protocol/lufa/lufa.c ****                     }
 421:./tmk_core/protocol/lufa/lufa.c ****                     keyboard_led_stats = Endpoint_Read_8();
 422:./tmk_core/protocol/lufa/lufa.c **** 
 423:./tmk_core/protocol/lufa/lufa.c ****                     Endpoint_ClearOUT();
 424:./tmk_core/protocol/lufa/lufa.c ****                     Endpoint_ClearStatusStage();
 425:./tmk_core/protocol/lufa/lufa.c ****                     break;
 426:./tmk_core/protocol/lufa/lufa.c ****                 }
 427:./tmk_core/protocol/lufa/lufa.c **** 
 428:./tmk_core/protocol/lufa/lufa.c ****             }
 429:./tmk_core/protocol/lufa/lufa.c **** 
 430:./tmk_core/protocol/lufa/lufa.c ****             break;
 431:./tmk_core/protocol/lufa/lufa.c **** 
 432:./tmk_core/protocol/lufa/lufa.c ****         case HID_REQ_GetProtocol:
 433:./tmk_core/protocol/lufa/lufa.c ****             if (USB_ControlRequest.bmRequestType == (REQDIR_DEVICETOHOST | REQTYPE_CLASS | REQREC_I
 434:./tmk_core/protocol/lufa/lufa.c ****             {
 435:./tmk_core/protocol/lufa/lufa.c ****                 if (USB_ControlRequest.wIndex == KEYBOARD_INTERFACE) {
 436:./tmk_core/protocol/lufa/lufa.c ****                     Endpoint_ClearSETUP();
 437:./tmk_core/protocol/lufa/lufa.c ****                     while (!(Endpoint_IsINReady()));
 438:./tmk_core/protocol/lufa/lufa.c ****                     Endpoint_Write_8(keyboard_protocol);
 439:./tmk_core/protocol/lufa/lufa.c ****                     Endpoint_ClearIN();
 440:./tmk_core/protocol/lufa/lufa.c ****                     Endpoint_ClearStatusStage();
 441:./tmk_core/protocol/lufa/lufa.c ****                 }
 442:./tmk_core/protocol/lufa/lufa.c ****             }
 443:./tmk_core/protocol/lufa/lufa.c **** 
 444:./tmk_core/protocol/lufa/lufa.c ****             break;
 445:./tmk_core/protocol/lufa/lufa.c ****         case HID_REQ_SetProtocol:
 446:./tmk_core/protocol/lufa/lufa.c ****             if (USB_ControlRequest.bmRequestType == (REQDIR_HOSTTODEVICE | REQTYPE_CLASS | REQREC_I
 447:./tmk_core/protocol/lufa/lufa.c ****             {
 448:./tmk_core/protocol/lufa/lufa.c ****                 if (USB_ControlRequest.wIndex == KEYBOARD_INTERFACE) {
 449:./tmk_core/protocol/lufa/lufa.c ****                     Endpoint_ClearSETUP();
 450:./tmk_core/protocol/lufa/lufa.c ****                     Endpoint_ClearStatusStage();
 451:./tmk_core/protocol/lufa/lufa.c **** 
 452:./tmk_core/protocol/lufa/lufa.c ****                     keyboard_protocol = (USB_ControlRequest.wValue & 0xFF);
 453:./tmk_core/protocol/lufa/lufa.c ****                     clear_keyboard();
 454:./tmk_core/protocol/lufa/lufa.c ****                 }
 455:./tmk_core/protocol/lufa/lufa.c ****             }
 456:./tmk_core/protocol/lufa/lufa.c **** 
 457:./tmk_core/protocol/lufa/lufa.c ****             break;
 458:./tmk_core/protocol/lufa/lufa.c ****         case HID_REQ_SetIdle:
 459:./tmk_core/protocol/lufa/lufa.c ****             if (USB_ControlRequest.bmRequestType == (REQDIR_HOSTTODEVICE | REQTYPE_CLASS | REQREC_I
 460:./tmk_core/protocol/lufa/lufa.c ****             {
 461:./tmk_core/protocol/lufa/lufa.c ****                 Endpoint_ClearSETUP();
 462:./tmk_core/protocol/lufa/lufa.c ****                 Endpoint_ClearStatusStage();
 463:./tmk_core/protocol/lufa/lufa.c **** 
 464:./tmk_core/protocol/lufa/lufa.c ****                 keyboard_idle = ((USB_ControlRequest.wValue & 0xFF00) >> 8);
 465:./tmk_core/protocol/lufa/lufa.c ****             }
 466:./tmk_core/protocol/lufa/lufa.c **** 
 467:./tmk_core/protocol/lufa/lufa.c ****             break;
 468:./tmk_core/protocol/lufa/lufa.c ****         case HID_REQ_GetIdle:
 469:./tmk_core/protocol/lufa/lufa.c ****             if (USB_ControlRequest.bmRequestType == (REQDIR_DEVICETOHOST | REQTYPE_CLASS | REQREC_I
 470:./tmk_core/protocol/lufa/lufa.c ****             {
 471:./tmk_core/protocol/lufa/lufa.c ****                 Endpoint_ClearSETUP();
 472:./tmk_core/protocol/lufa/lufa.c ****                 while (!(Endpoint_IsINReady()));
 473:./tmk_core/protocol/lufa/lufa.c ****                 Endpoint_Write_8(keyboard_idle);
 474:./tmk_core/protocol/lufa/lufa.c ****                 Endpoint_ClearIN();
 475:./tmk_core/protocol/lufa/lufa.c ****                 Endpoint_ClearStatusStage();
 476:./tmk_core/protocol/lufa/lufa.c ****             }
 477:./tmk_core/protocol/lufa/lufa.c **** 
 478:./tmk_core/protocol/lufa/lufa.c ****             break;
 479:./tmk_core/protocol/lufa/lufa.c ****     }
 480:./tmk_core/protocol/lufa/lufa.c **** 
 481:./tmk_core/protocol/lufa/lufa.c **** #ifdef VIRTSER_ENABLE
 482:./tmk_core/protocol/lufa/lufa.c ****     CDC_Device_ProcessControlRequest(&cdc_device);
 483:./tmk_core/protocol/lufa/lufa.c **** #endif
 484:./tmk_core/protocol/lufa/lufa.c **** }
 485:./tmk_core/protocol/lufa/lufa.c **** 
 486:./tmk_core/protocol/lufa/lufa.c **** /*******************************************************************************
 487:./tmk_core/protocol/lufa/lufa.c ****  * Host driver
 488:./tmk_core/protocol/lufa/lufa.c **** p
 489:./tmk_core/protocol/lufa/lufa.c ****  ******************************************************************************/
 490:./tmk_core/protocol/lufa/lufa.c **** static uint8_t keyboard_leds(void)
 491:./tmk_core/protocol/lufa/lufa.c **** {
  15               		.loc 1 491 0
  16               		.cfi_startproc
  17               	/* prologue: function */
  18               	/* frame size = 0 */
  19               	/* stack size = 0 */
  20               	.L__stack_usage = 0
 492:./tmk_core/protocol/lufa/lufa.c ****     return keyboard_led_stats;
 493:./tmk_core/protocol/lufa/lufa.c **** }
  21               		.loc 1 493 0
  22 0000 8091 0000 		lds r24,keyboard_led_stats
  23 0004 0895      		ret
  24               		.cfi_endproc
  25               	.LFE115:
  27               		.section	.text.send_mouse,"ax",@progbits
  29               	send_mouse:
  30               	.LFB117:
 494:./tmk_core/protocol/lufa/lufa.c **** 
 495:./tmk_core/protocol/lufa/lufa.c **** static void send_keyboard(report_keyboard_t *report)
 496:./tmk_core/protocol/lufa/lufa.c **** {
 497:./tmk_core/protocol/lufa/lufa.c **** 
 498:./tmk_core/protocol/lufa/lufa.c **** #ifdef BLUETOOTH_ENABLE
 499:./tmk_core/protocol/lufa/lufa.c ****     bluefruit_serial_send(0xFD);
 500:./tmk_core/protocol/lufa/lufa.c ****     for (uint8_t i = 0; i < KEYBOARD_EPSIZE; i++) {
 501:./tmk_core/protocol/lufa/lufa.c ****         bluefruit_serial_send(report->raw[i]);
 502:./tmk_core/protocol/lufa/lufa.c ****     }
 503:./tmk_core/protocol/lufa/lufa.c **** #endif
 504:./tmk_core/protocol/lufa/lufa.c **** 
 505:./tmk_core/protocol/lufa/lufa.c ****     uint8_t timeout = 255;
 506:./tmk_core/protocol/lufa/lufa.c **** 
 507:./tmk_core/protocol/lufa/lufa.c ****     if (USB_DeviceState != DEVICE_STATE_Configured)
 508:./tmk_core/protocol/lufa/lufa.c ****         return;
 509:./tmk_core/protocol/lufa/lufa.c **** 
 510:./tmk_core/protocol/lufa/lufa.c ****     /* Select the Keyboard Report Endpoint */
 511:./tmk_core/protocol/lufa/lufa.c **** #ifdef NKRO_ENABLE
 512:./tmk_core/protocol/lufa/lufa.c ****     if (keyboard_protocol && keymap_config.nkro) {
 513:./tmk_core/protocol/lufa/lufa.c ****         /* Report protocol - NKRO */
 514:./tmk_core/protocol/lufa/lufa.c ****         Endpoint_SelectEndpoint(NKRO_IN_EPNUM);
 515:./tmk_core/protocol/lufa/lufa.c **** 
 516:./tmk_core/protocol/lufa/lufa.c ****         /* Check if write ready for a polling interval around 1ms */
 517:./tmk_core/protocol/lufa/lufa.c ****         while (timeout-- && !Endpoint_IsReadWriteAllowed()) _delay_us(4);
 518:./tmk_core/protocol/lufa/lufa.c ****         if (!Endpoint_IsReadWriteAllowed()) return;
 519:./tmk_core/protocol/lufa/lufa.c **** 
 520:./tmk_core/protocol/lufa/lufa.c ****         /* Write Keyboard Report Data */
 521:./tmk_core/protocol/lufa/lufa.c ****         Endpoint_Write_Stream_LE(report, NKRO_EPSIZE, NULL);
 522:./tmk_core/protocol/lufa/lufa.c ****     }
 523:./tmk_core/protocol/lufa/lufa.c ****     else
 524:./tmk_core/protocol/lufa/lufa.c **** #endif
 525:./tmk_core/protocol/lufa/lufa.c ****     {
 526:./tmk_core/protocol/lufa/lufa.c ****         /* Boot protocol */
 527:./tmk_core/protocol/lufa/lufa.c ****         Endpoint_SelectEndpoint(KEYBOARD_IN_EPNUM);
 528:./tmk_core/protocol/lufa/lufa.c **** 
 529:./tmk_core/protocol/lufa/lufa.c ****         /* Check if write ready for a polling interval around 10ms */
 530:./tmk_core/protocol/lufa/lufa.c ****         while (timeout-- && !Endpoint_IsReadWriteAllowed()) _delay_us(40);
 531:./tmk_core/protocol/lufa/lufa.c ****         if (!Endpoint_IsReadWriteAllowed()) return;
 532:./tmk_core/protocol/lufa/lufa.c **** 
 533:./tmk_core/protocol/lufa/lufa.c ****         /* Write Keyboard Report Data */
 534:./tmk_core/protocol/lufa/lufa.c ****         Endpoint_Write_Stream_LE(report, KEYBOARD_EPSIZE, NULL);
 535:./tmk_core/protocol/lufa/lufa.c ****     }
 536:./tmk_core/protocol/lufa/lufa.c **** 
 537:./tmk_core/protocol/lufa/lufa.c ****     /* Finalize the stream transfer to send the last packet */
 538:./tmk_core/protocol/lufa/lufa.c ****     Endpoint_ClearIN();
 539:./tmk_core/protocol/lufa/lufa.c **** 
 540:./tmk_core/protocol/lufa/lufa.c ****     keyboard_report_sent = *report;
 541:./tmk_core/protocol/lufa/lufa.c **** }
 542:./tmk_core/protocol/lufa/lufa.c **** 
 543:./tmk_core/protocol/lufa/lufa.c **** static void send_mouse(report_mouse_t *report)
 544:./tmk_core/protocol/lufa/lufa.c **** {
  31               		.loc 1 544 0
  32               		.cfi_startproc
  33               	.LVL0:
  34               	/* prologue: function */
  35               	/* frame size = 0 */
  36               	/* stack size = 0 */
  37               	.L__stack_usage = 0
  38 0000 0895      		ret
  39               		.cfi_endproc
  40               	.LFE117:
  42               		.section	.text.send_consumer,"ax",@progbits
  44               	send_consumer:
  45               	.LFB119:
 545:./tmk_core/protocol/lufa/lufa.c **** #ifdef MOUSE_ENABLE
 546:./tmk_core/protocol/lufa/lufa.c **** 
 547:./tmk_core/protocol/lufa/lufa.c **** #ifdef BLUETOOTH_ENABLE
 548:./tmk_core/protocol/lufa/lufa.c ****     bluefruit_serial_send(0xFD);
 549:./tmk_core/protocol/lufa/lufa.c ****     bluefruit_serial_send(0x00);
 550:./tmk_core/protocol/lufa/lufa.c ****     bluefruit_serial_send(0x03);
 551:./tmk_core/protocol/lufa/lufa.c ****     bluefruit_serial_send(report->buttons);
 552:./tmk_core/protocol/lufa/lufa.c ****     bluefruit_serial_send(report->x);
 553:./tmk_core/protocol/lufa/lufa.c ****     bluefruit_serial_send(report->y);
 554:./tmk_core/protocol/lufa/lufa.c ****     bluefruit_serial_send(report->v); // should try sending the wheel v here
 555:./tmk_core/protocol/lufa/lufa.c ****     bluefruit_serial_send(report->h); // should try sending the wheel h here
 556:./tmk_core/protocol/lufa/lufa.c ****     bluefruit_serial_send(0x00);
 557:./tmk_core/protocol/lufa/lufa.c **** #endif
 558:./tmk_core/protocol/lufa/lufa.c **** 
 559:./tmk_core/protocol/lufa/lufa.c ****     uint8_t timeout = 255;
 560:./tmk_core/protocol/lufa/lufa.c **** 
 561:./tmk_core/protocol/lufa/lufa.c ****     if (USB_DeviceState != DEVICE_STATE_Configured)
 562:./tmk_core/protocol/lufa/lufa.c ****         return;
 563:./tmk_core/protocol/lufa/lufa.c **** 
 564:./tmk_core/protocol/lufa/lufa.c ****     /* Select the Mouse Report Endpoint */
 565:./tmk_core/protocol/lufa/lufa.c ****     Endpoint_SelectEndpoint(MOUSE_IN_EPNUM);
 566:./tmk_core/protocol/lufa/lufa.c **** 
 567:./tmk_core/protocol/lufa/lufa.c ****     /* Check if write ready for a polling interval around 10ms */
 568:./tmk_core/protocol/lufa/lufa.c ****     while (timeout-- && !Endpoint_IsReadWriteAllowed()) _delay_us(40);
 569:./tmk_core/protocol/lufa/lufa.c ****     if (!Endpoint_IsReadWriteAllowed()) return;
 570:./tmk_core/protocol/lufa/lufa.c **** 
 571:./tmk_core/protocol/lufa/lufa.c ****     /* Write Mouse Report Data */
 572:./tmk_core/protocol/lufa/lufa.c ****     Endpoint_Write_Stream_LE(report, sizeof(report_mouse_t), NULL);
 573:./tmk_core/protocol/lufa/lufa.c **** 
 574:./tmk_core/protocol/lufa/lufa.c ****     /* Finalize the stream transfer to send the last packet */
 575:./tmk_core/protocol/lufa/lufa.c ****     Endpoint_ClearIN();
 576:./tmk_core/protocol/lufa/lufa.c **** #endif
 577:./tmk_core/protocol/lufa/lufa.c **** }
 578:./tmk_core/protocol/lufa/lufa.c **** 
 579:./tmk_core/protocol/lufa/lufa.c **** static void send_system(uint16_t data)
 580:./tmk_core/protocol/lufa/lufa.c **** {
 581:./tmk_core/protocol/lufa/lufa.c ****     uint8_t timeout = 255;
 582:./tmk_core/protocol/lufa/lufa.c **** 
 583:./tmk_core/protocol/lufa/lufa.c ****     if (USB_DeviceState != DEVICE_STATE_Configured)
 584:./tmk_core/protocol/lufa/lufa.c ****         return;
 585:./tmk_core/protocol/lufa/lufa.c **** 
 586:./tmk_core/protocol/lufa/lufa.c ****     report_extra_t r = {
 587:./tmk_core/protocol/lufa/lufa.c ****         .report_id = REPORT_ID_SYSTEM,
 588:./tmk_core/protocol/lufa/lufa.c ****         .usage = data
 589:./tmk_core/protocol/lufa/lufa.c ****     };
 590:./tmk_core/protocol/lufa/lufa.c ****     Endpoint_SelectEndpoint(EXTRAKEY_IN_EPNUM);
 591:./tmk_core/protocol/lufa/lufa.c **** 
 592:./tmk_core/protocol/lufa/lufa.c ****     /* Check if write ready for a polling interval around 10ms */
 593:./tmk_core/protocol/lufa/lufa.c ****     while (timeout-- && !Endpoint_IsReadWriteAllowed()) _delay_us(40);
 594:./tmk_core/protocol/lufa/lufa.c ****     if (!Endpoint_IsReadWriteAllowed()) return;
 595:./tmk_core/protocol/lufa/lufa.c **** 
 596:./tmk_core/protocol/lufa/lufa.c ****     Endpoint_Write_Stream_LE(&r, sizeof(report_extra_t), NULL);
 597:./tmk_core/protocol/lufa/lufa.c ****     Endpoint_ClearIN();
 598:./tmk_core/protocol/lufa/lufa.c **** }
 599:./tmk_core/protocol/lufa/lufa.c **** 
 600:./tmk_core/protocol/lufa/lufa.c **** static void send_consumer(uint16_t data)
 601:./tmk_core/protocol/lufa/lufa.c **** {
  46               		.loc 1 601 0
  47               		.cfi_startproc
  48               	.LVL1:
  49               		.loc 1 601 0
  50 0000 CF93      		push r28
  51               	.LCFI0:
  52               		.cfi_def_cfa_offset 3
  53               		.cfi_offset 28, -2
  54 0002 DF93      		push r29
  55               	.LCFI1:
  56               		.cfi_def_cfa_offset 4
  57               		.cfi_offset 29, -3
  58 0004 00D0      		rcall .
  59 0006 1F92      		push __zero_reg__
  60               	.LCFI2:
  61               		.cfi_def_cfa_offset 7
  62 0008 CDB7      		in r28,__SP_L__
  63 000a DEB7      		in r29,__SP_H__
  64               	.LCFI3:
  65               		.cfi_def_cfa_register 28
  66               	/* prologue: function */
  67               	/* frame size = 3 */
  68               	/* stack size = 5 */
  69               	.L__stack_usage = 5
  70               	.LVL2:
 602:./tmk_core/protocol/lufa/lufa.c **** 
 603:./tmk_core/protocol/lufa/lufa.c **** #ifdef BLUETOOTH_ENABLE
 604:./tmk_core/protocol/lufa/lufa.c ****     static uint16_t last_data = 0;
 605:./tmk_core/protocol/lufa/lufa.c ****     if (data == last_data) return;
 606:./tmk_core/protocol/lufa/lufa.c ****     last_data = data;
 607:./tmk_core/protocol/lufa/lufa.c ****     uint16_t bitmap = CONSUMER2BLUEFRUIT(data);
 608:./tmk_core/protocol/lufa/lufa.c ****     bluefruit_serial_send(0xFD);
 609:./tmk_core/protocol/lufa/lufa.c ****     bluefruit_serial_send(0x00);
 610:./tmk_core/protocol/lufa/lufa.c ****     bluefruit_serial_send(0x02);
 611:./tmk_core/protocol/lufa/lufa.c ****     bluefruit_serial_send((bitmap>>8)&0xFF);
 612:./tmk_core/protocol/lufa/lufa.c ****     bluefruit_serial_send(bitmap&0xFF);
 613:./tmk_core/protocol/lufa/lufa.c ****     bluefruit_serial_send(0x00);
 614:./tmk_core/protocol/lufa/lufa.c ****     bluefruit_serial_send(0x00);
 615:./tmk_core/protocol/lufa/lufa.c ****     bluefruit_serial_send(0x00);
 616:./tmk_core/protocol/lufa/lufa.c ****     bluefruit_serial_send(0x00);
 617:./tmk_core/protocol/lufa/lufa.c **** #endif
 618:./tmk_core/protocol/lufa/lufa.c **** 
 619:./tmk_core/protocol/lufa/lufa.c ****     uint8_t timeout = 255;
 620:./tmk_core/protocol/lufa/lufa.c **** 
 621:./tmk_core/protocol/lufa/lufa.c ****     if (USB_DeviceState != DEVICE_STATE_Configured)
  71               		.loc 1 621 0
  72 000c 2091 0000 		lds r18,USB_DeviceState
  73 0010 2430      		cpi r18,lo8(4)
  74 0012 01F4      		brne .L3
 622:./tmk_core/protocol/lufa/lufa.c ****         return;
 623:./tmk_core/protocol/lufa/lufa.c **** 
 624:./tmk_core/protocol/lufa/lufa.c ****     report_extra_t r = {
  75               		.loc 1 624 0
  76 0014 23E0      		ldi r18,lo8(3)
  77 0016 2983      		std Y+1,r18
  78 0018 9B83      		std Y+3,r25
  79 001a 8A83      		std Y+2,r24
  80               	.LVL3:
  81               	.LBB137:
  82               	.LBB138:
  83               		.file 2 "./tmk_core/protocol/lufa/LUFA-git/LUFA/Drivers/USB/Core/AVR8/../AVR8/Endpoint_AVR8.h"
   1:./tmk_core/protocol/lufa/LUFA-git/LUFA/Drivers/USB/Core/AVR8/../AVR8/Endpoint_AVR8.h **** /*
   2:./tmk_core/protocol/lufa/LUFA-git/LUFA/Drivers/USB/Core/AVR8/../AVR8/Endpoint_AVR8.h ****              LUFA Library
   3:./tmk_core/protocol/lufa/LUFA-git/LUFA/Drivers/USB/Core/AVR8/../AVR8/Endpoint_AVR8.h ****      Copyright (C) Dean Camera, 2014.
   4:./tmk_core/protocol/lufa/LUFA-git/LUFA/Drivers/USB/Core/AVR8/../AVR8/Endpoint_AVR8.h **** 
   5:./tmk_core/protocol/lufa/LUFA-git/LUFA/Drivers/USB/Core/AVR8/../AVR8/Endpoint_AVR8.h ****   dean [at] fourwalledcubicle [dot] com
   6:./tmk_core/protocol/lufa/LUFA-git/LUFA/Drivers/USB/Core/AVR8/../AVR8/Endpoint_AVR8.h ****            www.lufa-lib.org
   7:./tmk_core/protocol/lufa/LUFA-git/LUFA/Drivers/USB/Core/AVR8/../AVR8/Endpoint_AVR8.h **** */
   8:./tmk_core/protocol/lufa/LUFA-git/LUFA/Drivers/USB/Core/AVR8/../AVR8/Endpoint_AVR8.h **** 
   9:./tmk_core/protocol/lufa/LUFA-git/LUFA/Drivers/USB/Core/AVR8/../AVR8/Endpoint_AVR8.h **** /*
  10:./tmk_core/protocol/lufa/LUFA-git/LUFA/Drivers/USB/Core/AVR8/../AVR8/Endpoint_AVR8.h ****   Copyright 2014  Dean Camera (dean [at] fourwalledcubicle [dot] com)
  11:./tmk_core/protocol/lufa/LUFA-git/LUFA/Drivers/USB/Core/AVR8/../AVR8/Endpoint_AVR8.h **** 
  12:./tmk_core/protocol/lufa/LUFA-git/LUFA/Drivers/USB/Core/AVR8/../AVR8/Endpoint_AVR8.h ****   Permission to use, copy, modify, distribute, and sell this
  13:./tmk_core/protocol/lufa/LUFA-git/LUFA/Drivers/USB/Core/AVR8/../AVR8/Endpoint_AVR8.h ****   software and its documentation for any purpose is hereby granted
  14:./tmk_core/protocol/lufa/LUFA-git/LUFA/Drivers/USB/Core/AVR8/../AVR8/Endpoint_AVR8.h ****   without fee, provided that the above copyright notice appear in
  15:./tmk_core/protocol/lufa/LUFA-git/LUFA/Drivers/USB/Core/AVR8/../AVR8/Endpoint_AVR8.h ****   all copies and that both that the copyright notice and this
  16:./tmk_core/protocol/lufa/LUFA-git/LUFA/Drivers/USB/Core/AVR8/../AVR8/Endpoint_AVR8.h ****   permission notice and warranty disclaimer appear in supporting
  17:./tmk_core/protocol/lufa/LUFA-git/LUFA/Drivers/USB/Core/AVR8/../AVR8/Endpoint_AVR8.h ****   documentation, and that the name of the author not be used in
  18:./tmk_core/protocol/lufa/LUFA-git/LUFA/Drivers/USB/Core/AVR8/../AVR8/Endpoint_AVR8.h ****   advertising or publicity pertaining to distribution of the
  19:./tmk_core/protocol/lufa/LUFA-git/LUFA/Drivers/USB/Core/AVR8/../AVR8/Endpoint_AVR8.h ****   software without specific, written prior permission.
  20:./tmk_core/protocol/lufa/LUFA-git/LUFA/Drivers/USB/Core/AVR8/../AVR8/Endpoint_AVR8.h **** 
  21:./tmk_core/protocol/lufa/LUFA-git/LUFA/Drivers/USB/Core/AVR8/../AVR8/Endpoint_AVR8.h ****   The author disclaims all warranties with regard to this
  22:./tmk_core/protocol/lufa/LUFA-git/LUFA/Drivers/USB/Core/AVR8/../AVR8/Endpoint_AVR8.h ****   software, including all implied warranties of merchantability
  23:./tmk_core/protocol/lufa/LUFA-git/LUFA/Drivers/USB/Core/AVR8/../AVR8/Endpoint_AVR8.h ****   and fitness.  In no event shall the author be liable for any
  24:./tmk_core/protocol/lufa/LUFA-git/LUFA/Drivers/USB/Core/AVR8/../AVR8/Endpoint_AVR8.h ****   special, indirect or consequential damages or any damages
  25:./tmk_core/protocol/lufa/LUFA-git/LUFA/Drivers/USB/Core/AVR8/../AVR8/Endpoint_AVR8.h ****   whatsoever resulting from loss of use, data or profits, whether
  26:./tmk_core/protocol/lufa/LUFA-git/LUFA/Drivers/USB/Core/AVR8/../AVR8/Endpoint_AVR8.h ****   in an action of contract, negligence or other tortious action,
  27:./tmk_core/protocol/lufa/LUFA-git/LUFA/Drivers/USB/Core/AVR8/../AVR8/Endpoint_AVR8.h ****   arising out of or in connection with the use or performance of
  28:./tmk_core/protocol/lufa/LUFA-git/LUFA/Drivers/USB/Core/AVR8/../AVR8/Endpoint_AVR8.h ****   this software.
  29:./tmk_core/protocol/lufa/LUFA-git/LUFA/Drivers/USB/Core/AVR8/../AVR8/Endpoint_AVR8.h **** */
  30:./tmk_core/protocol/lufa/LUFA-git/LUFA/Drivers/USB/Core/AVR8/../AVR8/Endpoint_AVR8.h **** 
  31:./tmk_core/protocol/lufa/LUFA-git/LUFA/Drivers/USB/Core/AVR8/../AVR8/Endpoint_AVR8.h **** /** \file
  32:./tmk_core/protocol/lufa/LUFA-git/LUFA/Drivers/USB/Core/AVR8/../AVR8/Endpoint_AVR8.h ****  *  \brief USB Endpoint definitions for the AVR8 microcontrollers.
  33:./tmk_core/protocol/lufa/LUFA-git/LUFA/Drivers/USB/Core/AVR8/../AVR8/Endpoint_AVR8.h ****  *  \copydetails Group_EndpointManagement_AVR8
  34:./tmk_core/protocol/lufa/LUFA-git/LUFA/Drivers/USB/Core/AVR8/../AVR8/Endpoint_AVR8.h ****  *
  35:./tmk_core/protocol/lufa/LUFA-git/LUFA/Drivers/USB/Core/AVR8/../AVR8/Endpoint_AVR8.h ****  *  \note This file should not be included directly. It is automatically included as needed by the 
  36:./tmk_core/protocol/lufa/LUFA-git/LUFA/Drivers/USB/Core/AVR8/../AVR8/Endpoint_AVR8.h ****  *        dispatch header located in LUFA/Drivers/USB/USB.h.
  37:./tmk_core/protocol/lufa/LUFA-git/LUFA/Drivers/USB/Core/AVR8/../AVR8/Endpoint_AVR8.h ****  */
  38:./tmk_core/protocol/lufa/LUFA-git/LUFA/Drivers/USB/Core/AVR8/../AVR8/Endpoint_AVR8.h **** 
  39:./tmk_core/protocol/lufa/LUFA-git/LUFA/Drivers/USB/Core/AVR8/../AVR8/Endpoint_AVR8.h **** /** \ingroup Group_EndpointRW
  40:./tmk_core/protocol/lufa/LUFA-git/LUFA/Drivers/USB/Core/AVR8/../AVR8/Endpoint_AVR8.h ****  *  \defgroup Group_EndpointRW_AVR8 Endpoint Data Reading and Writing (AVR8)
  41:./tmk_core/protocol/lufa/LUFA-git/LUFA/Drivers/USB/Core/AVR8/../AVR8/Endpoint_AVR8.h ****  *  \brief Endpoint data read/write definitions for the Atmel AVR8 architecture.
  42:./tmk_core/protocol/lufa/LUFA-git/LUFA/Drivers/USB/Core/AVR8/../AVR8/Endpoint_AVR8.h ****  *
  43:./tmk_core/protocol/lufa/LUFA-git/LUFA/Drivers/USB/Core/AVR8/../AVR8/Endpoint_AVR8.h ****  *  Functions, macros, variables, enums and types related to data reading and writing from and to e
  44:./tmk_core/protocol/lufa/LUFA-git/LUFA/Drivers/USB/Core/AVR8/../AVR8/Endpoint_AVR8.h ****  */
  45:./tmk_core/protocol/lufa/LUFA-git/LUFA/Drivers/USB/Core/AVR8/../AVR8/Endpoint_AVR8.h **** 
  46:./tmk_core/protocol/lufa/LUFA-git/LUFA/Drivers/USB/Core/AVR8/../AVR8/Endpoint_AVR8.h **** /** \ingroup Group_EndpointPrimitiveRW
  47:./tmk_core/protocol/lufa/LUFA-git/LUFA/Drivers/USB/Core/AVR8/../AVR8/Endpoint_AVR8.h ****  *  \defgroup Group_EndpointPrimitiveRW_AVR8 Read/Write of Primitive Data Types (AVR8)
  48:./tmk_core/protocol/lufa/LUFA-git/LUFA/Drivers/USB/Core/AVR8/../AVR8/Endpoint_AVR8.h ****  *  \brief Endpoint primitive read/write definitions for the Atmel AVR8 architecture.
  49:./tmk_core/protocol/lufa/LUFA-git/LUFA/Drivers/USB/Core/AVR8/../AVR8/Endpoint_AVR8.h ****  *
  50:./tmk_core/protocol/lufa/LUFA-git/LUFA/Drivers/USB/Core/AVR8/../AVR8/Endpoint_AVR8.h ****  *  Functions, macros, variables, enums and types related to data reading and writing of primitive 
  51:./tmk_core/protocol/lufa/LUFA-git/LUFA/Drivers/USB/Core/AVR8/../AVR8/Endpoint_AVR8.h ****  *  from and to endpoints.
  52:./tmk_core/protocol/lufa/LUFA-git/LUFA/Drivers/USB/Core/AVR8/../AVR8/Endpoint_AVR8.h ****  */
  53:./tmk_core/protocol/lufa/LUFA-git/LUFA/Drivers/USB/Core/AVR8/../AVR8/Endpoint_AVR8.h **** 
  54:./tmk_core/protocol/lufa/LUFA-git/LUFA/Drivers/USB/Core/AVR8/../AVR8/Endpoint_AVR8.h **** /** \ingroup Group_EndpointPacketManagement
  55:./tmk_core/protocol/lufa/LUFA-git/LUFA/Drivers/USB/Core/AVR8/../AVR8/Endpoint_AVR8.h ****  *  \defgroup Group_EndpointPacketManagement_AVR8 Endpoint Packet Management (AVR8)
  56:./tmk_core/protocol/lufa/LUFA-git/LUFA/Drivers/USB/Core/AVR8/../AVR8/Endpoint_AVR8.h ****  *  \brief Endpoint packet management definitions for the Atmel AVR8 architecture.
  57:./tmk_core/protocol/lufa/LUFA-git/LUFA/Drivers/USB/Core/AVR8/../AVR8/Endpoint_AVR8.h ****  *
  58:./tmk_core/protocol/lufa/LUFA-git/LUFA/Drivers/USB/Core/AVR8/../AVR8/Endpoint_AVR8.h ****  *  Functions, macros, variables, enums and types related to packet management of endpoints.
  59:./tmk_core/protocol/lufa/LUFA-git/LUFA/Drivers/USB/Core/AVR8/../AVR8/Endpoint_AVR8.h ****  */
  60:./tmk_core/protocol/lufa/LUFA-git/LUFA/Drivers/USB/Core/AVR8/../AVR8/Endpoint_AVR8.h **** 
  61:./tmk_core/protocol/lufa/LUFA-git/LUFA/Drivers/USB/Core/AVR8/../AVR8/Endpoint_AVR8.h **** /** \ingroup Group_EndpointManagement
  62:./tmk_core/protocol/lufa/LUFA-git/LUFA/Drivers/USB/Core/AVR8/../AVR8/Endpoint_AVR8.h ****  *  \defgroup Group_EndpointManagement_AVR8 Endpoint Management (AVR8)
  63:./tmk_core/protocol/lufa/LUFA-git/LUFA/Drivers/USB/Core/AVR8/../AVR8/Endpoint_AVR8.h ****  *  \brief Endpoint management definitions for the Atmel AVR8 architecture.
  64:./tmk_core/protocol/lufa/LUFA-git/LUFA/Drivers/USB/Core/AVR8/../AVR8/Endpoint_AVR8.h ****  *
  65:./tmk_core/protocol/lufa/LUFA-git/LUFA/Drivers/USB/Core/AVR8/../AVR8/Endpoint_AVR8.h ****  *  Functions, macros and enums related to endpoint management when in USB Device mode. This
  66:./tmk_core/protocol/lufa/LUFA-git/LUFA/Drivers/USB/Core/AVR8/../AVR8/Endpoint_AVR8.h ****  *  module contains the endpoint management macros, as well as endpoint interrupt and data
  67:./tmk_core/protocol/lufa/LUFA-git/LUFA/Drivers/USB/Core/AVR8/../AVR8/Endpoint_AVR8.h ****  *  send/receive functions for various data types.
  68:./tmk_core/protocol/lufa/LUFA-git/LUFA/Drivers/USB/Core/AVR8/../AVR8/Endpoint_AVR8.h ****  *
  69:./tmk_core/protocol/lufa/LUFA-git/LUFA/Drivers/USB/Core/AVR8/../AVR8/Endpoint_AVR8.h ****  *  @{
  70:./tmk_core/protocol/lufa/LUFA-git/LUFA/Drivers/USB/Core/AVR8/../AVR8/Endpoint_AVR8.h ****  */
  71:./tmk_core/protocol/lufa/LUFA-git/LUFA/Drivers/USB/Core/AVR8/../AVR8/Endpoint_AVR8.h **** 
  72:./tmk_core/protocol/lufa/LUFA-git/LUFA/Drivers/USB/Core/AVR8/../AVR8/Endpoint_AVR8.h **** #ifndef __ENDPOINT_AVR8_H__
  73:./tmk_core/protocol/lufa/LUFA-git/LUFA/Drivers/USB/Core/AVR8/../AVR8/Endpoint_AVR8.h **** #define __ENDPOINT_AVR8_H__
  74:./tmk_core/protocol/lufa/LUFA-git/LUFA/Drivers/USB/Core/AVR8/../AVR8/Endpoint_AVR8.h **** 
  75:./tmk_core/protocol/lufa/LUFA-git/LUFA/Drivers/USB/Core/AVR8/../AVR8/Endpoint_AVR8.h **** 	/* Includes: */
  76:./tmk_core/protocol/lufa/LUFA-git/LUFA/Drivers/USB/Core/AVR8/../AVR8/Endpoint_AVR8.h **** 		#include "../../../../Common/Common.h"
  77:./tmk_core/protocol/lufa/LUFA-git/LUFA/Drivers/USB/Core/AVR8/../AVR8/Endpoint_AVR8.h **** 		#include "../USBTask.h"
  78:./tmk_core/protocol/lufa/LUFA-git/LUFA/Drivers/USB/Core/AVR8/../AVR8/Endpoint_AVR8.h **** 		#include "../USBInterrupt.h"
  79:./tmk_core/protocol/lufa/LUFA-git/LUFA/Drivers/USB/Core/AVR8/../AVR8/Endpoint_AVR8.h **** 
  80:./tmk_core/protocol/lufa/LUFA-git/LUFA/Drivers/USB/Core/AVR8/../AVR8/Endpoint_AVR8.h **** 	/* Enable C linkage for C++ Compilers: */
  81:./tmk_core/protocol/lufa/LUFA-git/LUFA/Drivers/USB/Core/AVR8/../AVR8/Endpoint_AVR8.h **** 		#if defined(__cplusplus)
  82:./tmk_core/protocol/lufa/LUFA-git/LUFA/Drivers/USB/Core/AVR8/../AVR8/Endpoint_AVR8.h **** 			extern "C" {
  83:./tmk_core/protocol/lufa/LUFA-git/LUFA/Drivers/USB/Core/AVR8/../AVR8/Endpoint_AVR8.h **** 		#endif
  84:./tmk_core/protocol/lufa/LUFA-git/LUFA/Drivers/USB/Core/AVR8/../AVR8/Endpoint_AVR8.h **** 
  85:./tmk_core/protocol/lufa/LUFA-git/LUFA/Drivers/USB/Core/AVR8/../AVR8/Endpoint_AVR8.h **** 	/* Preprocessor Checks: */
  86:./tmk_core/protocol/lufa/LUFA-git/LUFA/Drivers/USB/Core/AVR8/../AVR8/Endpoint_AVR8.h **** 		#if !defined(__INCLUDE_FROM_USB_DRIVER)
  87:./tmk_core/protocol/lufa/LUFA-git/LUFA/Drivers/USB/Core/AVR8/../AVR8/Endpoint_AVR8.h **** 			#error Do not include this file directly. Include LUFA/Drivers/USB/USB.h instead.
  88:./tmk_core/protocol/lufa/LUFA-git/LUFA/Drivers/USB/Core/AVR8/../AVR8/Endpoint_AVR8.h **** 		#endif
  89:./tmk_core/protocol/lufa/LUFA-git/LUFA/Drivers/USB/Core/AVR8/../AVR8/Endpoint_AVR8.h **** 
  90:./tmk_core/protocol/lufa/LUFA-git/LUFA/Drivers/USB/Core/AVR8/../AVR8/Endpoint_AVR8.h **** 	/* Private Interface - For use in library only: */
  91:./tmk_core/protocol/lufa/LUFA-git/LUFA/Drivers/USB/Core/AVR8/../AVR8/Endpoint_AVR8.h **** 	#if !defined(__DOXYGEN__)
  92:./tmk_core/protocol/lufa/LUFA-git/LUFA/Drivers/USB/Core/AVR8/../AVR8/Endpoint_AVR8.h **** 		/* Inline Functions: */
  93:./tmk_core/protocol/lufa/LUFA-git/LUFA/Drivers/USB/Core/AVR8/../AVR8/Endpoint_AVR8.h **** 			static inline uint8_t Endpoint_BytesToEPSizeMask(const uint16_t Bytes) ATTR_WARN_UNUSED_RESULT A
  94:./tmk_core/protocol/lufa/LUFA-git/LUFA/Drivers/USB/Core/AVR8/../AVR8/Endpoint_AVR8.h **** 			                                                                       ATTR_ALWAYS_INLINE;
  95:./tmk_core/protocol/lufa/LUFA-git/LUFA/Drivers/USB/Core/AVR8/../AVR8/Endpoint_AVR8.h **** 			static inline uint8_t Endpoint_BytesToEPSizeMask(const uint16_t Bytes)
  96:./tmk_core/protocol/lufa/LUFA-git/LUFA/Drivers/USB/Core/AVR8/../AVR8/Endpoint_AVR8.h **** 			{
  97:./tmk_core/protocol/lufa/LUFA-git/LUFA/Drivers/USB/Core/AVR8/../AVR8/Endpoint_AVR8.h **** 				uint8_t  MaskVal    = 0;
  98:./tmk_core/protocol/lufa/LUFA-git/LUFA/Drivers/USB/Core/AVR8/../AVR8/Endpoint_AVR8.h **** 				uint16_t CheckBytes = 8;
  99:./tmk_core/protocol/lufa/LUFA-git/LUFA/Drivers/USB/Core/AVR8/../AVR8/Endpoint_AVR8.h **** 
 100:./tmk_core/protocol/lufa/LUFA-git/LUFA/Drivers/USB/Core/AVR8/../AVR8/Endpoint_AVR8.h **** 				while (CheckBytes < Bytes)
 101:./tmk_core/protocol/lufa/LUFA-git/LUFA/Drivers/USB/Core/AVR8/../AVR8/Endpoint_AVR8.h **** 				{
 102:./tmk_core/protocol/lufa/LUFA-git/LUFA/Drivers/USB/Core/AVR8/../AVR8/Endpoint_AVR8.h **** 					MaskVal++;
 103:./tmk_core/protocol/lufa/LUFA-git/LUFA/Drivers/USB/Core/AVR8/../AVR8/Endpoint_AVR8.h **** 					CheckBytes <<= 1;
 104:./tmk_core/protocol/lufa/LUFA-git/LUFA/Drivers/USB/Core/AVR8/../AVR8/Endpoint_AVR8.h **** 				}
 105:./tmk_core/protocol/lufa/LUFA-git/LUFA/Drivers/USB/Core/AVR8/../AVR8/Endpoint_AVR8.h **** 
 106:./tmk_core/protocol/lufa/LUFA-git/LUFA/Drivers/USB/Core/AVR8/../AVR8/Endpoint_AVR8.h **** 				return (MaskVal << EPSIZE0);
 107:./tmk_core/protocol/lufa/LUFA-git/LUFA/Drivers/USB/Core/AVR8/../AVR8/Endpoint_AVR8.h **** 			}
 108:./tmk_core/protocol/lufa/LUFA-git/LUFA/Drivers/USB/Core/AVR8/../AVR8/Endpoint_AVR8.h **** 
 109:./tmk_core/protocol/lufa/LUFA-git/LUFA/Drivers/USB/Core/AVR8/../AVR8/Endpoint_AVR8.h **** 		/* Function Prototypes: */
 110:./tmk_core/protocol/lufa/LUFA-git/LUFA/Drivers/USB/Core/AVR8/../AVR8/Endpoint_AVR8.h **** 			void Endpoint_ClearEndpoints(void);
 111:./tmk_core/protocol/lufa/LUFA-git/LUFA/Drivers/USB/Core/AVR8/../AVR8/Endpoint_AVR8.h **** 			bool Endpoint_ConfigureEndpoint_Prv(const uint8_t Number,
 112:./tmk_core/protocol/lufa/LUFA-git/LUFA/Drivers/USB/Core/AVR8/../AVR8/Endpoint_AVR8.h **** 			                                    const uint8_t UECFG0XData,
 113:./tmk_core/protocol/lufa/LUFA-git/LUFA/Drivers/USB/Core/AVR8/../AVR8/Endpoint_AVR8.h **** 			                                    const uint8_t UECFG1XData);
 114:./tmk_core/protocol/lufa/LUFA-git/LUFA/Drivers/USB/Core/AVR8/../AVR8/Endpoint_AVR8.h **** 
 115:./tmk_core/protocol/lufa/LUFA-git/LUFA/Drivers/USB/Core/AVR8/../AVR8/Endpoint_AVR8.h **** 	#endif
 116:./tmk_core/protocol/lufa/LUFA-git/LUFA/Drivers/USB/Core/AVR8/../AVR8/Endpoint_AVR8.h **** 
 117:./tmk_core/protocol/lufa/LUFA-git/LUFA/Drivers/USB/Core/AVR8/../AVR8/Endpoint_AVR8.h **** 	/* Public Interface - May be used in end-application: */
 118:./tmk_core/protocol/lufa/LUFA-git/LUFA/Drivers/USB/Core/AVR8/../AVR8/Endpoint_AVR8.h **** 		/* Macros: */
 119:./tmk_core/protocol/lufa/LUFA-git/LUFA/Drivers/USB/Core/AVR8/../AVR8/Endpoint_AVR8.h **** 			#if (!defined(FIXED_CONTROL_ENDPOINT_SIZE) || defined(__DOXYGEN__))
 120:./tmk_core/protocol/lufa/LUFA-git/LUFA/Drivers/USB/Core/AVR8/../AVR8/Endpoint_AVR8.h **** 				/** Default size of the default control endpoint's bank, until altered by the control endpoint 
 121:./tmk_core/protocol/lufa/LUFA-git/LUFA/Drivers/USB/Core/AVR8/../AVR8/Endpoint_AVR8.h **** 				 *  value in the device descriptor. Not available if the \c FIXED_CONTROL_ENDPOINT_SIZE token i
 122:./tmk_core/protocol/lufa/LUFA-git/LUFA/Drivers/USB/Core/AVR8/../AVR8/Endpoint_AVR8.h **** 				 */
 123:./tmk_core/protocol/lufa/LUFA-git/LUFA/Drivers/USB/Core/AVR8/../AVR8/Endpoint_AVR8.h **** 				#define ENDPOINT_CONTROLEP_DEFAULT_SIZE     8
 124:./tmk_core/protocol/lufa/LUFA-git/LUFA/Drivers/USB/Core/AVR8/../AVR8/Endpoint_AVR8.h **** 			#endif
 125:./tmk_core/protocol/lufa/LUFA-git/LUFA/Drivers/USB/Core/AVR8/../AVR8/Endpoint_AVR8.h **** 
 126:./tmk_core/protocol/lufa/LUFA-git/LUFA/Drivers/USB/Core/AVR8/../AVR8/Endpoint_AVR8.h **** 			#if !defined(CONTROL_ONLY_DEVICE) || defined(__DOXYGEN__)
 127:./tmk_core/protocol/lufa/LUFA-git/LUFA/Drivers/USB/Core/AVR8/../AVR8/Endpoint_AVR8.h **** 				#if defined(USB_SERIES_4_AVR) || defined(USB_SERIES_6_AVR) || defined(USB_SERIES_7_AVR) || defi
 128:./tmk_core/protocol/lufa/LUFA-git/LUFA/Drivers/USB/Core/AVR8/../AVR8/Endpoint_AVR8.h **** 					/** Total number of endpoints (including the default control endpoint at address 0) which may
 129:./tmk_core/protocol/lufa/LUFA-git/LUFA/Drivers/USB/Core/AVR8/../AVR8/Endpoint_AVR8.h **** 					 *  be used in the device. Different USB AVR models support different amounts of endpoints,
 130:./tmk_core/protocol/lufa/LUFA-git/LUFA/Drivers/USB/Core/AVR8/../AVR8/Endpoint_AVR8.h **** 					 *  this value reflects the maximum number of endpoints for the currently selected AVR model.
 131:./tmk_core/protocol/lufa/LUFA-git/LUFA/Drivers/USB/Core/AVR8/../AVR8/Endpoint_AVR8.h **** 					 */
 132:./tmk_core/protocol/lufa/LUFA-git/LUFA/Drivers/USB/Core/AVR8/../AVR8/Endpoint_AVR8.h **** 					#define ENDPOINT_TOTAL_ENDPOINTS        7
 133:./tmk_core/protocol/lufa/LUFA-git/LUFA/Drivers/USB/Core/AVR8/../AVR8/Endpoint_AVR8.h **** 				#else
 134:./tmk_core/protocol/lufa/LUFA-git/LUFA/Drivers/USB/Core/AVR8/../AVR8/Endpoint_AVR8.h **** 					#define ENDPOINT_TOTAL_ENDPOINTS        5
 135:./tmk_core/protocol/lufa/LUFA-git/LUFA/Drivers/USB/Core/AVR8/../AVR8/Endpoint_AVR8.h **** 				#endif
 136:./tmk_core/protocol/lufa/LUFA-git/LUFA/Drivers/USB/Core/AVR8/../AVR8/Endpoint_AVR8.h **** 			#else
 137:./tmk_core/protocol/lufa/LUFA-git/LUFA/Drivers/USB/Core/AVR8/../AVR8/Endpoint_AVR8.h **** 				#define ENDPOINT_TOTAL_ENDPOINTS            1
 138:./tmk_core/protocol/lufa/LUFA-git/LUFA/Drivers/USB/Core/AVR8/../AVR8/Endpoint_AVR8.h **** 			#endif
 139:./tmk_core/protocol/lufa/LUFA-git/LUFA/Drivers/USB/Core/AVR8/../AVR8/Endpoint_AVR8.h **** 
 140:./tmk_core/protocol/lufa/LUFA-git/LUFA/Drivers/USB/Core/AVR8/../AVR8/Endpoint_AVR8.h **** 		/* Enums: */
 141:./tmk_core/protocol/lufa/LUFA-git/LUFA/Drivers/USB/Core/AVR8/../AVR8/Endpoint_AVR8.h **** 			/** Enum for the possible error return codes of the \ref Endpoint_WaitUntilReady() function.
 142:./tmk_core/protocol/lufa/LUFA-git/LUFA/Drivers/USB/Core/AVR8/../AVR8/Endpoint_AVR8.h **** 			 *
 143:./tmk_core/protocol/lufa/LUFA-git/LUFA/Drivers/USB/Core/AVR8/../AVR8/Endpoint_AVR8.h **** 			 *  \ingroup Group_EndpointRW_AVR8
 144:./tmk_core/protocol/lufa/LUFA-git/LUFA/Drivers/USB/Core/AVR8/../AVR8/Endpoint_AVR8.h **** 			 */
 145:./tmk_core/protocol/lufa/LUFA-git/LUFA/Drivers/USB/Core/AVR8/../AVR8/Endpoint_AVR8.h **** 			enum Endpoint_WaitUntilReady_ErrorCodes_t
 146:./tmk_core/protocol/lufa/LUFA-git/LUFA/Drivers/USB/Core/AVR8/../AVR8/Endpoint_AVR8.h **** 			{
 147:./tmk_core/protocol/lufa/LUFA-git/LUFA/Drivers/USB/Core/AVR8/../AVR8/Endpoint_AVR8.h **** 				ENDPOINT_READYWAIT_NoError                 = 0, /**< Endpoint is ready for next packet, no erro
 148:./tmk_core/protocol/lufa/LUFA-git/LUFA/Drivers/USB/Core/AVR8/../AVR8/Endpoint_AVR8.h **** 				ENDPOINT_READYWAIT_EndpointStalled         = 1, /**< The endpoint was stalled during the stream
 149:./tmk_core/protocol/lufa/LUFA-git/LUFA/Drivers/USB/Core/AVR8/../AVR8/Endpoint_AVR8.h **** 				                                                 *   transfer by the host or device.
 150:./tmk_core/protocol/lufa/LUFA-git/LUFA/Drivers/USB/Core/AVR8/../AVR8/Endpoint_AVR8.h **** 				                                                 */
 151:./tmk_core/protocol/lufa/LUFA-git/LUFA/Drivers/USB/Core/AVR8/../AVR8/Endpoint_AVR8.h **** 				ENDPOINT_READYWAIT_DeviceDisconnected      = 2,	/**< Device was disconnected from the host whil
 152:./tmk_core/protocol/lufa/LUFA-git/LUFA/Drivers/USB/Core/AVR8/../AVR8/Endpoint_AVR8.h **** 				                                                 *   waiting for the endpoint to become ready.
 153:./tmk_core/protocol/lufa/LUFA-git/LUFA/Drivers/USB/Core/AVR8/../AVR8/Endpoint_AVR8.h **** 				                                                 */
 154:./tmk_core/protocol/lufa/LUFA-git/LUFA/Drivers/USB/Core/AVR8/../AVR8/Endpoint_AVR8.h **** 				ENDPOINT_READYWAIT_BusSuspended            = 3, /**< The USB bus has been suspended by the host
 155:./tmk_core/protocol/lufa/LUFA-git/LUFA/Drivers/USB/Core/AVR8/../AVR8/Endpoint_AVR8.h **** 				                                                 *   no USB endpoint traffic can occur until th
 156:./tmk_core/protocol/lufa/LUFA-git/LUFA/Drivers/USB/Core/AVR8/../AVR8/Endpoint_AVR8.h **** 				                                                 *   has resumed.
 157:./tmk_core/protocol/lufa/LUFA-git/LUFA/Drivers/USB/Core/AVR8/../AVR8/Endpoint_AVR8.h **** 				                                                 */
 158:./tmk_core/protocol/lufa/LUFA-git/LUFA/Drivers/USB/Core/AVR8/../AVR8/Endpoint_AVR8.h **** 				ENDPOINT_READYWAIT_Timeout                 = 4, /**< The host failed to accept or send the next
 159:./tmk_core/protocol/lufa/LUFA-git/LUFA/Drivers/USB/Core/AVR8/../AVR8/Endpoint_AVR8.h **** 				                                                 *   within the software timeout period set by 
 160:./tmk_core/protocol/lufa/LUFA-git/LUFA/Drivers/USB/Core/AVR8/../AVR8/Endpoint_AVR8.h **** 				                                                 *   \ref USB_STREAM_TIMEOUT_MS macro.
 161:./tmk_core/protocol/lufa/LUFA-git/LUFA/Drivers/USB/Core/AVR8/../AVR8/Endpoint_AVR8.h **** 				                                                 */
 162:./tmk_core/protocol/lufa/LUFA-git/LUFA/Drivers/USB/Core/AVR8/../AVR8/Endpoint_AVR8.h **** 			};
 163:./tmk_core/protocol/lufa/LUFA-git/LUFA/Drivers/USB/Core/AVR8/../AVR8/Endpoint_AVR8.h **** 
 164:./tmk_core/protocol/lufa/LUFA-git/LUFA/Drivers/USB/Core/AVR8/../AVR8/Endpoint_AVR8.h **** 		/* Inline Functions: */
 165:./tmk_core/protocol/lufa/LUFA-git/LUFA/Drivers/USB/Core/AVR8/../AVR8/Endpoint_AVR8.h **** 			/** Configures the specified endpoint address with the given endpoint type, bank size and number
 166:./tmk_core/protocol/lufa/LUFA-git/LUFA/Drivers/USB/Core/AVR8/../AVR8/Endpoint_AVR8.h **** 			 *  banks. Once configured, the endpoint may be read from or written to, depending on its direct
 167:./tmk_core/protocol/lufa/LUFA-git/LUFA/Drivers/USB/Core/AVR8/../AVR8/Endpoint_AVR8.h **** 			 *
 168:./tmk_core/protocol/lufa/LUFA-git/LUFA/Drivers/USB/Core/AVR8/../AVR8/Endpoint_AVR8.h **** 			 *  \param[in] Address    Endpoint address to configure.
 169:./tmk_core/protocol/lufa/LUFA-git/LUFA/Drivers/USB/Core/AVR8/../AVR8/Endpoint_AVR8.h **** 			 *
 170:./tmk_core/protocol/lufa/LUFA-git/LUFA/Drivers/USB/Core/AVR8/../AVR8/Endpoint_AVR8.h **** 			 *  \param[in] Type       Type of endpoint to configure, a \c EP_TYPE_* mask. Not all endpoint t
 171:./tmk_core/protocol/lufa/LUFA-git/LUFA/Drivers/USB/Core/AVR8/../AVR8/Endpoint_AVR8.h **** 			 *                        are available on Low Speed USB devices - refer to the USB 2.0 specific
 172:./tmk_core/protocol/lufa/LUFA-git/LUFA/Drivers/USB/Core/AVR8/../AVR8/Endpoint_AVR8.h **** 			 *
 173:./tmk_core/protocol/lufa/LUFA-git/LUFA/Drivers/USB/Core/AVR8/../AVR8/Endpoint_AVR8.h **** 			 *  \param[in] Size       Size of the endpoint's bank, where packets are stored before they are 
 174:./tmk_core/protocol/lufa/LUFA-git/LUFA/Drivers/USB/Core/AVR8/../AVR8/Endpoint_AVR8.h **** 			 *                        to the USB host, or after they have been received from the USB host (d
 175:./tmk_core/protocol/lufa/LUFA-git/LUFA/Drivers/USB/Core/AVR8/../AVR8/Endpoint_AVR8.h **** 			 *                        the endpoint's data direction). The bank size must indicate the maximu
 176:./tmk_core/protocol/lufa/LUFA-git/LUFA/Drivers/USB/Core/AVR8/../AVR8/Endpoint_AVR8.h **** 			 *                        that the endpoint can handle.
 177:./tmk_core/protocol/lufa/LUFA-git/LUFA/Drivers/USB/Core/AVR8/../AVR8/Endpoint_AVR8.h **** 			 *
 178:./tmk_core/protocol/lufa/LUFA-git/LUFA/Drivers/USB/Core/AVR8/../AVR8/Endpoint_AVR8.h **** 			 *  \param[in] Banks      Number of banks to use for the endpoint being configured.
 179:./tmk_core/protocol/lufa/LUFA-git/LUFA/Drivers/USB/Core/AVR8/../AVR8/Endpoint_AVR8.h **** 			 *
 180:./tmk_core/protocol/lufa/LUFA-git/LUFA/Drivers/USB/Core/AVR8/../AVR8/Endpoint_AVR8.h **** 			 *  \attention When the \c ORDERED_EP_CONFIG compile time option is used, Endpoints <b>must</b> 
 181:./tmk_core/protocol/lufa/LUFA-git/LUFA/Drivers/USB/Core/AVR8/../AVR8/Endpoint_AVR8.h **** 			 *             ascending order, or bank corruption will occur.
 182:./tmk_core/protocol/lufa/LUFA-git/LUFA/Drivers/USB/Core/AVR8/../AVR8/Endpoint_AVR8.h **** 			 *
 183:./tmk_core/protocol/lufa/LUFA-git/LUFA/Drivers/USB/Core/AVR8/../AVR8/Endpoint_AVR8.h **** 			 *  \note Different endpoints may have different maximum packet sizes based on the endpoint's in
 184:./tmk_core/protocol/lufa/LUFA-git/LUFA/Drivers/USB/Core/AVR8/../AVR8/Endpoint_AVR8.h **** 			 *        refer to the chosen microcontroller model's datasheet to determine the maximum bank si
 185:./tmk_core/protocol/lufa/LUFA-git/LUFA/Drivers/USB/Core/AVR8/../AVR8/Endpoint_AVR8.h **** 			 *        \n\n
 186:./tmk_core/protocol/lufa/LUFA-git/LUFA/Drivers/USB/Core/AVR8/../AVR8/Endpoint_AVR8.h **** 			 *
 187:./tmk_core/protocol/lufa/LUFA-git/LUFA/Drivers/USB/Core/AVR8/../AVR8/Endpoint_AVR8.h **** 			 *  \note The default control endpoint should not be manually configured by the user application
 188:./tmk_core/protocol/lufa/LUFA-git/LUFA/Drivers/USB/Core/AVR8/../AVR8/Endpoint_AVR8.h **** 			 *        it is automatically configured by the library internally.
 189:./tmk_core/protocol/lufa/LUFA-git/LUFA/Drivers/USB/Core/AVR8/../AVR8/Endpoint_AVR8.h **** 			 *        \n\n
 190:./tmk_core/protocol/lufa/LUFA-git/LUFA/Drivers/USB/Core/AVR8/../AVR8/Endpoint_AVR8.h **** 			 *
 191:./tmk_core/protocol/lufa/LUFA-git/LUFA/Drivers/USB/Core/AVR8/../AVR8/Endpoint_AVR8.h **** 			 *  \note This routine will automatically select the specified endpoint upon success. Upon failu
 192:./tmk_core/protocol/lufa/LUFA-git/LUFA/Drivers/USB/Core/AVR8/../AVR8/Endpoint_AVR8.h **** 			 *        which failed to reconfigure correctly will be selected.
 193:./tmk_core/protocol/lufa/LUFA-git/LUFA/Drivers/USB/Core/AVR8/../AVR8/Endpoint_AVR8.h **** 			 *
 194:./tmk_core/protocol/lufa/LUFA-git/LUFA/Drivers/USB/Core/AVR8/../AVR8/Endpoint_AVR8.h **** 			 *  \return Boolean \c true if the configuration succeeded, \c false otherwise.
 195:./tmk_core/protocol/lufa/LUFA-git/LUFA/Drivers/USB/Core/AVR8/../AVR8/Endpoint_AVR8.h **** 			 */
 196:./tmk_core/protocol/lufa/LUFA-git/LUFA/Drivers/USB/Core/AVR8/../AVR8/Endpoint_AVR8.h **** 			static inline bool Endpoint_ConfigureEndpoint(const uint8_t Address,
 197:./tmk_core/protocol/lufa/LUFA-git/LUFA/Drivers/USB/Core/AVR8/../AVR8/Endpoint_AVR8.h **** 			                                              const uint8_t Type,
 198:./tmk_core/protocol/lufa/LUFA-git/LUFA/Drivers/USB/Core/AVR8/../AVR8/Endpoint_AVR8.h **** 			                                              const uint16_t Size,
 199:./tmk_core/protocol/lufa/LUFA-git/LUFA/Drivers/USB/Core/AVR8/../AVR8/Endpoint_AVR8.h **** 			                                              const uint8_t Banks) ATTR_ALWAYS_INLINE;
 200:./tmk_core/protocol/lufa/LUFA-git/LUFA/Drivers/USB/Core/AVR8/../AVR8/Endpoint_AVR8.h **** 			static inline bool Endpoint_ConfigureEndpoint(const uint8_t Address,
 201:./tmk_core/protocol/lufa/LUFA-git/LUFA/Drivers/USB/Core/AVR8/../AVR8/Endpoint_AVR8.h **** 			                                              const uint8_t Type,
 202:./tmk_core/protocol/lufa/LUFA-git/LUFA/Drivers/USB/Core/AVR8/../AVR8/Endpoint_AVR8.h **** 			                                              const uint16_t Size,
 203:./tmk_core/protocol/lufa/LUFA-git/LUFA/Drivers/USB/Core/AVR8/../AVR8/Endpoint_AVR8.h **** 			                                              const uint8_t Banks)
 204:./tmk_core/protocol/lufa/LUFA-git/LUFA/Drivers/USB/Core/AVR8/../AVR8/Endpoint_AVR8.h **** 			{
 205:./tmk_core/protocol/lufa/LUFA-git/LUFA/Drivers/USB/Core/AVR8/../AVR8/Endpoint_AVR8.h **** 				uint8_t Number = (Address & ENDPOINT_EPNUM_MASK);
 206:./tmk_core/protocol/lufa/LUFA-git/LUFA/Drivers/USB/Core/AVR8/../AVR8/Endpoint_AVR8.h **** 
 207:./tmk_core/protocol/lufa/LUFA-git/LUFA/Drivers/USB/Core/AVR8/../AVR8/Endpoint_AVR8.h **** 				if (Number >= ENDPOINT_TOTAL_ENDPOINTS)
 208:./tmk_core/protocol/lufa/LUFA-git/LUFA/Drivers/USB/Core/AVR8/../AVR8/Endpoint_AVR8.h **** 				  return false;
 209:./tmk_core/protocol/lufa/LUFA-git/LUFA/Drivers/USB/Core/AVR8/../AVR8/Endpoint_AVR8.h **** 
 210:./tmk_core/protocol/lufa/LUFA-git/LUFA/Drivers/USB/Core/AVR8/../AVR8/Endpoint_AVR8.h **** 				return Endpoint_ConfigureEndpoint_Prv(Number,
 211:./tmk_core/protocol/lufa/LUFA-git/LUFA/Drivers/USB/Core/AVR8/../AVR8/Endpoint_AVR8.h **** 				                                      ((Type << EPTYPE0) | ((Address & ENDPOINT_DIR_IN) ? (1 <<
 212:./tmk_core/protocol/lufa/LUFA-git/LUFA/Drivers/USB/Core/AVR8/../AVR8/Endpoint_AVR8.h **** 				                                      ((1 << ALLOC) | ((Banks > 1) ? (1 << EPBK0) : 0) | Endpoi
 213:./tmk_core/protocol/lufa/LUFA-git/LUFA/Drivers/USB/Core/AVR8/../AVR8/Endpoint_AVR8.h **** 			}
 214:./tmk_core/protocol/lufa/LUFA-git/LUFA/Drivers/USB/Core/AVR8/../AVR8/Endpoint_AVR8.h **** 
 215:./tmk_core/protocol/lufa/LUFA-git/LUFA/Drivers/USB/Core/AVR8/../AVR8/Endpoint_AVR8.h **** 			/** Indicates the number of bytes currently stored in the current endpoint's selected bank.
 216:./tmk_core/protocol/lufa/LUFA-git/LUFA/Drivers/USB/Core/AVR8/../AVR8/Endpoint_AVR8.h **** 			 *
 217:./tmk_core/protocol/lufa/LUFA-git/LUFA/Drivers/USB/Core/AVR8/../AVR8/Endpoint_AVR8.h **** 			 *  \ingroup Group_EndpointRW_AVR8
 218:./tmk_core/protocol/lufa/LUFA-git/LUFA/Drivers/USB/Core/AVR8/../AVR8/Endpoint_AVR8.h **** 			 *
 219:./tmk_core/protocol/lufa/LUFA-git/LUFA/Drivers/USB/Core/AVR8/../AVR8/Endpoint_AVR8.h **** 			 *  \return Total number of bytes in the currently selected Endpoint's FIFO buffer.
 220:./tmk_core/protocol/lufa/LUFA-git/LUFA/Drivers/USB/Core/AVR8/../AVR8/Endpoint_AVR8.h **** 			 */
 221:./tmk_core/protocol/lufa/LUFA-git/LUFA/Drivers/USB/Core/AVR8/../AVR8/Endpoint_AVR8.h **** 			static inline uint16_t Endpoint_BytesInEndpoint(void) ATTR_WARN_UNUSED_RESULT ATTR_ALWAYS_INLINE
 222:./tmk_core/protocol/lufa/LUFA-git/LUFA/Drivers/USB/Core/AVR8/../AVR8/Endpoint_AVR8.h **** 			static inline uint16_t Endpoint_BytesInEndpoint(void)
 223:./tmk_core/protocol/lufa/LUFA-git/LUFA/Drivers/USB/Core/AVR8/../AVR8/Endpoint_AVR8.h **** 			{
 224:./tmk_core/protocol/lufa/LUFA-git/LUFA/Drivers/USB/Core/AVR8/../AVR8/Endpoint_AVR8.h **** 				#if (defined(USB_SERIES_6_AVR) || defined(USB_SERIES_7_AVR))
 225:./tmk_core/protocol/lufa/LUFA-git/LUFA/Drivers/USB/Core/AVR8/../AVR8/Endpoint_AVR8.h **** 					return UEBCX;
 226:./tmk_core/protocol/lufa/LUFA-git/LUFA/Drivers/USB/Core/AVR8/../AVR8/Endpoint_AVR8.h **** 				#elif defined(USB_SERIES_4_AVR)
 227:./tmk_core/protocol/lufa/LUFA-git/LUFA/Drivers/USB/Core/AVR8/../AVR8/Endpoint_AVR8.h **** 					return (((uint16_t)UEBCHX << 8) | UEBCLX);
 228:./tmk_core/protocol/lufa/LUFA-git/LUFA/Drivers/USB/Core/AVR8/../AVR8/Endpoint_AVR8.h **** 				#elif defined(USB_SERIES_2_AVR)
 229:./tmk_core/protocol/lufa/LUFA-git/LUFA/Drivers/USB/Core/AVR8/../AVR8/Endpoint_AVR8.h **** 					return UEBCLX;
 230:./tmk_core/protocol/lufa/LUFA-git/LUFA/Drivers/USB/Core/AVR8/../AVR8/Endpoint_AVR8.h **** 				#endif
 231:./tmk_core/protocol/lufa/LUFA-git/LUFA/Drivers/USB/Core/AVR8/../AVR8/Endpoint_AVR8.h **** 			}
 232:./tmk_core/protocol/lufa/LUFA-git/LUFA/Drivers/USB/Core/AVR8/../AVR8/Endpoint_AVR8.h **** 
 233:./tmk_core/protocol/lufa/LUFA-git/LUFA/Drivers/USB/Core/AVR8/../AVR8/Endpoint_AVR8.h **** 			/** Determines the currently selected endpoint's direction.
 234:./tmk_core/protocol/lufa/LUFA-git/LUFA/Drivers/USB/Core/AVR8/../AVR8/Endpoint_AVR8.h **** 			 *
 235:./tmk_core/protocol/lufa/LUFA-git/LUFA/Drivers/USB/Core/AVR8/../AVR8/Endpoint_AVR8.h **** 			 *  \return The currently selected endpoint's direction, as a \c ENDPOINT_DIR_* mask.
 236:./tmk_core/protocol/lufa/LUFA-git/LUFA/Drivers/USB/Core/AVR8/../AVR8/Endpoint_AVR8.h **** 			 */
 237:./tmk_core/protocol/lufa/LUFA-git/LUFA/Drivers/USB/Core/AVR8/../AVR8/Endpoint_AVR8.h **** 			static inline uint8_t Endpoint_GetEndpointDirection(void) ATTR_WARN_UNUSED_RESULT ATTR_ALWAYS_IN
 238:./tmk_core/protocol/lufa/LUFA-git/LUFA/Drivers/USB/Core/AVR8/../AVR8/Endpoint_AVR8.h **** 			static inline uint8_t Endpoint_GetEndpointDirection(void)
 239:./tmk_core/protocol/lufa/LUFA-git/LUFA/Drivers/USB/Core/AVR8/../AVR8/Endpoint_AVR8.h **** 			{
 240:./tmk_core/protocol/lufa/LUFA-git/LUFA/Drivers/USB/Core/AVR8/../AVR8/Endpoint_AVR8.h **** 				return (UECFG0X & (1 << EPDIR)) ? ENDPOINT_DIR_IN : ENDPOINT_DIR_OUT;
 241:./tmk_core/protocol/lufa/LUFA-git/LUFA/Drivers/USB/Core/AVR8/../AVR8/Endpoint_AVR8.h **** 			}
 242:./tmk_core/protocol/lufa/LUFA-git/LUFA/Drivers/USB/Core/AVR8/../AVR8/Endpoint_AVR8.h **** 
 243:./tmk_core/protocol/lufa/LUFA-git/LUFA/Drivers/USB/Core/AVR8/../AVR8/Endpoint_AVR8.h **** 			/** Get the endpoint address of the currently selected endpoint. This is typically used to save
 244:./tmk_core/protocol/lufa/LUFA-git/LUFA/Drivers/USB/Core/AVR8/../AVR8/Endpoint_AVR8.h **** 			 *  the currently selected endpoint so that it can be restored after another endpoint has been
 245:./tmk_core/protocol/lufa/LUFA-git/LUFA/Drivers/USB/Core/AVR8/../AVR8/Endpoint_AVR8.h **** 			 *  manipulated.
 246:./tmk_core/protocol/lufa/LUFA-git/LUFA/Drivers/USB/Core/AVR8/../AVR8/Endpoint_AVR8.h **** 			 *
 247:./tmk_core/protocol/lufa/LUFA-git/LUFA/Drivers/USB/Core/AVR8/../AVR8/Endpoint_AVR8.h **** 			 *  \return Index of the currently selected endpoint.
 248:./tmk_core/protocol/lufa/LUFA-git/LUFA/Drivers/USB/Core/AVR8/../AVR8/Endpoint_AVR8.h **** 			 */
 249:./tmk_core/protocol/lufa/LUFA-git/LUFA/Drivers/USB/Core/AVR8/../AVR8/Endpoint_AVR8.h **** 			static inline uint8_t Endpoint_GetCurrentEndpoint(void) ATTR_WARN_UNUSED_RESULT ATTR_ALWAYS_INLI
 250:./tmk_core/protocol/lufa/LUFA-git/LUFA/Drivers/USB/Core/AVR8/../AVR8/Endpoint_AVR8.h **** 			static inline uint8_t Endpoint_GetCurrentEndpoint(void)
 251:./tmk_core/protocol/lufa/LUFA-git/LUFA/Drivers/USB/Core/AVR8/../AVR8/Endpoint_AVR8.h **** 			{
 252:./tmk_core/protocol/lufa/LUFA-git/LUFA/Drivers/USB/Core/AVR8/../AVR8/Endpoint_AVR8.h **** 				#if !defined(CONTROL_ONLY_DEVICE)
 253:./tmk_core/protocol/lufa/LUFA-git/LUFA/Drivers/USB/Core/AVR8/../AVR8/Endpoint_AVR8.h **** 					return ((UENUM & ENDPOINT_EPNUM_MASK) | Endpoint_GetEndpointDirection());
 254:./tmk_core/protocol/lufa/LUFA-git/LUFA/Drivers/USB/Core/AVR8/../AVR8/Endpoint_AVR8.h **** 				#else
 255:./tmk_core/protocol/lufa/LUFA-git/LUFA/Drivers/USB/Core/AVR8/../AVR8/Endpoint_AVR8.h **** 					return ENDPOINT_CONTROLEP;
 256:./tmk_core/protocol/lufa/LUFA-git/LUFA/Drivers/USB/Core/AVR8/../AVR8/Endpoint_AVR8.h **** 				#endif
 257:./tmk_core/protocol/lufa/LUFA-git/LUFA/Drivers/USB/Core/AVR8/../AVR8/Endpoint_AVR8.h **** 			}
 258:./tmk_core/protocol/lufa/LUFA-git/LUFA/Drivers/USB/Core/AVR8/../AVR8/Endpoint_AVR8.h **** 
 259:./tmk_core/protocol/lufa/LUFA-git/LUFA/Drivers/USB/Core/AVR8/../AVR8/Endpoint_AVR8.h **** 			/** Selects the given endpoint address.
 260:./tmk_core/protocol/lufa/LUFA-git/LUFA/Drivers/USB/Core/AVR8/../AVR8/Endpoint_AVR8.h **** 			 *
 261:./tmk_core/protocol/lufa/LUFA-git/LUFA/Drivers/USB/Core/AVR8/../AVR8/Endpoint_AVR8.h **** 			 *  Any endpoint operations which do not require the endpoint address to be indicated will opera
 262:./tmk_core/protocol/lufa/LUFA-git/LUFA/Drivers/USB/Core/AVR8/../AVR8/Endpoint_AVR8.h **** 			 *  the currently selected endpoint.
 263:./tmk_core/protocol/lufa/LUFA-git/LUFA/Drivers/USB/Core/AVR8/../AVR8/Endpoint_AVR8.h **** 			 *
 264:./tmk_core/protocol/lufa/LUFA-git/LUFA/Drivers/USB/Core/AVR8/../AVR8/Endpoint_AVR8.h **** 			 *  \param[in] Address Endpoint address to select.
 265:./tmk_core/protocol/lufa/LUFA-git/LUFA/Drivers/USB/Core/AVR8/../AVR8/Endpoint_AVR8.h **** 			 */
 266:./tmk_core/protocol/lufa/LUFA-git/LUFA/Drivers/USB/Core/AVR8/../AVR8/Endpoint_AVR8.h **** 			static inline void Endpoint_SelectEndpoint(const uint8_t Address) ATTR_ALWAYS_INLINE;
 267:./tmk_core/protocol/lufa/LUFA-git/LUFA/Drivers/USB/Core/AVR8/../AVR8/Endpoint_AVR8.h **** 			static inline void Endpoint_SelectEndpoint(const uint8_t Address)
 268:./tmk_core/protocol/lufa/LUFA-git/LUFA/Drivers/USB/Core/AVR8/../AVR8/Endpoint_AVR8.h **** 			{
 269:./tmk_core/protocol/lufa/LUFA-git/LUFA/Drivers/USB/Core/AVR8/../AVR8/Endpoint_AVR8.h **** 				#if !defined(CONTROL_ONLY_DEVICE)
 270:./tmk_core/protocol/lufa/LUFA-git/LUFA/Drivers/USB/Core/AVR8/../AVR8/Endpoint_AVR8.h **** 					UENUM = (Address & ENDPOINT_EPNUM_MASK);
  84               		.loc 2 270 0
  85 001c 82E0      		ldi r24,lo8(2)
  86               	.LVL4:
  87 001e 8093 E900 		sts 233,r24
  88               	.LVL5:
  89 0022 8FEF      		ldi r24,lo8(-1)
  90               	.LVL6:
  91               	.L5:
  92               	.LBE138:
  93               	.LBE137:
  94               	.LBB139:
  95               	.LBB140:
 271:./tmk_core/protocol/lufa/LUFA-git/LUFA/Drivers/USB/Core/AVR8/../AVR8/Endpoint_AVR8.h **** 				#endif
 272:./tmk_core/protocol/lufa/LUFA-git/LUFA/Drivers/USB/Core/AVR8/../AVR8/Endpoint_AVR8.h **** 			}
 273:./tmk_core/protocol/lufa/LUFA-git/LUFA/Drivers/USB/Core/AVR8/../AVR8/Endpoint_AVR8.h **** 
 274:./tmk_core/protocol/lufa/LUFA-git/LUFA/Drivers/USB/Core/AVR8/../AVR8/Endpoint_AVR8.h **** 			/** Resets the endpoint bank FIFO. This clears all the endpoint banks and resets the USB control
 275:./tmk_core/protocol/lufa/LUFA-git/LUFA/Drivers/USB/Core/AVR8/../AVR8/Endpoint_AVR8.h **** 			 *  data In and Out pointers to the bank's contents.
 276:./tmk_core/protocol/lufa/LUFA-git/LUFA/Drivers/USB/Core/AVR8/../AVR8/Endpoint_AVR8.h **** 			 *
 277:./tmk_core/protocol/lufa/LUFA-git/LUFA/Drivers/USB/Core/AVR8/../AVR8/Endpoint_AVR8.h **** 			 *  \param[in] Address  Endpoint address whose FIFO buffers are to be reset.
 278:./tmk_core/protocol/lufa/LUFA-git/LUFA/Drivers/USB/Core/AVR8/../AVR8/Endpoint_AVR8.h **** 			 */
 279:./tmk_core/protocol/lufa/LUFA-git/LUFA/Drivers/USB/Core/AVR8/../AVR8/Endpoint_AVR8.h **** 			static inline void Endpoint_ResetEndpoint(const uint8_t Address) ATTR_ALWAYS_INLINE;
 280:./tmk_core/protocol/lufa/LUFA-git/LUFA/Drivers/USB/Core/AVR8/../AVR8/Endpoint_AVR8.h **** 			static inline void Endpoint_ResetEndpoint(const uint8_t Address)
 281:./tmk_core/protocol/lufa/LUFA-git/LUFA/Drivers/USB/Core/AVR8/../AVR8/Endpoint_AVR8.h **** 			{
 282:./tmk_core/protocol/lufa/LUFA-git/LUFA/Drivers/USB/Core/AVR8/../AVR8/Endpoint_AVR8.h **** 				UERST = (1 << (Address & ENDPOINT_EPNUM_MASK));
 283:./tmk_core/protocol/lufa/LUFA-git/LUFA/Drivers/USB/Core/AVR8/../AVR8/Endpoint_AVR8.h **** 				UERST = 0;
 284:./tmk_core/protocol/lufa/LUFA-git/LUFA/Drivers/USB/Core/AVR8/../AVR8/Endpoint_AVR8.h **** 			}
 285:./tmk_core/protocol/lufa/LUFA-git/LUFA/Drivers/USB/Core/AVR8/../AVR8/Endpoint_AVR8.h **** 
 286:./tmk_core/protocol/lufa/LUFA-git/LUFA/Drivers/USB/Core/AVR8/../AVR8/Endpoint_AVR8.h **** 			/** Enables the currently selected endpoint so that data can be sent and received through it to
 287:./tmk_core/protocol/lufa/LUFA-git/LUFA/Drivers/USB/Core/AVR8/../AVR8/Endpoint_AVR8.h **** 			 *  and from a host.
 288:./tmk_core/protocol/lufa/LUFA-git/LUFA/Drivers/USB/Core/AVR8/../AVR8/Endpoint_AVR8.h **** 			 *
 289:./tmk_core/protocol/lufa/LUFA-git/LUFA/Drivers/USB/Core/AVR8/../AVR8/Endpoint_AVR8.h **** 			 *  \note Endpoints must first be configured properly via \ref Endpoint_ConfigureEndpoint().
 290:./tmk_core/protocol/lufa/LUFA-git/LUFA/Drivers/USB/Core/AVR8/../AVR8/Endpoint_AVR8.h **** 			 */
 291:./tmk_core/protocol/lufa/LUFA-git/LUFA/Drivers/USB/Core/AVR8/../AVR8/Endpoint_AVR8.h **** 			static inline void Endpoint_EnableEndpoint(void) ATTR_ALWAYS_INLINE;
 292:./tmk_core/protocol/lufa/LUFA-git/LUFA/Drivers/USB/Core/AVR8/../AVR8/Endpoint_AVR8.h **** 			static inline void Endpoint_EnableEndpoint(void)
 293:./tmk_core/protocol/lufa/LUFA-git/LUFA/Drivers/USB/Core/AVR8/../AVR8/Endpoint_AVR8.h **** 			{
 294:./tmk_core/protocol/lufa/LUFA-git/LUFA/Drivers/USB/Core/AVR8/../AVR8/Endpoint_AVR8.h **** 				UECONX |= (1 << EPEN);
 295:./tmk_core/protocol/lufa/LUFA-git/LUFA/Drivers/USB/Core/AVR8/../AVR8/Endpoint_AVR8.h **** 			}
 296:./tmk_core/protocol/lufa/LUFA-git/LUFA/Drivers/USB/Core/AVR8/../AVR8/Endpoint_AVR8.h **** 
 297:./tmk_core/protocol/lufa/LUFA-git/LUFA/Drivers/USB/Core/AVR8/../AVR8/Endpoint_AVR8.h **** 			/** Disables the currently selected endpoint so that data cannot be sent and received through it
 298:./tmk_core/protocol/lufa/LUFA-git/LUFA/Drivers/USB/Core/AVR8/../AVR8/Endpoint_AVR8.h **** 			 *  to and from a host.
 299:./tmk_core/protocol/lufa/LUFA-git/LUFA/Drivers/USB/Core/AVR8/../AVR8/Endpoint_AVR8.h **** 			 */
 300:./tmk_core/protocol/lufa/LUFA-git/LUFA/Drivers/USB/Core/AVR8/../AVR8/Endpoint_AVR8.h **** 			static inline void Endpoint_DisableEndpoint(void) ATTR_ALWAYS_INLINE;
 301:./tmk_core/protocol/lufa/LUFA-git/LUFA/Drivers/USB/Core/AVR8/../AVR8/Endpoint_AVR8.h **** 			static inline void Endpoint_DisableEndpoint(void)
 302:./tmk_core/protocol/lufa/LUFA-git/LUFA/Drivers/USB/Core/AVR8/../AVR8/Endpoint_AVR8.h **** 			{
 303:./tmk_core/protocol/lufa/LUFA-git/LUFA/Drivers/USB/Core/AVR8/../AVR8/Endpoint_AVR8.h **** 				UECONX &= ~(1 << EPEN);
 304:./tmk_core/protocol/lufa/LUFA-git/LUFA/Drivers/USB/Core/AVR8/../AVR8/Endpoint_AVR8.h **** 			}
 305:./tmk_core/protocol/lufa/LUFA-git/LUFA/Drivers/USB/Core/AVR8/../AVR8/Endpoint_AVR8.h **** 
 306:./tmk_core/protocol/lufa/LUFA-git/LUFA/Drivers/USB/Core/AVR8/../AVR8/Endpoint_AVR8.h **** 			/** Determines if the currently selected endpoint is enabled, but not necessarily configured.
 307:./tmk_core/protocol/lufa/LUFA-git/LUFA/Drivers/USB/Core/AVR8/../AVR8/Endpoint_AVR8.h **** 			 *
 308:./tmk_core/protocol/lufa/LUFA-git/LUFA/Drivers/USB/Core/AVR8/../AVR8/Endpoint_AVR8.h **** 			 * \return Boolean \c true if the currently selected endpoint is enabled, \c false otherwise.
 309:./tmk_core/protocol/lufa/LUFA-git/LUFA/Drivers/USB/Core/AVR8/../AVR8/Endpoint_AVR8.h **** 			 */
 310:./tmk_core/protocol/lufa/LUFA-git/LUFA/Drivers/USB/Core/AVR8/../AVR8/Endpoint_AVR8.h **** 			static inline bool Endpoint_IsEnabled(void) ATTR_WARN_UNUSED_RESULT ATTR_ALWAYS_INLINE;
 311:./tmk_core/protocol/lufa/LUFA-git/LUFA/Drivers/USB/Core/AVR8/../AVR8/Endpoint_AVR8.h **** 			static inline bool Endpoint_IsEnabled(void)
 312:./tmk_core/protocol/lufa/LUFA-git/LUFA/Drivers/USB/Core/AVR8/../AVR8/Endpoint_AVR8.h **** 			{
 313:./tmk_core/protocol/lufa/LUFA-git/LUFA/Drivers/USB/Core/AVR8/../AVR8/Endpoint_AVR8.h **** 				return ((UECONX & (1 << EPEN)) ? true : false);
 314:./tmk_core/protocol/lufa/LUFA-git/LUFA/Drivers/USB/Core/AVR8/../AVR8/Endpoint_AVR8.h **** 			}
 315:./tmk_core/protocol/lufa/LUFA-git/LUFA/Drivers/USB/Core/AVR8/../AVR8/Endpoint_AVR8.h **** 
 316:./tmk_core/protocol/lufa/LUFA-git/LUFA/Drivers/USB/Core/AVR8/../AVR8/Endpoint_AVR8.h **** 			/** Retrieves the number of busy banks in the currently selected endpoint, which have been queue
 317:./tmk_core/protocol/lufa/LUFA-git/LUFA/Drivers/USB/Core/AVR8/../AVR8/Endpoint_AVR8.h **** 			 *  transmission via the \ref Endpoint_ClearIN() command, or are awaiting acknowledgment via the
 318:./tmk_core/protocol/lufa/LUFA-git/LUFA/Drivers/USB/Core/AVR8/../AVR8/Endpoint_AVR8.h **** 			 *  \ref Endpoint_ClearOUT() command.
 319:./tmk_core/protocol/lufa/LUFA-git/LUFA/Drivers/USB/Core/AVR8/../AVR8/Endpoint_AVR8.h **** 			 *
 320:./tmk_core/protocol/lufa/LUFA-git/LUFA/Drivers/USB/Core/AVR8/../AVR8/Endpoint_AVR8.h **** 			 *  \ingroup Group_EndpointPacketManagement_AVR8
 321:./tmk_core/protocol/lufa/LUFA-git/LUFA/Drivers/USB/Core/AVR8/../AVR8/Endpoint_AVR8.h **** 			 *
 322:./tmk_core/protocol/lufa/LUFA-git/LUFA/Drivers/USB/Core/AVR8/../AVR8/Endpoint_AVR8.h **** 			 *  \return Total number of busy banks in the selected endpoint.
 323:./tmk_core/protocol/lufa/LUFA-git/LUFA/Drivers/USB/Core/AVR8/../AVR8/Endpoint_AVR8.h **** 			 */
 324:./tmk_core/protocol/lufa/LUFA-git/LUFA/Drivers/USB/Core/AVR8/../AVR8/Endpoint_AVR8.h **** 			static inline uint8_t Endpoint_GetBusyBanks(void) ATTR_ALWAYS_INLINE ATTR_WARN_UNUSED_RESULT;
 325:./tmk_core/protocol/lufa/LUFA-git/LUFA/Drivers/USB/Core/AVR8/../AVR8/Endpoint_AVR8.h **** 			static inline uint8_t Endpoint_GetBusyBanks(void)
 326:./tmk_core/protocol/lufa/LUFA-git/LUFA/Drivers/USB/Core/AVR8/../AVR8/Endpoint_AVR8.h **** 			{
 327:./tmk_core/protocol/lufa/LUFA-git/LUFA/Drivers/USB/Core/AVR8/../AVR8/Endpoint_AVR8.h **** 				return (UESTA0X & (0x03 << NBUSYBK0));
 328:./tmk_core/protocol/lufa/LUFA-git/LUFA/Drivers/USB/Core/AVR8/../AVR8/Endpoint_AVR8.h **** 			}
 329:./tmk_core/protocol/lufa/LUFA-git/LUFA/Drivers/USB/Core/AVR8/../AVR8/Endpoint_AVR8.h **** 
 330:./tmk_core/protocol/lufa/LUFA-git/LUFA/Drivers/USB/Core/AVR8/../AVR8/Endpoint_AVR8.h **** 			/** Aborts all pending IN transactions on the currently selected endpoint, once the bank
 331:./tmk_core/protocol/lufa/LUFA-git/LUFA/Drivers/USB/Core/AVR8/../AVR8/Endpoint_AVR8.h **** 			 *  has been queued for transmission to the host via \ref Endpoint_ClearIN(). This function
 332:./tmk_core/protocol/lufa/LUFA-git/LUFA/Drivers/USB/Core/AVR8/../AVR8/Endpoint_AVR8.h **** 			 *  will terminate all queued transactions, resetting the endpoint banks ready for a new
 333:./tmk_core/protocol/lufa/LUFA-git/LUFA/Drivers/USB/Core/AVR8/../AVR8/Endpoint_AVR8.h **** 			 *  packet.
 334:./tmk_core/protocol/lufa/LUFA-git/LUFA/Drivers/USB/Core/AVR8/../AVR8/Endpoint_AVR8.h **** 			 *
 335:./tmk_core/protocol/lufa/LUFA-git/LUFA/Drivers/USB/Core/AVR8/../AVR8/Endpoint_AVR8.h **** 			 *  \ingroup Group_EndpointPacketManagement_AVR8
 336:./tmk_core/protocol/lufa/LUFA-git/LUFA/Drivers/USB/Core/AVR8/../AVR8/Endpoint_AVR8.h **** 			 */
 337:./tmk_core/protocol/lufa/LUFA-git/LUFA/Drivers/USB/Core/AVR8/../AVR8/Endpoint_AVR8.h **** 			static inline void Endpoint_AbortPendingIN(void)
 338:./tmk_core/protocol/lufa/LUFA-git/LUFA/Drivers/USB/Core/AVR8/../AVR8/Endpoint_AVR8.h **** 			{
 339:./tmk_core/protocol/lufa/LUFA-git/LUFA/Drivers/USB/Core/AVR8/../AVR8/Endpoint_AVR8.h **** 				while (Endpoint_GetBusyBanks() != 0)
 340:./tmk_core/protocol/lufa/LUFA-git/LUFA/Drivers/USB/Core/AVR8/../AVR8/Endpoint_AVR8.h **** 				{
 341:./tmk_core/protocol/lufa/LUFA-git/LUFA/Drivers/USB/Core/AVR8/../AVR8/Endpoint_AVR8.h **** 					UEINTX |= (1 << RXOUTI);
 342:./tmk_core/protocol/lufa/LUFA-git/LUFA/Drivers/USB/Core/AVR8/../AVR8/Endpoint_AVR8.h **** 					while (UEINTX & (1 << RXOUTI));
 343:./tmk_core/protocol/lufa/LUFA-git/LUFA/Drivers/USB/Core/AVR8/../AVR8/Endpoint_AVR8.h **** 				}
 344:./tmk_core/protocol/lufa/LUFA-git/LUFA/Drivers/USB/Core/AVR8/../AVR8/Endpoint_AVR8.h **** 			}
 345:./tmk_core/protocol/lufa/LUFA-git/LUFA/Drivers/USB/Core/AVR8/../AVR8/Endpoint_AVR8.h **** 
 346:./tmk_core/protocol/lufa/LUFA-git/LUFA/Drivers/USB/Core/AVR8/../AVR8/Endpoint_AVR8.h **** 			/** Determines if the currently selected endpoint may be read from (if data is waiting in the en
 347:./tmk_core/protocol/lufa/LUFA-git/LUFA/Drivers/USB/Core/AVR8/../AVR8/Endpoint_AVR8.h **** 			 *  bank and the endpoint is an OUT direction, or if the bank is not yet full if the endpoint is
 348:./tmk_core/protocol/lufa/LUFA-git/LUFA/Drivers/USB/Core/AVR8/../AVR8/Endpoint_AVR8.h **** 			 *  direction). This function will return false if an error has occurred in the endpoint, if the
 349:./tmk_core/protocol/lufa/LUFA-git/LUFA/Drivers/USB/Core/AVR8/../AVR8/Endpoint_AVR8.h **** 			 *  is an OUT direction and no packet (or an empty packet) has been received, or if the endpoint
 350:./tmk_core/protocol/lufa/LUFA-git/LUFA/Drivers/USB/Core/AVR8/../AVR8/Endpoint_AVR8.h **** 			 *  direction and the endpoint bank is full.
 351:./tmk_core/protocol/lufa/LUFA-git/LUFA/Drivers/USB/Core/AVR8/../AVR8/Endpoint_AVR8.h **** 			 *
 352:./tmk_core/protocol/lufa/LUFA-git/LUFA/Drivers/USB/Core/AVR8/../AVR8/Endpoint_AVR8.h **** 			 *  \ingroup Group_EndpointPacketManagement_AVR8
 353:./tmk_core/protocol/lufa/LUFA-git/LUFA/Drivers/USB/Core/AVR8/../AVR8/Endpoint_AVR8.h **** 			 *
 354:./tmk_core/protocol/lufa/LUFA-git/LUFA/Drivers/USB/Core/AVR8/../AVR8/Endpoint_AVR8.h **** 			 *  \return Boolean \c true if the currently selected endpoint may be read from or written to, d
 355:./tmk_core/protocol/lufa/LUFA-git/LUFA/Drivers/USB/Core/AVR8/../AVR8/Endpoint_AVR8.h **** 			 *          on its direction.
 356:./tmk_core/protocol/lufa/LUFA-git/LUFA/Drivers/USB/Core/AVR8/../AVR8/Endpoint_AVR8.h **** 			 */
 357:./tmk_core/protocol/lufa/LUFA-git/LUFA/Drivers/USB/Core/AVR8/../AVR8/Endpoint_AVR8.h **** 			static inline bool Endpoint_IsReadWriteAllowed(void) ATTR_WARN_UNUSED_RESULT ATTR_ALWAYS_INLINE;
 358:./tmk_core/protocol/lufa/LUFA-git/LUFA/Drivers/USB/Core/AVR8/../AVR8/Endpoint_AVR8.h **** 			static inline bool Endpoint_IsReadWriteAllowed(void)
 359:./tmk_core/protocol/lufa/LUFA-git/LUFA/Drivers/USB/Core/AVR8/../AVR8/Endpoint_AVR8.h **** 			{
 360:./tmk_core/protocol/lufa/LUFA-git/LUFA/Drivers/USB/Core/AVR8/../AVR8/Endpoint_AVR8.h **** 				return ((UEINTX & (1 << RWAL)) ? true : false);
  96               		.loc 2 360 0
  97 0024 9091 E800 		lds r25,232
  98 0028 8150      		subi r24,lo8(-(-1))
  99               	.LVL7:
 100               	.LBE140:
 101               	.LBE139:
 625:./tmk_core/protocol/lufa/lufa.c ****         .report_id = REPORT_ID_CONSUMER,
 626:./tmk_core/protocol/lufa/lufa.c ****         .usage = data
 627:./tmk_core/protocol/lufa/lufa.c ****     };
 628:./tmk_core/protocol/lufa/lufa.c ****     Endpoint_SelectEndpoint(EXTRAKEY_IN_EPNUM);
 629:./tmk_core/protocol/lufa/lufa.c **** 
 630:./tmk_core/protocol/lufa/lufa.c ****     /* Check if write ready for a polling interval around 10ms */
 631:./tmk_core/protocol/lufa/lufa.c ****     while (timeout-- && !Endpoint_IsReadWriteAllowed()) _delay_us(40);
 102               		.loc 1 631 0
 103 002a 95FD      		sbrc r25,5
 104 002c 00C0      		rjmp .L6
 105               	.LVL8:
 106               	.LBB141:
 107               	.LBB142:
 108               		.file 3 "/usr/lib/avr/include/util/delay.h"
   1:/usr/lib/avr/include/util/delay.h **** /* Copyright (c) 2002, Marek Michalkiewicz
   2:/usr/lib/avr/include/util/delay.h ****    Copyright (c) 2004,2005,2007 Joerg Wunsch
   3:/usr/lib/avr/include/util/delay.h ****    Copyright (c) 2007  Florin-Viorel Petrov
   4:/usr/lib/avr/include/util/delay.h ****    All rights reserved.
   5:/usr/lib/avr/include/util/delay.h **** 
   6:/usr/lib/avr/include/util/delay.h ****    Redistribution and use in source and binary forms, with or without
   7:/usr/lib/avr/include/util/delay.h ****    modification, are permitted provided that the following conditions are met:
   8:/usr/lib/avr/include/util/delay.h **** 
   9:/usr/lib/avr/include/util/delay.h ****    * Redistributions of source code must retain the above copyright
  10:/usr/lib/avr/include/util/delay.h ****      notice, this list of conditions and the following disclaimer.
  11:/usr/lib/avr/include/util/delay.h **** 
  12:/usr/lib/avr/include/util/delay.h ****    * Redistributions in binary form must reproduce the above copyright
  13:/usr/lib/avr/include/util/delay.h ****      notice, this list of conditions and the following disclaimer in
  14:/usr/lib/avr/include/util/delay.h ****      the documentation and/or other materials provided with the
  15:/usr/lib/avr/include/util/delay.h ****      distribution.
  16:/usr/lib/avr/include/util/delay.h **** 
  17:/usr/lib/avr/include/util/delay.h ****    * Neither the name of the copyright holders nor the names of
  18:/usr/lib/avr/include/util/delay.h ****      contributors may be used to endorse or promote products derived
  19:/usr/lib/avr/include/util/delay.h ****      from this software without specific prior written permission.
  20:/usr/lib/avr/include/util/delay.h **** 
  21:/usr/lib/avr/include/util/delay.h ****   THIS SOFTWARE IS PROVIDED BY THE COPYRIGHT HOLDERS AND CONTRIBUTORS "AS IS"
  22:/usr/lib/avr/include/util/delay.h ****   AND ANY EXPRESS OR IMPLIED WARRANTIES, INCLUDING, BUT NOT LIMITED TO, THE
  23:/usr/lib/avr/include/util/delay.h ****   IMPLIED WARRANTIES OF MERCHANTABILITY AND FITNESS FOR A PARTICULAR PURPOSE
  24:/usr/lib/avr/include/util/delay.h ****   ARE DISCLAIMED. IN NO EVENT SHALL THE COPYRIGHT OWNER OR CONTRIBUTORS BE
  25:/usr/lib/avr/include/util/delay.h ****   LIABLE FOR ANY DIRECT, INDIRECT, INCIDENTAL, SPECIAL, EXEMPLARY, OR
  26:/usr/lib/avr/include/util/delay.h ****   CONSEQUENTIAL DAMAGES (INCLUDING, BUT NOT LIMITED TO, PROCUREMENT OF
  27:/usr/lib/avr/include/util/delay.h ****   SUBSTITUTE GOODS OR SERVICES; LOSS OF USE, DATA, OR PROFITS; OR BUSINESS
  28:/usr/lib/avr/include/util/delay.h ****   INTERRUPTION) HOWEVER CAUSED AND ON ANY THEORY OF LIABILITY, WHETHER IN
  29:/usr/lib/avr/include/util/delay.h ****   CONTRACT, STRICT LIABILITY, OR TORT (INCLUDING NEGLIGENCE OR OTHERWISE)
  30:/usr/lib/avr/include/util/delay.h ****   ARISING IN ANY WAY OUT OF THE USE OF THIS SOFTWARE, EVEN IF ADVISED OF THE
  31:/usr/lib/avr/include/util/delay.h ****   POSSIBILITY OF SUCH DAMAGE. */
  32:/usr/lib/avr/include/util/delay.h **** 
  33:/usr/lib/avr/include/util/delay.h **** /* $Id$ */
  34:/usr/lib/avr/include/util/delay.h **** 
  35:/usr/lib/avr/include/util/delay.h **** #ifndef _UTIL_DELAY_H_
  36:/usr/lib/avr/include/util/delay.h **** #define _UTIL_DELAY_H_ 1
  37:/usr/lib/avr/include/util/delay.h **** 
  38:/usr/lib/avr/include/util/delay.h **** #ifndef __HAS_DELAY_CYCLES
  39:/usr/lib/avr/include/util/delay.h **** #define __HAS_DELAY_CYCLES 1
  40:/usr/lib/avr/include/util/delay.h **** #endif
  41:/usr/lib/avr/include/util/delay.h **** 
  42:/usr/lib/avr/include/util/delay.h **** #include <inttypes.h>
  43:/usr/lib/avr/include/util/delay.h **** #include <util/delay_basic.h>
  44:/usr/lib/avr/include/util/delay.h **** #include <math.h>
  45:/usr/lib/avr/include/util/delay.h **** 
  46:/usr/lib/avr/include/util/delay.h **** /** \file */
  47:/usr/lib/avr/include/util/delay.h **** /** \defgroup util_delay <util/delay.h>: Convenience functions for busy-wait delay loops
  48:/usr/lib/avr/include/util/delay.h ****     \code
  49:/usr/lib/avr/include/util/delay.h ****     #define F_CPU 1000000UL  // 1 MHz
  50:/usr/lib/avr/include/util/delay.h ****     //#define F_CPU 14.7456E6
  51:/usr/lib/avr/include/util/delay.h ****     #include <util/delay.h>
  52:/usr/lib/avr/include/util/delay.h ****     \endcode
  53:/usr/lib/avr/include/util/delay.h **** 
  54:/usr/lib/avr/include/util/delay.h ****     \note As an alternative method, it is possible to pass the
  55:/usr/lib/avr/include/util/delay.h ****     F_CPU macro down to the compiler from the Makefile.
  56:/usr/lib/avr/include/util/delay.h ****     Obviously, in that case, no \c \#define statement should be
  57:/usr/lib/avr/include/util/delay.h ****     used.
  58:/usr/lib/avr/include/util/delay.h **** 
  59:/usr/lib/avr/include/util/delay.h ****     The functions in this header file are wrappers around the basic
  60:/usr/lib/avr/include/util/delay.h ****     busy-wait functions from <util/delay_basic.h>.  They are meant as
  61:/usr/lib/avr/include/util/delay.h ****     convenience functions where actual time values can be specified
  62:/usr/lib/avr/include/util/delay.h ****     rather than a number of cycles to wait for.  The idea behind is
  63:/usr/lib/avr/include/util/delay.h ****     that compile-time constant expressions will be eliminated by
  64:/usr/lib/avr/include/util/delay.h ****     compiler optimization so floating-point expressions can be used
  65:/usr/lib/avr/include/util/delay.h ****     to calculate the number of delay cycles needed based on the CPU
  66:/usr/lib/avr/include/util/delay.h ****     frequency passed by the macro F_CPU.
  67:/usr/lib/avr/include/util/delay.h **** 
  68:/usr/lib/avr/include/util/delay.h ****     \note In order for these functions to work as intended, compiler
  69:/usr/lib/avr/include/util/delay.h ****     optimizations <em>must</em> be enabled, and the delay time
  70:/usr/lib/avr/include/util/delay.h ****     <em>must</em> be an expression that is a known constant at
  71:/usr/lib/avr/include/util/delay.h ****     compile-time.  If these requirements are not met, the resulting
  72:/usr/lib/avr/include/util/delay.h ****     delay will be much longer (and basically unpredictable), and
  73:/usr/lib/avr/include/util/delay.h ****     applications that otherwise do not use floating-point calculations
  74:/usr/lib/avr/include/util/delay.h ****     will experience severe code bloat by the floating-point library
  75:/usr/lib/avr/include/util/delay.h ****     routines linked into the application.
  76:/usr/lib/avr/include/util/delay.h **** 
  77:/usr/lib/avr/include/util/delay.h ****     The functions available allow the specification of microsecond, and
  78:/usr/lib/avr/include/util/delay.h ****     millisecond delays directly, using the application-supplied macro
  79:/usr/lib/avr/include/util/delay.h ****     F_CPU as the CPU clock frequency (in Hertz).
  80:/usr/lib/avr/include/util/delay.h **** 
  81:/usr/lib/avr/include/util/delay.h **** */
  82:/usr/lib/avr/include/util/delay.h **** 
  83:/usr/lib/avr/include/util/delay.h **** #if !defined(__DOXYGEN__)
  84:/usr/lib/avr/include/util/delay.h **** static inline void _delay_us(double __us) __attribute__((always_inline));
  85:/usr/lib/avr/include/util/delay.h **** static inline void _delay_ms(double __ms) __attribute__((always_inline));
  86:/usr/lib/avr/include/util/delay.h **** #endif
  87:/usr/lib/avr/include/util/delay.h **** 
  88:/usr/lib/avr/include/util/delay.h **** #ifndef F_CPU
  89:/usr/lib/avr/include/util/delay.h **** /* prevent compiler error by supplying a default */
  90:/usr/lib/avr/include/util/delay.h **** # warning "F_CPU not defined for <util/delay.h>"
  91:/usr/lib/avr/include/util/delay.h **** # define F_CPU 1000000UL
  92:/usr/lib/avr/include/util/delay.h **** #endif
  93:/usr/lib/avr/include/util/delay.h **** 
  94:/usr/lib/avr/include/util/delay.h **** #ifndef __OPTIMIZE__
  95:/usr/lib/avr/include/util/delay.h **** # warning "Compiler optimizations disabled; functions from <util/delay.h> won't work as designed"
  96:/usr/lib/avr/include/util/delay.h **** #endif
  97:/usr/lib/avr/include/util/delay.h **** 
  98:/usr/lib/avr/include/util/delay.h **** #if __HAS_DELAY_CYCLES && defined(__OPTIMIZE__) && \
  99:/usr/lib/avr/include/util/delay.h ****   !defined(__DELAY_BACKWARD_COMPATIBLE__) &&	   \
 100:/usr/lib/avr/include/util/delay.h ****   __STDC_HOSTED__
 101:/usr/lib/avr/include/util/delay.h **** #  include <math.h>
 102:/usr/lib/avr/include/util/delay.h **** #endif
 103:/usr/lib/avr/include/util/delay.h **** 
 104:/usr/lib/avr/include/util/delay.h **** /**
 105:/usr/lib/avr/include/util/delay.h ****    \ingroup util_delay
 106:/usr/lib/avr/include/util/delay.h **** 
 107:/usr/lib/avr/include/util/delay.h ****    Perform a delay of \c __ms milliseconds, using _delay_loop_2().
 108:/usr/lib/avr/include/util/delay.h **** 
 109:/usr/lib/avr/include/util/delay.h ****    The macro F_CPU is supposed to be defined to a
 110:/usr/lib/avr/include/util/delay.h ****    constant defining the CPU clock frequency (in Hertz).
 111:/usr/lib/avr/include/util/delay.h **** 
 112:/usr/lib/avr/include/util/delay.h ****    The maximal possible delay is 262.14 ms / F_CPU in MHz.
 113:/usr/lib/avr/include/util/delay.h **** 
 114:/usr/lib/avr/include/util/delay.h ****    When the user request delay which exceed the maximum possible one,
 115:/usr/lib/avr/include/util/delay.h ****    _delay_ms() provides a decreased resolution functionality. In this
 116:/usr/lib/avr/include/util/delay.h ****    mode _delay_ms() will work with a resolution of 1/10 ms, providing
 117:/usr/lib/avr/include/util/delay.h ****    delays up to 6.5535 seconds (independent from CPU frequency).  The
 118:/usr/lib/avr/include/util/delay.h ****    user will not be informed about decreased resolution.
 119:/usr/lib/avr/include/util/delay.h **** 
 120:/usr/lib/avr/include/util/delay.h ****    If the avr-gcc toolchain has __builtin_avr_delay_cycles(unsigned long)
 121:/usr/lib/avr/include/util/delay.h ****    support, maximal possible delay is 4294967.295 ms/ F_CPU in MHz. For
 122:/usr/lib/avr/include/util/delay.h ****    values greater than the maximal possible delay, overflows results in
 123:/usr/lib/avr/include/util/delay.h ****    no delay i.e., 0ms.
 124:/usr/lib/avr/include/util/delay.h **** 
 125:/usr/lib/avr/include/util/delay.h ****    Conversion of __us into clock cycles may not always result in integer.
 126:/usr/lib/avr/include/util/delay.h ****    By default, the clock cycles rounded up to next integer. This ensures that
 127:/usr/lib/avr/include/util/delay.h ****    the user gets atleast __us microseconds of delay.
 128:/usr/lib/avr/include/util/delay.h **** 
 129:/usr/lib/avr/include/util/delay.h ****    Alternatively, user can define __DELAY_ROUND_DOWN__ and __DELAY_ROUND_CLOSEST__
 130:/usr/lib/avr/include/util/delay.h ****    to round down and round to closest integer.
 131:/usr/lib/avr/include/util/delay.h **** 
 132:/usr/lib/avr/include/util/delay.h ****    Note: The new implementation of _delay_ms(double __ms) with 
 133:/usr/lib/avr/include/util/delay.h ****     __builtin_avr_delay_cycles(unsigned long) support is not backward compatible. 
 134:/usr/lib/avr/include/util/delay.h ****    User can define __DELAY_BACKWARD_COMPATIBLE__ to get a backward compatible delay.
 135:/usr/lib/avr/include/util/delay.h ****    Also, the backward compatible
 136:/usr/lib/avr/include/util/delay.h ****    algorithm will be chosen if the code is compiled in a <em>freestanding
 137:/usr/lib/avr/include/util/delay.h ****    environment</em> (GCC option \c -ffreestanding), as the math functions
 138:/usr/lib/avr/include/util/delay.h ****    required for rounding are not available to the compiler then.
 139:/usr/lib/avr/include/util/delay.h **** 
 140:/usr/lib/avr/include/util/delay.h ****  */
 141:/usr/lib/avr/include/util/delay.h **** void
 142:/usr/lib/avr/include/util/delay.h **** _delay_ms(double __ms)
 143:/usr/lib/avr/include/util/delay.h **** {
 144:/usr/lib/avr/include/util/delay.h **** 	double __tmp ; 
 145:/usr/lib/avr/include/util/delay.h **** #if __HAS_DELAY_CYCLES && defined(__OPTIMIZE__) && \
 146:/usr/lib/avr/include/util/delay.h ****   !defined(__DELAY_BACKWARD_COMPATIBLE__) &&	   \
 147:/usr/lib/avr/include/util/delay.h ****   __STDC_HOSTED__
 148:/usr/lib/avr/include/util/delay.h **** 	uint32_t __ticks_dc;
 149:/usr/lib/avr/include/util/delay.h **** 	extern void __builtin_avr_delay_cycles(unsigned long);
 150:/usr/lib/avr/include/util/delay.h **** 	__tmp = ((F_CPU) / 1e3) * __ms;
 151:/usr/lib/avr/include/util/delay.h **** 
 152:/usr/lib/avr/include/util/delay.h **** 	#if defined(__DELAY_ROUND_DOWN__)
 153:/usr/lib/avr/include/util/delay.h **** 		__ticks_dc = (uint32_t)fabs(__tmp);
 154:/usr/lib/avr/include/util/delay.h **** 
 155:/usr/lib/avr/include/util/delay.h **** 	#elif defined(__DELAY_ROUND_CLOSEST__)
 156:/usr/lib/avr/include/util/delay.h **** 		__ticks_dc = (uint32_t)(fabs(__tmp)+0.5);
 157:/usr/lib/avr/include/util/delay.h **** 
 158:/usr/lib/avr/include/util/delay.h **** 	#else
 159:/usr/lib/avr/include/util/delay.h **** 		//round up by default
 160:/usr/lib/avr/include/util/delay.h **** 		__ticks_dc = (uint32_t)(ceil(fabs(__tmp)));
 161:/usr/lib/avr/include/util/delay.h **** 	#endif
 162:/usr/lib/avr/include/util/delay.h **** 
 163:/usr/lib/avr/include/util/delay.h **** 	__builtin_avr_delay_cycles(__ticks_dc);
 164:/usr/lib/avr/include/util/delay.h **** 
 165:/usr/lib/avr/include/util/delay.h **** #else
 166:/usr/lib/avr/include/util/delay.h **** 	uint16_t __ticks;
 167:/usr/lib/avr/include/util/delay.h **** 	__tmp = ((F_CPU) / 4e3) * __ms;
 168:/usr/lib/avr/include/util/delay.h **** 	if (__tmp < 1.0)
 169:/usr/lib/avr/include/util/delay.h **** 		__ticks = 1;
 170:/usr/lib/avr/include/util/delay.h **** 	else if (__tmp > 65535)
 171:/usr/lib/avr/include/util/delay.h **** 	{
 172:/usr/lib/avr/include/util/delay.h **** 		//	__ticks = requested delay in 1/10 ms
 173:/usr/lib/avr/include/util/delay.h **** 		__ticks = (uint16_t) (__ms * 10.0);
 174:/usr/lib/avr/include/util/delay.h **** 		while(__ticks)
 175:/usr/lib/avr/include/util/delay.h **** 		{
 176:/usr/lib/avr/include/util/delay.h **** 			// wait 1/10 ms
 177:/usr/lib/avr/include/util/delay.h **** 			_delay_loop_2(((F_CPU) / 4e3) / 10);
 178:/usr/lib/avr/include/util/delay.h **** 			__ticks --;
 179:/usr/lib/avr/include/util/delay.h **** 		}
 180:/usr/lib/avr/include/util/delay.h **** 		return;
 181:/usr/lib/avr/include/util/delay.h **** 	}
 182:/usr/lib/avr/include/util/delay.h **** 	else
 183:/usr/lib/avr/include/util/delay.h **** 		__ticks = (uint16_t)__tmp;
 184:/usr/lib/avr/include/util/delay.h **** 	_delay_loop_2(__ticks);
 185:/usr/lib/avr/include/util/delay.h **** #endif
 186:/usr/lib/avr/include/util/delay.h **** }
 187:/usr/lib/avr/include/util/delay.h **** 
 188:/usr/lib/avr/include/util/delay.h **** /**
 189:/usr/lib/avr/include/util/delay.h ****    \ingroup util_delay
 190:/usr/lib/avr/include/util/delay.h **** 
 191:/usr/lib/avr/include/util/delay.h ****    Perform a delay of \c __us microseconds, using _delay_loop_1().
 192:/usr/lib/avr/include/util/delay.h **** 
 193:/usr/lib/avr/include/util/delay.h ****    The macro F_CPU is supposed to be defined to a
 194:/usr/lib/avr/include/util/delay.h ****    constant defining the CPU clock frequency (in Hertz).
 195:/usr/lib/avr/include/util/delay.h **** 
 196:/usr/lib/avr/include/util/delay.h ****    The maximal possible delay is 768 us / F_CPU in MHz.
 197:/usr/lib/avr/include/util/delay.h **** 
 198:/usr/lib/avr/include/util/delay.h ****    If the user requests a delay greater than the maximal possible one,
 199:/usr/lib/avr/include/util/delay.h ****    _delay_us() will automatically call _delay_ms() instead.  The user
 200:/usr/lib/avr/include/util/delay.h ****    will not be informed about this case.
 201:/usr/lib/avr/include/util/delay.h **** 
 202:/usr/lib/avr/include/util/delay.h ****    If the avr-gcc toolchain has __builtin_avr_delay_cycles(unsigned long)
 203:/usr/lib/avr/include/util/delay.h ****    support, maximal possible delay is 4294967.295 us/ F_CPU in MHz. For
 204:/usr/lib/avr/include/util/delay.h ****    values greater than the maximal possible delay, overflow results in
 205:/usr/lib/avr/include/util/delay.h ****    no delay i.e., 0us.
 206:/usr/lib/avr/include/util/delay.h ****   
 207:/usr/lib/avr/include/util/delay.h ****    Conversion of __us into clock cycles may not always result in integer.
 208:/usr/lib/avr/include/util/delay.h ****    By default, the clock cycles rounded up to next integer. This ensures that
 209:/usr/lib/avr/include/util/delay.h ****    the user gets atleast __us microseconds of delay.
 210:/usr/lib/avr/include/util/delay.h **** 
 211:/usr/lib/avr/include/util/delay.h ****    Alternatively, user can define __DELAY_ROUND_DOWN__ and __DELAY_ROUND_CLOSEST__
 212:/usr/lib/avr/include/util/delay.h ****    to round down and round to closest integer.
 213:/usr/lib/avr/include/util/delay.h ****  
 214:/usr/lib/avr/include/util/delay.h ****    Note: The new implementation of _delay_us(double __us) with 
 215:/usr/lib/avr/include/util/delay.h ****     __builtin_avr_delay_cycles(unsigned long) support is not backward compatible.
 216:/usr/lib/avr/include/util/delay.h ****    User can define __DELAY_BACKWARD_COMPATIBLE__ to get a backward compatible delay.
 217:/usr/lib/avr/include/util/delay.h ****    Also, the backward compatible
 218:/usr/lib/avr/include/util/delay.h ****    algorithm will be chosen if the code is compiled in a <em>freestanding
 219:/usr/lib/avr/include/util/delay.h ****    environment</em> (GCC option \c -ffreestanding), as the math functions
 220:/usr/lib/avr/include/util/delay.h ****    required for rounding are not available to the compiler then.
 221:/usr/lib/avr/include/util/delay.h **** 
 222:/usr/lib/avr/include/util/delay.h ****  */
 223:/usr/lib/avr/include/util/delay.h **** void
 224:/usr/lib/avr/include/util/delay.h **** _delay_us(double __us)
 225:/usr/lib/avr/include/util/delay.h **** {
 226:/usr/lib/avr/include/util/delay.h **** 	double __tmp ; 
 227:/usr/lib/avr/include/util/delay.h **** #if __HAS_DELAY_CYCLES && defined(__OPTIMIZE__) && \
 228:/usr/lib/avr/include/util/delay.h ****   !defined(__DELAY_BACKWARD_COMPATIBLE__) &&	   \
 229:/usr/lib/avr/include/util/delay.h ****   __STDC_HOSTED__
 230:/usr/lib/avr/include/util/delay.h **** 	uint32_t __ticks_dc;
 231:/usr/lib/avr/include/util/delay.h **** 	extern void __builtin_avr_delay_cycles(unsigned long);
 232:/usr/lib/avr/include/util/delay.h **** 	__tmp = ((F_CPU) / 1e6) * __us;
 233:/usr/lib/avr/include/util/delay.h **** 
 234:/usr/lib/avr/include/util/delay.h **** 	#if defined(__DELAY_ROUND_DOWN__)
 235:/usr/lib/avr/include/util/delay.h **** 		__ticks_dc = (uint32_t)fabs(__tmp);
 236:/usr/lib/avr/include/util/delay.h **** 
 237:/usr/lib/avr/include/util/delay.h **** 	#elif defined(__DELAY_ROUND_CLOSEST__)
 238:/usr/lib/avr/include/util/delay.h **** 		__ticks_dc = (uint32_t)(fabs(__tmp)+0.5);
 239:/usr/lib/avr/include/util/delay.h **** 
 240:/usr/lib/avr/include/util/delay.h **** 	#else
 241:/usr/lib/avr/include/util/delay.h **** 		//round up by default
 242:/usr/lib/avr/include/util/delay.h **** 		__ticks_dc = (uint32_t)(ceil(fabs(__tmp)));
 243:/usr/lib/avr/include/util/delay.h **** 	#endif
 244:/usr/lib/avr/include/util/delay.h **** 
 245:/usr/lib/avr/include/util/delay.h **** 	__builtin_avr_delay_cycles(__ticks_dc);
 109               		.loc 3 245 0
 110 002e 95ED      		ldi r25,lo8(-43)
 111 0030 9A95      	1:	dec r25
 112 0032 01F4      		brne 1b
 113 0034 0000      		nop
 114               	.LVL9:
 115               	.LBE142:
 116               	.LBE141:
 117               		.loc 1 631 0
 118 0036 8111      		cpse r24,__zero_reg__
 119 0038 00C0      		rjmp .L5
 120               	.LVL10:
 121               	.L6:
 122               	.LBB143:
 123               	.LBB144:
 124               		.loc 2 360 0
 125 003a 8091 E800 		lds r24,232
 126               	.LBE144:
 127               	.LBE143:
 632:./tmk_core/protocol/lufa/lufa.c ****     if (!Endpoint_IsReadWriteAllowed()) return;
 128               		.loc 1 632 0
 129 003e 85FF      		sbrs r24,5
 130 0040 00C0      		rjmp .L3
 633:./tmk_core/protocol/lufa/lufa.c **** 
 634:./tmk_core/protocol/lufa/lufa.c ****     Endpoint_Write_Stream_LE(&r, sizeof(report_extra_t), NULL);
 131               		.loc 1 634 0
 132 0042 40E0      		ldi r20,0
 133 0044 50E0      		ldi r21,0
 134 0046 63E0      		ldi r22,lo8(3)
 135 0048 70E0      		ldi r23,0
 136 004a CE01      		movw r24,r28
 137 004c 0196      		adiw r24,1
 138 004e 0E94 0000 		call Endpoint_Write_Stream_LE
 139               	.LVL11:
 140               	.LBB145:
 141               	.LBB146:
 361:./tmk_core/protocol/lufa/LUFA-git/LUFA/Drivers/USB/Core/AVR8/../AVR8/Endpoint_AVR8.h **** 			}
 362:./tmk_core/protocol/lufa/LUFA-git/LUFA/Drivers/USB/Core/AVR8/../AVR8/Endpoint_AVR8.h **** 
 363:./tmk_core/protocol/lufa/LUFA-git/LUFA/Drivers/USB/Core/AVR8/../AVR8/Endpoint_AVR8.h **** 			/** Determines if the currently selected endpoint is configured.
 364:./tmk_core/protocol/lufa/LUFA-git/LUFA/Drivers/USB/Core/AVR8/../AVR8/Endpoint_AVR8.h **** 			 *
 365:./tmk_core/protocol/lufa/LUFA-git/LUFA/Drivers/USB/Core/AVR8/../AVR8/Endpoint_AVR8.h **** 			 *  \return Boolean \c true if the currently selected endpoint has been configured, \c false oth
 366:./tmk_core/protocol/lufa/LUFA-git/LUFA/Drivers/USB/Core/AVR8/../AVR8/Endpoint_AVR8.h **** 			 */
 367:./tmk_core/protocol/lufa/LUFA-git/LUFA/Drivers/USB/Core/AVR8/../AVR8/Endpoint_AVR8.h **** 			static inline bool Endpoint_IsConfigured(void) ATTR_WARN_UNUSED_RESULT ATTR_ALWAYS_INLINE;
 368:./tmk_core/protocol/lufa/LUFA-git/LUFA/Drivers/USB/Core/AVR8/../AVR8/Endpoint_AVR8.h **** 			static inline bool Endpoint_IsConfigured(void)
 369:./tmk_core/protocol/lufa/LUFA-git/LUFA/Drivers/USB/Core/AVR8/../AVR8/Endpoint_AVR8.h **** 			{
 370:./tmk_core/protocol/lufa/LUFA-git/LUFA/Drivers/USB/Core/AVR8/../AVR8/Endpoint_AVR8.h **** 				return ((UESTA0X & (1 << CFGOK)) ? true : false);
 371:./tmk_core/protocol/lufa/LUFA-git/LUFA/Drivers/USB/Core/AVR8/../AVR8/Endpoint_AVR8.h **** 			}
 372:./tmk_core/protocol/lufa/LUFA-git/LUFA/Drivers/USB/Core/AVR8/../AVR8/Endpoint_AVR8.h **** 
 373:./tmk_core/protocol/lufa/LUFA-git/LUFA/Drivers/USB/Core/AVR8/../AVR8/Endpoint_AVR8.h **** 			/** Returns a mask indicating which INTERRUPT type endpoints have interrupted - i.e. their
 374:./tmk_core/protocol/lufa/LUFA-git/LUFA/Drivers/USB/Core/AVR8/../AVR8/Endpoint_AVR8.h **** 			 *  interrupt duration has elapsed. Which endpoints have interrupted can be determined by
 375:./tmk_core/protocol/lufa/LUFA-git/LUFA/Drivers/USB/Core/AVR8/../AVR8/Endpoint_AVR8.h **** 			 *  masking the return value against <tt>(1 << <i>{Endpoint Number}</i>)</tt>.
 376:./tmk_core/protocol/lufa/LUFA-git/LUFA/Drivers/USB/Core/AVR8/../AVR8/Endpoint_AVR8.h **** 			 *
 377:./tmk_core/protocol/lufa/LUFA-git/LUFA/Drivers/USB/Core/AVR8/../AVR8/Endpoint_AVR8.h **** 			 *  \return Mask whose bits indicate which endpoints have interrupted.
 378:./tmk_core/protocol/lufa/LUFA-git/LUFA/Drivers/USB/Core/AVR8/../AVR8/Endpoint_AVR8.h **** 			 */
 379:./tmk_core/protocol/lufa/LUFA-git/LUFA/Drivers/USB/Core/AVR8/../AVR8/Endpoint_AVR8.h **** 			static inline uint8_t Endpoint_GetEndpointInterrupts(void) ATTR_WARN_UNUSED_RESULT ATTR_ALWAYS_I
 380:./tmk_core/protocol/lufa/LUFA-git/LUFA/Drivers/USB/Core/AVR8/../AVR8/Endpoint_AVR8.h **** 			static inline uint8_t Endpoint_GetEndpointInterrupts(void)
 381:./tmk_core/protocol/lufa/LUFA-git/LUFA/Drivers/USB/Core/AVR8/../AVR8/Endpoint_AVR8.h **** 			{
 382:./tmk_core/protocol/lufa/LUFA-git/LUFA/Drivers/USB/Core/AVR8/../AVR8/Endpoint_AVR8.h **** 				return UEINT;
 383:./tmk_core/protocol/lufa/LUFA-git/LUFA/Drivers/USB/Core/AVR8/../AVR8/Endpoint_AVR8.h **** 			}
 384:./tmk_core/protocol/lufa/LUFA-git/LUFA/Drivers/USB/Core/AVR8/../AVR8/Endpoint_AVR8.h **** 
 385:./tmk_core/protocol/lufa/LUFA-git/LUFA/Drivers/USB/Core/AVR8/../AVR8/Endpoint_AVR8.h **** 			/** Determines if the specified endpoint number has interrupted (valid only for INTERRUPT type
 386:./tmk_core/protocol/lufa/LUFA-git/LUFA/Drivers/USB/Core/AVR8/../AVR8/Endpoint_AVR8.h **** 			 *  endpoints).
 387:./tmk_core/protocol/lufa/LUFA-git/LUFA/Drivers/USB/Core/AVR8/../AVR8/Endpoint_AVR8.h **** 			 *
 388:./tmk_core/protocol/lufa/LUFA-git/LUFA/Drivers/USB/Core/AVR8/../AVR8/Endpoint_AVR8.h **** 			 *  \param[in] Address  Address of the endpoint whose interrupt flag should be tested.
 389:./tmk_core/protocol/lufa/LUFA-git/LUFA/Drivers/USB/Core/AVR8/../AVR8/Endpoint_AVR8.h **** 			 *
 390:./tmk_core/protocol/lufa/LUFA-git/LUFA/Drivers/USB/Core/AVR8/../AVR8/Endpoint_AVR8.h **** 			 *  \return Boolean \c true if the specified endpoint has interrupted, \c false otherwise.
 391:./tmk_core/protocol/lufa/LUFA-git/LUFA/Drivers/USB/Core/AVR8/../AVR8/Endpoint_AVR8.h **** 			 */
 392:./tmk_core/protocol/lufa/LUFA-git/LUFA/Drivers/USB/Core/AVR8/../AVR8/Endpoint_AVR8.h **** 			static inline bool Endpoint_HasEndpointInterrupted(const uint8_t Address) ATTR_WARN_UNUSED_RESUL
 393:./tmk_core/protocol/lufa/LUFA-git/LUFA/Drivers/USB/Core/AVR8/../AVR8/Endpoint_AVR8.h **** 			static inline bool Endpoint_HasEndpointInterrupted(const uint8_t Address)
 394:./tmk_core/protocol/lufa/LUFA-git/LUFA/Drivers/USB/Core/AVR8/../AVR8/Endpoint_AVR8.h **** 			{
 395:./tmk_core/protocol/lufa/LUFA-git/LUFA/Drivers/USB/Core/AVR8/../AVR8/Endpoint_AVR8.h **** 				return ((Endpoint_GetEndpointInterrupts() & (1 << (Address & ENDPOINT_EPNUM_MASK))) ? true : fa
 396:./tmk_core/protocol/lufa/LUFA-git/LUFA/Drivers/USB/Core/AVR8/../AVR8/Endpoint_AVR8.h **** 			}
 397:./tmk_core/protocol/lufa/LUFA-git/LUFA/Drivers/USB/Core/AVR8/../AVR8/Endpoint_AVR8.h **** 
 398:./tmk_core/protocol/lufa/LUFA-git/LUFA/Drivers/USB/Core/AVR8/../AVR8/Endpoint_AVR8.h **** 			/** Determines if the selected IN endpoint is ready for a new packet to be sent to the host.
 399:./tmk_core/protocol/lufa/LUFA-git/LUFA/Drivers/USB/Core/AVR8/../AVR8/Endpoint_AVR8.h **** 			 *
 400:./tmk_core/protocol/lufa/LUFA-git/LUFA/Drivers/USB/Core/AVR8/../AVR8/Endpoint_AVR8.h **** 			 *  \ingroup Group_EndpointPacketManagement_AVR8
 401:./tmk_core/protocol/lufa/LUFA-git/LUFA/Drivers/USB/Core/AVR8/../AVR8/Endpoint_AVR8.h **** 			 *
 402:./tmk_core/protocol/lufa/LUFA-git/LUFA/Drivers/USB/Core/AVR8/../AVR8/Endpoint_AVR8.h **** 			 *  \return Boolean \c true if the current endpoint is ready for an IN packet, \c false otherwis
 403:./tmk_core/protocol/lufa/LUFA-git/LUFA/Drivers/USB/Core/AVR8/../AVR8/Endpoint_AVR8.h **** 			 */
 404:./tmk_core/protocol/lufa/LUFA-git/LUFA/Drivers/USB/Core/AVR8/../AVR8/Endpoint_AVR8.h **** 			static inline bool Endpoint_IsINReady(void) ATTR_WARN_UNUSED_RESULT ATTR_ALWAYS_INLINE;
 405:./tmk_core/protocol/lufa/LUFA-git/LUFA/Drivers/USB/Core/AVR8/../AVR8/Endpoint_AVR8.h **** 			static inline bool Endpoint_IsINReady(void)
 406:./tmk_core/protocol/lufa/LUFA-git/LUFA/Drivers/USB/Core/AVR8/../AVR8/Endpoint_AVR8.h **** 			{
 407:./tmk_core/protocol/lufa/LUFA-git/LUFA/Drivers/USB/Core/AVR8/../AVR8/Endpoint_AVR8.h **** 				return ((UEINTX & (1 << TXINI)) ? true : false);
 408:./tmk_core/protocol/lufa/LUFA-git/LUFA/Drivers/USB/Core/AVR8/../AVR8/Endpoint_AVR8.h **** 			}
 409:./tmk_core/protocol/lufa/LUFA-git/LUFA/Drivers/USB/Core/AVR8/../AVR8/Endpoint_AVR8.h **** 
 410:./tmk_core/protocol/lufa/LUFA-git/LUFA/Drivers/USB/Core/AVR8/../AVR8/Endpoint_AVR8.h **** 			/** Determines if the selected OUT endpoint has received new packet from the host.
 411:./tmk_core/protocol/lufa/LUFA-git/LUFA/Drivers/USB/Core/AVR8/../AVR8/Endpoint_AVR8.h **** 			 *
 412:./tmk_core/protocol/lufa/LUFA-git/LUFA/Drivers/USB/Core/AVR8/../AVR8/Endpoint_AVR8.h **** 			 *  \ingroup Group_EndpointPacketManagement_AVR8
 413:./tmk_core/protocol/lufa/LUFA-git/LUFA/Drivers/USB/Core/AVR8/../AVR8/Endpoint_AVR8.h **** 			 *
 414:./tmk_core/protocol/lufa/LUFA-git/LUFA/Drivers/USB/Core/AVR8/../AVR8/Endpoint_AVR8.h **** 			 *  \return Boolean \c true if current endpoint is has received an OUT packet, \c false otherwis
 415:./tmk_core/protocol/lufa/LUFA-git/LUFA/Drivers/USB/Core/AVR8/../AVR8/Endpoint_AVR8.h **** 			 */
 416:./tmk_core/protocol/lufa/LUFA-git/LUFA/Drivers/USB/Core/AVR8/../AVR8/Endpoint_AVR8.h **** 			static inline bool Endpoint_IsOUTReceived(void) ATTR_WARN_UNUSED_RESULT ATTR_ALWAYS_INLINE;
 417:./tmk_core/protocol/lufa/LUFA-git/LUFA/Drivers/USB/Core/AVR8/../AVR8/Endpoint_AVR8.h **** 			static inline bool Endpoint_IsOUTReceived(void)
 418:./tmk_core/protocol/lufa/LUFA-git/LUFA/Drivers/USB/Core/AVR8/../AVR8/Endpoint_AVR8.h **** 			{
 419:./tmk_core/protocol/lufa/LUFA-git/LUFA/Drivers/USB/Core/AVR8/../AVR8/Endpoint_AVR8.h **** 				return ((UEINTX & (1 << RXOUTI)) ? true : false);
 420:./tmk_core/protocol/lufa/LUFA-git/LUFA/Drivers/USB/Core/AVR8/../AVR8/Endpoint_AVR8.h **** 			}
 421:./tmk_core/protocol/lufa/LUFA-git/LUFA/Drivers/USB/Core/AVR8/../AVR8/Endpoint_AVR8.h **** 
 422:./tmk_core/protocol/lufa/LUFA-git/LUFA/Drivers/USB/Core/AVR8/../AVR8/Endpoint_AVR8.h **** 			/** Determines if the current CONTROL type endpoint has received a SETUP packet.
 423:./tmk_core/protocol/lufa/LUFA-git/LUFA/Drivers/USB/Core/AVR8/../AVR8/Endpoint_AVR8.h **** 			 *
 424:./tmk_core/protocol/lufa/LUFA-git/LUFA/Drivers/USB/Core/AVR8/../AVR8/Endpoint_AVR8.h **** 			 *  \ingroup Group_EndpointPacketManagement_AVR8
 425:./tmk_core/protocol/lufa/LUFA-git/LUFA/Drivers/USB/Core/AVR8/../AVR8/Endpoint_AVR8.h **** 			 *
 426:./tmk_core/protocol/lufa/LUFA-git/LUFA/Drivers/USB/Core/AVR8/../AVR8/Endpoint_AVR8.h **** 			 *  \return Boolean \c true if the selected endpoint has received a SETUP packet, \c false other
 427:./tmk_core/protocol/lufa/LUFA-git/LUFA/Drivers/USB/Core/AVR8/../AVR8/Endpoint_AVR8.h **** 			 */
 428:./tmk_core/protocol/lufa/LUFA-git/LUFA/Drivers/USB/Core/AVR8/../AVR8/Endpoint_AVR8.h **** 			static inline bool Endpoint_IsSETUPReceived(void) ATTR_WARN_UNUSED_RESULT ATTR_ALWAYS_INLINE;
 429:./tmk_core/protocol/lufa/LUFA-git/LUFA/Drivers/USB/Core/AVR8/../AVR8/Endpoint_AVR8.h **** 			static inline bool Endpoint_IsSETUPReceived(void)
 430:./tmk_core/protocol/lufa/LUFA-git/LUFA/Drivers/USB/Core/AVR8/../AVR8/Endpoint_AVR8.h **** 			{
 431:./tmk_core/protocol/lufa/LUFA-git/LUFA/Drivers/USB/Core/AVR8/../AVR8/Endpoint_AVR8.h **** 				return ((UEINTX & (1 << RXSTPI)) ? true : false);
 432:./tmk_core/protocol/lufa/LUFA-git/LUFA/Drivers/USB/Core/AVR8/../AVR8/Endpoint_AVR8.h **** 			}
 433:./tmk_core/protocol/lufa/LUFA-git/LUFA/Drivers/USB/Core/AVR8/../AVR8/Endpoint_AVR8.h **** 
 434:./tmk_core/protocol/lufa/LUFA-git/LUFA/Drivers/USB/Core/AVR8/../AVR8/Endpoint_AVR8.h **** 			/** Clears a received SETUP packet on the currently selected CONTROL type endpoint, freeing up t
 435:./tmk_core/protocol/lufa/LUFA-git/LUFA/Drivers/USB/Core/AVR8/../AVR8/Endpoint_AVR8.h **** 			 *  endpoint for the next packet.
 436:./tmk_core/protocol/lufa/LUFA-git/LUFA/Drivers/USB/Core/AVR8/../AVR8/Endpoint_AVR8.h **** 			 *
 437:./tmk_core/protocol/lufa/LUFA-git/LUFA/Drivers/USB/Core/AVR8/../AVR8/Endpoint_AVR8.h **** 			 *  \ingroup Group_EndpointPacketManagement_AVR8
 438:./tmk_core/protocol/lufa/LUFA-git/LUFA/Drivers/USB/Core/AVR8/../AVR8/Endpoint_AVR8.h **** 			 *
 439:./tmk_core/protocol/lufa/LUFA-git/LUFA/Drivers/USB/Core/AVR8/../AVR8/Endpoint_AVR8.h **** 			 *  \note This is not applicable for non CONTROL type endpoints.
 440:./tmk_core/protocol/lufa/LUFA-git/LUFA/Drivers/USB/Core/AVR8/../AVR8/Endpoint_AVR8.h **** 			 */
 441:./tmk_core/protocol/lufa/LUFA-git/LUFA/Drivers/USB/Core/AVR8/../AVR8/Endpoint_AVR8.h **** 			static inline void Endpoint_ClearSETUP(void) ATTR_ALWAYS_INLINE;
 442:./tmk_core/protocol/lufa/LUFA-git/LUFA/Drivers/USB/Core/AVR8/../AVR8/Endpoint_AVR8.h **** 			static inline void Endpoint_ClearSETUP(void)
 443:./tmk_core/protocol/lufa/LUFA-git/LUFA/Drivers/USB/Core/AVR8/../AVR8/Endpoint_AVR8.h **** 			{
 444:./tmk_core/protocol/lufa/LUFA-git/LUFA/Drivers/USB/Core/AVR8/../AVR8/Endpoint_AVR8.h **** 				UEINTX &= ~(1 << RXSTPI);
 445:./tmk_core/protocol/lufa/LUFA-git/LUFA/Drivers/USB/Core/AVR8/../AVR8/Endpoint_AVR8.h **** 			}
 446:./tmk_core/protocol/lufa/LUFA-git/LUFA/Drivers/USB/Core/AVR8/../AVR8/Endpoint_AVR8.h **** 
 447:./tmk_core/protocol/lufa/LUFA-git/LUFA/Drivers/USB/Core/AVR8/../AVR8/Endpoint_AVR8.h **** 			/** Sends an IN packet to the host on the currently selected endpoint, freeing up the endpoint f
 448:./tmk_core/protocol/lufa/LUFA-git/LUFA/Drivers/USB/Core/AVR8/../AVR8/Endpoint_AVR8.h **** 			 *  next packet and switching to the alternative endpoint bank if double banked.
 449:./tmk_core/protocol/lufa/LUFA-git/LUFA/Drivers/USB/Core/AVR8/../AVR8/Endpoint_AVR8.h **** 			 *
 450:./tmk_core/protocol/lufa/LUFA-git/LUFA/Drivers/USB/Core/AVR8/../AVR8/Endpoint_AVR8.h **** 			 *  \ingroup Group_EndpointPacketManagement_AVR8
 451:./tmk_core/protocol/lufa/LUFA-git/LUFA/Drivers/USB/Core/AVR8/../AVR8/Endpoint_AVR8.h **** 			 */
 452:./tmk_core/protocol/lufa/LUFA-git/LUFA/Drivers/USB/Core/AVR8/../AVR8/Endpoint_AVR8.h **** 			static inline void Endpoint_ClearIN(void) ATTR_ALWAYS_INLINE;
 453:./tmk_core/protocol/lufa/LUFA-git/LUFA/Drivers/USB/Core/AVR8/../AVR8/Endpoint_AVR8.h **** 			static inline void Endpoint_ClearIN(void)
 454:./tmk_core/protocol/lufa/LUFA-git/LUFA/Drivers/USB/Core/AVR8/../AVR8/Endpoint_AVR8.h **** 			{
 455:./tmk_core/protocol/lufa/LUFA-git/LUFA/Drivers/USB/Core/AVR8/../AVR8/Endpoint_AVR8.h **** 				#if !defined(CONTROL_ONLY_DEVICE)
 456:./tmk_core/protocol/lufa/LUFA-git/LUFA/Drivers/USB/Core/AVR8/../AVR8/Endpoint_AVR8.h **** 					UEINTX &= ~((1 << TXINI) | (1 << FIFOCON));
 142               		.loc 2 456 0
 143 0052 8091 E800 		lds r24,232
 144 0056 8E77      		andi r24,lo8(126)
 145 0058 8093 E800 		sts 232,r24
 146               	.LVL12:
 147               	.L3:
 148               	/* epilogue start */
 149               	.LBE146:
 150               	.LBE145:
 635:./tmk_core/protocol/lufa/lufa.c ****     Endpoint_ClearIN();
 636:./tmk_core/protocol/lufa/lufa.c **** }
 151               		.loc 1 636 0
 152 005c 0F90      		pop __tmp_reg__
 153 005e 0F90      		pop __tmp_reg__
 154 0060 0F90      		pop __tmp_reg__
 155 0062 DF91      		pop r29
 156 0064 CF91      		pop r28
 157 0066 0895      		ret
 158               		.cfi_endproc
 159               	.LFE119:
 161               		.section	.text.send_system,"ax",@progbits
 163               	send_system:
 164               	.LFB118:
 580:./tmk_core/protocol/lufa/lufa.c ****     uint8_t timeout = 255;
 165               		.loc 1 580 0
 166               		.cfi_startproc
 167               	.LVL13:
 168 0000 CF93      		push r28
 169               	.LCFI4:
 170               		.cfi_def_cfa_offset 3
 171               		.cfi_offset 28, -2
 172 0002 DF93      		push r29
 173               	.LCFI5:
 174               		.cfi_def_cfa_offset 4
 175               		.cfi_offset 29, -3
 176 0004 00D0      		rcall .
 177 0006 1F92      		push __zero_reg__
 178               	.LCFI6:
 179               		.cfi_def_cfa_offset 7
 180 0008 CDB7      		in r28,__SP_L__
 181 000a DEB7      		in r29,__SP_H__
 182               	.LCFI7:
 183               		.cfi_def_cfa_register 28
 184               	/* prologue: function */
 185               	/* frame size = 3 */
 186               	/* stack size = 5 */
 187               	.L__stack_usage = 5
 188 000c 9C01      		movw r18,r24
 189               	.LVL14:
 583:./tmk_core/protocol/lufa/lufa.c ****         return;
 190               		.loc 1 583 0
 191 000e 8091 0000 		lds r24,USB_DeviceState
 192               	.LVL15:
 193 0012 8430      		cpi r24,lo8(4)
 194 0014 01F4      		brne .L16
 586:./tmk_core/protocol/lufa/lufa.c ****         .report_id = REPORT_ID_SYSTEM,
 195               		.loc 1 586 0
 196 0016 92E0      		ldi r25,lo8(2)
 197 0018 9983      		std Y+1,r25
 198 001a 3B83      		std Y+3,r19
 199 001c 2A83      		std Y+2,r18
 200               	.LVL16:
 201               	.LBB147:
 202               	.LBB148:
 270:./tmk_core/protocol/lufa/LUFA-git/LUFA/Drivers/USB/Core/AVR8/../AVR8/Endpoint_AVR8.h **** 				#endif
 203               		.loc 2 270 0
 204 001e 9093 E900 		sts 233,r25
 205               	.LVL17:
 206 0022 8FEF      		ldi r24,lo8(-1)
 207               	.LVL18:
 208               	.L18:
 209               	.LBE148:
 210               	.LBE147:
 211               	.LBB149:
 212               	.LBB150:
 360:./tmk_core/protocol/lufa/LUFA-git/LUFA/Drivers/USB/Core/AVR8/../AVR8/Endpoint_AVR8.h **** 			}
 213               		.loc 2 360 0
 214 0024 9091 E800 		lds r25,232
 215 0028 8150      		subi r24,lo8(-(-1))
 216               	.LVL19:
 217               	.LBE150:
 218               	.LBE149:
 593:./tmk_core/protocol/lufa/lufa.c ****     if (!Endpoint_IsReadWriteAllowed()) return;
 219               		.loc 1 593 0
 220 002a 95FD      		sbrc r25,5
 221 002c 00C0      		rjmp .L19
 222               	.LVL20:
 223               	.LBB151:
 224               	.LBB152:
 225               		.loc 3 245 0
 226 002e 95ED      		ldi r25,lo8(-43)
 227 0030 9A95      	1:	dec r25
 228 0032 01F4      		brne 1b
 229 0034 0000      		nop
 230               	.LVL21:
 231               	.LBE152:
 232               	.LBE151:
 593:./tmk_core/protocol/lufa/lufa.c ****     if (!Endpoint_IsReadWriteAllowed()) return;
 233               		.loc 1 593 0
 234 0036 8111      		cpse r24,__zero_reg__
 235 0038 00C0      		rjmp .L18
 236               	.LVL22:
 237               	.L19:
 238               	.LBB153:
 239               	.LBB154:
 360:./tmk_core/protocol/lufa/LUFA-git/LUFA/Drivers/USB/Core/AVR8/../AVR8/Endpoint_AVR8.h **** 			}
 240               		.loc 2 360 0
 241 003a 8091 E800 		lds r24,232
 242               	.LBE154:
 243               	.LBE153:
 594:./tmk_core/protocol/lufa/lufa.c **** 
 244               		.loc 1 594 0
 245 003e 85FF      		sbrs r24,5
 246 0040 00C0      		rjmp .L16
 596:./tmk_core/protocol/lufa/lufa.c ****     Endpoint_ClearIN();
 247               		.loc 1 596 0
 248 0042 40E0      		ldi r20,0
 249 0044 50E0      		ldi r21,0
 250 0046 63E0      		ldi r22,lo8(3)
 251 0048 70E0      		ldi r23,0
 252 004a CE01      		movw r24,r28
 253 004c 0196      		adiw r24,1
 254 004e 0E94 0000 		call Endpoint_Write_Stream_LE
 255               	.LVL23:
 256               	.LBB155:
 257               	.LBB156:
 258               		.loc 2 456 0
 259 0052 8091 E800 		lds r24,232
 260 0056 8E77      		andi r24,lo8(126)
 261 0058 8093 E800 		sts 232,r24
 262               	.LVL24:
 263               	.L16:
 264               	/* epilogue start */
 265               	.LBE156:
 266               	.LBE155:
 598:./tmk_core/protocol/lufa/lufa.c **** 
 267               		.loc 1 598 0
 268 005c 0F90      		pop __tmp_reg__
 269 005e 0F90      		pop __tmp_reg__
 270 0060 0F90      		pop __tmp_reg__
 271 0062 DF91      		pop r29
 272 0064 CF91      		pop r28
 273 0066 0895      		ret
 274               		.cfi_endproc
 275               	.LFE118:
 277               		.section	.text.send_keyboard,"ax",@progbits
 279               	send_keyboard:
 280               	.LFB116:
 496:./tmk_core/protocol/lufa/lufa.c **** 
 281               		.loc 1 496 0
 282               		.cfi_startproc
 283               	.LVL25:
 284 0000 CF93      		push r28
 285               	.LCFI8:
 286               		.cfi_def_cfa_offset 3
 287               		.cfi_offset 28, -2
 288 0002 DF93      		push r29
 289               	.LCFI9:
 290               		.cfi_def_cfa_offset 4
 291               		.cfi_offset 29, -3
 292               	/* prologue: function */
 293               	/* frame size = 0 */
 294               	/* stack size = 2 */
 295               	.L__stack_usage = 2
 296               	.LVL26:
 507:./tmk_core/protocol/lufa/lufa.c ****         return;
 297               		.loc 1 507 0
 298 0004 2091 0000 		lds r18,USB_DeviceState
 299 0008 2430      		cpi r18,lo8(4)
 300 000a 01F0      		breq .+2
 301 000c 00C0      		rjmp .L28
 302 000e EC01      		movw r28,r24
 512:./tmk_core/protocol/lufa/lufa.c ****         /* Report protocol - NKRO */
 303               		.loc 1 512 0
 304 0010 8091 0000 		lds r24,keyboard_protocol
 305               	.LVL27:
 306 0014 8823      		tst r24
 307 0016 01F0      		breq .L31
 512:./tmk_core/protocol/lufa/lufa.c ****         /* Report protocol - NKRO */
 308               		.loc 1 512 0 is_stmt 0 discriminator 1
 309 0018 8091 0000 		lds r24,keymap_config
 310 001c 87FF      		sbrs r24,7
 311 001e 00C0      		rjmp .L31
 312               	.LVL28:
 313               	.LBB157:
 314               	.LBB158:
 270:./tmk_core/protocol/lufa/LUFA-git/LUFA/Drivers/USB/Core/AVR8/../AVR8/Endpoint_AVR8.h **** 				#endif
 315               		.loc 2 270 0 is_stmt 1
 316 0020 83E0      		ldi r24,lo8(3)
 317 0022 8093 E900 		sts 233,r24
 318               	.LVL29:
 319 0026 8FEF      		ldi r24,lo8(-1)
 320               	.LVL30:
 321               	.L32:
 322               	.LBE158:
 323               	.LBE157:
 324               	.LBB159:
 325               	.LBB160:
 360:./tmk_core/protocol/lufa/LUFA-git/LUFA/Drivers/USB/Core/AVR8/../AVR8/Endpoint_AVR8.h **** 			}
 326               		.loc 2 360 0
 327 0028 9091 E800 		lds r25,232
 328 002c 8150      		subi r24,lo8(-(-1))
 329               	.LVL31:
 330               	.LBE160:
 331               	.LBE159:
 517:./tmk_core/protocol/lufa/lufa.c ****         if (!Endpoint_IsReadWriteAllowed()) return;
 332               		.loc 1 517 0
 333 002e 95FD      		sbrc r25,5
 334 0030 00C0      		rjmp .L33
 335               	.LVL32:
 336               	.LBB161:
 337               	.LBB162:
 338               		.loc 3 245 0
 339 0032 95E1      		ldi r25,lo8(21)
 340 0034 9A95      	1:	dec r25
 341 0036 01F4      		brne 1b
 342 0038 0000      		nop
 343               	.LVL33:
 344               	.LBE162:
 345               	.LBE161:
 517:./tmk_core/protocol/lufa/lufa.c ****         if (!Endpoint_IsReadWriteAllowed()) return;
 346               		.loc 1 517 0
 347 003a 8111      		cpse r24,__zero_reg__
 348 003c 00C0      		rjmp .L32
 349               	.LVL34:
 350               	.L33:
 351               	.LBB163:
 352               	.LBB164:
 360:./tmk_core/protocol/lufa/LUFA-git/LUFA/Drivers/USB/Core/AVR8/../AVR8/Endpoint_AVR8.h **** 			}
 353               		.loc 2 360 0
 354 003e 8091 E800 		lds r24,232
 355               	.LBE164:
 356               	.LBE163:
 518:./tmk_core/protocol/lufa/lufa.c **** 
 357               		.loc 1 518 0
 358 0042 85FF      		sbrs r24,5
 359 0044 00C0      		rjmp .L28
 521:./tmk_core/protocol/lufa/lufa.c ****     }
 360               		.loc 1 521 0
 361 0046 40E0      		ldi r20,0
 362 0048 50E0      		ldi r21,0
 363 004a 60E2      		ldi r22,lo8(32)
 364 004c 70E0      		ldi r23,0
 365 004e 00C0      		rjmp .L58
 366               	.LVL35:
 367               	.L31:
 368               	.LBB165:
 369               	.LBB166:
 270:./tmk_core/protocol/lufa/LUFA-git/LUFA/Drivers/USB/Core/AVR8/../AVR8/Endpoint_AVR8.h **** 				#endif
 370               		.loc 2 270 0
 371 0050 81E0      		ldi r24,lo8(1)
 372 0052 8093 E900 		sts 233,r24
 373               	.LVL36:
 374 0056 8FEF      		ldi r24,lo8(-1)
 375               	.LVL37:
 376               	.L37:
 377               	.LBE166:
 378               	.LBE165:
 379               	.LBB167:
 380               	.LBB168:
 360:./tmk_core/protocol/lufa/LUFA-git/LUFA/Drivers/USB/Core/AVR8/../AVR8/Endpoint_AVR8.h **** 			}
 381               		.loc 2 360 0
 382 0058 9091 E800 		lds r25,232
 383 005c 8150      		subi r24,lo8(-(-1))
 384               	.LVL38:
 385               	.LBE168:
 386               	.LBE167:
 530:./tmk_core/protocol/lufa/lufa.c ****         if (!Endpoint_IsReadWriteAllowed()) return;
 387               		.loc 1 530 0
 388 005e 95FD      		sbrc r25,5
 389 0060 00C0      		rjmp .L38
 390               	.LVL39:
 391               	.LBB169:
 392               	.LBB170:
 393               		.loc 3 245 0
 394 0062 95ED      		ldi r25,lo8(-43)
 395 0064 9A95      	1:	dec r25
 396 0066 01F4      		brne 1b
 397 0068 0000      		nop
 398               	.LVL40:
 399               	.LBE170:
 400               	.LBE169:
 530:./tmk_core/protocol/lufa/lufa.c ****         if (!Endpoint_IsReadWriteAllowed()) return;
 401               		.loc 1 530 0
 402 006a 8111      		cpse r24,__zero_reg__
 403 006c 00C0      		rjmp .L37
 404               	.LVL41:
 405               	.L38:
 406               	.LBB171:
 407               	.LBB172:
 360:./tmk_core/protocol/lufa/LUFA-git/LUFA/Drivers/USB/Core/AVR8/../AVR8/Endpoint_AVR8.h **** 			}
 408               		.loc 2 360 0
 409 006e 8091 E800 		lds r24,232
 410               	.LBE172:
 411               	.LBE171:
 531:./tmk_core/protocol/lufa/lufa.c **** 
 412               		.loc 1 531 0
 413 0072 85FF      		sbrs r24,5
 414 0074 00C0      		rjmp .L28
 534:./tmk_core/protocol/lufa/lufa.c ****     }
 415               		.loc 1 534 0
 416 0076 40E0      		ldi r20,0
 417 0078 50E0      		ldi r21,0
 418 007a 68E0      		ldi r22,lo8(8)
 419 007c 70E0      		ldi r23,0
 420               	.LVL42:
 421               	.L58:
 422 007e CE01      		movw r24,r28
 423 0080 0E94 0000 		call Endpoint_Write_Stream_LE
 424               	.LVL43:
 425               	.LBB173:
 426               	.LBB174:
 427               		.loc 2 456 0
 428 0084 8091 E800 		lds r24,232
 429 0088 8E77      		andi r24,lo8(126)
 430 008a 8093 E800 		sts 232,r24
 431               	.LBE174:
 432               	.LBE173:
 540:./tmk_core/protocol/lufa/lufa.c **** }
 433               		.loc 1 540 0
 434 008e 80E2      		ldi r24,lo8(32)
 435 0090 FE01      		movw r30,r28
 436 0092 A0E0      		ldi r26,lo8(keyboard_report_sent)
 437 0094 B0E0      		ldi r27,hi8(keyboard_report_sent)
 438               		0:
 439 0096 0190      		ld r0,Z+
 440 0098 0D92      		st X+,r0
 441 009a 8A95      		dec r24
 442 009c 01F4      		brne 0b
 443               	.LVL44:
 444               	.L28:
 445               	/* epilogue start */
 541:./tmk_core/protocol/lufa/lufa.c **** 
 446               		.loc 1 541 0
 447 009e DF91      		pop r29
 448 00a0 CF91      		pop r28
 449 00a2 0895      		ret
 450               		.cfi_endproc
 451               	.LFE116:
 453               		.section	.text.EVENT_USB_Device_Connect,"ax",@progbits
 454               	.global	EVENT_USB_Device_Connect
 456               	EVENT_USB_Device_Connect:
 457               	.LFB108:
 239:./tmk_core/protocol/lufa/lufa.c ****     print("[C]");
 458               		.loc 1 239 0
 459               		.cfi_startproc
 460               	/* prologue: function */
 461               	/* frame size = 0 */
 462               	/* stack size = 0 */
 463               	.L__stack_usage = 0
 242:./tmk_core/protocol/lufa/lufa.c ****         USB_Disable();
 464               		.loc 1 242 0
 465 0000 8091 0000 		lds r24,USB_IsInitialized
 466 0004 8111      		cpse r24,__zero_reg__
 467 0006 00C0      		rjmp .L59
 243:./tmk_core/protocol/lufa/lufa.c ****         USB_Init();
 468               		.loc 1 243 0
 469 0008 0E94 0000 		call USB_Disable
 470               	.LVL45:
 244:./tmk_core/protocol/lufa/lufa.c ****         USB_Device_EnableSOFEvents();
 471               		.loc 1 244 0
 472 000c 0E94 0000 		call USB_Init
 473               	.LVL46:
 474               	.LBB175:
 475               	.LBB176:
 476               	.LBB177:
 477               		.file 4 "./tmk_core/protocol/lufa/LUFA-git/LUFA/Drivers/USB/Core/AVR8/../AVR8/USBInterrupt_AVR8.h"
   1:./tmk_core/protocol/lufa/LUFA-git/LUFA/Drivers/USB/Core/AVR8/../AVR8/USBInterrupt_AVR8.h **** /*
   2:./tmk_core/protocol/lufa/LUFA-git/LUFA/Drivers/USB/Core/AVR8/../AVR8/USBInterrupt_AVR8.h ****              LUFA Library
   3:./tmk_core/protocol/lufa/LUFA-git/LUFA/Drivers/USB/Core/AVR8/../AVR8/USBInterrupt_AVR8.h ****      Copyright (C) Dean Camera, 2014.
   4:./tmk_core/protocol/lufa/LUFA-git/LUFA/Drivers/USB/Core/AVR8/../AVR8/USBInterrupt_AVR8.h **** 
   5:./tmk_core/protocol/lufa/LUFA-git/LUFA/Drivers/USB/Core/AVR8/../AVR8/USBInterrupt_AVR8.h ****   dean [at] fourwalledcubicle [dot] com
   6:./tmk_core/protocol/lufa/LUFA-git/LUFA/Drivers/USB/Core/AVR8/../AVR8/USBInterrupt_AVR8.h ****            www.lufa-lib.org
   7:./tmk_core/protocol/lufa/LUFA-git/LUFA/Drivers/USB/Core/AVR8/../AVR8/USBInterrupt_AVR8.h **** */
   8:./tmk_core/protocol/lufa/LUFA-git/LUFA/Drivers/USB/Core/AVR8/../AVR8/USBInterrupt_AVR8.h **** 
   9:./tmk_core/protocol/lufa/LUFA-git/LUFA/Drivers/USB/Core/AVR8/../AVR8/USBInterrupt_AVR8.h **** /*
  10:./tmk_core/protocol/lufa/LUFA-git/LUFA/Drivers/USB/Core/AVR8/../AVR8/USBInterrupt_AVR8.h ****   Copyright 2014  Dean Camera (dean [at] fourwalledcubicle [dot] com)
  11:./tmk_core/protocol/lufa/LUFA-git/LUFA/Drivers/USB/Core/AVR8/../AVR8/USBInterrupt_AVR8.h **** 
  12:./tmk_core/protocol/lufa/LUFA-git/LUFA/Drivers/USB/Core/AVR8/../AVR8/USBInterrupt_AVR8.h ****   Permission to use, copy, modify, distribute, and sell this
  13:./tmk_core/protocol/lufa/LUFA-git/LUFA/Drivers/USB/Core/AVR8/../AVR8/USBInterrupt_AVR8.h ****   software and its documentation for any purpose is hereby granted
  14:./tmk_core/protocol/lufa/LUFA-git/LUFA/Drivers/USB/Core/AVR8/../AVR8/USBInterrupt_AVR8.h ****   without fee, provided that the above copyright notice appear in
  15:./tmk_core/protocol/lufa/LUFA-git/LUFA/Drivers/USB/Core/AVR8/../AVR8/USBInterrupt_AVR8.h ****   all copies and that both that the copyright notice and this
  16:./tmk_core/protocol/lufa/LUFA-git/LUFA/Drivers/USB/Core/AVR8/../AVR8/USBInterrupt_AVR8.h ****   permission notice and warranty disclaimer appear in supporting
  17:./tmk_core/protocol/lufa/LUFA-git/LUFA/Drivers/USB/Core/AVR8/../AVR8/USBInterrupt_AVR8.h ****   documentation, and that the name of the author not be used in
  18:./tmk_core/protocol/lufa/LUFA-git/LUFA/Drivers/USB/Core/AVR8/../AVR8/USBInterrupt_AVR8.h ****   advertising or publicity pertaining to distribution of the
  19:./tmk_core/protocol/lufa/LUFA-git/LUFA/Drivers/USB/Core/AVR8/../AVR8/USBInterrupt_AVR8.h ****   software without specific, written prior permission.
  20:./tmk_core/protocol/lufa/LUFA-git/LUFA/Drivers/USB/Core/AVR8/../AVR8/USBInterrupt_AVR8.h **** 
  21:./tmk_core/protocol/lufa/LUFA-git/LUFA/Drivers/USB/Core/AVR8/../AVR8/USBInterrupt_AVR8.h ****   The author disclaims all warranties with regard to this
  22:./tmk_core/protocol/lufa/LUFA-git/LUFA/Drivers/USB/Core/AVR8/../AVR8/USBInterrupt_AVR8.h ****   software, including all implied warranties of merchantability
  23:./tmk_core/protocol/lufa/LUFA-git/LUFA/Drivers/USB/Core/AVR8/../AVR8/USBInterrupt_AVR8.h ****   and fitness.  In no event shall the author be liable for any
  24:./tmk_core/protocol/lufa/LUFA-git/LUFA/Drivers/USB/Core/AVR8/../AVR8/USBInterrupt_AVR8.h ****   special, indirect or consequential damages or any damages
  25:./tmk_core/protocol/lufa/LUFA-git/LUFA/Drivers/USB/Core/AVR8/../AVR8/USBInterrupt_AVR8.h ****   whatsoever resulting from loss of use, data or profits, whether
  26:./tmk_core/protocol/lufa/LUFA-git/LUFA/Drivers/USB/Core/AVR8/../AVR8/USBInterrupt_AVR8.h ****   in an action of contract, negligence or other tortious action,
  27:./tmk_core/protocol/lufa/LUFA-git/LUFA/Drivers/USB/Core/AVR8/../AVR8/USBInterrupt_AVR8.h ****   arising out of or in connection with the use or performance of
  28:./tmk_core/protocol/lufa/LUFA-git/LUFA/Drivers/USB/Core/AVR8/../AVR8/USBInterrupt_AVR8.h ****   this software.
  29:./tmk_core/protocol/lufa/LUFA-git/LUFA/Drivers/USB/Core/AVR8/../AVR8/USBInterrupt_AVR8.h **** */
  30:./tmk_core/protocol/lufa/LUFA-git/LUFA/Drivers/USB/Core/AVR8/../AVR8/USBInterrupt_AVR8.h **** 
  31:./tmk_core/protocol/lufa/LUFA-git/LUFA/Drivers/USB/Core/AVR8/../AVR8/USBInterrupt_AVR8.h **** /** \file
  32:./tmk_core/protocol/lufa/LUFA-git/LUFA/Drivers/USB/Core/AVR8/../AVR8/USBInterrupt_AVR8.h ****  *  \brief USB Controller Interrupt definitions for the AVR8 microcontrollers.
  33:./tmk_core/protocol/lufa/LUFA-git/LUFA/Drivers/USB/Core/AVR8/../AVR8/USBInterrupt_AVR8.h ****  *
  34:./tmk_core/protocol/lufa/LUFA-git/LUFA/Drivers/USB/Core/AVR8/../AVR8/USBInterrupt_AVR8.h ****  *  This file contains definitions required for the correct handling of low level USB service routi
  35:./tmk_core/protocol/lufa/LUFA-git/LUFA/Drivers/USB/Core/AVR8/../AVR8/USBInterrupt_AVR8.h ****  *  from the USB controller.
  36:./tmk_core/protocol/lufa/LUFA-git/LUFA/Drivers/USB/Core/AVR8/../AVR8/USBInterrupt_AVR8.h ****  *
  37:./tmk_core/protocol/lufa/LUFA-git/LUFA/Drivers/USB/Core/AVR8/../AVR8/USBInterrupt_AVR8.h ****  *  \note This file should not be included directly. It is automatically included as needed by the 
  38:./tmk_core/protocol/lufa/LUFA-git/LUFA/Drivers/USB/Core/AVR8/../AVR8/USBInterrupt_AVR8.h ****  *        dispatch header located in LUFA/Drivers/USB/USB.h.
  39:./tmk_core/protocol/lufa/LUFA-git/LUFA/Drivers/USB/Core/AVR8/../AVR8/USBInterrupt_AVR8.h ****  */
  40:./tmk_core/protocol/lufa/LUFA-git/LUFA/Drivers/USB/Core/AVR8/../AVR8/USBInterrupt_AVR8.h **** 
  41:./tmk_core/protocol/lufa/LUFA-git/LUFA/Drivers/USB/Core/AVR8/../AVR8/USBInterrupt_AVR8.h **** #ifndef __USBINTERRUPT_AVR8_H__
  42:./tmk_core/protocol/lufa/LUFA-git/LUFA/Drivers/USB/Core/AVR8/../AVR8/USBInterrupt_AVR8.h **** #define __USBINTERRUPT_AVR8_H__
  43:./tmk_core/protocol/lufa/LUFA-git/LUFA/Drivers/USB/Core/AVR8/../AVR8/USBInterrupt_AVR8.h **** 
  44:./tmk_core/protocol/lufa/LUFA-git/LUFA/Drivers/USB/Core/AVR8/../AVR8/USBInterrupt_AVR8.h **** 	/* Includes: */
  45:./tmk_core/protocol/lufa/LUFA-git/LUFA/Drivers/USB/Core/AVR8/../AVR8/USBInterrupt_AVR8.h **** 		#include "../../../../Common/Common.h"
  46:./tmk_core/protocol/lufa/LUFA-git/LUFA/Drivers/USB/Core/AVR8/../AVR8/USBInterrupt_AVR8.h **** 
  47:./tmk_core/protocol/lufa/LUFA-git/LUFA/Drivers/USB/Core/AVR8/../AVR8/USBInterrupt_AVR8.h **** 	/* Enable C linkage for C++ Compilers: */
  48:./tmk_core/protocol/lufa/LUFA-git/LUFA/Drivers/USB/Core/AVR8/../AVR8/USBInterrupt_AVR8.h **** 		#if defined(__cplusplus)
  49:./tmk_core/protocol/lufa/LUFA-git/LUFA/Drivers/USB/Core/AVR8/../AVR8/USBInterrupt_AVR8.h **** 			extern "C" {
  50:./tmk_core/protocol/lufa/LUFA-git/LUFA/Drivers/USB/Core/AVR8/../AVR8/USBInterrupt_AVR8.h **** 		#endif
  51:./tmk_core/protocol/lufa/LUFA-git/LUFA/Drivers/USB/Core/AVR8/../AVR8/USBInterrupt_AVR8.h **** 
  52:./tmk_core/protocol/lufa/LUFA-git/LUFA/Drivers/USB/Core/AVR8/../AVR8/USBInterrupt_AVR8.h **** 	/* Preprocessor Checks: */
  53:./tmk_core/protocol/lufa/LUFA-git/LUFA/Drivers/USB/Core/AVR8/../AVR8/USBInterrupt_AVR8.h **** 		#if !defined(__INCLUDE_FROM_USB_DRIVER)
  54:./tmk_core/protocol/lufa/LUFA-git/LUFA/Drivers/USB/Core/AVR8/../AVR8/USBInterrupt_AVR8.h **** 			#error Do not include this file directly. Include LUFA/Drivers/USB/USB.h instead.
  55:./tmk_core/protocol/lufa/LUFA-git/LUFA/Drivers/USB/Core/AVR8/../AVR8/USBInterrupt_AVR8.h **** 		#endif
  56:./tmk_core/protocol/lufa/LUFA-git/LUFA/Drivers/USB/Core/AVR8/../AVR8/USBInterrupt_AVR8.h **** 
  57:./tmk_core/protocol/lufa/LUFA-git/LUFA/Drivers/USB/Core/AVR8/../AVR8/USBInterrupt_AVR8.h **** 	/* Private Interface - For use in library only: */
  58:./tmk_core/protocol/lufa/LUFA-git/LUFA/Drivers/USB/Core/AVR8/../AVR8/USBInterrupt_AVR8.h **** 	#if !defined(__DOXYGEN__)
  59:./tmk_core/protocol/lufa/LUFA-git/LUFA/Drivers/USB/Core/AVR8/../AVR8/USBInterrupt_AVR8.h **** 		/* Enums: */
  60:./tmk_core/protocol/lufa/LUFA-git/LUFA/Drivers/USB/Core/AVR8/../AVR8/USBInterrupt_AVR8.h **** 			enum USB_Interrupts_t
  61:./tmk_core/protocol/lufa/LUFA-git/LUFA/Drivers/USB/Core/AVR8/../AVR8/USBInterrupt_AVR8.h **** 			{
  62:./tmk_core/protocol/lufa/LUFA-git/LUFA/Drivers/USB/Core/AVR8/../AVR8/USBInterrupt_AVR8.h **** 				#if (defined(USB_SERIES_4_AVR) || defined(USB_SERIES_6_AVR) || defined(USB_SERIES_7_AVR) || def
  63:./tmk_core/protocol/lufa/LUFA-git/LUFA/Drivers/USB/Core/AVR8/../AVR8/USBInterrupt_AVR8.h **** 				USB_INT_VBUSTI  = 0,
  64:./tmk_core/protocol/lufa/LUFA-git/LUFA/Drivers/USB/Core/AVR8/../AVR8/USBInterrupt_AVR8.h **** 				#endif
  65:./tmk_core/protocol/lufa/LUFA-git/LUFA/Drivers/USB/Core/AVR8/../AVR8/USBInterrupt_AVR8.h **** 				#if (defined(USB_CAN_BE_BOTH) || defined(__DOXYGEN__))
  66:./tmk_core/protocol/lufa/LUFA-git/LUFA/Drivers/USB/Core/AVR8/../AVR8/USBInterrupt_AVR8.h **** 				USB_INT_IDTI    = 1,
  67:./tmk_core/protocol/lufa/LUFA-git/LUFA/Drivers/USB/Core/AVR8/../AVR8/USBInterrupt_AVR8.h **** 				#endif
  68:./tmk_core/protocol/lufa/LUFA-git/LUFA/Drivers/USB/Core/AVR8/../AVR8/USBInterrupt_AVR8.h **** 				#if (defined(USB_CAN_BE_DEVICE) || defined(__DOXYGEN__))
  69:./tmk_core/protocol/lufa/LUFA-git/LUFA/Drivers/USB/Core/AVR8/../AVR8/USBInterrupt_AVR8.h **** 				USB_INT_WAKEUPI = 2,
  70:./tmk_core/protocol/lufa/LUFA-git/LUFA/Drivers/USB/Core/AVR8/../AVR8/USBInterrupt_AVR8.h **** 				USB_INT_SUSPI   = 3,
  71:./tmk_core/protocol/lufa/LUFA-git/LUFA/Drivers/USB/Core/AVR8/../AVR8/USBInterrupt_AVR8.h **** 				USB_INT_EORSTI  = 4,
  72:./tmk_core/protocol/lufa/LUFA-git/LUFA/Drivers/USB/Core/AVR8/../AVR8/USBInterrupt_AVR8.h **** 				USB_INT_SOFI    = 5,
  73:./tmk_core/protocol/lufa/LUFA-git/LUFA/Drivers/USB/Core/AVR8/../AVR8/USBInterrupt_AVR8.h **** 				USB_INT_RXSTPI  = 6,
  74:./tmk_core/protocol/lufa/LUFA-git/LUFA/Drivers/USB/Core/AVR8/../AVR8/USBInterrupt_AVR8.h **** 				#endif
  75:./tmk_core/protocol/lufa/LUFA-git/LUFA/Drivers/USB/Core/AVR8/../AVR8/USBInterrupt_AVR8.h **** 				#if (defined(USB_CAN_BE_HOST) || defined(__DOXYGEN__))
  76:./tmk_core/protocol/lufa/LUFA-git/LUFA/Drivers/USB/Core/AVR8/../AVR8/USBInterrupt_AVR8.h **** 				USB_INT_HSOFI   = 7,
  77:./tmk_core/protocol/lufa/LUFA-git/LUFA/Drivers/USB/Core/AVR8/../AVR8/USBInterrupt_AVR8.h **** 				USB_INT_DCONNI  = 8,
  78:./tmk_core/protocol/lufa/LUFA-git/LUFA/Drivers/USB/Core/AVR8/../AVR8/USBInterrupt_AVR8.h **** 				USB_INT_DDISCI  = 9,
  79:./tmk_core/protocol/lufa/LUFA-git/LUFA/Drivers/USB/Core/AVR8/../AVR8/USBInterrupt_AVR8.h **** 				USB_INT_RSTI    = 10,
  80:./tmk_core/protocol/lufa/LUFA-git/LUFA/Drivers/USB/Core/AVR8/../AVR8/USBInterrupt_AVR8.h **** 				USB_INT_BCERRI  = 11,
  81:./tmk_core/protocol/lufa/LUFA-git/LUFA/Drivers/USB/Core/AVR8/../AVR8/USBInterrupt_AVR8.h **** 				USB_INT_VBERRI  = 12,
  82:./tmk_core/protocol/lufa/LUFA-git/LUFA/Drivers/USB/Core/AVR8/../AVR8/USBInterrupt_AVR8.h **** 				USB_INT_SRPI    = 13,
  83:./tmk_core/protocol/lufa/LUFA-git/LUFA/Drivers/USB/Core/AVR8/../AVR8/USBInterrupt_AVR8.h **** 				#endif
  84:./tmk_core/protocol/lufa/LUFA-git/LUFA/Drivers/USB/Core/AVR8/../AVR8/USBInterrupt_AVR8.h **** 			};
  85:./tmk_core/protocol/lufa/LUFA-git/LUFA/Drivers/USB/Core/AVR8/../AVR8/USBInterrupt_AVR8.h **** 
  86:./tmk_core/protocol/lufa/LUFA-git/LUFA/Drivers/USB/Core/AVR8/../AVR8/USBInterrupt_AVR8.h **** 		/* Inline Functions: */
  87:./tmk_core/protocol/lufa/LUFA-git/LUFA/Drivers/USB/Core/AVR8/../AVR8/USBInterrupt_AVR8.h **** 			static inline void USB_INT_Enable(const uint8_t Interrupt) ATTR_ALWAYS_INLINE;
  88:./tmk_core/protocol/lufa/LUFA-git/LUFA/Drivers/USB/Core/AVR8/../AVR8/USBInterrupt_AVR8.h **** 			static inline void USB_INT_Enable(const uint8_t Interrupt)
  89:./tmk_core/protocol/lufa/LUFA-git/LUFA/Drivers/USB/Core/AVR8/../AVR8/USBInterrupt_AVR8.h **** 			{
  90:./tmk_core/protocol/lufa/LUFA-git/LUFA/Drivers/USB/Core/AVR8/../AVR8/USBInterrupt_AVR8.h **** 				switch (Interrupt)
  91:./tmk_core/protocol/lufa/LUFA-git/LUFA/Drivers/USB/Core/AVR8/../AVR8/USBInterrupt_AVR8.h **** 				{
  92:./tmk_core/protocol/lufa/LUFA-git/LUFA/Drivers/USB/Core/AVR8/../AVR8/USBInterrupt_AVR8.h **** 					#if (defined(USB_SERIES_4_AVR) || defined(USB_SERIES_6_AVR) || defined(USB_SERIES_7_AVR))
  93:./tmk_core/protocol/lufa/LUFA-git/LUFA/Drivers/USB/Core/AVR8/../AVR8/USBInterrupt_AVR8.h **** 					case USB_INT_VBUSTI:
  94:./tmk_core/protocol/lufa/LUFA-git/LUFA/Drivers/USB/Core/AVR8/../AVR8/USBInterrupt_AVR8.h **** 						USBCON |= (1 << VBUSTE);
  95:./tmk_core/protocol/lufa/LUFA-git/LUFA/Drivers/USB/Core/AVR8/../AVR8/USBInterrupt_AVR8.h **** 						break;
  96:./tmk_core/protocol/lufa/LUFA-git/LUFA/Drivers/USB/Core/AVR8/../AVR8/USBInterrupt_AVR8.h **** 					#endif
  97:./tmk_core/protocol/lufa/LUFA-git/LUFA/Drivers/USB/Core/AVR8/../AVR8/USBInterrupt_AVR8.h **** 					#if defined(USB_CAN_BE_BOTH)
  98:./tmk_core/protocol/lufa/LUFA-git/LUFA/Drivers/USB/Core/AVR8/../AVR8/USBInterrupt_AVR8.h **** 					case USB_INT_IDTI:
  99:./tmk_core/protocol/lufa/LUFA-git/LUFA/Drivers/USB/Core/AVR8/../AVR8/USBInterrupt_AVR8.h **** 						USBCON |= (1 << IDTE);
 100:./tmk_core/protocol/lufa/LUFA-git/LUFA/Drivers/USB/Core/AVR8/../AVR8/USBInterrupt_AVR8.h **** 						break;
 101:./tmk_core/protocol/lufa/LUFA-git/LUFA/Drivers/USB/Core/AVR8/../AVR8/USBInterrupt_AVR8.h **** 					#endif
 102:./tmk_core/protocol/lufa/LUFA-git/LUFA/Drivers/USB/Core/AVR8/../AVR8/USBInterrupt_AVR8.h **** 					#if defined(USB_CAN_BE_DEVICE)
 103:./tmk_core/protocol/lufa/LUFA-git/LUFA/Drivers/USB/Core/AVR8/../AVR8/USBInterrupt_AVR8.h **** 					case USB_INT_WAKEUPI:
 104:./tmk_core/protocol/lufa/LUFA-git/LUFA/Drivers/USB/Core/AVR8/../AVR8/USBInterrupt_AVR8.h **** 						UDIEN  |= (1 << WAKEUPE);
 105:./tmk_core/protocol/lufa/LUFA-git/LUFA/Drivers/USB/Core/AVR8/../AVR8/USBInterrupt_AVR8.h **** 						break;
 106:./tmk_core/protocol/lufa/LUFA-git/LUFA/Drivers/USB/Core/AVR8/../AVR8/USBInterrupt_AVR8.h **** 					case USB_INT_SUSPI:
 107:./tmk_core/protocol/lufa/LUFA-git/LUFA/Drivers/USB/Core/AVR8/../AVR8/USBInterrupt_AVR8.h **** 						UDIEN  |= (1 << SUSPE);
 108:./tmk_core/protocol/lufa/LUFA-git/LUFA/Drivers/USB/Core/AVR8/../AVR8/USBInterrupt_AVR8.h **** 						break;
 109:./tmk_core/protocol/lufa/LUFA-git/LUFA/Drivers/USB/Core/AVR8/../AVR8/USBInterrupt_AVR8.h **** 					case USB_INT_EORSTI:
 110:./tmk_core/protocol/lufa/LUFA-git/LUFA/Drivers/USB/Core/AVR8/../AVR8/USBInterrupt_AVR8.h **** 						UDIEN  |= (1 << EORSTE);
 111:./tmk_core/protocol/lufa/LUFA-git/LUFA/Drivers/USB/Core/AVR8/../AVR8/USBInterrupt_AVR8.h **** 						break;
 112:./tmk_core/protocol/lufa/LUFA-git/LUFA/Drivers/USB/Core/AVR8/../AVR8/USBInterrupt_AVR8.h **** 					case USB_INT_SOFI:
 113:./tmk_core/protocol/lufa/LUFA-git/LUFA/Drivers/USB/Core/AVR8/../AVR8/USBInterrupt_AVR8.h **** 						UDIEN  |= (1 << SOFE);
 478               		.loc 4 113 0
 479 0010 8091 E200 		lds r24,226
 480 0014 8460      		ori r24,lo8(4)
 481 0016 8093 E200 		sts 226,r24
 482               	.LVL47:
 483               	.L59:
 484 001a 0895      		ret
 485               	.LBE177:
 486               	.LBE176:
 487               	.LBE175:
 488               		.cfi_endproc
 489               	.LFE108:
 491               		.section	.text.EVENT_USB_Device_Disconnect,"ax",@progbits
 492               	.global	EVENT_USB_Device_Disconnect
 494               	EVENT_USB_Device_Disconnect:
 495               	.LFB109:
 250:./tmk_core/protocol/lufa/lufa.c ****     print("[D]");
 496               		.loc 1 250 0
 497               		.cfi_startproc
 498               	/* prologue: function */
 499               	/* frame size = 0 */
 500               	/* stack size = 0 */
 501               	.L__stack_usage = 0
 253:./tmk_core/protocol/lufa/lufa.c **** /* TODO: This doesn't work. After several plug in/outs can not be enumerated.
 502               		.loc 1 253 0
 503 0000 1092 0000 		sts USB_IsInitialized,__zero_reg__
 504 0004 0895      		ret
 505               		.cfi_endproc
 506               	.LFE109:
 508               		.section	.text.EVENT_USB_Device_Reset,"ax",@progbits
 509               	.global	EVENT_USB_Device_Reset
 511               	EVENT_USB_Device_Reset:
 512               	.LFB110:
 264:./tmk_core/protocol/lufa/lufa.c ****     print("[R]");
 513               		.loc 1 264 0
 514               		.cfi_startproc
 515               	/* prologue: function */
 516               	/* frame size = 0 */
 517               	/* stack size = 0 */
 518               	.L__stack_usage = 0
 519 0000 0895      		ret
 520               		.cfi_endproc
 521               	.LFE110:
 523               		.section	.text.EVENT_USB_Device_Suspend,"ax",@progbits
 524               	.global	EVENT_USB_Device_Suspend
 526               	EVENT_USB_Device_Suspend:
 527               	.LFB111:
 269:./tmk_core/protocol/lufa/lufa.c ****     print("[S]");
 528               		.loc 1 269 0
 529               		.cfi_startproc
 530               	/* prologue: function */
 531               	/* frame size = 0 */
 532               	/* stack size = 0 */
 533               	.L__stack_usage = 0
 534 0000 0895      		ret
 535               		.cfi_endproc
 536               	.LFE111:
 538               		.section	.text.EVENT_USB_Device_WakeUp,"ax",@progbits
 539               	.global	EVENT_USB_Device_WakeUp
 541               	EVENT_USB_Device_WakeUp:
 542               	.LFB112:
 277:./tmk_core/protocol/lufa/lufa.c ****     print("[W]");
 543               		.loc 1 277 0
 544               		.cfi_startproc
 545               	/* prologue: function */
 546               	/* frame size = 0 */
 547               	/* stack size = 0 */
 548               	.L__stack_usage = 0
 279:./tmk_core/protocol/lufa/lufa.c **** 
 549               		.loc 1 279 0
 550 0000 0C94 0000 		jmp suspend_wakeup_init
 551               	.LVL48:
 552               		.cfi_endproc
 553               	.LFE112:
 555               		.section	.text.EVENT_USB_Device_ConfigurationChanged,"ax",@progbits
 556               	.global	EVENT_USB_Device_ConfigurationChanged
 558               	EVENT_USB_Device_ConfigurationChanged:
 559               	.LFB113:
 314:./tmk_core/protocol/lufa/lufa.c ****     bool ConfigSuccess = true;
 560               		.loc 1 314 0
 561               		.cfi_startproc
 562               	/* prologue: function */
 563               	/* frame size = 0 */
 564               	/* stack size = 0 */
 565               	.L__stack_usage = 0
 566               	.LVL49:
 567               	.LBB178:
 568               	.LBB179:
 210:./tmk_core/protocol/lufa/LUFA-git/LUFA/Drivers/USB/Core/AVR8/../AVR8/Endpoint_AVR8.h **** 				                                      ((Type << EPTYPE0) | ((Address & ENDPOINT_DIR_IN) ? (1 <<
 569               		.loc 2 210 0
 570 0000 42E0      		ldi r20,lo8(2)
 571 0002 61EC      		ldi r22,lo8(-63)
 572 0004 81E0      		ldi r24,lo8(1)
 573 0006 0E94 0000 		call Endpoint_ConfigureEndpoint_Prv
 574               	.LVL50:
 575               	.LBE179:
 576               	.LBE178:
 577               	.LBB180:
 578               	.LBB181:
 579 000a 42E0      		ldi r20,lo8(2)
 580 000c 61EC      		ldi r22,lo8(-63)
 581 000e 82E0      		ldi r24,lo8(2)
 582 0010 0E94 0000 		call Endpoint_ConfigureEndpoint_Prv
 583               	.LVL51:
 584               	.LBE181:
 585               	.LBE180:
 586               	.LBB182:
 587               	.LBB183:
 588 0014 42E2      		ldi r20,lo8(34)
 589 0016 61EC      		ldi r22,lo8(-63)
 590 0018 83E0      		ldi r24,lo8(3)
 591 001a 0E94 0000 		call Endpoint_ConfigureEndpoint_Prv
 592               	.LVL52:
 593               	.LBE183:
 594               	.LBE182:
 595               	.LBB184:
 596               	.LBB185:
 597 001e 42E0      		ldi r20,lo8(2)
 598 0020 61EC      		ldi r22,lo8(-63)
 599 0022 84E0      		ldi r24,lo8(4)
 600 0024 0E94 0000 		call Endpoint_ConfigureEndpoint_Prv
 601               	.LVL53:
 602               	.LBE185:
 603               	.LBE184:
 604               	.LBB186:
 605               	.LBB187:
 606 0028 42E1      		ldi r20,lo8(18)
 607 002a 60E8      		ldi r22,lo8(-128)
 608 002c 86E0      		ldi r24,lo8(6)
 609 002e 0E94 0000 		call Endpoint_ConfigureEndpoint_Prv
 610               	.LVL54:
 611               	.LBE187:
 612               	.LBE186:
 613               	.LBB188:
 614               	.LBB189:
 615 0032 42E1      		ldi r20,lo8(18)
 616 0034 61E8      		ldi r22,lo8(-127)
 617 0036 85E0      		ldi r24,lo8(5)
 618 0038 0C94 0000 		jmp Endpoint_ConfigureEndpoint_Prv
 619               	.LVL55:
 620               	.LBE189:
 621               	.LBE188:
 622               		.cfi_endproc
 623               	.LFE113:
 625               		.section	.text.EVENT_USB_Device_ControlRequest,"ax",@progbits
 626               	.global	EVENT_USB_Device_ControlRequest
 628               	EVENT_USB_Device_ControlRequest:
 629               	.LFB114:
 378:./tmk_core/protocol/lufa/lufa.c ****     uint8_t* ReportData = NULL;
 630               		.loc 1 378 0
 631               		.cfi_startproc
 632               	/* prologue: function */
 633               	/* frame size = 0 */
 634               	/* stack size = 0 */
 635               	.L__stack_usage = 0
 636               	.LVL56:
 383:./tmk_core/protocol/lufa/lufa.c ****     {
 637               		.loc 1 383 0
 638 0000 8091 0000 		lds r24,USB_ControlRequest+1
 639 0004 8330      		cpi r24,lo8(3)
 640 0006 01F4      		brne .+2
 641 0008 00C0      		rjmp .L68
 642 000a 00F4      		brsh .L69
 643 000c 8130      		cpi r24,lo8(1)
 644 000e 01F0      		breq .L70
 645 0010 8230      		cpi r24,lo8(2)
 646 0012 01F4      		brne .+2
 647 0014 00C0      		rjmp .L71
 648 0016 00C0      		rjmp .L67
 649               	.L69:
 650 0018 8A30      		cpi r24,lo8(10)
 651 001a 01F4      		brne .+2
 652 001c 00C0      		rjmp .L72
 653 001e 8B30      		cpi r24,lo8(11)
 654 0020 01F4      		brne .+2
 655 0022 00C0      		rjmp .L73
 656 0024 8930      		cpi r24,lo8(9)
 657 0026 01F0      		breq .+2
 658 0028 00C0      		rjmp .L67
 659 002a 00C0      		rjmp .L97
 660               	.L70:
 386:./tmk_core/protocol/lufa/lufa.c ****             {
 661               		.loc 1 386 0
 662 002c 8091 0000 		lds r24,USB_ControlRequest
 663 0030 813A      		cpi r24,lo8(-95)
 664 0032 01F0      		breq .+2
 665 0034 00C0      		rjmp .L67
 666               	.LBB190:
 667               	.LBB191:
 444:./tmk_core/protocol/lufa/LUFA-git/LUFA/Drivers/USB/Core/AVR8/../AVR8/Endpoint_AVR8.h **** 			}
 668               		.loc 2 444 0
 669 0036 8091 E800 		lds r24,232
 670 003a 877F      		andi r24,lo8(-9)
 671 003c 8093 E800 		sts 232,r24
 672               	.LBE191:
 673               	.LBE190:
 391:./tmk_core/protocol/lufa/lufa.c ****                 case KEYBOARD_INTERFACE:
 674               		.loc 1 391 0
 675 0040 8091 0000 		lds r24,USB_ControlRequest+4
 676 0044 9091 0000 		lds r25,USB_ControlRequest+4+1
 677 0048 892B      		or r24,r25
 678 004a 01F4      		brne .L94
 395:./tmk_core/protocol/lufa/lufa.c ****                     break;
 679               		.loc 1 395 0
 680 004c 60E2      		ldi r22,lo8(32)
 394:./tmk_core/protocol/lufa/lufa.c ****                     ReportSize = sizeof(keyboard_report_sent);
 681               		.loc 1 394 0
 682 004e 80E0      		ldi r24,lo8(keyboard_report_sent)
 683 0050 90E0      		ldi r25,hi8(keyboard_report_sent)
 684 0052 00C0      		rjmp .L75
 685               	.L94:
 380:./tmk_core/protocol/lufa/lufa.c **** 
 686               		.loc 1 380 0
 687 0054 60E0      		ldi r22,0
 379:./tmk_core/protocol/lufa/lufa.c ****     uint8_t  ReportSize = 0;
 688               		.loc 1 379 0
 689 0056 80E0      		ldi r24,0
 690 0058 90E0      		ldi r25,0
 691               	.L75:
 692               	.LVL57:
 400:./tmk_core/protocol/lufa/lufa.c ****                 Endpoint_ClearOUT();
 693               		.loc 1 400 0
 694 005a 70E0      		ldi r23,0
 695 005c 0E94 0000 		call Endpoint_Write_Control_Stream_LE
 696               	.LVL58:
 697               	.LBB192:
 698               	.LBB193:
 457:./tmk_core/protocol/lufa/LUFA-git/LUFA/Drivers/USB/Core/AVR8/../AVR8/Endpoint_AVR8.h **** 				#else
 458:./tmk_core/protocol/lufa/LUFA-git/LUFA/Drivers/USB/Core/AVR8/../AVR8/Endpoint_AVR8.h **** 					UEINTX &= ~(1 << TXINI);
 459:./tmk_core/protocol/lufa/LUFA-git/LUFA/Drivers/USB/Core/AVR8/../AVR8/Endpoint_AVR8.h **** 				#endif
 460:./tmk_core/protocol/lufa/LUFA-git/LUFA/Drivers/USB/Core/AVR8/../AVR8/Endpoint_AVR8.h **** 			}
 461:./tmk_core/protocol/lufa/LUFA-git/LUFA/Drivers/USB/Core/AVR8/../AVR8/Endpoint_AVR8.h **** 
 462:./tmk_core/protocol/lufa/LUFA-git/LUFA/Drivers/USB/Core/AVR8/../AVR8/Endpoint_AVR8.h **** 			/** Acknowledges an OUT packet to the host on the currently selected endpoint, freeing up the en
 463:./tmk_core/protocol/lufa/LUFA-git/LUFA/Drivers/USB/Core/AVR8/../AVR8/Endpoint_AVR8.h **** 			 *  for the next packet and switching to the alternative endpoint bank if double banked.
 464:./tmk_core/protocol/lufa/LUFA-git/LUFA/Drivers/USB/Core/AVR8/../AVR8/Endpoint_AVR8.h **** 			 *
 465:./tmk_core/protocol/lufa/LUFA-git/LUFA/Drivers/USB/Core/AVR8/../AVR8/Endpoint_AVR8.h **** 			 *  \ingroup Group_EndpointPacketManagement_AVR8
 466:./tmk_core/protocol/lufa/LUFA-git/LUFA/Drivers/USB/Core/AVR8/../AVR8/Endpoint_AVR8.h **** 			 */
 467:./tmk_core/protocol/lufa/LUFA-git/LUFA/Drivers/USB/Core/AVR8/../AVR8/Endpoint_AVR8.h **** 			static inline void Endpoint_ClearOUT(void) ATTR_ALWAYS_INLINE;
 468:./tmk_core/protocol/lufa/LUFA-git/LUFA/Drivers/USB/Core/AVR8/../AVR8/Endpoint_AVR8.h **** 			static inline void Endpoint_ClearOUT(void)
 469:./tmk_core/protocol/lufa/LUFA-git/LUFA/Drivers/USB/Core/AVR8/../AVR8/Endpoint_AVR8.h **** 			{
 470:./tmk_core/protocol/lufa/LUFA-git/LUFA/Drivers/USB/Core/AVR8/../AVR8/Endpoint_AVR8.h **** 				#if !defined(CONTROL_ONLY_DEVICE)
 471:./tmk_core/protocol/lufa/LUFA-git/LUFA/Drivers/USB/Core/AVR8/../AVR8/Endpoint_AVR8.h **** 					UEINTX &= ~((1 << RXOUTI) | (1 << FIFOCON));
 699               		.loc 2 471 0
 700 0060 8091 E800 		lds r24,232
 701 0064 8B77      		andi r24,lo8(123)
 702 0066 8093 E800 		sts 232,r24
 703 006a 00C0      		rjmp .L67
 704               	.LVL59:
 705               	.L97:
 706               	.LBE193:
 707               	.LBE192:
 406:./tmk_core/protocol/lufa/lufa.c ****             {
 708               		.loc 1 406 0
 709 006c 8091 0000 		lds r24,USB_ControlRequest
 710 0070 8132      		cpi r24,lo8(33)
 711 0072 01F0      		breq .+2
 712 0074 00C0      		rjmp .L67
 410:./tmk_core/protocol/lufa/lufa.c ****                 case KEYBOARD_INTERFACE:
 713               		.loc 1 410 0
 714 0076 8091 0000 		lds r24,USB_ControlRequest+4
 715 007a 9091 0000 		lds r25,USB_ControlRequest+4+1
 716 007e 0097      		sbiw r24,0
 717 0080 01F0      		breq .L77
 718 0082 0297      		sbiw r24,2
 719 0084 01F0      		breq .+2
 720 0086 00C0      		rjmp .L67
 721               	.L77:
 722               	.LBB194:
 723               	.LBB195:
 444:./tmk_core/protocol/lufa/LUFA-git/LUFA/Drivers/USB/Core/AVR8/../AVR8/Endpoint_AVR8.h **** 			}
 724               		.loc 2 444 0
 725 0088 8091 E800 		lds r24,232
 726 008c 877F      		andi r24,lo8(-9)
 727 008e 8093 E800 		sts 232,r24
 728               	.L78:
 729               	.LBE195:
 730               	.LBE194:
 731               	.LBB196:
 732               	.LBB197:
 419:./tmk_core/protocol/lufa/LUFA-git/LUFA/Drivers/USB/Core/AVR8/../AVR8/Endpoint_AVR8.h **** 			}
 733               		.loc 2 419 0
 734 0092 8091 E800 		lds r24,232
 735               	.LBE197:
 736               	.LBE196:
 417:./tmk_core/protocol/lufa/lufa.c ****                         if (USB_DeviceState == DEVICE_STATE_Unattached)
 737               		.loc 1 417 0
 738 0096 82FD      		sbrc r24,2
 739 0098 00C0      		rjmp .L98
 418:./tmk_core/protocol/lufa/lufa.c ****                           return;
 740               		.loc 1 418 0
 741 009a 8091 0000 		lds r24,USB_DeviceState
 742 009e 8111      		cpse r24,__zero_reg__
 743 00a0 00C0      		rjmp .L78
 744 00a2 0895      		ret
 745               	.L98:
 746               	.LBB198:
 747               	.LBB199:
 472:./tmk_core/protocol/lufa/LUFA-git/LUFA/Drivers/USB/Core/AVR8/../AVR8/Endpoint_AVR8.h **** 				#else
 473:./tmk_core/protocol/lufa/LUFA-git/LUFA/Drivers/USB/Core/AVR8/../AVR8/Endpoint_AVR8.h **** 					UEINTX &= ~(1 << RXOUTI);
 474:./tmk_core/protocol/lufa/LUFA-git/LUFA/Drivers/USB/Core/AVR8/../AVR8/Endpoint_AVR8.h **** 				#endif
 475:./tmk_core/protocol/lufa/LUFA-git/LUFA/Drivers/USB/Core/AVR8/../AVR8/Endpoint_AVR8.h **** 			}
 476:./tmk_core/protocol/lufa/LUFA-git/LUFA/Drivers/USB/Core/AVR8/../AVR8/Endpoint_AVR8.h **** 
 477:./tmk_core/protocol/lufa/LUFA-git/LUFA/Drivers/USB/Core/AVR8/../AVR8/Endpoint_AVR8.h **** 			/** Stalls the current endpoint, indicating to the host that a logical problem occurred with the
 478:./tmk_core/protocol/lufa/LUFA-git/LUFA/Drivers/USB/Core/AVR8/../AVR8/Endpoint_AVR8.h **** 			 *  indicated endpoint and that the current transfer sequence should be aborted. This provides a
 479:./tmk_core/protocol/lufa/LUFA-git/LUFA/Drivers/USB/Core/AVR8/../AVR8/Endpoint_AVR8.h **** 			 *  way for devices to indicate invalid commands to the host so that the current transfer can be
 480:./tmk_core/protocol/lufa/LUFA-git/LUFA/Drivers/USB/Core/AVR8/../AVR8/Endpoint_AVR8.h **** 			 *  aborted and the host can begin its own recovery sequence.
 481:./tmk_core/protocol/lufa/LUFA-git/LUFA/Drivers/USB/Core/AVR8/../AVR8/Endpoint_AVR8.h **** 			 *
 482:./tmk_core/protocol/lufa/LUFA-git/LUFA/Drivers/USB/Core/AVR8/../AVR8/Endpoint_AVR8.h **** 			 *  The currently selected endpoint remains stalled until either the \ref Endpoint_ClearStall() 
 483:./tmk_core/protocol/lufa/LUFA-git/LUFA/Drivers/USB/Core/AVR8/../AVR8/Endpoint_AVR8.h **** 			 *  is called, or the host issues a CLEAR FEATURE request to the device for the currently select
 484:./tmk_core/protocol/lufa/LUFA-git/LUFA/Drivers/USB/Core/AVR8/../AVR8/Endpoint_AVR8.h **** 			 *  endpoint.
 485:./tmk_core/protocol/lufa/LUFA-git/LUFA/Drivers/USB/Core/AVR8/../AVR8/Endpoint_AVR8.h **** 			 *
 486:./tmk_core/protocol/lufa/LUFA-git/LUFA/Drivers/USB/Core/AVR8/../AVR8/Endpoint_AVR8.h **** 			 *  \ingroup Group_EndpointPacketManagement_AVR8
 487:./tmk_core/protocol/lufa/LUFA-git/LUFA/Drivers/USB/Core/AVR8/../AVR8/Endpoint_AVR8.h **** 			 */
 488:./tmk_core/protocol/lufa/LUFA-git/LUFA/Drivers/USB/Core/AVR8/../AVR8/Endpoint_AVR8.h **** 			static inline void Endpoint_StallTransaction(void) ATTR_ALWAYS_INLINE;
 489:./tmk_core/protocol/lufa/LUFA-git/LUFA/Drivers/USB/Core/AVR8/../AVR8/Endpoint_AVR8.h **** 			static inline void Endpoint_StallTransaction(void)
 490:./tmk_core/protocol/lufa/LUFA-git/LUFA/Drivers/USB/Core/AVR8/../AVR8/Endpoint_AVR8.h **** 			{
 491:./tmk_core/protocol/lufa/LUFA-git/LUFA/Drivers/USB/Core/AVR8/../AVR8/Endpoint_AVR8.h **** 				UECONX |= (1 << STALLRQ);
 492:./tmk_core/protocol/lufa/LUFA-git/LUFA/Drivers/USB/Core/AVR8/../AVR8/Endpoint_AVR8.h **** 			}
 493:./tmk_core/protocol/lufa/LUFA-git/LUFA/Drivers/USB/Core/AVR8/../AVR8/Endpoint_AVR8.h **** 
 494:./tmk_core/protocol/lufa/LUFA-git/LUFA/Drivers/USB/Core/AVR8/../AVR8/Endpoint_AVR8.h **** 			/** Clears the STALL condition on the currently selected endpoint.
 495:./tmk_core/protocol/lufa/LUFA-git/LUFA/Drivers/USB/Core/AVR8/../AVR8/Endpoint_AVR8.h **** 			 *
 496:./tmk_core/protocol/lufa/LUFA-git/LUFA/Drivers/USB/Core/AVR8/../AVR8/Endpoint_AVR8.h **** 			 *  \ingroup Group_EndpointPacketManagement_AVR8
 497:./tmk_core/protocol/lufa/LUFA-git/LUFA/Drivers/USB/Core/AVR8/../AVR8/Endpoint_AVR8.h **** 			 */
 498:./tmk_core/protocol/lufa/LUFA-git/LUFA/Drivers/USB/Core/AVR8/../AVR8/Endpoint_AVR8.h **** 			static inline void Endpoint_ClearStall(void) ATTR_ALWAYS_INLINE;
 499:./tmk_core/protocol/lufa/LUFA-git/LUFA/Drivers/USB/Core/AVR8/../AVR8/Endpoint_AVR8.h **** 			static inline void Endpoint_ClearStall(void)
 500:./tmk_core/protocol/lufa/LUFA-git/LUFA/Drivers/USB/Core/AVR8/../AVR8/Endpoint_AVR8.h **** 			{
 501:./tmk_core/protocol/lufa/LUFA-git/LUFA/Drivers/USB/Core/AVR8/../AVR8/Endpoint_AVR8.h **** 				UECONX |= (1 << STALLRQC);
 502:./tmk_core/protocol/lufa/LUFA-git/LUFA/Drivers/USB/Core/AVR8/../AVR8/Endpoint_AVR8.h **** 			}
 503:./tmk_core/protocol/lufa/LUFA-git/LUFA/Drivers/USB/Core/AVR8/../AVR8/Endpoint_AVR8.h **** 
 504:./tmk_core/protocol/lufa/LUFA-git/LUFA/Drivers/USB/Core/AVR8/../AVR8/Endpoint_AVR8.h **** 			/** Determines if the currently selected endpoint is stalled, \c false otherwise.
 505:./tmk_core/protocol/lufa/LUFA-git/LUFA/Drivers/USB/Core/AVR8/../AVR8/Endpoint_AVR8.h **** 			 *
 506:./tmk_core/protocol/lufa/LUFA-git/LUFA/Drivers/USB/Core/AVR8/../AVR8/Endpoint_AVR8.h **** 			 *  \ingroup Group_EndpointPacketManagement_AVR8
 507:./tmk_core/protocol/lufa/LUFA-git/LUFA/Drivers/USB/Core/AVR8/../AVR8/Endpoint_AVR8.h **** 			 *
 508:./tmk_core/protocol/lufa/LUFA-git/LUFA/Drivers/USB/Core/AVR8/../AVR8/Endpoint_AVR8.h **** 			 *  \return Boolean \c true if the currently selected endpoint is stalled, \c false otherwise.
 509:./tmk_core/protocol/lufa/LUFA-git/LUFA/Drivers/USB/Core/AVR8/../AVR8/Endpoint_AVR8.h **** 			 */
 510:./tmk_core/protocol/lufa/LUFA-git/LUFA/Drivers/USB/Core/AVR8/../AVR8/Endpoint_AVR8.h **** 			static inline bool Endpoint_IsStalled(void) ATTR_WARN_UNUSED_RESULT ATTR_ALWAYS_INLINE;
 511:./tmk_core/protocol/lufa/LUFA-git/LUFA/Drivers/USB/Core/AVR8/../AVR8/Endpoint_AVR8.h **** 			static inline bool Endpoint_IsStalled(void)
 512:./tmk_core/protocol/lufa/LUFA-git/LUFA/Drivers/USB/Core/AVR8/../AVR8/Endpoint_AVR8.h **** 			{
 513:./tmk_core/protocol/lufa/LUFA-git/LUFA/Drivers/USB/Core/AVR8/../AVR8/Endpoint_AVR8.h **** 				return ((UECONX & (1 << STALLRQ)) ? true : false);
 514:./tmk_core/protocol/lufa/LUFA-git/LUFA/Drivers/USB/Core/AVR8/../AVR8/Endpoint_AVR8.h **** 			}
 515:./tmk_core/protocol/lufa/LUFA-git/LUFA/Drivers/USB/Core/AVR8/../AVR8/Endpoint_AVR8.h **** 
 516:./tmk_core/protocol/lufa/LUFA-git/LUFA/Drivers/USB/Core/AVR8/../AVR8/Endpoint_AVR8.h **** 			/** Resets the data toggle of the currently selected endpoint. */
 517:./tmk_core/protocol/lufa/LUFA-git/LUFA/Drivers/USB/Core/AVR8/../AVR8/Endpoint_AVR8.h **** 			static inline void Endpoint_ResetDataToggle(void) ATTR_ALWAYS_INLINE;
 518:./tmk_core/protocol/lufa/LUFA-git/LUFA/Drivers/USB/Core/AVR8/../AVR8/Endpoint_AVR8.h **** 			static inline void Endpoint_ResetDataToggle(void)
 519:./tmk_core/protocol/lufa/LUFA-git/LUFA/Drivers/USB/Core/AVR8/../AVR8/Endpoint_AVR8.h **** 			{
 520:./tmk_core/protocol/lufa/LUFA-git/LUFA/Drivers/USB/Core/AVR8/../AVR8/Endpoint_AVR8.h **** 				UECONX |= (1 << RSTDT);
 521:./tmk_core/protocol/lufa/LUFA-git/LUFA/Drivers/USB/Core/AVR8/../AVR8/Endpoint_AVR8.h **** 			}
 522:./tmk_core/protocol/lufa/LUFA-git/LUFA/Drivers/USB/Core/AVR8/../AVR8/Endpoint_AVR8.h **** 
 523:./tmk_core/protocol/lufa/LUFA-git/LUFA/Drivers/USB/Core/AVR8/../AVR8/Endpoint_AVR8.h **** 			/** Sets the direction of the currently selected endpoint.
 524:./tmk_core/protocol/lufa/LUFA-git/LUFA/Drivers/USB/Core/AVR8/../AVR8/Endpoint_AVR8.h **** 			 *
 525:./tmk_core/protocol/lufa/LUFA-git/LUFA/Drivers/USB/Core/AVR8/../AVR8/Endpoint_AVR8.h **** 			 *  \param[in] DirectionMask  New endpoint direction, as a \c ENDPOINT_DIR_* mask.
 526:./tmk_core/protocol/lufa/LUFA-git/LUFA/Drivers/USB/Core/AVR8/../AVR8/Endpoint_AVR8.h **** 			 */
 527:./tmk_core/protocol/lufa/LUFA-git/LUFA/Drivers/USB/Core/AVR8/../AVR8/Endpoint_AVR8.h **** 			static inline void Endpoint_SetEndpointDirection(const uint8_t DirectionMask) ATTR_ALWAYS_INLINE
 528:./tmk_core/protocol/lufa/LUFA-git/LUFA/Drivers/USB/Core/AVR8/../AVR8/Endpoint_AVR8.h **** 			static inline void Endpoint_SetEndpointDirection(const uint8_t DirectionMask)
 529:./tmk_core/protocol/lufa/LUFA-git/LUFA/Drivers/USB/Core/AVR8/../AVR8/Endpoint_AVR8.h **** 			{
 530:./tmk_core/protocol/lufa/LUFA-git/LUFA/Drivers/USB/Core/AVR8/../AVR8/Endpoint_AVR8.h **** 				UECFG0X = ((UECFG0X & ~(1 << EPDIR)) | (DirectionMask ? (1 << EPDIR) : 0));
 531:./tmk_core/protocol/lufa/LUFA-git/LUFA/Drivers/USB/Core/AVR8/../AVR8/Endpoint_AVR8.h **** 			}
 532:./tmk_core/protocol/lufa/LUFA-git/LUFA/Drivers/USB/Core/AVR8/../AVR8/Endpoint_AVR8.h **** 
 533:./tmk_core/protocol/lufa/LUFA-git/LUFA/Drivers/USB/Core/AVR8/../AVR8/Endpoint_AVR8.h **** 			/** Reads one byte from the currently selected endpoint's bank, for OUT direction endpoints.
 534:./tmk_core/protocol/lufa/LUFA-git/LUFA/Drivers/USB/Core/AVR8/../AVR8/Endpoint_AVR8.h **** 			 *
 535:./tmk_core/protocol/lufa/LUFA-git/LUFA/Drivers/USB/Core/AVR8/../AVR8/Endpoint_AVR8.h **** 			 *  \ingroup Group_EndpointPrimitiveRW_AVR8
 536:./tmk_core/protocol/lufa/LUFA-git/LUFA/Drivers/USB/Core/AVR8/../AVR8/Endpoint_AVR8.h **** 			 *
 537:./tmk_core/protocol/lufa/LUFA-git/LUFA/Drivers/USB/Core/AVR8/../AVR8/Endpoint_AVR8.h **** 			 *  \return Next byte in the currently selected endpoint's FIFO buffer.
 538:./tmk_core/protocol/lufa/LUFA-git/LUFA/Drivers/USB/Core/AVR8/../AVR8/Endpoint_AVR8.h **** 			 */
 539:./tmk_core/protocol/lufa/LUFA-git/LUFA/Drivers/USB/Core/AVR8/../AVR8/Endpoint_AVR8.h **** 			static inline uint8_t Endpoint_Read_8(void) ATTR_WARN_UNUSED_RESULT ATTR_ALWAYS_INLINE;
 540:./tmk_core/protocol/lufa/LUFA-git/LUFA/Drivers/USB/Core/AVR8/../AVR8/Endpoint_AVR8.h **** 			static inline uint8_t Endpoint_Read_8(void)
 541:./tmk_core/protocol/lufa/LUFA-git/LUFA/Drivers/USB/Core/AVR8/../AVR8/Endpoint_AVR8.h **** 			{
 542:./tmk_core/protocol/lufa/LUFA-git/LUFA/Drivers/USB/Core/AVR8/../AVR8/Endpoint_AVR8.h **** 				return UEDATX;
 748               		.loc 2 542 0
 749 00a4 8091 F100 		lds r24,241
 750               	.LBE199:
 751               	.LBE198:
 421:./tmk_core/protocol/lufa/lufa.c **** 
 752               		.loc 1 421 0
 753 00a8 8093 0000 		sts keyboard_led_stats,r24
 754               	.LBB200:
 755               	.LBB201:
 471:./tmk_core/protocol/lufa/LUFA-git/LUFA/Drivers/USB/Core/AVR8/../AVR8/Endpoint_AVR8.h **** 				#else
 756               		.loc 2 471 0
 757 00ac 8091 E800 		lds r24,232
 758 00b0 8B77      		andi r24,lo8(123)
 759 00b2 00C0      		rjmp .L96
 760               	.L68:
 761               	.LBE201:
 762               	.LBE200:
 433:./tmk_core/protocol/lufa/lufa.c ****             {
 763               		.loc 1 433 0
 764 00b4 8091 0000 		lds r24,USB_ControlRequest
 765 00b8 813A      		cpi r24,lo8(-95)
 766 00ba 01F0      		breq .+2
 767 00bc 00C0      		rjmp .L67
 435:./tmk_core/protocol/lufa/lufa.c ****                     Endpoint_ClearSETUP();
 768               		.loc 1 435 0
 769 00be 8091 0000 		lds r24,USB_ControlRequest+4
 770 00c2 9091 0000 		lds r25,USB_ControlRequest+4+1
 771 00c6 892B      		or r24,r25
 772 00c8 01F0      		breq .+2
 773 00ca 00C0      		rjmp .L67
 774               	.LBB202:
 775               	.LBB203:
 444:./tmk_core/protocol/lufa/LUFA-git/LUFA/Drivers/USB/Core/AVR8/../AVR8/Endpoint_AVR8.h **** 			}
 776               		.loc 2 444 0
 777 00cc 8091 E800 		lds r24,232
 778 00d0 877F      		andi r24,lo8(-9)
 779 00d2 8093 E800 		sts 232,r24
 780               	.L81:
 781               	.LBE203:
 782               	.LBE202:
 783               	.LBB204:
 784               	.LBB205:
 407:./tmk_core/protocol/lufa/LUFA-git/LUFA/Drivers/USB/Core/AVR8/../AVR8/Endpoint_AVR8.h **** 			}
 785               		.loc 2 407 0 discriminator 1
 786 00d6 8091 E800 		lds r24,232
 787               	.LBE205:
 788               	.LBE204:
 437:./tmk_core/protocol/lufa/lufa.c ****                     Endpoint_Write_8(keyboard_protocol);
 789               		.loc 1 437 0 discriminator 1
 790 00da 80FF      		sbrs r24,0
 791 00dc 00C0      		rjmp .L81
 438:./tmk_core/protocol/lufa/lufa.c ****                     Endpoint_ClearIN();
 792               		.loc 1 438 0
 793 00de 8091 0000 		lds r24,keyboard_protocol
 794               	.LVL60:
 795 00e2 00C0      		rjmp .L95
 796               	.LVL61:
 797               	.L73:
 446:./tmk_core/protocol/lufa/lufa.c ****             {
 798               		.loc 1 446 0
 799 00e4 8091 0000 		lds r24,USB_ControlRequest
 800 00e8 8132      		cpi r24,lo8(33)
 801 00ea 01F4      		brne .L67
 448:./tmk_core/protocol/lufa/lufa.c ****                     Endpoint_ClearSETUP();
 802               		.loc 1 448 0
 803 00ec 8091 0000 		lds r24,USB_ControlRequest+4
 804 00f0 9091 0000 		lds r25,USB_ControlRequest+4+1
 805 00f4 892B      		or r24,r25
 806 00f6 01F4      		brne .L67
 807               	.LBB206:
 808               	.LBB207:
 444:./tmk_core/protocol/lufa/LUFA-git/LUFA/Drivers/USB/Core/AVR8/../AVR8/Endpoint_AVR8.h **** 			}
 809               		.loc 2 444 0
 810 00f8 8091 E800 		lds r24,232
 811 00fc 877F      		andi r24,lo8(-9)
 812 00fe 8093 E800 		sts 232,r24
 813               	.LBE207:
 814               	.LBE206:
 450:./tmk_core/protocol/lufa/lufa.c **** 
 815               		.loc 1 450 0
 816 0102 0E94 0000 		call Endpoint_ClearStatusStage
 817               	.LVL62:
 452:./tmk_core/protocol/lufa/lufa.c ****                     clear_keyboard();
 818               		.loc 1 452 0
 819 0106 8091 0000 		lds r24,USB_ControlRequest+2
 820 010a 8093 0000 		sts keyboard_protocol,r24
 453:./tmk_core/protocol/lufa/lufa.c ****                 }
 821               		.loc 1 453 0
 822 010e 0E94 0000 		call clear_keyboard
 823               	.LVL63:
 824 0112 00C0      		rjmp .L67
 825               	.L72:
 459:./tmk_core/protocol/lufa/lufa.c ****             {
 826               		.loc 1 459 0
 827 0114 8091 0000 		lds r24,USB_ControlRequest
 828 0118 8132      		cpi r24,lo8(33)
 829 011a 01F4      		brne .L67
 830               	.LBB208:
 831               	.LBB209:
 444:./tmk_core/protocol/lufa/LUFA-git/LUFA/Drivers/USB/Core/AVR8/../AVR8/Endpoint_AVR8.h **** 			}
 832               		.loc 2 444 0
 833 011c 8091 E800 		lds r24,232
 834 0120 877F      		andi r24,lo8(-9)
 835 0122 8093 E800 		sts 232,r24
 836               	.LBE209:
 837               	.LBE208:
 462:./tmk_core/protocol/lufa/lufa.c **** 
 838               		.loc 1 462 0
 839 0126 0E94 0000 		call Endpoint_ClearStatusStage
 840               	.LVL64:
 464:./tmk_core/protocol/lufa/lufa.c ****             }
 841               		.loc 1 464 0
 842 012a 8091 0000 		lds r24,USB_ControlRequest+3
 843 012e 8093 0000 		sts keyboard_idle,r24
 844 0132 00C0      		rjmp .L67
 845               	.L71:
 469:./tmk_core/protocol/lufa/lufa.c ****             {
 846               		.loc 1 469 0
 847 0134 8091 0000 		lds r24,USB_ControlRequest
 848 0138 813A      		cpi r24,lo8(-95)
 849 013a 01F4      		brne .L67
 850               	.LBB210:
 851               	.LBB211:
 444:./tmk_core/protocol/lufa/LUFA-git/LUFA/Drivers/USB/Core/AVR8/../AVR8/Endpoint_AVR8.h **** 			}
 852               		.loc 2 444 0
 853 013c 8091 E800 		lds r24,232
 854 0140 877F      		andi r24,lo8(-9)
 855 0142 8093 E800 		sts 232,r24
 856               	.L82:
 857               	.LBE211:
 858               	.LBE210:
 859               	.LBB212:
 860               	.LBB213:
 407:./tmk_core/protocol/lufa/LUFA-git/LUFA/Drivers/USB/Core/AVR8/../AVR8/Endpoint_AVR8.h **** 			}
 861               		.loc 2 407 0 discriminator 1
 862 0146 8091 E800 		lds r24,232
 863               	.LBE213:
 864               	.LBE212:
 472:./tmk_core/protocol/lufa/lufa.c ****                 Endpoint_Write_8(keyboard_idle);
 865               		.loc 1 472 0 discriminator 1
 866 014a 80FF      		sbrs r24,0
 867 014c 00C0      		rjmp .L82
 473:./tmk_core/protocol/lufa/lufa.c ****                 Endpoint_ClearIN();
 868               		.loc 1 473 0
 869 014e 8091 0000 		lds r24,keyboard_idle
 870               	.L95:
 871               	.LVL65:
 872               	.LBB214:
 873               	.LBB215:
 543:./tmk_core/protocol/lufa/LUFA-git/LUFA/Drivers/USB/Core/AVR8/../AVR8/Endpoint_AVR8.h **** 			}
 544:./tmk_core/protocol/lufa/LUFA-git/LUFA/Drivers/USB/Core/AVR8/../AVR8/Endpoint_AVR8.h **** 
 545:./tmk_core/protocol/lufa/LUFA-git/LUFA/Drivers/USB/Core/AVR8/../AVR8/Endpoint_AVR8.h **** 			/** Writes one byte to the currently selected endpoint's bank, for IN direction endpoints.
 546:./tmk_core/protocol/lufa/LUFA-git/LUFA/Drivers/USB/Core/AVR8/../AVR8/Endpoint_AVR8.h **** 			 *
 547:./tmk_core/protocol/lufa/LUFA-git/LUFA/Drivers/USB/Core/AVR8/../AVR8/Endpoint_AVR8.h **** 			 *  \ingroup Group_EndpointPrimitiveRW_AVR8
 548:./tmk_core/protocol/lufa/LUFA-git/LUFA/Drivers/USB/Core/AVR8/../AVR8/Endpoint_AVR8.h **** 			 *
 549:./tmk_core/protocol/lufa/LUFA-git/LUFA/Drivers/USB/Core/AVR8/../AVR8/Endpoint_AVR8.h **** 			 *  \param[in] Data  Data to write into the the currently selected endpoint's FIFO buffer.
 550:./tmk_core/protocol/lufa/LUFA-git/LUFA/Drivers/USB/Core/AVR8/../AVR8/Endpoint_AVR8.h **** 			 */
 551:./tmk_core/protocol/lufa/LUFA-git/LUFA/Drivers/USB/Core/AVR8/../AVR8/Endpoint_AVR8.h **** 			static inline void Endpoint_Write_8(const uint8_t Data) ATTR_ALWAYS_INLINE;
 552:./tmk_core/protocol/lufa/LUFA-git/LUFA/Drivers/USB/Core/AVR8/../AVR8/Endpoint_AVR8.h **** 			static inline void Endpoint_Write_8(const uint8_t Data)
 553:./tmk_core/protocol/lufa/LUFA-git/LUFA/Drivers/USB/Core/AVR8/../AVR8/Endpoint_AVR8.h **** 			{
 554:./tmk_core/protocol/lufa/LUFA-git/LUFA/Drivers/USB/Core/AVR8/../AVR8/Endpoint_AVR8.h **** 				UEDATX = Data;
 874               		.loc 2 554 0
 875 0152 8093 F100 		sts 241,r24
 876               	.LBE215:
 877               	.LBE214:
 878               	.LBB216:
 879               	.LBB217:
 456:./tmk_core/protocol/lufa/LUFA-git/LUFA/Drivers/USB/Core/AVR8/../AVR8/Endpoint_AVR8.h **** 				#else
 880               		.loc 2 456 0
 881 0156 8091 E800 		lds r24,232
 882               	.LVL66:
 883 015a 8E77      		andi r24,lo8(126)
 884               	.LVL67:
 885               	.L96:
 886 015c 8093 E800 		sts 232,r24
 887               	.LBE217:
 888               	.LBE216:
 475:./tmk_core/protocol/lufa/lufa.c ****             }
 889               		.loc 1 475 0
 890 0160 0E94 0000 		call Endpoint_ClearStatusStage
 891               	.LVL68:
 892               	.L67:
 482:./tmk_core/protocol/lufa/lufa.c **** #endif
 893               		.loc 1 482 0
 894 0164 80E0      		ldi r24,lo8(cdc_device)
 895 0166 90E0      		ldi r25,hi8(cdc_device)
 896 0168 0C94 0000 		jmp CDC_Device_ProcessControlRequest
 897               	.LVL69:
 898               		.cfi_endproc
 899               	.LFE114:
 901               		.section	.text.sendchar,"ax",@progbits
 902               	.global	sendchar
 904               	sendchar:
 905               	.LFB120:
 637:./tmk_core/protocol/lufa/lufa.c **** 
 638:./tmk_core/protocol/lufa/lufa.c **** 
 639:./tmk_core/protocol/lufa/lufa.c **** /*******************************************************************************
 640:./tmk_core/protocol/lufa/lufa.c ****  * sendchar
 641:./tmk_core/protocol/lufa/lufa.c ****  ******************************************************************************/
 642:./tmk_core/protocol/lufa/lufa.c **** #ifdef CONSOLE_ENABLE
 643:./tmk_core/protocol/lufa/lufa.c **** #define SEND_TIMEOUT 5
 644:./tmk_core/protocol/lufa/lufa.c **** int8_t sendchar(uint8_t c)
 645:./tmk_core/protocol/lufa/lufa.c **** {
 646:./tmk_core/protocol/lufa/lufa.c ****     // Not wait once timeouted.
 647:./tmk_core/protocol/lufa/lufa.c ****     // Because sendchar() is called so many times, waiting each call causes big lag.
 648:./tmk_core/protocol/lufa/lufa.c ****     static bool timeouted = false;
 649:./tmk_core/protocol/lufa/lufa.c **** 
 650:./tmk_core/protocol/lufa/lufa.c ****     // prevents Console_Task() from running during sendchar() runs.
 651:./tmk_core/protocol/lufa/lufa.c ****     // or char will be lost. These two function is mutually exclusive.
 652:./tmk_core/protocol/lufa/lufa.c ****     CONSOLE_FLUSH_SET(false);
 653:./tmk_core/protocol/lufa/lufa.c **** 
 654:./tmk_core/protocol/lufa/lufa.c ****     if (USB_DeviceState != DEVICE_STATE_Configured)
 655:./tmk_core/protocol/lufa/lufa.c ****         return -1;
 656:./tmk_core/protocol/lufa/lufa.c **** 
 657:./tmk_core/protocol/lufa/lufa.c ****     uint8_t ep = Endpoint_GetCurrentEndpoint();
 658:./tmk_core/protocol/lufa/lufa.c ****     Endpoint_SelectEndpoint(CONSOLE_IN_EPNUM);
 659:./tmk_core/protocol/lufa/lufa.c ****     if (!Endpoint_IsEnabled() || !Endpoint_IsConfigured()) {
 660:./tmk_core/protocol/lufa/lufa.c ****         goto ERROR_EXIT;
 661:./tmk_core/protocol/lufa/lufa.c ****     }
 662:./tmk_core/protocol/lufa/lufa.c **** 
 663:./tmk_core/protocol/lufa/lufa.c ****     if (timeouted && !Endpoint_IsReadWriteAllowed()) {
 664:./tmk_core/protocol/lufa/lufa.c ****         goto ERROR_EXIT;
 665:./tmk_core/protocol/lufa/lufa.c ****     }
 666:./tmk_core/protocol/lufa/lufa.c **** 
 667:./tmk_core/protocol/lufa/lufa.c ****     timeouted = false;
 668:./tmk_core/protocol/lufa/lufa.c **** 
 669:./tmk_core/protocol/lufa/lufa.c ****     uint8_t timeout = SEND_TIMEOUT;
 670:./tmk_core/protocol/lufa/lufa.c ****     while (!Endpoint_IsReadWriteAllowed()) {
 671:./tmk_core/protocol/lufa/lufa.c ****         if (USB_DeviceState != DEVICE_STATE_Configured) {
 672:./tmk_core/protocol/lufa/lufa.c ****             goto ERROR_EXIT;
 673:./tmk_core/protocol/lufa/lufa.c ****         }
 674:./tmk_core/protocol/lufa/lufa.c ****         if (Endpoint_IsStalled()) {
 675:./tmk_core/protocol/lufa/lufa.c ****             goto ERROR_EXIT;
 676:./tmk_core/protocol/lufa/lufa.c ****         }
 677:./tmk_core/protocol/lufa/lufa.c ****         if (!(timeout--)) {
 678:./tmk_core/protocol/lufa/lufa.c ****             timeouted = true;
 679:./tmk_core/protocol/lufa/lufa.c ****             goto ERROR_EXIT;
 680:./tmk_core/protocol/lufa/lufa.c ****         }
 681:./tmk_core/protocol/lufa/lufa.c ****         _delay_ms(1);
 682:./tmk_core/protocol/lufa/lufa.c ****     }
 683:./tmk_core/protocol/lufa/lufa.c **** 
 684:./tmk_core/protocol/lufa/lufa.c ****     Endpoint_Write_8(c);
 685:./tmk_core/protocol/lufa/lufa.c **** 
 686:./tmk_core/protocol/lufa/lufa.c ****     // send when bank is full
 687:./tmk_core/protocol/lufa/lufa.c ****     if (!Endpoint_IsReadWriteAllowed()) {
 688:./tmk_core/protocol/lufa/lufa.c ****         while (!(Endpoint_IsINReady()));
 689:./tmk_core/protocol/lufa/lufa.c ****         Endpoint_ClearIN();
 690:./tmk_core/protocol/lufa/lufa.c ****     } else {
 691:./tmk_core/protocol/lufa/lufa.c ****         CONSOLE_FLUSH_SET(true);
 692:./tmk_core/protocol/lufa/lufa.c ****     }
 693:./tmk_core/protocol/lufa/lufa.c **** 
 694:./tmk_core/protocol/lufa/lufa.c ****     Endpoint_SelectEndpoint(ep);
 695:./tmk_core/protocol/lufa/lufa.c ****     return 0;
 696:./tmk_core/protocol/lufa/lufa.c **** ERROR_EXIT:
 697:./tmk_core/protocol/lufa/lufa.c ****     Endpoint_SelectEndpoint(ep);
 698:./tmk_core/protocol/lufa/lufa.c ****     return -1;
 699:./tmk_core/protocol/lufa/lufa.c **** }
 700:./tmk_core/protocol/lufa/lufa.c **** #else
 701:./tmk_core/protocol/lufa/lufa.c **** int8_t sendchar(uint8_t c)
 702:./tmk_core/protocol/lufa/lufa.c **** {
 906               		.loc 1 702 0
 907               		.cfi_startproc
 908               	.LVL70:
 909               	/* prologue: function */
 910               	/* frame size = 0 */
 911               	/* stack size = 0 */
 912               	.L__stack_usage = 0
 703:./tmk_core/protocol/lufa/lufa.c ****     return 0;
 704:./tmk_core/protocol/lufa/lufa.c **** }
 913               		.loc 1 704 0
 914 0000 80E0      		ldi r24,0
 915               	.LVL71:
 916 0002 0895      		ret
 917               		.cfi_endproc
 918               	.LFE120:
 920               		.section	.text.virtser_init,"ax",@progbits
 921               	.global	virtser_init
 923               	virtser_init:
 924               	.LFB121:
 705:./tmk_core/protocol/lufa/lufa.c **** #endif
 706:./tmk_core/protocol/lufa/lufa.c **** 
 707:./tmk_core/protocol/lufa/lufa.c **** /*******************************************************************************
 708:./tmk_core/protocol/lufa/lufa.c ****  * MIDI
 709:./tmk_core/protocol/lufa/lufa.c ****  ******************************************************************************/
 710:./tmk_core/protocol/lufa/lufa.c **** 
 711:./tmk_core/protocol/lufa/lufa.c **** #ifdef MIDI_ENABLE
 712:./tmk_core/protocol/lufa/lufa.c **** void usb_send_func(MidiDevice * device, uint16_t cnt, uint8_t byte0, uint8_t byte1, uint8_t byte2) 
 713:./tmk_core/protocol/lufa/lufa.c ****   MIDI_EventPacket_t event;
 714:./tmk_core/protocol/lufa/lufa.c ****   event.Data1 = byte0;
 715:./tmk_core/protocol/lufa/lufa.c ****   event.Data2 = byte1;
 716:./tmk_core/protocol/lufa/lufa.c ****   event.Data3 = byte2;
 717:./tmk_core/protocol/lufa/lufa.c **** 
 718:./tmk_core/protocol/lufa/lufa.c ****   uint8_t cable = 0;
 719:./tmk_core/protocol/lufa/lufa.c **** 
 720:./tmk_core/protocol/lufa/lufa.c **** // Endpoint_SelectEndpoint(MIDI_STREAM_IN_EPNUM);
 721:./tmk_core/protocol/lufa/lufa.c **** 
 722:./tmk_core/protocol/lufa/lufa.c ****   //if the length is undefined we assume it is a SYSEX message
 723:./tmk_core/protocol/lufa/lufa.c ****   if (midi_packet_length(byte0) == UNDEFINED) {
 724:./tmk_core/protocol/lufa/lufa.c ****     switch(cnt) {
 725:./tmk_core/protocol/lufa/lufa.c ****       case 3:
 726:./tmk_core/protocol/lufa/lufa.c ****         if (byte2 == SYSEX_END)
 727:./tmk_core/protocol/lufa/lufa.c ****           event.Event = MIDI_EVENT(cable, SYSEX_ENDS_IN_3);
 728:./tmk_core/protocol/lufa/lufa.c ****         else
 729:./tmk_core/protocol/lufa/lufa.c ****           event.Event = MIDI_EVENT(cable, SYSEX_START_OR_CONT);
 730:./tmk_core/protocol/lufa/lufa.c ****         break;
 731:./tmk_core/protocol/lufa/lufa.c ****       case 2:
 732:./tmk_core/protocol/lufa/lufa.c ****         if (byte1 == SYSEX_END)
 733:./tmk_core/protocol/lufa/lufa.c ****           event.Event = MIDI_EVENT(cable, SYSEX_ENDS_IN_2);
 734:./tmk_core/protocol/lufa/lufa.c ****         else
 735:./tmk_core/protocol/lufa/lufa.c ****           event.Event = MIDI_EVENT(cable, SYSEX_START_OR_CONT);
 736:./tmk_core/protocol/lufa/lufa.c ****         break;
 737:./tmk_core/protocol/lufa/lufa.c ****       case 1:
 738:./tmk_core/protocol/lufa/lufa.c ****         if (byte0 == SYSEX_END)
 739:./tmk_core/protocol/lufa/lufa.c ****           event.Event = MIDI_EVENT(cable, SYSEX_ENDS_IN_1);
 740:./tmk_core/protocol/lufa/lufa.c ****         else
 741:./tmk_core/protocol/lufa/lufa.c ****           event.Event = MIDI_EVENT(cable, SYSEX_START_OR_CONT);
 742:./tmk_core/protocol/lufa/lufa.c ****         break;
 743:./tmk_core/protocol/lufa/lufa.c ****       default:
 744:./tmk_core/protocol/lufa/lufa.c ****         return; //invalid cnt
 745:./tmk_core/protocol/lufa/lufa.c ****     }
 746:./tmk_core/protocol/lufa/lufa.c ****   } else {
 747:./tmk_core/protocol/lufa/lufa.c ****     //deal with 'system common' messages
 748:./tmk_core/protocol/lufa/lufa.c ****     //TODO are there any more?
 749:./tmk_core/protocol/lufa/lufa.c ****     switch(byte0 & 0xF0){
 750:./tmk_core/protocol/lufa/lufa.c ****       case MIDI_SONGPOSITION:
 751:./tmk_core/protocol/lufa/lufa.c ****         event.Event = MIDI_EVENT(cable, SYS_COMMON_3);
 752:./tmk_core/protocol/lufa/lufa.c ****         break;
 753:./tmk_core/protocol/lufa/lufa.c ****       case MIDI_SONGSELECT:
 754:./tmk_core/protocol/lufa/lufa.c ****       case MIDI_TC_QUARTERFRAME:
 755:./tmk_core/protocol/lufa/lufa.c ****         event.Event = MIDI_EVENT(cable, SYS_COMMON_2);
 756:./tmk_core/protocol/lufa/lufa.c ****         break;
 757:./tmk_core/protocol/lufa/lufa.c ****       default:
 758:./tmk_core/protocol/lufa/lufa.c ****         event.Event = MIDI_EVENT(cable, byte0);
 759:./tmk_core/protocol/lufa/lufa.c ****         break;
 760:./tmk_core/protocol/lufa/lufa.c ****     }
 761:./tmk_core/protocol/lufa/lufa.c ****   }
 762:./tmk_core/protocol/lufa/lufa.c **** 
 763:./tmk_core/protocol/lufa/lufa.c **** // Endpoint_Write_Stream_LE(&event, sizeof(event), NULL);
 764:./tmk_core/protocol/lufa/lufa.c **** // Endpoint_ClearIN();
 765:./tmk_core/protocol/lufa/lufa.c **** 
 766:./tmk_core/protocol/lufa/lufa.c ****   MIDI_Device_SendEventPacket(&USB_MIDI_Interface, &event);
 767:./tmk_core/protocol/lufa/lufa.c ****   MIDI_Device_Flush(&USB_MIDI_Interface);
 768:./tmk_core/protocol/lufa/lufa.c ****   MIDI_Device_USBTask(&USB_MIDI_Interface);
 769:./tmk_core/protocol/lufa/lufa.c ****   USB_USBTask();
 770:./tmk_core/protocol/lufa/lufa.c **** }
 771:./tmk_core/protocol/lufa/lufa.c **** 
 772:./tmk_core/protocol/lufa/lufa.c **** void usb_get_midi(MidiDevice * device) {
 773:./tmk_core/protocol/lufa/lufa.c ****   MIDI_EventPacket_t event;
 774:./tmk_core/protocol/lufa/lufa.c ****   while (MIDI_Device_ReceiveEventPacket(&USB_MIDI_Interface, &event)) {
 775:./tmk_core/protocol/lufa/lufa.c **** 
 776:./tmk_core/protocol/lufa/lufa.c ****     midi_packet_length_t length = midi_packet_length(event.Data1);
 777:./tmk_core/protocol/lufa/lufa.c ****     uint8_t input[3];
 778:./tmk_core/protocol/lufa/lufa.c ****     input[0] = event.Data1;
 779:./tmk_core/protocol/lufa/lufa.c ****     input[1] = event.Data2;
 780:./tmk_core/protocol/lufa/lufa.c ****     input[2] = event.Data3;
 781:./tmk_core/protocol/lufa/lufa.c ****     if (length == UNDEFINED) {
 782:./tmk_core/protocol/lufa/lufa.c ****       //sysex
 783:./tmk_core/protocol/lufa/lufa.c ****       if (event.Event == MIDI_EVENT(0, SYSEX_START_OR_CONT) || event.Event == MIDI_EVENT(0, SYSEX_E
 784:./tmk_core/protocol/lufa/lufa.c ****         length = 3;
 785:./tmk_core/protocol/lufa/lufa.c ****       } else if (event.Event == MIDI_EVENT(0, SYSEX_ENDS_IN_2)) {
 786:./tmk_core/protocol/lufa/lufa.c ****         length = 2;
 787:./tmk_core/protocol/lufa/lufa.c ****       } else if(event.Event ==  MIDI_EVENT(0, SYSEX_ENDS_IN_1)) {
 788:./tmk_core/protocol/lufa/lufa.c ****         length = 1;
 789:./tmk_core/protocol/lufa/lufa.c ****       } else {
 790:./tmk_core/protocol/lufa/lufa.c ****         //XXX what to do?
 791:./tmk_core/protocol/lufa/lufa.c ****       }
 792:./tmk_core/protocol/lufa/lufa.c ****     }
 793:./tmk_core/protocol/lufa/lufa.c **** 
 794:./tmk_core/protocol/lufa/lufa.c ****     //pass the data to the device input function
 795:./tmk_core/protocol/lufa/lufa.c ****     if (length != UNDEFINED)
 796:./tmk_core/protocol/lufa/lufa.c ****       midi_device_input(device, length, input);
 797:./tmk_core/protocol/lufa/lufa.c ****   }
 798:./tmk_core/protocol/lufa/lufa.c ****   MIDI_Device_USBTask(&USB_MIDI_Interface);
 799:./tmk_core/protocol/lufa/lufa.c ****   USB_USBTask();
 800:./tmk_core/protocol/lufa/lufa.c **** }
 801:./tmk_core/protocol/lufa/lufa.c **** 
 802:./tmk_core/protocol/lufa/lufa.c **** void midi_usb_init(MidiDevice * device){
 803:./tmk_core/protocol/lufa/lufa.c ****   midi_device_init(device);
 804:./tmk_core/protocol/lufa/lufa.c ****   midi_device_set_send_func(device, usb_send_func);
 805:./tmk_core/protocol/lufa/lufa.c ****   midi_device_set_pre_input_process_func(device, usb_get_midi);
 806:./tmk_core/protocol/lufa/lufa.c **** 
 807:./tmk_core/protocol/lufa/lufa.c ****   SetupHardware();
 808:./tmk_core/protocol/lufa/lufa.c ****   sei();
 809:./tmk_core/protocol/lufa/lufa.c **** }
 810:./tmk_core/protocol/lufa/lufa.c **** 
 811:./tmk_core/protocol/lufa/lufa.c **** void MIDI_Task(void)
 812:./tmk_core/protocol/lufa/lufa.c **** {
 813:./tmk_core/protocol/lufa/lufa.c **** 
 814:./tmk_core/protocol/lufa/lufa.c ****     /* Device must be connected and configured for the task to run */
 815:./tmk_core/protocol/lufa/lufa.c ****     dprint("in MIDI_TASK\n");
 816:./tmk_core/protocol/lufa/lufa.c ****     if (USB_DeviceState != DEVICE_STATE_Configured)
 817:./tmk_core/protocol/lufa/lufa.c ****       return;
 818:./tmk_core/protocol/lufa/lufa.c ****     dprint("continuing in MIDI_TASK\n");
 819:./tmk_core/protocol/lufa/lufa.c **** 
 820:./tmk_core/protocol/lufa/lufa.c ****     Endpoint_SelectEndpoint(MIDI_STREAM_IN_EPADDR);
 821:./tmk_core/protocol/lufa/lufa.c **** 
 822:./tmk_core/protocol/lufa/lufa.c ****     if (Endpoint_IsINReady())
 823:./tmk_core/protocol/lufa/lufa.c ****     {
 824:./tmk_core/protocol/lufa/lufa.c **** 
 825:./tmk_core/protocol/lufa/lufa.c ****         dprint("Endpoint is ready\n");
 826:./tmk_core/protocol/lufa/lufa.c **** 
 827:./tmk_core/protocol/lufa/lufa.c ****         uint8_t MIDICommand = 0;
 828:./tmk_core/protocol/lufa/lufa.c ****         uint8_t MIDIPitch;
 829:./tmk_core/protocol/lufa/lufa.c **** 
 830:./tmk_core/protocol/lufa/lufa.c ****         /* Get board button status - if pressed use channel 10 (percussion), otherwise use channel 
 831:./tmk_core/protocol/lufa/lufa.c ****         uint8_t Channel = MIDI_CHANNEL(1);
 832:./tmk_core/protocol/lufa/lufa.c **** 
 833:./tmk_core/protocol/lufa/lufa.c ****         MIDICommand = MIDI_COMMAND_NOTE_ON;
 834:./tmk_core/protocol/lufa/lufa.c ****         MIDIPitch   = 0x3E;
 835:./tmk_core/protocol/lufa/lufa.c **** 
 836:./tmk_core/protocol/lufa/lufa.c ****         /* Check if a MIDI command is to be sent */
 837:./tmk_core/protocol/lufa/lufa.c ****         if (MIDICommand)
 838:./tmk_core/protocol/lufa/lufa.c ****         {
 839:./tmk_core/protocol/lufa/lufa.c ****             dprint("Command exists\n");
 840:./tmk_core/protocol/lufa/lufa.c ****             MIDI_EventPacket_t MIDIEvent = (MIDI_EventPacket_t)
 841:./tmk_core/protocol/lufa/lufa.c ****                 {
 842:./tmk_core/protocol/lufa/lufa.c ****                     .Event       = MIDI_EVENT(0, MIDICommand),
 843:./tmk_core/protocol/lufa/lufa.c **** 
 844:./tmk_core/protocol/lufa/lufa.c ****                     .Data1       = MIDICommand | Channel,
 845:./tmk_core/protocol/lufa/lufa.c ****                     .Data2       = MIDIPitch,
 846:./tmk_core/protocol/lufa/lufa.c ****                     .Data3       = MIDI_STANDARD_VELOCITY,
 847:./tmk_core/protocol/lufa/lufa.c ****                 };
 848:./tmk_core/protocol/lufa/lufa.c **** 
 849:./tmk_core/protocol/lufa/lufa.c ****             /* Write the MIDI event packet to the endpoint */
 850:./tmk_core/protocol/lufa/lufa.c ****             Endpoint_Write_Stream_LE(&MIDIEvent, sizeof(MIDIEvent), NULL);
 851:./tmk_core/protocol/lufa/lufa.c **** 
 852:./tmk_core/protocol/lufa/lufa.c ****             /* Send the data in the endpoint to the host */
 853:./tmk_core/protocol/lufa/lufa.c ****             Endpoint_ClearIN();
 854:./tmk_core/protocol/lufa/lufa.c ****         }
 855:./tmk_core/protocol/lufa/lufa.c ****     }
 856:./tmk_core/protocol/lufa/lufa.c **** 
 857:./tmk_core/protocol/lufa/lufa.c **** 
 858:./tmk_core/protocol/lufa/lufa.c ****     /* Select the MIDI OUT stream */
 859:./tmk_core/protocol/lufa/lufa.c ****     Endpoint_SelectEndpoint(MIDI_STREAM_OUT_EPADDR);
 860:./tmk_core/protocol/lufa/lufa.c **** 
 861:./tmk_core/protocol/lufa/lufa.c ****     /* Check if a MIDI command has been received */
 862:./tmk_core/protocol/lufa/lufa.c ****     if (Endpoint_IsOUTReceived())
 863:./tmk_core/protocol/lufa/lufa.c ****     {
 864:./tmk_core/protocol/lufa/lufa.c ****         MIDI_EventPacket_t MIDIEvent;
 865:./tmk_core/protocol/lufa/lufa.c **** 
 866:./tmk_core/protocol/lufa/lufa.c ****         /* Read the MIDI event packet from the endpoint */
 867:./tmk_core/protocol/lufa/lufa.c ****         Endpoint_Read_Stream_LE(&MIDIEvent, sizeof(MIDIEvent), NULL);
 868:./tmk_core/protocol/lufa/lufa.c **** 
 869:./tmk_core/protocol/lufa/lufa.c ****         /* If the endpoint is now empty, clear the bank */
 870:./tmk_core/protocol/lufa/lufa.c ****         if (!(Endpoint_BytesInEndpoint()))
 871:./tmk_core/protocol/lufa/lufa.c ****         {
 872:./tmk_core/protocol/lufa/lufa.c ****             /* Clear the endpoint ready for new packet */
 873:./tmk_core/protocol/lufa/lufa.c ****             Endpoint_ClearOUT();
 874:./tmk_core/protocol/lufa/lufa.c ****         }
 875:./tmk_core/protocol/lufa/lufa.c ****     }
 876:./tmk_core/protocol/lufa/lufa.c **** }
 877:./tmk_core/protocol/lufa/lufa.c **** 
 878:./tmk_core/protocol/lufa/lufa.c **** #endif
 879:./tmk_core/protocol/lufa/lufa.c **** 
 880:./tmk_core/protocol/lufa/lufa.c **** /*******************************************************************************
 881:./tmk_core/protocol/lufa/lufa.c ****  * VIRTUAL SERIAL
 882:./tmk_core/protocol/lufa/lufa.c ****  ******************************************************************************/
 883:./tmk_core/protocol/lufa/lufa.c **** 
 884:./tmk_core/protocol/lufa/lufa.c **** #ifdef VIRTSER_ENABLE
 885:./tmk_core/protocol/lufa/lufa.c **** void virtser_init(void)
 886:./tmk_core/protocol/lufa/lufa.c **** {
 925               		.loc 1 886 0
 926               		.cfi_startproc
 927               	/* prologue: function */
 928               	/* frame size = 0 */
 929               	/* stack size = 0 */
 930               	.L__stack_usage = 0
 887:./tmk_core/protocol/lufa/lufa.c ****   cdc_device.State.ControlLineStates.DeviceToHost = CDC_CONTROL_LINE_IN_DSR ;
 931               		.loc 1 887 0
 932 0000 82E0      		ldi r24,lo8(2)
 933 0002 90E0      		ldi r25,0
 934 0004 9093 0000 		sts cdc_device+18+1,r25
 935 0008 8093 0000 		sts cdc_device+18,r24
 888:./tmk_core/protocol/lufa/lufa.c ****   CDC_Device_SendControlLineStateChange(&cdc_device);
 936               		.loc 1 888 0
 937 000c 80E0      		ldi r24,lo8(cdc_device)
 938 000e 90E0      		ldi r25,hi8(cdc_device)
 939 0010 0C94 0000 		jmp CDC_Device_SendControlLineStateChange
 940               	.LVL72:
 941               		.cfi_endproc
 942               	.LFE121:
 944               		.section	.text.virtser_recv,"ax",@progbits
 945               		.weak	virtser_recv
 947               	virtser_recv:
 948               	.LFB122:
 889:./tmk_core/protocol/lufa/lufa.c **** }
 890:./tmk_core/protocol/lufa/lufa.c **** 
 891:./tmk_core/protocol/lufa/lufa.c **** void virtser_recv(uint8_t c) __attribute__ ((weak));
 892:./tmk_core/protocol/lufa/lufa.c **** void virtser_recv(uint8_t c)
 893:./tmk_core/protocol/lufa/lufa.c **** {
 949               		.loc 1 893 0
 950               		.cfi_startproc
 951               	.LVL73:
 952               	/* prologue: function */
 953               	/* frame size = 0 */
 954               	/* stack size = 0 */
 955               	.L__stack_usage = 0
 956 0000 0895      		ret
 957               		.cfi_endproc
 958               	.LFE122:
 960               		.section	.text.virtser_task,"ax",@progbits
 961               	.global	virtser_task
 963               	virtser_task:
 964               	.LFB123:
 894:./tmk_core/protocol/lufa/lufa.c ****   // Ignore by default
 895:./tmk_core/protocol/lufa/lufa.c **** }
 896:./tmk_core/protocol/lufa/lufa.c **** 
 897:./tmk_core/protocol/lufa/lufa.c **** void virtser_task(void)
 898:./tmk_core/protocol/lufa/lufa.c **** {
 965               		.loc 1 898 0
 966               		.cfi_startproc
 967               	/* prologue: function */
 968               	/* frame size = 0 */
 969               	/* stack size = 0 */
 970               	.L__stack_usage = 0
 899:./tmk_core/protocol/lufa/lufa.c ****   uint16_t count = CDC_Device_BytesReceived(&cdc_device);
 971               		.loc 1 899 0
 972 0000 80E0      		ldi r24,lo8(cdc_device)
 973 0002 90E0      		ldi r25,hi8(cdc_device)
 974 0004 0E94 0000 		call CDC_Device_BytesReceived
 975               	.LVL74:
 900:./tmk_core/protocol/lufa/lufa.c ****   uint8_t ch;
 901:./tmk_core/protocol/lufa/lufa.c ****   if (count)
 976               		.loc 1 901 0
 977 0008 892B      		or r24,r25
 978 000a 01F0      		breq .L102
 902:./tmk_core/protocol/lufa/lufa.c ****   {
 903:./tmk_core/protocol/lufa/lufa.c ****     ch = CDC_Device_ReceiveByte(&cdc_device);
 979               		.loc 1 903 0
 980 000c 80E0      		ldi r24,lo8(cdc_device)
 981 000e 90E0      		ldi r25,hi8(cdc_device)
 982               	.LVL75:
 983 0010 0E94 0000 		call CDC_Device_ReceiveByte
 984               	.LVL76:
 904:./tmk_core/protocol/lufa/lufa.c ****     virtser_recv(ch);
 985               		.loc 1 904 0
 986 0014 0C94 0000 		jmp virtser_recv
 987               	.LVL77:
 988               	.L102:
 989 0018 0895      		ret
 990               		.cfi_endproc
 991               	.LFE123:
 993               		.section	.text.virtser_send,"ax",@progbits
 994               	.global	virtser_send
 996               	virtser_send:
 997               	.LFB124:
 905:./tmk_core/protocol/lufa/lufa.c ****   }
 906:./tmk_core/protocol/lufa/lufa.c **** }
 907:./tmk_core/protocol/lufa/lufa.c **** void virtser_send(const uint8_t byte)
 908:./tmk_core/protocol/lufa/lufa.c **** {
 998               		.loc 1 908 0
 999               		.cfi_startproc
 1000               	.LVL78:
 1001 0000 CF93      		push r28
 1002               	.LCFI10:
 1003               		.cfi_def_cfa_offset 3
 1004               		.cfi_offset 28, -2
 1005               	/* prologue: function */
 1006               	/* frame size = 0 */
 1007               	/* stack size = 1 */
 1008               	.L__stack_usage = 1
 1009               	.LVL79:
 1010               	.LBB218:
 1011               	.LBB219:
 253:./tmk_core/protocol/lufa/LUFA-git/LUFA/Drivers/USB/Core/AVR8/../AVR8/Endpoint_AVR8.h **** 				#else
 1012               		.loc 2 253 0
 1013 0002 C091 E900 		lds r28,233
 1014               	.LBB220:
 1015               	.LBB221:
 240:./tmk_core/protocol/lufa/LUFA-git/LUFA/Drivers/USB/Core/AVR8/../AVR8/Endpoint_AVR8.h **** 			}
 1016               		.loc 2 240 0
 1017 0006 2091 EC00 		lds r18,236
 1018 000a 922F      		mov r25,r18
 1019 000c 9170      		andi r25,lo8(1)
 1020 000e 20FD      		sbrc r18,0
 1021 0010 90E8      		ldi r25,lo8(-128)
 1022               	.L105:
 1023               	.LBE221:
 1024               	.LBE220:
 1025               	.LBE219:
 1026               	.LBE218:
 909:./tmk_core/protocol/lufa/lufa.c ****   uint8_t timeout = 255;
 910:./tmk_core/protocol/lufa/lufa.c ****   uint8_t ep = Endpoint_GetCurrentEndpoint();
 911:./tmk_core/protocol/lufa/lufa.c **** 
 912:./tmk_core/protocol/lufa/lufa.c ****   if (cdc_device.State.ControlLineStates.HostToDevice & CDC_CONTROL_LINE_OUT_DTR)
 1027               		.loc 1 912 0
 1028 0012 2091 0000 		lds r18,cdc_device+16
 1029 0016 20FF      		sbrs r18,0
 1030 0018 00C0      		rjmp .L104
 1031               	.LBB223:
 1032               	.LBB222:
 253:./tmk_core/protocol/lufa/LUFA-git/LUFA/Drivers/USB/Core/AVR8/../AVR8/Endpoint_AVR8.h **** 				#else
 1033               		.loc 2 253 0
 1034 001a CF70      		andi r28,lo8(15)
 1035 001c C92B      		or r28,r25
 1036               	.LVL80:
 1037               	.LBE222:
 1038               	.LBE223:
 1039               	.LBB224:
 1040               	.LBB225:
 270:./tmk_core/protocol/lufa/LUFA-git/LUFA/Drivers/USB/Core/AVR8/../AVR8/Endpoint_AVR8.h **** 				#endif
 1041               		.loc 2 270 0
 1042 001e 9091 0000 		lds r25,cdc_device+1
 1043 0022 9F70      		andi r25,lo8(15)
 1044 0024 9093 E900 		sts 233,r25
 1045               	.LBE225:
 1046               	.LBE224:
 1047               	.LBB226:
 1048               	.LBB227:
 313:./tmk_core/protocol/lufa/LUFA-git/LUFA/Drivers/USB/Core/AVR8/../AVR8/Endpoint_AVR8.h **** 			}
 1049               		.loc 2 313 0
 1050 0028 9091 EB00 		lds r25,235
 1051               	.LBE227:
 1052               	.LBE226:
 913:./tmk_core/protocol/lufa/lufa.c ****   {
 914:./tmk_core/protocol/lufa/lufa.c ****     /* IN packet */
 915:./tmk_core/protocol/lufa/lufa.c ****     Endpoint_SelectEndpoint(cdc_device.Config.DataINEndpoint.Address);
 916:./tmk_core/protocol/lufa/lufa.c **** 
 917:./tmk_core/protocol/lufa/lufa.c ****     if (!Endpoint_IsEnabled() || !Endpoint_IsConfigured()) {
 1053               		.loc 1 917 0
 1054 002c 90FF      		sbrs r25,0
 1055 002e 00C0      		rjmp .L111
 1056               	.LBB228:
 1057               	.LBB229:
 370:./tmk_core/protocol/lufa/LUFA-git/LUFA/Drivers/USB/Core/AVR8/../AVR8/Endpoint_AVR8.h **** 			}
 1058               		.loc 2 370 0
 1059 0030 9091 EE00 		lds r25,238
 1060               	.LBE229:
 1061               	.LBE228:
 1062               		.loc 1 917 0
 1063 0034 97FF      		sbrs r25,7
 1064 0036 00C0      		rjmp .L111
 1065 0038 9FEF      		ldi r25,lo8(-1)
 1066               	.LVL81:
 1067               	.L108:
 1068               	.LBB230:
 1069               	.LBB231:
 360:./tmk_core/protocol/lufa/LUFA-git/LUFA/Drivers/USB/Core/AVR8/../AVR8/Endpoint_AVR8.h **** 			}
 1070               		.loc 2 360 0
 1071 003a 2091 E800 		lds r18,232
 1072 003e 9150      		subi r25,lo8(-(-1))
 1073               	.LVL82:
 1074               	.LBE231:
 1075               	.LBE230:
 918:./tmk_core/protocol/lufa/lufa.c ****         Endpoint_SelectEndpoint(ep);
 919:./tmk_core/protocol/lufa/lufa.c ****         return;
 920:./tmk_core/protocol/lufa/lufa.c ****     }
 921:./tmk_core/protocol/lufa/lufa.c **** 
 922:./tmk_core/protocol/lufa/lufa.c ****     while (timeout-- && !Endpoint_IsReadWriteAllowed()) _delay_us(40);
 1076               		.loc 1 922 0
 1077 0040 25FD      		sbrc r18,5
 1078 0042 00C0      		rjmp .L109
 1079               	.LVL83:
 1080               	.LBB232:
 1081               	.LBB233:
 1082               		.loc 3 245 0
 1083 0044 25ED      		ldi r18,lo8(-43)
 1084 0046 2A95      	1:	dec r18
 1085 0048 01F4      		brne 1b
 1086 004a 0000      		nop
 1087               	.LVL84:
 1088               	.LBE233:
 1089               	.LBE232:
 1090               		.loc 1 922 0
 1091 004c 9111      		cpse r25,__zero_reg__
 1092 004e 00C0      		rjmp .L108
 1093               	.LVL85:
 1094               	.L109:
 1095               	.LBB234:
 1096               	.LBB235:
 1097               		.loc 2 554 0
 1098 0050 8093 F100 		sts 241,r24
 1099               	.LBE235:
 1100               	.LBE234:
 923:./tmk_core/protocol/lufa/lufa.c **** 
 924:./tmk_core/protocol/lufa/lufa.c ****     Endpoint_Write_8(byte);
 925:./tmk_core/protocol/lufa/lufa.c ****     CDC_Device_Flush(&cdc_device);
 1101               		.loc 1 925 0
 1102 0054 80E0      		ldi r24,lo8(cdc_device)
 1103 0056 90E0      		ldi r25,hi8(cdc_device)
 1104               	.LVL86:
 1105 0058 0E94 0000 		call CDC_Device_Flush
 1106               	.LVL87:
 1107               	.LBB236:
 1108               	.LBB237:
 407:./tmk_core/protocol/lufa/LUFA-git/LUFA/Drivers/USB/Core/AVR8/../AVR8/Endpoint_AVR8.h **** 			}
 1109               		.loc 2 407 0
 1110 005c 8091 E800 		lds r24,232
 1111               	.LBE237:
 1112               	.LBE236:
 926:./tmk_core/protocol/lufa/lufa.c **** 
 927:./tmk_core/protocol/lufa/lufa.c ****     if (Endpoint_IsINReady()) {
 1113               		.loc 1 927 0
 1114 0060 80FF      		sbrs r24,0
 1115 0062 00C0      		rjmp .L111
 1116               	.LBB238:
 1117               	.LBB239:
 456:./tmk_core/protocol/lufa/LUFA-git/LUFA/Drivers/USB/Core/AVR8/../AVR8/Endpoint_AVR8.h **** 				#else
 1118               		.loc 2 456 0
 1119 0064 8091 E800 		lds r24,232
 1120 0068 8E77      		andi r24,lo8(126)
 1121 006a 8093 E800 		sts 232,r24
 1122               	.LVL88:
 1123               	.L111:
 1124               	.LBE239:
 1125               	.LBE238:
 1126               	.LBB240:
 1127               	.LBB241:
 270:./tmk_core/protocol/lufa/LUFA-git/LUFA/Drivers/USB/Core/AVR8/../AVR8/Endpoint_AVR8.h **** 				#endif
 1128               		.loc 2 270 0
 1129 006e CF70      		andi r28,lo8(15)
 1130 0070 C093 E900 		sts 233,r28
 1131               	.L104:
 1132               	/* epilogue start */
 1133               	.LBE241:
 1134               	.LBE240:
 928:./tmk_core/protocol/lufa/lufa.c ****       Endpoint_ClearIN();
 929:./tmk_core/protocol/lufa/lufa.c ****     }
 930:./tmk_core/protocol/lufa/lufa.c **** 
 931:./tmk_core/protocol/lufa/lufa.c ****     Endpoint_SelectEndpoint(ep);
 932:./tmk_core/protocol/lufa/lufa.c ****   }
 933:./tmk_core/protocol/lufa/lufa.c **** }
 1135               		.loc 1 933 0
 1136 0074 CF91      		pop r28
 1137 0076 0895      		ret
 1138               		.cfi_endproc
 1139               	.LFE124:
 1141               		.section	.text.startup.main,"ax",@progbits
 1142               		.weak	main
 1144               	main:
 1145               	.LFB127:
 934:./tmk_core/protocol/lufa/lufa.c **** #endif
 935:./tmk_core/protocol/lufa/lufa.c **** 
 936:./tmk_core/protocol/lufa/lufa.c **** /*******************************************************************************
 937:./tmk_core/protocol/lufa/lufa.c ****  * main
 938:./tmk_core/protocol/lufa/lufa.c ****  ******************************************************************************/
 939:./tmk_core/protocol/lufa/lufa.c **** static void setup_mcu(void)
 940:./tmk_core/protocol/lufa/lufa.c **** {
 941:./tmk_core/protocol/lufa/lufa.c ****     /* Disable watchdog if enabled by bootloader/fuses */
 942:./tmk_core/protocol/lufa/lufa.c ****     MCUSR &= ~(1 << WDRF);
 943:./tmk_core/protocol/lufa/lufa.c ****     wdt_disable();
 944:./tmk_core/protocol/lufa/lufa.c **** 
 945:./tmk_core/protocol/lufa/lufa.c ****     /* Disable clock division */
 946:./tmk_core/protocol/lufa/lufa.c ****     // clock_prescale_set(clock_div_1);
 947:./tmk_core/protocol/lufa/lufa.c **** 
 948:./tmk_core/protocol/lufa/lufa.c ****     CLKPR = (1 << CLKPCE);
 949:./tmk_core/protocol/lufa/lufa.c ****     CLKPR = (0 << CLKPS3) | (0 << CLKPS2) | (0 << CLKPS1) | (0 << CLKPS0);
 950:./tmk_core/protocol/lufa/lufa.c **** }
 951:./tmk_core/protocol/lufa/lufa.c **** 
 952:./tmk_core/protocol/lufa/lufa.c **** static void setup_usb(void)
 953:./tmk_core/protocol/lufa/lufa.c **** {
 954:./tmk_core/protocol/lufa/lufa.c ****     // Leonardo needs. Without this USB device is not recognized.
 955:./tmk_core/protocol/lufa/lufa.c ****     USB_Disable();
 956:./tmk_core/protocol/lufa/lufa.c **** 
 957:./tmk_core/protocol/lufa/lufa.c ****     USB_Init();
 958:./tmk_core/protocol/lufa/lufa.c **** 
 959:./tmk_core/protocol/lufa/lufa.c ****     // for Console_Task
 960:./tmk_core/protocol/lufa/lufa.c ****     USB_Device_EnableSOFEvents();
 961:./tmk_core/protocol/lufa/lufa.c ****     print_set_sendchar(sendchar);
 962:./tmk_core/protocol/lufa/lufa.c **** }
 963:./tmk_core/protocol/lufa/lufa.c **** 
 964:./tmk_core/protocol/lufa/lufa.c **** 
 965:./tmk_core/protocol/lufa/lufa.c **** #ifdef MIDI_ENABLE
 966:./tmk_core/protocol/lufa/lufa.c **** void fallthrough_callback(MidiDevice * device,
 967:./tmk_core/protocol/lufa/lufa.c ****     uint16_t cnt, uint8_t byte0, uint8_t byte1, uint8_t byte2);
 968:./tmk_core/protocol/lufa/lufa.c **** void cc_callback(MidiDevice * device,
 969:./tmk_core/protocol/lufa/lufa.c ****     uint8_t chan, uint8_t num, uint8_t val);
 970:./tmk_core/protocol/lufa/lufa.c **** void sysex_callback(MidiDevice * device,
 971:./tmk_core/protocol/lufa/lufa.c ****     uint16_t start, uint8_t length, uint8_t * data);
 972:./tmk_core/protocol/lufa/lufa.c **** #endif
 973:./tmk_core/protocol/lufa/lufa.c **** 
 974:./tmk_core/protocol/lufa/lufa.c **** int main(void)  __attribute__ ((weak));
 975:./tmk_core/protocol/lufa/lufa.c **** int main(void)
 976:./tmk_core/protocol/lufa/lufa.c **** {
 1146               		.loc 1 976 0
 1147               		.cfi_startproc
 1148               	/* prologue: function */
 1149               	/* frame size = 0 */
 1150               	/* stack size = 0 */
 1151               	.L__stack_usage = 0
 1152               	.LBB251:
 1153               	.LBB252:
 942:./tmk_core/protocol/lufa/lufa.c ****     wdt_disable();
 1154               		.loc 1 942 0
 1155 0000 84B7      		in r24,0x34
 1156 0002 877F      		andi r24,lo8(-9)
 1157 0004 84BF      		out 0x34,r24
 1158               	.LBB253:
 1159               	.LBB254:
 1160               		.file 5 "/usr/lib/avr/include/avr/wdt.h"
   1:/usr/lib/avr/include/avr/wdt.h **** /* Copyright (c) 2002, 2004 Marek Michalkiewicz
   2:/usr/lib/avr/include/avr/wdt.h ****    Copyright (c) 2005, 2006, 2007 Eric B. Weddington
   3:/usr/lib/avr/include/avr/wdt.h ****    All rights reserved.
   4:/usr/lib/avr/include/avr/wdt.h **** 
   5:/usr/lib/avr/include/avr/wdt.h ****    Redistribution and use in source and binary forms, with or without
   6:/usr/lib/avr/include/avr/wdt.h ****    modification, are permitted provided that the following conditions are met:
   7:/usr/lib/avr/include/avr/wdt.h **** 
   8:/usr/lib/avr/include/avr/wdt.h ****    * Redistributions of source code must retain the above copyright
   9:/usr/lib/avr/include/avr/wdt.h ****      notice, this list of conditions and the following disclaimer.
  10:/usr/lib/avr/include/avr/wdt.h **** 
  11:/usr/lib/avr/include/avr/wdt.h ****    * Redistributions in binary form must reproduce the above copyright
  12:/usr/lib/avr/include/avr/wdt.h ****      notice, this list of conditions and the following disclaimer in
  13:/usr/lib/avr/include/avr/wdt.h ****      the documentation and/or other materials provided with the
  14:/usr/lib/avr/include/avr/wdt.h ****      distribution.
  15:/usr/lib/avr/include/avr/wdt.h **** 
  16:/usr/lib/avr/include/avr/wdt.h ****    * Neither the name of the copyright holders nor the names of
  17:/usr/lib/avr/include/avr/wdt.h ****      contributors may be used to endorse or promote products derived
  18:/usr/lib/avr/include/avr/wdt.h ****      from this software without specific prior written permission.
  19:/usr/lib/avr/include/avr/wdt.h **** 
  20:/usr/lib/avr/include/avr/wdt.h ****   THIS SOFTWARE IS PROVIDED BY THE COPYRIGHT HOLDERS AND CONTRIBUTORS "AS IS"
  21:/usr/lib/avr/include/avr/wdt.h ****   AND ANY EXPRESS OR IMPLIED WARRANTIES, INCLUDING, BUT NOT LIMITED TO, THE
  22:/usr/lib/avr/include/avr/wdt.h ****   IMPLIED WARRANTIES OF MERCHANTABILITY AND FITNESS FOR A PARTICULAR PURPOSE
  23:/usr/lib/avr/include/avr/wdt.h ****   ARE DISCLAIMED. IN NO EVENT SHALL THE COPYRIGHT OWNER OR CONTRIBUTORS BE
  24:/usr/lib/avr/include/avr/wdt.h ****   LIABLE FOR ANY DIRECT, INDIRECT, INCIDENTAL, SPECIAL, EXEMPLARY, OR
  25:/usr/lib/avr/include/avr/wdt.h ****   CONSEQUENTIAL DAMAGES (INCLUDING, BUT NOT LIMITED TO, PROCUREMENT OF
  26:/usr/lib/avr/include/avr/wdt.h ****   SUBSTITUTE GOODS OR SERVICES; LOSS OF USE, DATA, OR PROFITS; OR BUSINESS
  27:/usr/lib/avr/include/avr/wdt.h ****   INTERRUPTION) HOWEVER CAUSED AND ON ANY THEORY OF LIABILITY, WHETHER IN
  28:/usr/lib/avr/include/avr/wdt.h ****   CONTRACT, STRICT LIABILITY, OR TORT (INCLUDING NEGLIGENCE OR OTHERWISE)
  29:/usr/lib/avr/include/avr/wdt.h ****   ARISING IN ANY WAY OUT OF THE USE OF THIS SOFTWARE, EVEN IF ADVISED OF THE
  30:/usr/lib/avr/include/avr/wdt.h ****   POSSIBILITY OF SUCH DAMAGE. */
  31:/usr/lib/avr/include/avr/wdt.h **** 
  32:/usr/lib/avr/include/avr/wdt.h **** /* $Id$ */
  33:/usr/lib/avr/include/avr/wdt.h **** 
  34:/usr/lib/avr/include/avr/wdt.h **** /*
  35:/usr/lib/avr/include/avr/wdt.h ****    avr/wdt.h - macros for AVR watchdog timer
  36:/usr/lib/avr/include/avr/wdt.h ****  */
  37:/usr/lib/avr/include/avr/wdt.h **** 
  38:/usr/lib/avr/include/avr/wdt.h **** #ifndef _AVR_WDT_H_
  39:/usr/lib/avr/include/avr/wdt.h **** #define _AVR_WDT_H_
  40:/usr/lib/avr/include/avr/wdt.h **** 
  41:/usr/lib/avr/include/avr/wdt.h **** #include <avr/io.h>
  42:/usr/lib/avr/include/avr/wdt.h **** #include <stdint.h>
  43:/usr/lib/avr/include/avr/wdt.h **** 
  44:/usr/lib/avr/include/avr/wdt.h **** /** \file */
  45:/usr/lib/avr/include/avr/wdt.h **** /** \defgroup avr_watchdog <avr/wdt.h>: Watchdog timer handling
  46:/usr/lib/avr/include/avr/wdt.h ****     \code #include <avr/wdt.h> \endcode
  47:/usr/lib/avr/include/avr/wdt.h **** 
  48:/usr/lib/avr/include/avr/wdt.h ****     This header file declares the interface to some inline macros
  49:/usr/lib/avr/include/avr/wdt.h ****     handling the watchdog timer present in many AVR devices.  In order
  50:/usr/lib/avr/include/avr/wdt.h ****     to prevent the watchdog timer configuration from being
  51:/usr/lib/avr/include/avr/wdt.h ****     accidentally altered by a crashing application, a special timed
  52:/usr/lib/avr/include/avr/wdt.h ****     sequence is required in order to change it.  The macros within
  53:/usr/lib/avr/include/avr/wdt.h ****     this header file handle the required sequence automatically
  54:/usr/lib/avr/include/avr/wdt.h ****     before changing any value.  Interrupts will be disabled during
  55:/usr/lib/avr/include/avr/wdt.h ****     the manipulation.
  56:/usr/lib/avr/include/avr/wdt.h **** 
  57:/usr/lib/avr/include/avr/wdt.h ****     \note Depending on the fuse configuration of the particular
  58:/usr/lib/avr/include/avr/wdt.h ****     device, further restrictions might apply, in particular it might
  59:/usr/lib/avr/include/avr/wdt.h ****     be disallowed to turn off the watchdog timer.
  60:/usr/lib/avr/include/avr/wdt.h **** 
  61:/usr/lib/avr/include/avr/wdt.h ****     Note that for newer devices (ATmega88 and newer, effectively any
  62:/usr/lib/avr/include/avr/wdt.h ****     AVR that has the option to also generate interrupts), the watchdog
  63:/usr/lib/avr/include/avr/wdt.h ****     timer remains active even after a system reset (except a power-on
  64:/usr/lib/avr/include/avr/wdt.h ****     condition), using the fastest prescaler value (approximately 15
  65:/usr/lib/avr/include/avr/wdt.h ****     ms).  It is therefore required to turn off the watchdog early
  66:/usr/lib/avr/include/avr/wdt.h ****     during program startup, the datasheet recommends a sequence like
  67:/usr/lib/avr/include/avr/wdt.h ****     the following:
  68:/usr/lib/avr/include/avr/wdt.h **** 
  69:/usr/lib/avr/include/avr/wdt.h ****     \code
  70:/usr/lib/avr/include/avr/wdt.h ****     #include <stdint.h>
  71:/usr/lib/avr/include/avr/wdt.h ****     #include <avr/wdt.h>
  72:/usr/lib/avr/include/avr/wdt.h **** 
  73:/usr/lib/avr/include/avr/wdt.h ****     uint8_t mcusr_mirror __attribute__ ((section (".noinit")));
  74:/usr/lib/avr/include/avr/wdt.h **** 
  75:/usr/lib/avr/include/avr/wdt.h ****     void get_mcusr(void) \
  76:/usr/lib/avr/include/avr/wdt.h ****       __attribute__((naked)) \
  77:/usr/lib/avr/include/avr/wdt.h ****       __attribute__((section(".init3")));
  78:/usr/lib/avr/include/avr/wdt.h ****     void get_mcusr(void)
  79:/usr/lib/avr/include/avr/wdt.h ****     {
  80:/usr/lib/avr/include/avr/wdt.h ****       mcusr_mirror = MCUSR;
  81:/usr/lib/avr/include/avr/wdt.h ****       MCUSR = 0;
  82:/usr/lib/avr/include/avr/wdt.h ****       wdt_disable();
  83:/usr/lib/avr/include/avr/wdt.h ****     }
  84:/usr/lib/avr/include/avr/wdt.h ****     \endcode
  85:/usr/lib/avr/include/avr/wdt.h **** 
  86:/usr/lib/avr/include/avr/wdt.h ****     Saving the value of MCUSR in \c mcusr_mirror is only needed if the
  87:/usr/lib/avr/include/avr/wdt.h ****     application later wants to examine the reset source, but in particular, 
  88:/usr/lib/avr/include/avr/wdt.h ****     clearing the watchdog reset flag before disabling the
  89:/usr/lib/avr/include/avr/wdt.h ****     watchdog is required, according to the datasheet.
  90:/usr/lib/avr/include/avr/wdt.h **** */
  91:/usr/lib/avr/include/avr/wdt.h **** 
  92:/usr/lib/avr/include/avr/wdt.h **** /**
  93:/usr/lib/avr/include/avr/wdt.h ****    \ingroup avr_watchdog
  94:/usr/lib/avr/include/avr/wdt.h ****    Reset the watchdog timer.  When the watchdog timer is enabled,
  95:/usr/lib/avr/include/avr/wdt.h ****    a call to this instruction is required before the timer expires,
  96:/usr/lib/avr/include/avr/wdt.h ****    otherwise a watchdog-initiated device reset will occur. 
  97:/usr/lib/avr/include/avr/wdt.h **** */
  98:/usr/lib/avr/include/avr/wdt.h **** 
  99:/usr/lib/avr/include/avr/wdt.h **** #define wdt_reset() __asm__ __volatile__ ("wdr")
 100:/usr/lib/avr/include/avr/wdt.h **** 
 101:/usr/lib/avr/include/avr/wdt.h **** 
 102:/usr/lib/avr/include/avr/wdt.h **** #if defined(WDP3)
 103:/usr/lib/avr/include/avr/wdt.h **** # define _WD_PS3_MASK       _BV(WDP3)
 104:/usr/lib/avr/include/avr/wdt.h **** #else
 105:/usr/lib/avr/include/avr/wdt.h **** # define _WD_PS3_MASK       0x00
 106:/usr/lib/avr/include/avr/wdt.h **** #endif
 107:/usr/lib/avr/include/avr/wdt.h **** 
 108:/usr/lib/avr/include/avr/wdt.h **** #if defined(WDTCSR)
 109:/usr/lib/avr/include/avr/wdt.h **** #  define _WD_CONTROL_REG     WDTCSR
 110:/usr/lib/avr/include/avr/wdt.h **** #elif defined(WDTCR)
 111:/usr/lib/avr/include/avr/wdt.h **** #  define _WD_CONTROL_REG     WDTCR
 112:/usr/lib/avr/include/avr/wdt.h **** #else
 113:/usr/lib/avr/include/avr/wdt.h **** #  define _WD_CONTROL_REG     WDT
 114:/usr/lib/avr/include/avr/wdt.h **** #endif
 115:/usr/lib/avr/include/avr/wdt.h **** 
 116:/usr/lib/avr/include/avr/wdt.h **** #if defined(WDTOE)
 117:/usr/lib/avr/include/avr/wdt.h **** #define _WD_CHANGE_BIT      WDTOE
 118:/usr/lib/avr/include/avr/wdt.h **** #else
 119:/usr/lib/avr/include/avr/wdt.h **** #define _WD_CHANGE_BIT      WDCE
 120:/usr/lib/avr/include/avr/wdt.h **** #endif
 121:/usr/lib/avr/include/avr/wdt.h **** 
 122:/usr/lib/avr/include/avr/wdt.h **** 
 123:/usr/lib/avr/include/avr/wdt.h **** /**
 124:/usr/lib/avr/include/avr/wdt.h ****    \ingroup avr_watchdog
 125:/usr/lib/avr/include/avr/wdt.h ****    Enable the watchdog timer, configuring it for expiry after
 126:/usr/lib/avr/include/avr/wdt.h ****    \c timeout (which is a combination of the \c WDP0 through
 127:/usr/lib/avr/include/avr/wdt.h ****    \c WDP2 bits to write into the \c WDTCR register; For those devices 
 128:/usr/lib/avr/include/avr/wdt.h ****    that have a \c WDTCSR register, it uses the combination of the \c WDP0 
 129:/usr/lib/avr/include/avr/wdt.h ****    through \c WDP3 bits).
 130:/usr/lib/avr/include/avr/wdt.h **** 
 131:/usr/lib/avr/include/avr/wdt.h ****    See also the symbolic constants \c WDTO_15MS et al.
 132:/usr/lib/avr/include/avr/wdt.h **** */
 133:/usr/lib/avr/include/avr/wdt.h **** 
 134:/usr/lib/avr/include/avr/wdt.h **** 
 135:/usr/lib/avr/include/avr/wdt.h **** #if defined(__AVR_XMEGA__)
 136:/usr/lib/avr/include/avr/wdt.h **** 
 137:/usr/lib/avr/include/avr/wdt.h **** /*
 138:/usr/lib/avr/include/avr/wdt.h ****    wdt_enable(timeout) for xmega devices
 139:/usr/lib/avr/include/avr/wdt.h **** ** write signature (CCP_IOREG_gc) that enables change of protected I/O
 140:/usr/lib/avr/include/avr/wdt.h ****    registers to the CCP register
 141:/usr/lib/avr/include/avr/wdt.h **** ** At the same time,
 142:/usr/lib/avr/include/avr/wdt.h ****    1) set WDT change enable (WDT_CEN_bm)
 143:/usr/lib/avr/include/avr/wdt.h ****    2) enable WDT (WDT_ENABLE_bm)
 144:/usr/lib/avr/include/avr/wdt.h ****    3) set timeout (timeout)
 145:/usr/lib/avr/include/avr/wdt.h **** ** Synchronization starts when ENABLE bit of WDT is set. So, wait till it
 146:/usr/lib/avr/include/avr/wdt.h ****    finishes (SYNCBUSY of STATUS register is automatically cleared after the
 147:/usr/lib/avr/include/avr/wdt.h ****    sync is finished).
 148:/usr/lib/avr/include/avr/wdt.h **** */
 149:/usr/lib/avr/include/avr/wdt.h **** #define wdt_enable(timeout) \
 150:/usr/lib/avr/include/avr/wdt.h **** do { \
 151:/usr/lib/avr/include/avr/wdt.h **** uint8_t temp; \
 152:/usr/lib/avr/include/avr/wdt.h **** __asm__ __volatile__ (         \
 153:/usr/lib/avr/include/avr/wdt.h ****     "in __tmp_reg__, %[rampd]"              "\n\t" \
 154:/usr/lib/avr/include/avr/wdt.h ****     "out %[rampd], __zero_reg__"            "\n\t" \
 155:/usr/lib/avr/include/avr/wdt.h ****     "out %[ccp_reg], %[ioreg_cen_mask]"     "\n\t" \
 156:/usr/lib/avr/include/avr/wdt.h ****     "sts %[wdt_reg], %[wdt_enable_timeout]" "\n\t" \
 157:/usr/lib/avr/include/avr/wdt.h ****     "1:lds %[tmp], %[wdt_status_reg]"       "\n\t" \
 158:/usr/lib/avr/include/avr/wdt.h ****     "sbrc %[tmp], %[wdt_syncbusy_bit]"      "\n\t" \
 159:/usr/lib/avr/include/avr/wdt.h ****     "rjmp 1b"                               "\n\t" \
 160:/usr/lib/avr/include/avr/wdt.h ****     "out %[rampd], __tmp_reg__"             "\n\t" \
 161:/usr/lib/avr/include/avr/wdt.h ****     : [tmp]                "=r" (temp) \
 162:/usr/lib/avr/include/avr/wdt.h ****     : [rampd]              "I" (_SFR_IO_ADDR(RAMPD)),      \
 163:/usr/lib/avr/include/avr/wdt.h ****       [ccp_reg]            "I" (_SFR_IO_ADDR(CCP)),        \
 164:/usr/lib/avr/include/avr/wdt.h ****       [ioreg_cen_mask]     "r" ((uint8_t)CCP_IOREG_gc),     \
 165:/usr/lib/avr/include/avr/wdt.h ****       [wdt_reg]            "n" (_SFR_MEM_ADDR(WDT_CTRL)),   \
 166:/usr/lib/avr/include/avr/wdt.h ****       [wdt_enable_timeout] "r" ((uint8_t)(WDT_CEN_bm | WDT_ENABLE_bm | timeout)), \
 167:/usr/lib/avr/include/avr/wdt.h ****       [wdt_status_reg]     "n" (_SFR_MEM_ADDR(WDT_STATUS)), \
 168:/usr/lib/avr/include/avr/wdt.h ****       [wdt_syncbusy_bit]   "I" (WDT_SYNCBUSY_bm)            \
 169:/usr/lib/avr/include/avr/wdt.h ****     : "r0" \
 170:/usr/lib/avr/include/avr/wdt.h **** ); \
 171:/usr/lib/avr/include/avr/wdt.h **** } while(0)
 172:/usr/lib/avr/include/avr/wdt.h **** 
 173:/usr/lib/avr/include/avr/wdt.h **** #define wdt_disable() \
 174:/usr/lib/avr/include/avr/wdt.h **** __asm__ __volatile__ (  \
 175:/usr/lib/avr/include/avr/wdt.h ****     "in __tmp_reg__, %[rampd]"          "\n\t" \
 176:/usr/lib/avr/include/avr/wdt.h ****     "out %[rampd], __zero_reg__"        "\n\t" \
 177:/usr/lib/avr/include/avr/wdt.h ****     "out %[ccp_reg], %[ioreg_cen_mask]" "\n\t" \
 178:/usr/lib/avr/include/avr/wdt.h ****     "sts %[wdt_reg], %[disable_mask]"   "\n\t" \
 179:/usr/lib/avr/include/avr/wdt.h ****     "out %[rampd], __tmp_reg__"         "\n\t" \
 180:/usr/lib/avr/include/avr/wdt.h ****     : \
 181:/usr/lib/avr/include/avr/wdt.h ****     : [rampd]             "I" (_SFR_IO_ADDR(RAMPD)),    \
 182:/usr/lib/avr/include/avr/wdt.h ****       [ccp_reg]           "I" (_SFR_IO_ADDR(CCP)),      \
 183:/usr/lib/avr/include/avr/wdt.h ****       [ioreg_cen_mask]    "r" ((uint8_t)CCP_IOREG_gc),   \
 184:/usr/lib/avr/include/avr/wdt.h ****       [wdt_reg]           "n" (_SFR_MEM_ADDR(WDT_CTRL)), \
 185:/usr/lib/avr/include/avr/wdt.h ****       [disable_mask]      "r" ((uint8_t)((~WDT_ENABLE_bm) | WDT_CEN_bm)) \
 186:/usr/lib/avr/include/avr/wdt.h ****     : "r0" \
 187:/usr/lib/avr/include/avr/wdt.h **** );
 188:/usr/lib/avr/include/avr/wdt.h **** 
 189:/usr/lib/avr/include/avr/wdt.h **** #elif defined(__AVR_TINY__)
 190:/usr/lib/avr/include/avr/wdt.h **** 
 191:/usr/lib/avr/include/avr/wdt.h **** #define wdt_enable(value) \
 192:/usr/lib/avr/include/avr/wdt.h **** __asm__ __volatile__ ( \
 193:/usr/lib/avr/include/avr/wdt.h ****     "in __tmp_reg__,__SREG__" "\n\t"  \
 194:/usr/lib/avr/include/avr/wdt.h ****     "cli" "\n\t"  \
 195:/usr/lib/avr/include/avr/wdt.h ****     "wdr" "\n\t"  \
 196:/usr/lib/avr/include/avr/wdt.h ****     "out %[CCPADDRESS],%[SIGNATURE]" "\n\t"  \
 197:/usr/lib/avr/include/avr/wdt.h ****     "out %[WDTREG],%[WDVALUE]" "\n\t"  \
 198:/usr/lib/avr/include/avr/wdt.h ****     "out __SREG__,__tmp_reg__" "\n\t"  \
 199:/usr/lib/avr/include/avr/wdt.h ****     : /* no outputs */  \
 200:/usr/lib/avr/include/avr/wdt.h ****     : [CCPADDRESS] "I" (_SFR_IO_ADDR(CCP)),  \
 201:/usr/lib/avr/include/avr/wdt.h ****       [SIGNATURE] "r" ((uint8_t)0xD8), \
 202:/usr/lib/avr/include/avr/wdt.h ****       [WDTREG] "I" (_SFR_IO_ADDR(_WD_CONTROL_REG)), \
 203:/usr/lib/avr/include/avr/wdt.h ****       [WDVALUE] "r" ((uint8_t)((value & 0x08 ? _WD_PS3_MASK : 0x00) \
 204:/usr/lib/avr/include/avr/wdt.h ****       | _BV(WDE) | (value & 0x07) )) \
 205:/usr/lib/avr/include/avr/wdt.h ****     : "r16" \
 206:/usr/lib/avr/include/avr/wdt.h **** )
 207:/usr/lib/avr/include/avr/wdt.h **** 
 208:/usr/lib/avr/include/avr/wdt.h **** #define wdt_disable() \
 209:/usr/lib/avr/include/avr/wdt.h **** do { \
 210:/usr/lib/avr/include/avr/wdt.h **** uint8_t temp_wd; \
 211:/usr/lib/avr/include/avr/wdt.h **** __asm__ __volatile__ ( \
 212:/usr/lib/avr/include/avr/wdt.h ****     "in __tmp_reg__,__SREG__" "\n\t"  \
 213:/usr/lib/avr/include/avr/wdt.h ****     "cli" "\n\t"  \
 214:/usr/lib/avr/include/avr/wdt.h ****     "wdr" "\n\t"  \
 215:/usr/lib/avr/include/avr/wdt.h ****     "out %[CCPADDRESS],%[SIGNATURE]" "\n\t"  \
 216:/usr/lib/avr/include/avr/wdt.h ****     "in  %[TEMP_WD],%[WDTREG]" "\n\t" \
 217:/usr/lib/avr/include/avr/wdt.h ****     "cbr %[TEMP_WD],%[WDVALUE]" "\n\t" \
 218:/usr/lib/avr/include/avr/wdt.h ****     "out %[WDTREG],%[TEMP_WD]" "\n\t" \
 219:/usr/lib/avr/include/avr/wdt.h ****     "out __SREG__,__tmp_reg__" "\n\t" \
 220:/usr/lib/avr/include/avr/wdt.h ****     : /*no output */ \
 221:/usr/lib/avr/include/avr/wdt.h ****     : [CCPADDRESS] "I" (_SFR_IO_ADDR(CCP)), \
 222:/usr/lib/avr/include/avr/wdt.h ****       [SIGNATURE] "r" ((uint8_t)0xD8), \
 223:/usr/lib/avr/include/avr/wdt.h ****       [WDTREG] "I" (_SFR_IO_ADDR(_WD_CONTROL_REG)), \
 224:/usr/lib/avr/include/avr/wdt.h ****       [TEMP_WD] "d" (temp_wd), \
 225:/usr/lib/avr/include/avr/wdt.h ****       [WDVALUE] "n" (1 << WDE) \
 226:/usr/lib/avr/include/avr/wdt.h ****     : "r16" \
 227:/usr/lib/avr/include/avr/wdt.h **** ); \
 228:/usr/lib/avr/include/avr/wdt.h **** }while(0)
 229:/usr/lib/avr/include/avr/wdt.h **** 
 230:/usr/lib/avr/include/avr/wdt.h **** #elif defined(CCP)
 231:/usr/lib/avr/include/avr/wdt.h **** 
 232:/usr/lib/avr/include/avr/wdt.h **** static __inline__
 233:/usr/lib/avr/include/avr/wdt.h **** __attribute__ ((__always_inline__))
 234:/usr/lib/avr/include/avr/wdt.h **** void wdt_enable (const uint8_t value)
 235:/usr/lib/avr/include/avr/wdt.h **** {
 236:/usr/lib/avr/include/avr/wdt.h **** 	if (!_SFR_IO_REG_P (CCP) && !_SFR_IO_REG_P (_WD_CONTROL_REG))
 237:/usr/lib/avr/include/avr/wdt.h **** 	{
 238:/usr/lib/avr/include/avr/wdt.h **** 		__asm__ __volatile__ (
 239:/usr/lib/avr/include/avr/wdt.h **** 			"in __tmp_reg__,__SREG__" "\n\t"
 240:/usr/lib/avr/include/avr/wdt.h **** 			"cli" "\n\t"
 241:/usr/lib/avr/include/avr/wdt.h **** 			"wdr" "\n\t"
 242:/usr/lib/avr/include/avr/wdt.h **** 			"sts %[CCPADDRESS],%[SIGNATURE]" "\n\t"
 243:/usr/lib/avr/include/avr/wdt.h **** 			"sts %[WDTREG],%[WDVALUE]" "\n\t"
 244:/usr/lib/avr/include/avr/wdt.h **** 			"out __SREG__,__tmp_reg__" "\n\t"
 245:/usr/lib/avr/include/avr/wdt.h **** 			: /* no outputs */
 246:/usr/lib/avr/include/avr/wdt.h **** 			: [CCPADDRESS] "n" (_SFR_MEM_ADDR(CCP)),
 247:/usr/lib/avr/include/avr/wdt.h **** 			[SIGNATURE] "r" ((uint8_t)0xD8),
 248:/usr/lib/avr/include/avr/wdt.h **** 			[WDTREG] "n" (_SFR_MEM_ADDR(_WD_CONTROL_REG)),
 249:/usr/lib/avr/include/avr/wdt.h **** 			[WDVALUE] "r" ((uint8_t)((value & 0x08 ? _WD_PS3_MASK : 0x00)
 250:/usr/lib/avr/include/avr/wdt.h **** 				| _BV(WDE) | (value & 0x07) ))
 251:/usr/lib/avr/include/avr/wdt.h **** 			: "r0"
 252:/usr/lib/avr/include/avr/wdt.h **** 			);
 253:/usr/lib/avr/include/avr/wdt.h **** 	}
 254:/usr/lib/avr/include/avr/wdt.h **** 	else if (!_SFR_IO_REG_P (CCP) && _SFR_IO_REG_P (_WD_CONTROL_REG))
 255:/usr/lib/avr/include/avr/wdt.h **** 	{
 256:/usr/lib/avr/include/avr/wdt.h **** 		__asm__ __volatile__ (
 257:/usr/lib/avr/include/avr/wdt.h **** 			"in __tmp_reg__,__SREG__" "\n\t"
 258:/usr/lib/avr/include/avr/wdt.h **** 			"cli" "\n\t"
 259:/usr/lib/avr/include/avr/wdt.h **** 			"wdr" "\n\t"
 260:/usr/lib/avr/include/avr/wdt.h **** 			"sts %[CCPADDRESS],%[SIGNATURE]" "\n\t"
 261:/usr/lib/avr/include/avr/wdt.h **** 			"out %[WDTREG],%[WDVALUE]" "\n\t"
 262:/usr/lib/avr/include/avr/wdt.h **** 			"out __SREG__,__tmp_reg__" "\n\t"
 263:/usr/lib/avr/include/avr/wdt.h **** 			: /* no outputs */
 264:/usr/lib/avr/include/avr/wdt.h **** 			: [CCPADDRESS] "n" (_SFR_MEM_ADDR(CCP)),
 265:/usr/lib/avr/include/avr/wdt.h **** 			[SIGNATURE] "r" ((uint8_t)0xD8),
 266:/usr/lib/avr/include/avr/wdt.h **** 			[WDTREG] "I" (_SFR_IO_ADDR(_WD_CONTROL_REG)),
 267:/usr/lib/avr/include/avr/wdt.h **** 			[WDVALUE] "r" ((uint8_t)((value & 0x08 ? _WD_PS3_MASK : 0x00)
 268:/usr/lib/avr/include/avr/wdt.h **** 				| _BV(WDE) | (value & 0x07) ))
 269:/usr/lib/avr/include/avr/wdt.h **** 			: "r0"
 270:/usr/lib/avr/include/avr/wdt.h **** 			);
 271:/usr/lib/avr/include/avr/wdt.h **** 	}
 272:/usr/lib/avr/include/avr/wdt.h **** 	else if (_SFR_IO_REG_P (CCP) && !_SFR_IO_REG_P (_WD_CONTROL_REG))
 273:/usr/lib/avr/include/avr/wdt.h **** 	{
 274:/usr/lib/avr/include/avr/wdt.h **** 		__asm__ __volatile__ (
 275:/usr/lib/avr/include/avr/wdt.h **** 			"in __tmp_reg__,__SREG__" "\n\t"
 276:/usr/lib/avr/include/avr/wdt.h **** 			"cli" "\n\t"
 277:/usr/lib/avr/include/avr/wdt.h **** 			"wdr" "\n\t"
 278:/usr/lib/avr/include/avr/wdt.h **** 			"out %[CCPADDRESS],%[SIGNATURE]" "\n\t"
 279:/usr/lib/avr/include/avr/wdt.h **** 			"sts %[WDTREG],%[WDVALUE]" "\n\t"
 280:/usr/lib/avr/include/avr/wdt.h **** 			"out __SREG__,__tmp_reg__" "\n\t"
 281:/usr/lib/avr/include/avr/wdt.h **** 			: /* no outputs */
 282:/usr/lib/avr/include/avr/wdt.h **** 			: [CCPADDRESS] "I" (_SFR_IO_ADDR(CCP)),
 283:/usr/lib/avr/include/avr/wdt.h **** 			[SIGNATURE] "r" ((uint8_t)0xD8),
 284:/usr/lib/avr/include/avr/wdt.h **** 			[WDTREG] "n" (_SFR_MEM_ADDR(_WD_CONTROL_REG)),
 285:/usr/lib/avr/include/avr/wdt.h **** 			[WDVALUE] "r" ((uint8_t)((value & 0x08 ? _WD_PS3_MASK : 0x00)
 286:/usr/lib/avr/include/avr/wdt.h **** 				| _BV(WDE) | (value & 0x07) ))
 287:/usr/lib/avr/include/avr/wdt.h **** 			: "r0"
 288:/usr/lib/avr/include/avr/wdt.h **** 			);
 289:/usr/lib/avr/include/avr/wdt.h **** 	}
 290:/usr/lib/avr/include/avr/wdt.h **** 	else
 291:/usr/lib/avr/include/avr/wdt.h ****  	{
 292:/usr/lib/avr/include/avr/wdt.h **** 		__asm__ __volatile__ (
 293:/usr/lib/avr/include/avr/wdt.h **** 			"in __tmp_reg__,__SREG__" "\n\t"
 294:/usr/lib/avr/include/avr/wdt.h **** 			"cli" "\n\t"
 295:/usr/lib/avr/include/avr/wdt.h **** 			"wdr" "\n\t"
 296:/usr/lib/avr/include/avr/wdt.h **** 			"out %[CCPADDRESS],%[SIGNATURE]" "\n\t"
 297:/usr/lib/avr/include/avr/wdt.h **** 			"out %[WDTREG],%[WDVALUE]" "\n\t"
 298:/usr/lib/avr/include/avr/wdt.h **** 			"out __SREG__,__tmp_reg__" "\n\t"
 299:/usr/lib/avr/include/avr/wdt.h **** 			: /* no outputs */
 300:/usr/lib/avr/include/avr/wdt.h **** 			: [CCPADDRESS] "I" (_SFR_IO_ADDR(CCP)),
 301:/usr/lib/avr/include/avr/wdt.h **** 			[SIGNATURE] "r" ((uint8_t)0xD8),
 302:/usr/lib/avr/include/avr/wdt.h **** 			[WDTREG] "I" (_SFR_IO_ADDR(_WD_CONTROL_REG)),
 303:/usr/lib/avr/include/avr/wdt.h **** 			[WDVALUE] "r" ((uint8_t)((value & 0x08 ? _WD_PS3_MASK : 0x00)
 304:/usr/lib/avr/include/avr/wdt.h **** 				| _BV(WDE) | (value & 0x07) ))
 305:/usr/lib/avr/include/avr/wdt.h **** 			: "r0"
 306:/usr/lib/avr/include/avr/wdt.h **** 			);
 307:/usr/lib/avr/include/avr/wdt.h **** 	}
 308:/usr/lib/avr/include/avr/wdt.h **** }
 309:/usr/lib/avr/include/avr/wdt.h **** 
 310:/usr/lib/avr/include/avr/wdt.h **** static __inline__
 311:/usr/lib/avr/include/avr/wdt.h **** __attribute__ ((__always_inline__))
 312:/usr/lib/avr/include/avr/wdt.h **** void wdt_disable (void)
 313:/usr/lib/avr/include/avr/wdt.h **** {
 314:/usr/lib/avr/include/avr/wdt.h **** 	if (!_SFR_IO_REG_P (CCP) && !_SFR_IO_REG_P(_WD_CONTROL_REG))
 315:/usr/lib/avr/include/avr/wdt.h **** 	{
 316:/usr/lib/avr/include/avr/wdt.h ****         uint8_t temp_wd;
 317:/usr/lib/avr/include/avr/wdt.h ****         __asm__ __volatile__ (
 318:/usr/lib/avr/include/avr/wdt.h **** 				"in __tmp_reg__,__SREG__" "\n\t"
 319:/usr/lib/avr/include/avr/wdt.h **** 				"cli" "\n\t"
 320:/usr/lib/avr/include/avr/wdt.h **** 				"wdr" "\n\t"
 321:/usr/lib/avr/include/avr/wdt.h **** 				"sts %[CCPADDRESS],%[SIGNATURE]" "\n\t"
 322:/usr/lib/avr/include/avr/wdt.h **** 				"lds %[TEMP_WD],%[WDTREG]" "\n\t"
 323:/usr/lib/avr/include/avr/wdt.h **** 				"cbr %[TEMP_WD],%[WDVALUE]" "\n\t"
 324:/usr/lib/avr/include/avr/wdt.h **** 				"sts %[WDTREG],%[TEMP_WD]" "\n\t"
 325:/usr/lib/avr/include/avr/wdt.h **** 				"out __SREG__,__tmp_reg__" "\n\t"
 326:/usr/lib/avr/include/avr/wdt.h **** 				: /*no output */
 327:/usr/lib/avr/include/avr/wdt.h **** 				: [CCPADDRESS] "n" (_SFR_MEM_ADDR(CCP)),
 328:/usr/lib/avr/include/avr/wdt.h **** 				[SIGNATURE] "r" ((uint8_t)0xD8),
 329:/usr/lib/avr/include/avr/wdt.h **** 				[WDTREG] "n" (_SFR_MEM_ADDR(_WD_CONTROL_REG)),
 330:/usr/lib/avr/include/avr/wdt.h **** 				[TEMP_WD] "d" (temp_wd),
 331:/usr/lib/avr/include/avr/wdt.h **** 				[WDVALUE] "n" (1 << WDE)
 332:/usr/lib/avr/include/avr/wdt.h **** 				: "r0"
 333:/usr/lib/avr/include/avr/wdt.h **** 				);
 334:/usr/lib/avr/include/avr/wdt.h **** 	}
