   1               		.file	"twimaster.c"
   2               	__SP_H__ = 0x3e
   3               	__SP_L__ = 0x3d
   4               	__SREG__ = 0x3f
   5               	__tmp_reg__ = 0
   6               	__zero_reg__ = 1
   7               		.text
   8               	.Ltext0:
   9               		.cfi_sections	.debug_frame
  10               		.section	.text.i2c_init,"ax",@progbits
  11               	.global	i2c_init
  13               	i2c_init:
  14               	.LFB0:
  15               		.file 1 "keyboards/ergodox/ez/twimaster.c"
   1:keyboards/ergodox/ez/twimaster.c **** /*************************************************************************
   2:keyboards/ergodox/ez/twimaster.c **** * Title:    I2C master library using hardware TWI interface
   3:keyboards/ergodox/ez/twimaster.c **** * Author:   Peter Fleury <pfleury@gmx.ch>  http://jump.to/fleury
   4:keyboards/ergodox/ez/twimaster.c **** * File:     $Id: twimaster.c,v 1.3 2005/07/02 11:14:21 Peter Exp $
   5:keyboards/ergodox/ez/twimaster.c **** * Software: AVR-GCC 3.4.3 / avr-libc 1.2.3
   6:keyboards/ergodox/ez/twimaster.c **** * Target:   any AVR device with hardware TWI 
   7:keyboards/ergodox/ez/twimaster.c **** * Usage:    API compatible with I2C Software Library i2cmaster.h
   8:keyboards/ergodox/ez/twimaster.c **** **************************************************************************/
   9:keyboards/ergodox/ez/twimaster.c **** #include <inttypes.h>
  10:keyboards/ergodox/ez/twimaster.c **** #include <compat/twi.h>
  11:keyboards/ergodox/ez/twimaster.c **** 
  12:keyboards/ergodox/ez/twimaster.c **** #include <i2cmaster.h>
  13:keyboards/ergodox/ez/twimaster.c **** 
  14:keyboards/ergodox/ez/twimaster.c **** 
  15:keyboards/ergodox/ez/twimaster.c **** /* define CPU frequency in Mhz here if not defined in Makefile */
  16:keyboards/ergodox/ez/twimaster.c **** #ifndef F_CPU
  17:keyboards/ergodox/ez/twimaster.c **** #define F_CPU 16000000UL
  18:keyboards/ergodox/ez/twimaster.c **** #endif
  19:keyboards/ergodox/ez/twimaster.c **** 
  20:keyboards/ergodox/ez/twimaster.c **** /* I2C clock in Hz */
  21:keyboards/ergodox/ez/twimaster.c **** #define SCL_CLOCK  400000L
  22:keyboards/ergodox/ez/twimaster.c **** 
  23:keyboards/ergodox/ez/twimaster.c **** 
  24:keyboards/ergodox/ez/twimaster.c **** /*************************************************************************
  25:keyboards/ergodox/ez/twimaster.c ****  Initialization of the I2C bus interface. Need to be called only once
  26:keyboards/ergodox/ez/twimaster.c **** *************************************************************************/
  27:keyboards/ergodox/ez/twimaster.c **** void i2c_init(void)
  28:keyboards/ergodox/ez/twimaster.c **** {
  16               		.loc 1 28 1 view -0
  17               		.cfi_startproc
  18               	/* prologue: function */
  19               	/* frame size = 0 */
  20               	/* stack size = 0 */
  21               	.L__stack_usage = 0
  29:keyboards/ergodox/ez/twimaster.c ****   /* initialize TWI clock
  30:keyboards/ergodox/ez/twimaster.c ****    * minimal values in Bit Rate Register (TWBR) and minimal Prescaler
  31:keyboards/ergodox/ez/twimaster.c ****    * bits in the TWI Status Register should give us maximal possible
  32:keyboards/ergodox/ez/twimaster.c ****    * I2C bus speed - about 444 kHz
  33:keyboards/ergodox/ez/twimaster.c ****    *
  34:keyboards/ergodox/ez/twimaster.c ****    * for more details, see 20.5.2 in ATmega16/32 secification
  35:keyboards/ergodox/ez/twimaster.c ****    */
  36:keyboards/ergodox/ez/twimaster.c ****   
  37:keyboards/ergodox/ez/twimaster.c ****   TWSR = 0;     /* no prescaler */
  22               		.loc 1 37 3 view .LVU1
  23               		.loc 1 37 8 is_stmt 0 view .LVU2
  24 0000 1092 B900 		sts 185,__zero_reg__
  38:keyboards/ergodox/ez/twimaster.c ****   TWBR = 10;    /* must be >= 10 for stable operation */
  25               		.loc 1 38 3 is_stmt 1 view .LVU3
  26               		.loc 1 38 8 is_stmt 0 view .LVU4
  27 0004 8AE0      		ldi r24,lo8(10)
  28 0006 8093 B800 		sts 184,r24
  29               	/* epilogue start */
  39:keyboards/ergodox/ez/twimaster.c **** 
  40:keyboards/ergodox/ez/twimaster.c **** }/* i2c_init */
  30               		.loc 1 40 1 view .LVU5
  31 000a 0895      		ret
  32               		.cfi_endproc
  33               	.LFE0:
  35               		.section	.text.i2c_start,"ax",@progbits
  36               	.global	i2c_start
  38               	i2c_start:
  39               	.LVL0:
  40               	.LFB1:
  41:keyboards/ergodox/ez/twimaster.c **** 
  42:keyboards/ergodox/ez/twimaster.c **** 
  43:keyboards/ergodox/ez/twimaster.c **** /*************************************************************************	
  44:keyboards/ergodox/ez/twimaster.c ****   Issues a start condition and sends address and transfer direction.
  45:keyboards/ergodox/ez/twimaster.c ****   return 0 = device accessible, 1= failed to access device
  46:keyboards/ergodox/ez/twimaster.c **** *************************************************************************/
  47:keyboards/ergodox/ez/twimaster.c **** unsigned char i2c_start(unsigned char address)
  48:keyboards/ergodox/ez/twimaster.c **** {
  41               		.loc 1 48 1 is_stmt 1 view -0
  42               		.cfi_startproc
  43               	/* prologue: function */
  44               	/* frame size = 0 */
  45               	/* stack size = 0 */
  46               	.L__stack_usage = 0
  49:keyboards/ergodox/ez/twimaster.c ****     uint8_t   twst;
  47               		.loc 1 49 5 view .LVU7
  50:keyboards/ergodox/ez/twimaster.c **** 
  51:keyboards/ergodox/ez/twimaster.c **** 	// send START condition
  52:keyboards/ergodox/ez/twimaster.c **** 	TWCR = (1<<TWINT) | (1<<TWSTA) | (1<<TWEN);
  48               		.loc 1 52 2 view .LVU8
  49               		.loc 1 52 7 is_stmt 0 view .LVU9
  50 0000 94EA      		ldi r25,lo8(-92)
  51 0002 9093 BC00 		sts 188,r25
  53:keyboards/ergodox/ez/twimaster.c **** 
  54:keyboards/ergodox/ez/twimaster.c **** 	// wait until transmission completed
  55:keyboards/ergodox/ez/twimaster.c **** 	while(!(TWCR & (1<<TWINT)));
  52               		.loc 1 55 2 is_stmt 1 view .LVU10
  53               	.L3:
  54               		.loc 1 55 29 discriminator 1 view .LVU11
  55               		.loc 1 55 10 is_stmt 0 discriminator 1 view .LVU12
  56 0006 9091 BC00 		lds r25,188
  57               		.loc 1 55 7 discriminator 1 view .LVU13
  58 000a 97FF      		sbrs r25,7
  59 000c 00C0      		rjmp .L3
  56:keyboards/ergodox/ez/twimaster.c **** 
  57:keyboards/ergodox/ez/twimaster.c **** 	// check value of TWI Status Register. Mask prescaler bits.
  58:keyboards/ergodox/ez/twimaster.c **** 	twst = TW_STATUS & 0xF8;
  60               		.loc 1 58 2 is_stmt 1 view .LVU14
  61               		.loc 1 58 19 is_stmt 0 view .LVU15
  62 000e 9091 B900 		lds r25,185
  63               		.loc 1 58 7 view .LVU16
  64 0012 987F      		andi r25,lo8(-8)
  65               	.LVL1:
  59:keyboards/ergodox/ez/twimaster.c **** 	if ( (twst != TW_START) && (twst != TW_REP_START)) return 1;
  66               		.loc 1 59 2 is_stmt 1 view .LVU17
  67               		.loc 1 59 5 is_stmt 0 view .LVU18
  68 0014 9830      		cpi r25,lo8(8)
  69 0016 01F0      		breq .L4
  70               		.loc 1 59 26 discriminator 1 view .LVU19
  71 0018 9031      		cpi r25,lo8(16)
  72 001a 01F4      		brne .L8
  73               	.L4:
  60:keyboards/ergodox/ez/twimaster.c **** 
  61:keyboards/ergodox/ez/twimaster.c **** 	// send device address
  62:keyboards/ergodox/ez/twimaster.c **** 	TWDR = address;
  74               		.loc 1 62 2 is_stmt 1 view .LVU20
  75               		.loc 1 62 7 is_stmt 0 view .LVU21
  76 001c 8093 BB00 		sts 187,r24
  63:keyboards/ergodox/ez/twimaster.c **** 	TWCR = (1<<TWINT) | (1<<TWEN);
  77               		.loc 1 63 2 is_stmt 1 view .LVU22
  78               		.loc 1 63 7 is_stmt 0 view .LVU23
  79 0020 84E8      		ldi r24,lo8(-124)
  80               	.LVL2:
  81               		.loc 1 63 7 view .LVU24
  82 0022 8093 BC00 		sts 188,r24
  83               	.LVL3:
  64:keyboards/ergodox/ez/twimaster.c **** 
  65:keyboards/ergodox/ez/twimaster.c **** 	// wail until transmission completed and ACK/NACK has been received
  66:keyboards/ergodox/ez/twimaster.c **** 	while(!(TWCR & (1<<TWINT)));
  84               		.loc 1 66 2 is_stmt 1 view .LVU25
  85               	.L6:
  86               		.loc 1 66 29 discriminator 1 view .LVU26
  87               		.loc 1 66 10 is_stmt 0 discriminator 1 view .LVU27
  88 0026 8091 BC00 		lds r24,188
  89               		.loc 1 66 7 discriminator 1 view .LVU28
  90 002a 87FF      		sbrs r24,7
  91 002c 00C0      		rjmp .L6
  67:keyboards/ergodox/ez/twimaster.c **** 
  68:keyboards/ergodox/ez/twimaster.c **** 	// check value of TWI Status Register. Mask prescaler bits.
  69:keyboards/ergodox/ez/twimaster.c **** 	twst = TW_STATUS & 0xF8;
  92               		.loc 1 69 2 is_stmt 1 view .LVU29
  93               		.loc 1 69 19 is_stmt 0 view .LVU30
  94 002e 9091 B900 		lds r25,185
  95               	.LVL4:
  96               		.loc 1 69 7 view .LVU31
  97 0032 987F      		andi r25,lo8(-8)
  98               	.LVL5:
  70:keyboards/ergodox/ez/twimaster.c **** 	if ( (twst != TW_MT_SLA_ACK) && (twst != TW_MR_SLA_ACK) ) return 1;
  99               		.loc 1 70 2 is_stmt 1 view .LVU32
 100               		.loc 1 70 5 is_stmt 0 view .LVU33
 101 0034 9831      		cpi r25,lo8(24)
 102 0036 01F0      		breq .L9
 103               		.loc 1 70 31 discriminator 1 view .LVU34
 104 0038 81E0      		ldi r24,lo8(1)
 105 003a 9034      		cpi r25,lo8(64)
 106 003c 01F4      		brne .L2
 107               	.L9:
  71:keyboards/ergodox/ez/twimaster.c **** 
  72:keyboards/ergodox/ez/twimaster.c **** 	return 0;
 108               		.loc 1 72 9 view .LVU35
 109 003e 80E0      		ldi r24,0
 110               	.L2:
 111               	/* epilogue start */
  73:keyboards/ergodox/ez/twimaster.c **** 
  74:keyboards/ergodox/ez/twimaster.c **** }/* i2c_start */
 112               		.loc 1 74 1 view .LVU36
 113 0040 0895      		ret
 114               	.LVL6:
 115               	.L8:
  59:keyboards/ergodox/ez/twimaster.c **** 
 116               		.loc 1 59 60 view .LVU37
 117 0042 81E0      		ldi r24,lo8(1)
 118               	.LVL7:
  59:keyboards/ergodox/ez/twimaster.c **** 
 119               		.loc 1 59 60 view .LVU38
 120 0044 0895      		ret
 121               		.cfi_endproc
 122               	.LFE1:
 124               		.section	.text.i2c_start_wait,"ax",@progbits
 125               	.global	i2c_start_wait
 127               	i2c_start_wait:
 128               	.LVL8:
 129               	.LFB2:
  75:keyboards/ergodox/ez/twimaster.c **** 
  76:keyboards/ergodox/ez/twimaster.c **** 
  77:keyboards/ergodox/ez/twimaster.c **** /*************************************************************************
  78:keyboards/ergodox/ez/twimaster.c ****  Issues a start condition and sends address and transfer direction.
  79:keyboards/ergodox/ez/twimaster.c ****  If device is busy, use ack polling to wait until device is ready
  80:keyboards/ergodox/ez/twimaster.c ****  
  81:keyboards/ergodox/ez/twimaster.c ****  Input:   address and transfer direction of I2C device
  82:keyboards/ergodox/ez/twimaster.c **** *************************************************************************/
  83:keyboards/ergodox/ez/twimaster.c **** void i2c_start_wait(unsigned char address)
  84:keyboards/ergodox/ez/twimaster.c **** {
 130               		.loc 1 84 1 is_stmt 1 view -0
 131               		.cfi_startproc
 132               	/* prologue: function */
 133               	/* frame size = 0 */
 134               	/* stack size = 0 */
 135               	.L__stack_usage = 0
  85:keyboards/ergodox/ez/twimaster.c ****     uint8_t   twst;
  86:keyboards/ergodox/ez/twimaster.c **** 
  87:keyboards/ergodox/ez/twimaster.c **** 
  88:keyboards/ergodox/ez/twimaster.c ****     while ( 1 )
  89:keyboards/ergodox/ez/twimaster.c ****     {
  90:keyboards/ergodox/ez/twimaster.c **** 	    // send START condition
  91:keyboards/ergodox/ez/twimaster.c **** 	    TWCR = (1<<TWINT) | (1<<TWSTA) | (1<<TWEN);
 136               		.loc 1 91 11 is_stmt 0 view .LVU40
 137 0000 24EA      		ldi r18,lo8(-92)
  92:keyboards/ergodox/ez/twimaster.c ****     
  93:keyboards/ergodox/ez/twimaster.c ****     	// wait until transmission completed
  94:keyboards/ergodox/ez/twimaster.c ****     	while(!(TWCR & (1<<TWINT)));
  95:keyboards/ergodox/ez/twimaster.c ****     
  96:keyboards/ergodox/ez/twimaster.c ****     	// check value of TWI Status Register. Mask prescaler bits.
  97:keyboards/ergodox/ez/twimaster.c ****     	twst = TW_STATUS & 0xF8;
  98:keyboards/ergodox/ez/twimaster.c ****     	if ( (twst != TW_START) && (twst != TW_REP_START)) continue;
  99:keyboards/ergodox/ez/twimaster.c ****     
 100:keyboards/ergodox/ez/twimaster.c ****     	// send device address
 101:keyboards/ergodox/ez/twimaster.c ****     	TWDR = address;
 102:keyboards/ergodox/ez/twimaster.c ****     	TWCR = (1<<TWINT) | (1<<TWEN);
 138               		.loc 1 102 11 view .LVU41
 139 0002 34E8      		ldi r19,lo8(-124)
 103:keyboards/ergodox/ez/twimaster.c ****     
 104:keyboards/ergodox/ez/twimaster.c ****     	// wail until transmission completed
 105:keyboards/ergodox/ez/twimaster.c ****     	while(!(TWCR & (1<<TWINT)));
 106:keyboards/ergodox/ez/twimaster.c ****     
 107:keyboards/ergodox/ez/twimaster.c ****     	// check value of TWI Status Register. Mask prescaler bits.
 108:keyboards/ergodox/ez/twimaster.c ****     	twst = TW_STATUS & 0xF8;
 109:keyboards/ergodox/ez/twimaster.c ****     	if ( (twst == TW_MT_SLA_NACK )||(twst ==TW_MR_DATA_NACK) ) 
 110:keyboards/ergodox/ez/twimaster.c ****     	{    	    
 111:keyboards/ergodox/ez/twimaster.c ****     	    /* device busy, send stop condition to terminate write operation */
 112:keyboards/ergodox/ez/twimaster.c **** 	        TWCR = (1<<TWINT) | (1<<TWEN) | (1<<TWSTO);
 140               		.loc 1 112 15 view .LVU42
 141 0004 44E9      		ldi r20,lo8(-108)
 142               	.L16:
  85:keyboards/ergodox/ez/twimaster.c **** 
 143               		.loc 1 85 5 is_stmt 1 view .LVU43
  88:keyboards/ergodox/ez/twimaster.c ****     {
 144               		.loc 1 88 5 view .LVU44
  91:keyboards/ergodox/ez/twimaster.c ****     
 145               		.loc 1 91 6 view .LVU45
  91:keyboards/ergodox/ez/twimaster.c ****     
 146               		.loc 1 91 11 is_stmt 0 view .LVU46
 147 0006 2093 BC00 		sts 188,r18
  94:keyboards/ergodox/ez/twimaster.c ****     
 148               		.loc 1 94 6 is_stmt 1 view .LVU47
 149               	.L17:
  94:keyboards/ergodox/ez/twimaster.c ****     
 150               		.loc 1 94 33 discriminator 1 view .LVU48
  94:keyboards/ergodox/ez/twimaster.c ****     
 151               		.loc 1 94 14 is_stmt 0 discriminator 1 view .LVU49
 152 000a 9091 BC00 		lds r25,188
  94:keyboards/ergodox/ez/twimaster.c ****     
 153               		.loc 1 94 11 discriminator 1 view .LVU50
 154 000e 97FF      		sbrs r25,7
 155 0010 00C0      		rjmp .L17
  97:keyboards/ergodox/ez/twimaster.c ****     	if ( (twst != TW_START) && (twst != TW_REP_START)) continue;
 156               		.loc 1 97 6 is_stmt 1 view .LVU51
  97:keyboards/ergodox/ez/twimaster.c ****     	if ( (twst != TW_START) && (twst != TW_REP_START)) continue;
 157               		.loc 1 97 23 is_stmt 0 view .LVU52
 158 0012 9091 B900 		lds r25,185
  97:keyboards/ergodox/ez/twimaster.c ****     	if ( (twst != TW_START) && (twst != TW_REP_START)) continue;
 159               		.loc 1 97 11 view .LVU53
 160 0016 987F      		andi r25,lo8(-8)
 161               	.LVL9:
  98:keyboards/ergodox/ez/twimaster.c ****     
 162               		.loc 1 98 6 is_stmt 1 view .LVU54
  98:keyboards/ergodox/ez/twimaster.c ****     
 163               		.loc 1 98 9 is_stmt 0 view .LVU55
 164 0018 9830      		cpi r25,lo8(8)
 165 001a 01F0      		breq .L18
  98:keyboards/ergodox/ez/twimaster.c ****     
 166               		.loc 1 98 30 discriminator 1 view .LVU56
 167 001c 9031      		cpi r25,lo8(16)
 168 001e 01F4      		brne .L16
 169               	.L18:
 101:keyboards/ergodox/ez/twimaster.c ****     	TWCR = (1<<TWINT) | (1<<TWEN);
 170               		.loc 1 101 6 is_stmt 1 view .LVU57
 101:keyboards/ergodox/ez/twimaster.c ****     	TWCR = (1<<TWINT) | (1<<TWEN);
 171               		.loc 1 101 11 is_stmt 0 view .LVU58
 172 0020 8093 BB00 		sts 187,r24
 102:keyboards/ergodox/ez/twimaster.c ****     
 173               		.loc 1 102 6 is_stmt 1 view .LVU59
 102:keyboards/ergodox/ez/twimaster.c ****     
 174               		.loc 1 102 11 is_stmt 0 view .LVU60
 175 0024 3093 BC00 		sts 188,r19
 105:keyboards/ergodox/ez/twimaster.c ****     
 176               		.loc 1 105 6 is_stmt 1 view .LVU61
 177               	.LVL10:
 178               	.L20:
 105:keyboards/ergodox/ez/twimaster.c ****     
 179               		.loc 1 105 33 discriminator 1 view .LVU62
 105:keyboards/ergodox/ez/twimaster.c ****     
 180               		.loc 1 105 14 is_stmt 0 discriminator 1 view .LVU63
 181 0028 9091 BC00 		lds r25,188
 105:keyboards/ergodox/ez/twimaster.c ****     
 182               		.loc 1 105 11 discriminator 1 view .LVU64
 183 002c 97FF      		sbrs r25,7
 184 002e 00C0      		rjmp .L20
 108:keyboards/ergodox/ez/twimaster.c ****     	if ( (twst == TW_MT_SLA_NACK )||(twst ==TW_MR_DATA_NACK) ) 
 185               		.loc 1 108 6 is_stmt 1 view .LVU65
 108:keyboards/ergodox/ez/twimaster.c ****     	if ( (twst == TW_MT_SLA_NACK )||(twst ==TW_MR_DATA_NACK) ) 
 186               		.loc 1 108 23 is_stmt 0 view .LVU66
 187 0030 9091 B900 		lds r25,185
 108:keyboards/ergodox/ez/twimaster.c ****     	if ( (twst == TW_MT_SLA_NACK )||(twst ==TW_MR_DATA_NACK) ) 
 188               		.loc 1 108 11 view .LVU67
 189 0034 987F      		andi r25,lo8(-8)
 190               	.LVL11:
 109:keyboards/ergodox/ez/twimaster.c ****     	{    	    
 191               		.loc 1 109 6 is_stmt 1 view .LVU68
 109:keyboards/ergodox/ez/twimaster.c ****     	{    	    
 192               		.loc 1 109 9 is_stmt 0 view .LVU69
 193 0036 9032      		cpi r25,lo8(32)
 194 0038 01F0      		breq .L21
 109:keyboards/ergodox/ez/twimaster.c ****     	{    	    
 195               		.loc 1 109 36 discriminator 1 view .LVU70
 196 003a 9835      		cpi r25,lo8(88)
 197 003c 01F4      		brne .L15
 198               	.L21:
 199               		.loc 1 112 10 is_stmt 1 view .LVU71
 200               		.loc 1 112 15 is_stmt 0 view .LVU72
 201 003e 4093 BC00 		sts 188,r20
 113:keyboards/ergodox/ez/twimaster.c **** 	        
 114:keyboards/ergodox/ez/twimaster.c **** 	        // wait until stop condition is executed and bus released
 115:keyboards/ergodox/ez/twimaster.c **** 	        while(TWCR & (1<<TWSTO));
 202               		.loc 1 115 10 is_stmt 1 view .LVU73
 203               	.LVL12:
 204               	.L23:
 205               		.loc 1 115 34 discriminator 1 view .LVU74
 206               		.loc 1 115 16 is_stmt 0 discriminator 1 view .LVU75
 207 0042 9091 BC00 		lds r25,188
 208               		.loc 1 115 15 discriminator 1 view .LVU76
 209 0046 94FD      		sbrc r25,4
 210 0048 00C0      		rjmp .L23
 211 004a 00C0      		rjmp .L16
 212               	.LVL13:
 213               	.L15:
 214               	/* epilogue start */
 116:keyboards/ergodox/ez/twimaster.c **** 	        
 117:keyboards/ergodox/ez/twimaster.c ****     	    continue;
 118:keyboards/ergodox/ez/twimaster.c ****     	}
 119:keyboards/ergodox/ez/twimaster.c ****     	//if( twst != TW_MT_SLA_ACK) return 1;
 120:keyboards/ergodox/ez/twimaster.c ****     	break;
 121:keyboards/ergodox/ez/twimaster.c ****      }
 122:keyboards/ergodox/ez/twimaster.c **** 
 123:keyboards/ergodox/ez/twimaster.c **** }/* i2c_start_wait */
 215               		.loc 1 123 1 view .LVU77
 216 004c 0895      		ret
 217               		.cfi_endproc
 218               	.LFE2:
 220               		.section	.text.i2c_rep_start,"ax",@progbits
 221               	.global	i2c_rep_start
 223               	i2c_rep_start:
 224               	.LVL14:
 225               	.LFB3:
 124:keyboards/ergodox/ez/twimaster.c **** 
 125:keyboards/ergodox/ez/twimaster.c **** 
 126:keyboards/ergodox/ez/twimaster.c **** /*************************************************************************
 127:keyboards/ergodox/ez/twimaster.c ****  Issues a repeated start condition and sends address and transfer direction 
 128:keyboards/ergodox/ez/twimaster.c **** 
 129:keyboards/ergodox/ez/twimaster.c ****  Input:   address and transfer direction of I2C device
 130:keyboards/ergodox/ez/twimaster.c ****  
 131:keyboards/ergodox/ez/twimaster.c ****  Return:  0 device accessible
 132:keyboards/ergodox/ez/twimaster.c ****           1 failed to access device
 133:keyboards/ergodox/ez/twimaster.c **** *************************************************************************/
 134:keyboards/ergodox/ez/twimaster.c **** unsigned char i2c_rep_start(unsigned char address)
 135:keyboards/ergodox/ez/twimaster.c **** {
 226               		.loc 1 135 1 is_stmt 1 view -0
 227               		.cfi_startproc
 228               	/* prologue: function */
 229               	/* frame size = 0 */
 230               	/* stack size = 0 */
 231               	.L__stack_usage = 0
 136:keyboards/ergodox/ez/twimaster.c ****     return i2c_start( address );
 232               		.loc 1 136 5 view .LVU79
 233               		.loc 1 136 12 is_stmt 0 view .LVU80
 234 0000 0C94 0000 		jmp i2c_start
 235               	.LVL15:
 236               		.loc 1 136 12 view .LVU81
 237               		.cfi_endproc
 238               	.LFE3:
 240               		.section	.text.i2c_stop,"ax",@progbits
 241               	.global	i2c_stop
 243               	i2c_stop:
 244               	.LFB4:
 137:keyboards/ergodox/ez/twimaster.c **** 
 138:keyboards/ergodox/ez/twimaster.c **** }/* i2c_rep_start */
 139:keyboards/ergodox/ez/twimaster.c **** 
 140:keyboards/ergodox/ez/twimaster.c **** 
 141:keyboards/ergodox/ez/twimaster.c **** /*************************************************************************
 142:keyboards/ergodox/ez/twimaster.c ****  Terminates the data transfer and releases the I2C bus
 143:keyboards/ergodox/ez/twimaster.c **** *************************************************************************/
 144:keyboards/ergodox/ez/twimaster.c **** void i2c_stop(void)
 145:keyboards/ergodox/ez/twimaster.c **** {
 245               		.loc 1 145 1 is_stmt 1 view -0
 246               		.cfi_startproc
 247               	/* prologue: function */
 248               	/* frame size = 0 */
 249               	/* stack size = 0 */
 250               	.L__stack_usage = 0
 146:keyboards/ergodox/ez/twimaster.c ****     /* send stop condition */
 147:keyboards/ergodox/ez/twimaster.c **** 	TWCR = (1<<TWINT) | (1<<TWEN) | (1<<TWSTO);
 251               		.loc 1 147 2 view .LVU83
 252               		.loc 1 147 7 is_stmt 0 view .LVU84
 253 0000 84E9      		ldi r24,lo8(-108)
 254 0002 8093 BC00 		sts 188,r24
 148:keyboards/ergodox/ez/twimaster.c **** 	
 149:keyboards/ergodox/ez/twimaster.c **** 	// wait until stop condition is executed and bus released
 150:keyboards/ergodox/ez/twimaster.c **** 	while(TWCR & (1<<TWSTO));
 255               		.loc 1 150 2 is_stmt 1 view .LVU85
 256               	.L35:
 257               		.loc 1 150 26 discriminator 1 view .LVU86
 258               		.loc 1 150 8 is_stmt 0 discriminator 1 view .LVU87
 259 0006 8091 BC00 		lds r24,188
 260               		.loc 1 150 7 discriminator 1 view .LVU88
 261 000a 84FD      		sbrc r24,4
 262 000c 00C0      		rjmp .L35
 263               	/* epilogue start */
 151:keyboards/ergodox/ez/twimaster.c **** 
 152:keyboards/ergodox/ez/twimaster.c **** }/* i2c_stop */
 264               		.loc 1 152 1 view .LVU89
 265 000e 0895      		ret
 266               		.cfi_endproc
 267               	.LFE4:
 269               		.section	.text.i2c_write,"ax",@progbits
 270               	.global	i2c_write
 272               	i2c_write:
 273               	.LVL16:
 274               	.LFB5:
 153:keyboards/ergodox/ez/twimaster.c **** 
 154:keyboards/ergodox/ez/twimaster.c **** 
 155:keyboards/ergodox/ez/twimaster.c **** /*************************************************************************
 156:keyboards/ergodox/ez/twimaster.c ****   Send one byte to I2C device
 157:keyboards/ergodox/ez/twimaster.c ****   
 158:keyboards/ergodox/ez/twimaster.c ****   Input:    byte to be transfered
 159:keyboards/ergodox/ez/twimaster.c ****   Return:   0 write successful 
 160:keyboards/ergodox/ez/twimaster.c ****             1 write failed
 161:keyboards/ergodox/ez/twimaster.c **** *************************************************************************/
 162:keyboards/ergodox/ez/twimaster.c **** unsigned char i2c_write( unsigned char data )
 163:keyboards/ergodox/ez/twimaster.c **** {	
 275               		.loc 1 163 1 is_stmt 1 view -0
 276               		.cfi_startproc
 277               	/* prologue: function */
 278               	/* frame size = 0 */
 279               	/* stack size = 0 */
 280               	.L__stack_usage = 0
 164:keyboards/ergodox/ez/twimaster.c ****     uint8_t   twst;
 281               		.loc 1 164 5 view .LVU91
 165:keyboards/ergodox/ez/twimaster.c ****     
 166:keyboards/ergodox/ez/twimaster.c **** 	// send data to the previously addressed device
 167:keyboards/ergodox/ez/twimaster.c **** 	TWDR = data;
 282               		.loc 1 167 2 view .LVU92
 283               		.loc 1 167 7 is_stmt 0 view .LVU93
 284 0000 8093 BB00 		sts 187,r24
 168:keyboards/ergodox/ez/twimaster.c **** 	TWCR = (1<<TWINT) | (1<<TWEN);
 285               		.loc 1 168 2 is_stmt 1 view .LVU94
 286               		.loc 1 168 7 is_stmt 0 view .LVU95
 287 0004 84E8      		ldi r24,lo8(-124)
 288               	.LVL17:
 289               		.loc 1 168 7 view .LVU96
 290 0006 8093 BC00 		sts 188,r24
 291               	.LVL18:
 169:keyboards/ergodox/ez/twimaster.c **** 
 170:keyboards/ergodox/ez/twimaster.c **** 	// wait until transmission completed
 171:keyboards/ergodox/ez/twimaster.c **** 	while(!(TWCR & (1<<TWINT)));
 292               		.loc 1 171 2 is_stmt 1 view .LVU97
 293               	.L38:
 294               		.loc 1 171 29 discriminator 1 view .LVU98
 295               		.loc 1 171 10 is_stmt 0 discriminator 1 view .LVU99
 296 000a 8091 BC00 		lds r24,188
 297               		.loc 1 171 7 discriminator 1 view .LVU100
 298 000e 87FF      		sbrs r24,7
 299 0010 00C0      		rjmp .L38
 172:keyboards/ergodox/ez/twimaster.c **** 
 173:keyboards/ergodox/ez/twimaster.c **** 	// check value of TWI Status Register. Mask prescaler bits
 174:keyboards/ergodox/ez/twimaster.c **** 	twst = TW_STATUS & 0xF8;
 300               		.loc 1 174 2 is_stmt 1 view .LVU101
 301               		.loc 1 174 19 is_stmt 0 view .LVU102
 302 0012 9091 B900 		lds r25,185
 303               	.LVL19:
 175:keyboards/ergodox/ez/twimaster.c **** 	if( twst != TW_MT_DATA_ACK) return 1;
 304               		.loc 1 175 2 is_stmt 1 view .LVU103
 174:keyboards/ergodox/ez/twimaster.c **** 	if( twst != TW_MT_DATA_ACK) return 1;
 305               		.loc 1 174 7 is_stmt 0 view .LVU104
 306 0016 987F      		andi r25,lo8(-8)
 307               	.LVL20:
 308               		.loc 1 175 4 view .LVU105
 309 0018 81E0      		ldi r24,lo8(1)
 310 001a 9832      		cpi r25,lo8(40)
 311 001c 01F4      		brne .L39
 312 001e 80E0      		ldi r24,0
 313               	.L39:
 314               	/* epilogue start */
 176:keyboards/ergodox/ez/twimaster.c **** 	return 0;
 177:keyboards/ergodox/ez/twimaster.c **** 
 178:keyboards/ergodox/ez/twimaster.c **** }/* i2c_write */
 315               		.loc 1 178 1 view .LVU106
 316 0020 0895      		ret
 317               		.cfi_endproc
 318               	.LFE5:
 320               		.section	.text.i2c_readAck,"ax",@progbits
 321               	.global	i2c_readAck
 323               	i2c_readAck:
 324               	.LFB6:
 179:keyboards/ergodox/ez/twimaster.c **** 
 180:keyboards/ergodox/ez/twimaster.c **** 
 181:keyboards/ergodox/ez/twimaster.c **** /*************************************************************************
 182:keyboards/ergodox/ez/twimaster.c ****  Read one byte from the I2C device, request more data from device 
 183:keyboards/ergodox/ez/twimaster.c ****  
 184:keyboards/ergodox/ez/twimaster.c ****  Return:  byte read from I2C device
 185:keyboards/ergodox/ez/twimaster.c **** *************************************************************************/
 186:keyboards/ergodox/ez/twimaster.c **** unsigned char i2c_readAck(void)
 187:keyboards/ergodox/ez/twimaster.c **** {
 325               		.loc 1 187 1 is_stmt 1 view -0
 326               		.cfi_startproc
 327               	/* prologue: function */
 328               	/* frame size = 0 */
 329               	/* stack size = 0 */
 330               	.L__stack_usage = 0
 188:keyboards/ergodox/ez/twimaster.c **** 	TWCR = (1<<TWINT) | (1<<TWEN) | (1<<TWEA);
 331               		.loc 1 188 2 view .LVU108
 332               		.loc 1 188 7 is_stmt 0 view .LVU109
 333 0000 84EC      		ldi r24,lo8(-60)
 334 0002 8093 BC00 		sts 188,r24
 189:keyboards/ergodox/ez/twimaster.c **** 	while(!(TWCR & (1<<TWINT)));    
 335               		.loc 1 189 2 is_stmt 1 view .LVU110
 336               	.L42:
 337               		.loc 1 189 29 discriminator 1 view .LVU111
 338               		.loc 1 189 10 is_stmt 0 discriminator 1 view .LVU112
 339 0006 8091 BC00 		lds r24,188
 340               		.loc 1 189 7 discriminator 1 view .LVU113
 341 000a 87FF      		sbrs r24,7
 342 000c 00C0      		rjmp .L42
 190:keyboards/ergodox/ez/twimaster.c **** 
 191:keyboards/ergodox/ez/twimaster.c ****     return TWDR;
 343               		.loc 1 191 5 is_stmt 1 view .LVU114
 344               		.loc 1 191 12 is_stmt 0 view .LVU115
 345 000e 8091 BB00 		lds r24,187
 346               	/* epilogue start */
 192:keyboards/ergodox/ez/twimaster.c **** 
 193:keyboards/ergodox/ez/twimaster.c **** }/* i2c_readAck */
 347               		.loc 1 193 1 view .LVU116
 348 0012 0895      		ret
 349               		.cfi_endproc
 350               	.LFE6:
 352               		.section	.text.i2c_readNak,"ax",@progbits
 353               	.global	i2c_readNak
 355               	i2c_readNak:
 356               	.LFB7:
 194:keyboards/ergodox/ez/twimaster.c **** 
 195:keyboards/ergodox/ez/twimaster.c **** 
 196:keyboards/ergodox/ez/twimaster.c **** /*************************************************************************
 197:keyboards/ergodox/ez/twimaster.c ****  Read one byte from the I2C device, read is followed by a stop condition 
 198:keyboards/ergodox/ez/twimaster.c ****  
 199:keyboards/ergodox/ez/twimaster.c ****  Return:  byte read from I2C device
 200:keyboards/ergodox/ez/twimaster.c **** *************************************************************************/
 201:keyboards/ergodox/ez/twimaster.c **** unsigned char i2c_readNak(void)
 202:keyboards/ergodox/ez/twimaster.c **** {
 357               		.loc 1 202 1 is_stmt 1 view -0
 358               		.cfi_startproc
 359               	/* prologue: function */
 360               	/* frame size = 0 */
 361               	/* stack size = 0 */
 362               	.L__stack_usage = 0
 203:keyboards/ergodox/ez/twimaster.c **** 	TWCR = (1<<TWINT) | (1<<TWEN);
 363               		.loc 1 203 2 view .LVU118
 364               		.loc 1 203 7 is_stmt 0 view .LVU119
 365 0000 84E8      		ldi r24,lo8(-124)
 366 0002 8093 BC00 		sts 188,r24
 204:keyboards/ergodox/ez/twimaster.c **** 	while(!(TWCR & (1<<TWINT)));
 367               		.loc 1 204 2 is_stmt 1 view .LVU120
 368               	.L45:
 369               		.loc 1 204 29 discriminator 1 view .LVU121
 370               		.loc 1 204 10 is_stmt 0 discriminator 1 view .LVU122
 371 0006 8091 BC00 		lds r24,188
 372               		.loc 1 204 7 discriminator 1 view .LVU123
 373 000a 87FF      		sbrs r24,7
 374 000c 00C0      		rjmp .L45
 205:keyboards/ergodox/ez/twimaster.c **** 	
 206:keyboards/ergodox/ez/twimaster.c ****     return TWDR;
 375               		.loc 1 206 5 is_stmt 1 view .LVU124
 376               		.loc 1 206 12 is_stmt 0 view .LVU125
 377 000e 8091 BB00 		lds r24,187
 378               	/* epilogue start */
 207:keyboards/ergodox/ez/twimaster.c **** 
 208:keyboards/ergodox/ez/twimaster.c **** }/* i2c_readNak */
 379               		.loc 1 208 1 view .LVU126
 380 0012 0895      		ret
 381               		.cfi_endproc
 382               	.LFE7:
 384               		.text
 385               	.Letext0:
 386               		.file 2 "/usr/local/Cellar/avr-gcc/8.1.0/avr/include/stdint.h"
DEFINED SYMBOLS
                            *ABS*:0000000000000000 twimaster.c
/var/folders/_c/44sm70yj4mq2k0mvzts6tsbc0000gn/T//ccuOtpqP.s:2      *ABS*:000000000000003e __SP_H__
/var/folders/_c/44sm70yj4mq2k0mvzts6tsbc0000gn/T//ccuOtpqP.s:3      *ABS*:000000000000003d __SP_L__
/var/folders/_c/44sm70yj4mq2k0mvzts6tsbc0000gn/T//ccuOtpqP.s:4      *ABS*:000000000000003f __SREG__
/var/folders/_c/44sm70yj4mq2k0mvzts6tsbc0000gn/T//ccuOtpqP.s:5      *ABS*:0000000000000000 __tmp_reg__
/var/folders/_c/44sm70yj4mq2k0mvzts6tsbc0000gn/T//ccuOtpqP.s:6      *ABS*:0000000000000001 __zero_reg__
/var/folders/_c/44sm70yj4mq2k0mvzts6tsbc0000gn/T//ccuOtpqP.s:13     .text.i2c_init:0000000000000000 i2c_init
/var/folders/_c/44sm70yj4mq2k0mvzts6tsbc0000gn/T//ccuOtpqP.s:38     .text.i2c_start:0000000000000000 i2c_start
/var/folders/_c/44sm70yj4mq2k0mvzts6tsbc0000gn/T//ccuOtpqP.s:127    .text.i2c_start_wait:0000000000000000 i2c_start_wait
/var/folders/_c/44sm70yj4mq2k0mvzts6tsbc0000gn/T//ccuOtpqP.s:223    .text.i2c_rep_start:0000000000000000 i2c_rep_start
/var/folders/_c/44sm70yj4mq2k0mvzts6tsbc0000gn/T//ccuOtpqP.s:243    .text.i2c_stop:0000000000000000 i2c_stop
/var/folders/_c/44sm70yj4mq2k0mvzts6tsbc0000gn/T//ccuOtpqP.s:272    .text.i2c_write:0000000000000000 i2c_write
/var/folders/_c/44sm70yj4mq2k0mvzts6tsbc0000gn/T//ccuOtpqP.s:323    .text.i2c_readAck:0000000000000000 i2c_readAck
/var/folders/_c/44sm70yj4mq2k0mvzts6tsbc0000gn/T//ccuOtpqP.s:355    .text.i2c_readNak:0000000000000000 i2c_readNak

NO UNDEFINED SYMBOLS
