   1               		.file	"keymap.c"
   2               	__SP_H__ = 0x3e
   3               	__SP_L__ = 0x3d
   4               	__SREG__ = 0x3f
   5               	__tmp_reg__ = 0
   6               	__zero_reg__ = 1
   7               		.text
   8               	.Ltext0:
   9               		.cfi_sections	.debug_frame
  10               		.section	.text.send_keystrokes,"ax",@progbits
  11               	.global	send_keystrokes
  13               	send_keystrokes:
  14               	.LVL0:
  15               	.LFB128:
  16               		.file 1 "layouts/community/ergodox/albert/keymap.c"
   1:layouts/community/ergodox/albert/keymap.c **** #include QMK_KEYBOARD_H
   2:layouts/community/ergodox/albert/keymap.c **** #include "debug.h"
   3:layouts/community/ergodox/albert/keymap.c **** #include "action_layer.h"
   4:layouts/community/ergodox/albert/keymap.c **** #include "version.h"
   5:layouts/community/ergodox/albert/keymap.c **** 
   6:layouts/community/ergodox/albert/keymap.c **** #include <stdarg.h>
   7:layouts/community/ergodox/albert/keymap.c **** 
   8:layouts/community/ergodox/albert/keymap.c **** /* use UK keymap */
   9:layouts/community/ergodox/albert/keymap.c **** 
  10:layouts/community/ergodox/albert/keymap.c **** #define UK_HASH KC_NONUS_HASH
  11:layouts/community/ergodox/albert/keymap.c **** #define UK_BSLS KC_NONUS_BSLASH
  12:layouts/community/ergodox/albert/keymap.c **** #define UK_PIPE LSFT(UK_BSLS)
  13:layouts/community/ergodox/albert/keymap.c **** 
  14:layouts/community/ergodox/albert/keymap.c **** #define BASE 0 // default layer
  15:layouts/community/ergodox/albert/keymap.c **** #define SYMB 1 // symbols
  16:layouts/community/ergodox/albert/keymap.c **** #define NUMB 2 // numbers and hex
  17:layouts/community/ergodox/albert/keymap.c **** #define CRSR 3 // cursor keys
  18:layouts/community/ergodox/albert/keymap.c **** #define MOUS 4 // mouse keys
  19:layouts/community/ergodox/albert/keymap.c **** #define KEYW 5 // keyword macros
  20:layouts/community/ergodox/albert/keymap.c **** #define EMAC 6 // emacs
  21:layouts/community/ergodox/albert/keymap.c **** 
  22:layouts/community/ergodox/albert/keymap.c **** // my macros
  23:layouts/community/ergodox/albert/keymap.c **** #define UM_ECET   M(0)  // { }
  24:layouts/community/ergodox/albert/keymap.c **** #define UM_0x     M(1)
  25:layouts/community/ergodox/albert/keymap.c **** #define UM_PUB    M(2)
  26:layouts/community/ergodox/albert/keymap.c **** #define UM_PRO    M(3)
  27:layouts/community/ergodox/albert/keymap.c **** #define UM_PRV    M(4)
  28:layouts/community/ergodox/albert/keymap.c **** #define UM_CLS    M(5)
  29:layouts/community/ergodox/albert/keymap.c **** #define UM_STR    M(6)
  30:layouts/community/ergodox/albert/keymap.c **** #define UM_RET    M(7)
  31:layouts/community/ergodox/albert/keymap.c **** #define UM_INC    M(8)
  32:layouts/community/ergodox/albert/keymap.c **** #define UM_OBJ    M(9)
  33:layouts/community/ergodox/albert/keymap.c **** #define UM_GITLOG M(10)
  34:layouts/community/ergodox/albert/keymap.c **** #define UM_GOODM  M(11)
  35:layouts/community/ergodox/albert/keymap.c **** #define UM_NAMESP M(12)
  36:layouts/community/ergodox/albert/keymap.c **** #define UM_EMTR   M(14) // emacs toggle read-only
  37:layouts/community/ergodox/albert/keymap.c **** #define UM_EMWR   M(15) // emacs write buffer (save)
  38:layouts/community/ergodox/albert/keymap.c **** #define UM_EMUN   M(16) // emacs undo
  39:layouts/community/ergodox/albert/keymap.c **** #define UM_EMRE   M(17) // emacs redo
  40:layouts/community/ergodox/albert/keymap.c **** #define UM_EMPB   M(18) // emacs previous buffer
  41:layouts/community/ergodox/albert/keymap.c **** #define UM_EMNB   M(19) // emacs next buffer
  42:layouts/community/ergodox/albert/keymap.c **** #define UM_GOODN  M(20)
  43:layouts/community/ergodox/albert/keymap.c **** #define UM_ECETS  M(22)  // { };
  44:layouts/community/ergodox/albert/keymap.c **** #define UM_TMPL   M(23)
  45:layouts/community/ergodox/albert/keymap.c **** #define UM_TYPN   M(24)
  46:layouts/community/ergodox/albert/keymap.c **** #define UM_CONT   M(25)
  47:layouts/community/ergodox/albert/keymap.c **** #define UM_BREAK  M(26)
  48:layouts/community/ergodox/albert/keymap.c **** #define UM_CONST  M(27)
  49:layouts/community/ergodox/albert/keymap.c **** #define UM_SMILY  M(28)
  50:layouts/community/ergodox/albert/keymap.c **** #define UM_SADF   M(29)
  51:layouts/community/ergodox/albert/keymap.c **** #define UM_SCARF  M(30)
  52:layouts/community/ergodox/albert/keymap.c **** #define UM_DECAF  M(31)
  53:layouts/community/ergodox/albert/keymap.c **** #define UM_OPER   M(32)
  54:layouts/community/ergodox/albert/keymap.c **** #define UM_NULP   M(33)
  55:layouts/community/ergodox/albert/keymap.c **** #define UM_EXTR   M(34)
  56:layouts/community/ergodox/albert/keymap.c **** #define UM_VIRT   M(35)
  57:layouts/community/ergodox/albert/keymap.c **** #define UM_EMFB   M(36) // emacs font bigger
  58:layouts/community/ergodox/albert/keymap.c **** #define UM_EMFS   M(37) // emacs font smaller
  59:layouts/community/ergodox/albert/keymap.c **** #define UM_VOLAT  M(38)
  60:layouts/community/ergodox/albert/keymap.c **** 
  61:layouts/community/ergodox/albert/keymap.c **** const uint16_t PROGMEM keymaps[][MATRIX_ROWS][MATRIX_COLS] = {
  62:layouts/community/ergodox/albert/keymap.c **** /* Keymap 0: Base layer
  63:layouts/community/ergodox/albert/keymap.c ****  *
  64:layouts/community/ergodox/albert/keymap.c ****  * ,--------------------------------------------------.           ,--------------------------------
  65:layouts/community/ergodox/albert/keymap.c ****  * | ESC    |   1  |   2  |   3  |   4  |   5  | SfLt |           | SfRt |   6  |   7  |   8  |   9
  66:layouts/community/ergodox/albert/keymap.c ****  * |--------+------+------+------+------+-------------|           |------+------+------+------+----
  67:layouts/community/ergodox/albert/keymap.c ****  * | Tab    |   Q  |   W  |   E  |   R  |   T  |  L1  |           |  L1  |   Y  |   U  |   I  |   O
  68:layouts/community/ergodox/albert/keymap.c ****  * |--------+------+------+------+------+------|      |           |      |------+------+------+----
  69:layouts/community/ergodox/albert/keymap.c ****  * | Caps/L2|   A  |   S  |   D  |   F  |   G  |------|           |------|   H  |   J  |   K  |   L
  70:layouts/community/ergodox/albert/keymap.c ****  * |--------+------+------+------+------+------|  L6  |           |  L6  |------+------+------+----
  71:layouts/community/ergodox/albert/keymap.c ****  * | LSft/( |   Z  |   X  |   C  | V/L3 | B/L4 |      |           |      | N/L4 | M/L3 |   ,  |   .
  72:layouts/community/ergodox/albert/keymap.c ****  * `--------+------+------+------+------+-------------'           `-------------+------+------+----
  73:layouts/community/ergodox/albert/keymap.c ****  *   |Ctrl/[| Alt/]|   #  | Left |Right |                                       |  Up  | Down |   -
  74:layouts/community/ergodox/albert/keymap.c ****  *   `----------------------------------'                                       `------------------
  75:layouts/community/ergodox/albert/keymap.c ****  *                                        ,-------------.       ,-------------.
  76:layouts/community/ergodox/albert/keymap.c ****  *                                        |  L2  | lead |       | lead |  Ins |
  77:layouts/community/ergodox/albert/keymap.c ****  *                                 ,------|------|------|       |------+------+------.
  78:layouts/community/ergodox/albert/keymap.c ****  *                                 | Space| BkSp | Home |       | PgUp | Enter|Space |
  79:layouts/community/ergodox/albert/keymap.c ****  *                                 |  /   |  /   |------|       |------|   /  |  /   |
  80:layouts/community/ergodox/albert/keymap.c ****  *                                 | Ctrl | Alt  |End/L5|       |PDn/L5|  Alt | Ctrl |
  81:layouts/community/ergodox/albert/keymap.c ****  *                                 `--------------------'       `--------------------'
  82:layouts/community/ergodox/albert/keymap.c ****  */
  83:layouts/community/ergodox/albert/keymap.c **** [BASE] = LAYOUT_ergodox(  // layer 0 : default
  84:layouts/community/ergodox/albert/keymap.c ****         // left hand
  85:layouts/community/ergodox/albert/keymap.c ****         KC_ESC,            KC_1,            KC_2,       KC_3,      KC_4,           KC_5,           
  86:layouts/community/ergodox/albert/keymap.c ****         KC_TAB,            KC_Q,            KC_W,       KC_E,      KC_R,           KC_T,           
  87:layouts/community/ergodox/albert/keymap.c ****         LT(NUMB, KC_CAPS), KC_A,            KC_S,       KC_D,      KC_F,           KC_G,
  88:layouts/community/ergodox/albert/keymap.c ****         KC_LSPO,           KC_Z,            KC_X,       KC_C,      LT(CRSR, KC_V), LT(MOUS, KC_B), 
  89:layouts/community/ergodox/albert/keymap.c ****         CTL_T(KC_LBRC),    ALT_T(KC_RBRC),  UK_HASH,    KC_LEFT,   KC_RGHT,
  90:layouts/community/ergodox/albert/keymap.c ****                                                                                      TG(NUMB),     
  91:layouts/community/ergodox/albert/keymap.c ****                                                                                                    
  92:layouts/community/ergodox/albert/keymap.c ****                                                                      CTL_T(KC_SPC),  ALT_T(KC_BSPC)
  93:layouts/community/ergodox/albert/keymap.c ****         // right hand
  94:layouts/community/ergodox/albert/keymap.c ****              LSFT(KC_RGHT),   KC_6,            KC_7,            KC_8,      KC_9,       KC_0,       
  95:layouts/community/ergodox/albert/keymap.c ****              MO(SYMB),        KC_Y,            KC_U,            KC_I,      KC_O,       KC_P,       
  96:layouts/community/ergodox/albert/keymap.c ****                               KC_H,            KC_J,            KC_K,      KC_L,       KC_SCLN,    
  97:layouts/community/ergodox/albert/keymap.c ****              MO(EMAC),        LT(MOUS, KC_N),  LT(CRSR, KC_M),  KC_COMM,   KC_DOT,     KC_SLSH,    
  98:layouts/community/ergodox/albert/keymap.c ****                                                KC_UP,           KC_DOWN,   KC_MINS,    ALT_T(KC_LBR
  99:layouts/community/ergodox/albert/keymap.c ****            KC_LEAD,            KC_INS,
 100:layouts/community/ergodox/albert/keymap.c ****            KC_PGUP,
 101:layouts/community/ergodox/albert/keymap.c ****            LT(KEYW, KC_PGDN),  ALT_T(KC_ENT),   CTL_T(KC_SPC)
 102:layouts/community/ergodox/albert/keymap.c ****     ),
 103:layouts/community/ergodox/albert/keymap.c **** /* Keymap 1: Symbol Layer with F keys
 104:layouts/community/ergodox/albert/keymap.c ****  *
 105:layouts/community/ergodox/albert/keymap.c ****  * ,--------------------------------------------------.           ,--------------------------------
 106:layouts/community/ergodox/albert/keymap.c ****  * |   ##   |  F1  |  F2  |  F3  |  F4  |  F5  |  ##  |           |  ##  |  F6  |  F7  |  F8  |  F9
 107:layouts/community/ergodox/albert/keymap.c ****  * |--------+------+------+------+------+------+------|           |------+------+------+------+----
 108:layouts/community/ergodox/albert/keymap.c ****  * |   ##   |   !  |   "  |   £  |   $  |   %  |  ##  |           |  ##  |   -  |   +  |   =  |   
 109:layouts/community/ergodox/albert/keymap.c ****  * |--------+------+------+------+------+------|      |           |      |------+------+------+----
 110:layouts/community/ergodox/albert/keymap.c ****  * |   ##   |   ^  |   &  |   *  |   _  |   #  |------|           |------|   {  |   }  |   ;  |   '
 111:layouts/community/ergodox/albert/keymap.c ****  * |--------+------+------+------+------+------|  ##  |           |  ##  |------+------+------+----
 112:layouts/community/ergodox/albert/keymap.c ****  * |   ##   |   \  |   |  |   `  |   -  |   /  |      |           |      |   [  |   ]  |   <  |   >
 113:layouts/community/ergodox/albert/keymap.c ****  * `--------+------+------+------+------+-------------'           `-------------+------+------+----
 114:layouts/community/ergodox/albert/keymap.c ****  *   |  ##  |  ##  |  ##  |  ##  |  ##  |                                       |  ##  |  ##  |  ##
 115:layouts/community/ergodox/albert/keymap.c ****  *   `----------------------------------'                                       `------------------
 116:layouts/community/ergodox/albert/keymap.c ****  *                                        ,-------------.       ,-------------.
 117:layouts/community/ergodox/albert/keymap.c ****  *                                        |  ##  |  ##  |       |  ##  |  ##  |
 118:layouts/community/ergodox/albert/keymap.c ****  *                                 ,------|------|------|       |------+------+------.
 119:layouts/community/ergodox/albert/keymap.c ****  *                                 |      |      |  ##  |       |  ##  |      |      |
 120:layouts/community/ergodox/albert/keymap.c ****  *                                 |  ##  |  ##  |------|       |------|  ##  |  ##  |
 121:layouts/community/ergodox/albert/keymap.c ****  *                                 |      |      |  ##  |       |  ##  |      |      |
 122:layouts/community/ergodox/albert/keymap.c ****  *                                 `--------------------'       `--------------------'
 123:layouts/community/ergodox/albert/keymap.c ****  */
 124:layouts/community/ergodox/albert/keymap.c **** [SYMB] = LAYOUT_ergodox(
 125:layouts/community/ergodox/albert/keymap.c ****         // left hand
 126:layouts/community/ergodox/albert/keymap.c ****         KC_TRNS,   KC_F1,       KC_F2,       KC_F3,       KC_F4,          KC_F5,       KC_TRNS,
 127:layouts/community/ergodox/albert/keymap.c ****         KC_TRNS,   KC_EXLM,     LSFT(KC_2),  LSFT(KC_3),  LSFT(KC_4),     LSFT(KC_5),  KC_TRNS,
 128:layouts/community/ergodox/albert/keymap.c ****         KC_TRNS,   LSFT(KC_6),  LSFT(KC_7),  LSFT(KC_8),  LSFT(KC_MINS),  UK_HASH,
 129:layouts/community/ergodox/albert/keymap.c ****         KC_TRNS,   UK_BSLS,     UK_PIPE,     KC_GRV,      KC_MINS,        KC_SLSH,     KC_TRNS,
 130:layouts/community/ergodox/albert/keymap.c ****         KC_TRNS,   KC_TRNS,     KC_TRNS,     KC_TRNS,     KC_TRNS,
 131:layouts/community/ergodox/albert/keymap.c ****                                                                             KC_TRNS,   KC_TRNS,
 132:layouts/community/ergodox/albert/keymap.c ****                                                                                        KC_TRNS,
 133:layouts/community/ergodox/albert/keymap.c ****                                                                  KC_TRNS,   KC_TRNS,   KC_TRNS,
 134:layouts/community/ergodox/albert/keymap.c ****         // right hand
 135:layouts/community/ergodox/albert/keymap.c ****              KC_TRNS,   KC_F6,       KC_F7,       KC_F8,          KC_F9,          KC_F10,         K
 136:layouts/community/ergodox/albert/keymap.c ****              KC_TRNS,   KC_MINS,     KC_PLUS,     KC_EQL,         LSFT(KC_QUOT),  LSFT(UK_HASH),  K
 137:layouts/community/ergodox/albert/keymap.c ****                         KC_LCBR,     KC_RCBR,     KC_SCLN,        KC_QUOT,        UK_HASH,        K
 138:layouts/community/ergodox/albert/keymap.c ****              KC_TRNS,   KC_LBRC,     KC_RBRC,     LSFT(KC_COMM),  LSFT(KC_DOT),   LSFT(KC_SLSH),  K
 139:layouts/community/ergodox/albert/keymap.c ****                                      KC_TRNS,     KC_TRNS,        KC_TRNS,        KC_TRNS,        K
 140:layouts/community/ergodox/albert/keymap.c ****            KC_TRNS,   KC_TRNS,
 141:layouts/community/ergodox/albert/keymap.c ****            KC_TRNS,
 142:layouts/community/ergodox/albert/keymap.c ****            KC_TRNS,   KC_TRNS,  KC_TRNS
 143:layouts/community/ergodox/albert/keymap.c ****     ),
 144:layouts/community/ergodox/albert/keymap.c **** /* Keymap 2: Numerics and hex
 145:layouts/community/ergodox/albert/keymap.c ****  *
 146:layouts/community/ergodox/albert/keymap.c ****  * ,---------------------------------------------------.           ,-------------------------------
 147:layouts/community/ergodox/albert/keymap.c ****  * |   ##    |  A   |  B   |  C   |  D   |  E   |  F   |           |  A   |  B   |  C   |  D   |   
 148:layouts/community/ergodox/albert/keymap.c ****  * |---------+------+------+------+------+------+------|           |------+------+------+------+---
 149:layouts/community/ergodox/albert/keymap.c ****  * |   ##    |  *   |  7   |  8   |  9   |  *   |  0x  |           |  0x  |  *   |   7  |   8  |   
 150:layouts/community/ergodox/albert/keymap.c ****  * |---------+------+------+------+------+------|      |           |      |------+------+------+---
 151:layouts/community/ergodox/albert/keymap.c ****  * |   ##    |  /   |  4   |  5   |  6   |  /   |------|           |------|  /   |   4  |   5  |   
 152:layouts/community/ergodox/albert/keymap.c ****  * |---------+------+------+------+------+------|  ##  |           |  ##  |------+------+------+---
 153:layouts/community/ergodox/albert/keymap.c ****  * |   ##    |  -   |  1   |  2   |  3   |  -   |      |           |      |  -   |   1  |   2  |   
 154:layouts/community/ergodox/albert/keymap.c ****  * `---------+------+------+------+------+-------------'           `-------------+------+------+---
 155:layouts/community/ergodox/albert/keymap.c ****  *   |   =   |  +   |  0   |  ,   |  .   |                                       |   0  |   ,  |   
 156:layouts/community/ergodox/albert/keymap.c ****  *   `-----------------------------------'                                       `-----------------
 157:layouts/community/ergodox/albert/keymap.c ****  *                                        ,-------------.       ,-------------.
 158:layouts/community/ergodox/albert/keymap.c ****  *                                        |  ##  |  ##  |       |  ##  |  ##  |
 159:layouts/community/ergodox/albert/keymap.c ****  *                                 ,------|------|------|       |------+------+------.
 160:layouts/community/ergodox/albert/keymap.c ****  *                                 |      |      |  ##  |       |  ##  |      |      |
 161:layouts/community/ergodox/albert/keymap.c ****  *                                 |  ##  |  ##  |------|       |------|  ##  |  ##  |
 162:layouts/community/ergodox/albert/keymap.c ****  *                                 |      |      |  ##  |       |  ##  |      |      |
 163:layouts/community/ergodox/albert/keymap.c ****  *                                 `--------------------'       `--------------------'
 164:layouts/community/ergodox/albert/keymap.c ****  */
 165:layouts/community/ergodox/albert/keymap.c **** [NUMB] = LAYOUT_ergodox(
 166:layouts/community/ergodox/albert/keymap.c ****         // left hand
 167:layouts/community/ergodox/albert/keymap.c ****         KC_TRNS,   KC_A,        KC_B,        KC_C,        KC_D,           KC_E,        KC_F,
 168:layouts/community/ergodox/albert/keymap.c ****         KC_TRNS,   KC_ASTR,     KC_7,        KC_8,        KC_9,           KC_ASTR,     UM_0x,
 169:layouts/community/ergodox/albert/keymap.c ****         KC_TRNS,   KC_SLSH,     KC_4,        KC_5,        KC_6,           KC_SLSH,
 170:layouts/community/ergodox/albert/keymap.c ****         KC_TRNS,   KC_MINS,     KC_1,        KC_2,        KC_3,           KC_MINS,     KC_TRNS,
 171:layouts/community/ergodox/albert/keymap.c ****         KC_EQL,    KC_PLUS,     KC_0,        KC_COMM,     KC_DOT,
 172:layouts/community/ergodox/albert/keymap.c ****                                                                             KC_TRNS,   KC_TRNS,
 173:layouts/community/ergodox/albert/keymap.c ****                                                                                        KC_TRNS,
 174:layouts/community/ergodox/albert/keymap.c ****                                                                  KC_TRNS,   KC_TRNS,   KC_TRNS,
 175:layouts/community/ergodox/albert/keymap.c ****         // right hand
 176:layouts/community/ergodox/albert/keymap.c ****              KC_A,      KC_B,        KC_C,        KC_D,           KC_E,           KC_F,           K
 177:layouts/community/ergodox/albert/keymap.c ****              UM_0x,     KC_ASTR,     KC_7,        KC_8,           KC_9,           KC_ASTR,        K
 178:layouts/community/ergodox/albert/keymap.c ****                         KC_SLSH,     KC_4,        KC_5,           KC_6,           KC_SLSH,        K
 179:layouts/community/ergodox/albert/keymap.c ****              KC_TRNS,   KC_MINS,     KC_1,        KC_2,           KC_3,           KC_MINS,        K
 180:layouts/community/ergodox/albert/keymap.c ****                                      KC_0,        KC_COMM,        KC_DOT,         KC_PLUS,        K
 181:layouts/community/ergodox/albert/keymap.c ****            KC_TRNS,   KC_TRNS,
 182:layouts/community/ergodox/albert/keymap.c ****            KC_TRNS,
 183:layouts/community/ergodox/albert/keymap.c ****            KC_TRNS,   KC_TRNS,   KC_TRNS
 184:layouts/community/ergodox/albert/keymap.c ****     ),
 185:layouts/community/ergodox/albert/keymap.c **** /* Keymap 3: Cursor movement
 186:layouts/community/ergodox/albert/keymap.c ****  *
 187:layouts/community/ergodox/albert/keymap.c ****  * ,---------------------------------------------------.           ,-------------------------------
 188:layouts/community/ergodox/albert/keymap.c ****  * |         |      |      |      |      |      |      |           |      |      |      |      |   
 189:layouts/community/ergodox/albert/keymap.c ****  * |---------+------+------+------+------+------+------|           |------+------+------+------+---
 190:layouts/community/ergodox/albert/keymap.c ****  * |         | Home |      |  Up  |      | PgUp |      |           |      | PgUp |      |  Up  |   
 191:layouts/community/ergodox/albert/keymap.c ****  * |---------+------+------+------+------+------|      |           |      |------+------+------+---
 192:layouts/community/ergodox/albert/keymap.c ****  * |         | End  | Left | Down | Right| PgDn |------|           |------| PgDn | Left | Down | Ri
 193:layouts/community/ergodox/albert/keymap.c ****  * |---------+------+------+------+------+------|      |           |      |------+------+------+---
 194:layouts/community/ergodox/albert/keymap.c ****  * |   ##    |  Up  |      | Down |  ##  |      |      |           |      |      |  ##  | Down |   
 195:layouts/community/ergodox/albert/keymap.c ****  * `---------+------+------+------+------+-------------'           `-------------+------+------+---
 196:layouts/community/ergodox/albert/keymap.c ****  *   | Left  | Down | Right|      |      |                                       |      |      | Le
 197:layouts/community/ergodox/albert/keymap.c ****  *   `-----------------------------------'                                       `-----------------
 198:layouts/community/ergodox/albert/keymap.c ****  *                                        ,-------------.       ,-------------.
 199:layouts/community/ergodox/albert/keymap.c ****  *                                        |      |      |       |      |      |
 200:layouts/community/ergodox/albert/keymap.c ****  *                                 ,------|------|------|       |------+------+------.
 201:layouts/community/ergodox/albert/keymap.c ****  *                                 |      |      |      |       |      |      |      |
 202:layouts/community/ergodox/albert/keymap.c ****  *                                 |  ##  |  ##  |------|       |------|  ##  |  ##  |
 203:layouts/community/ergodox/albert/keymap.c ****  *                                 |      |      |      |       |      |      |      |
 204:layouts/community/ergodox/albert/keymap.c ****  *                                 `--------------------'       `--------------------'
 205:layouts/community/ergodox/albert/keymap.c ****  */
 206:layouts/community/ergodox/albert/keymap.c **** [CRSR] = LAYOUT_ergodox(
 207:layouts/community/ergodox/albert/keymap.c ****         // left hand
 208:layouts/community/ergodox/albert/keymap.c ****         KC_NO,     KC_NO,     KC_NO,     KC_NO,     KC_NO,     KC_NO,     KC_NO,
 209:layouts/community/ergodox/albert/keymap.c ****         KC_NO,     KC_HOME,   KC_NO,     KC_UP,     KC_NO,     KC_PGUP,   KC_NO,
 210:layouts/community/ergodox/albert/keymap.c ****         KC_NO,     KC_END,    KC_LEFT,   KC_DOWN,   KC_RGHT,   KC_PGDN,
 211:layouts/community/ergodox/albert/keymap.c ****         KC_TRNS,   KC_UP,     KC_NO,     KC_DOWN,   KC_TRNS,   KC_NO,     KC_NO,
 212:layouts/community/ergodox/albert/keymap.c ****         KC_LEFT,   KC_DOWN,   KC_RGHT,   KC_NO,     KC_NO,
 213:layouts/community/ergodox/albert/keymap.c ****                                                                    KC_NO,     KC_NO,
 214:layouts/community/ergodox/albert/keymap.c ****                                                                               KC_NO,
 215:layouts/community/ergodox/albert/keymap.c ****                                                         KC_TRNS,   KC_TRNS,   KC_NO,
 216:layouts/community/ergodox/albert/keymap.c ****         // right hand
 217:layouts/community/ergodox/albert/keymap.c ****              KC_NO,     KC_NO,     KC_NO,     KC_NO,     KC_NO,     KC_NO,     KC_NO,
 218:layouts/community/ergodox/albert/keymap.c ****              KC_NO,     KC_PGUP,   KC_NO,     KC_UP,     KC_NO,     KC_HOME,   KC_NO,
 219:layouts/community/ergodox/albert/keymap.c ****                         KC_PGDN,   KC_LEFT,   KC_DOWN,   KC_RGHT,   KC_END,    KC_NO,
 220:layouts/community/ergodox/albert/keymap.c ****              KC_NO,     KC_NO,     KC_TRNS,   KC_DOWN,   KC_NO,     KC_UP,     KC_TRNS,
 221:layouts/community/ergodox/albert/keymap.c ****                                    KC_NO,     KC_NO,     KC_LEFT,   KC_DOWN,   KC_RGHT,
 222:layouts/community/ergodox/albert/keymap.c ****            KC_NO,   KC_NO,
 223:layouts/community/ergodox/albert/keymap.c ****            KC_NO,
 224:layouts/community/ergodox/albert/keymap.c ****            KC_NO,   KC_TRNS,   KC_TRNS
 225:layouts/community/ergodox/albert/keymap.c ****     ),
 226:layouts/community/ergodox/albert/keymap.c **** /* Keymap 4: Media and mouse keys
 227:layouts/community/ergodox/albert/keymap.c ****  *
 228:layouts/community/ergodox/albert/keymap.c ****  * ,--------------------------------------------------.           ,--------------------------------
 229:layouts/community/ergodox/albert/keymap.c ****  * |        |      |      |      |      |      |      |           |      |      |      |      |    
 230:layouts/community/ergodox/albert/keymap.c ****  * |--------+------+------+------+------+-------------|           |------+------+------+------+----
 231:layouts/community/ergodox/albert/keymap.c ****  * |        |      | Lclk | MsUp | Rclk |      |      |           |      |      | Lclk | MsUp | Rcl
 232:layouts/community/ergodox/albert/keymap.c ****  * |--------+------+------+------+------+------|      |           |      |------+------+------+----
 233:layouts/community/ergodox/albert/keymap.c ****  * |        |      |MsLeft|MsDown|MsRght|      |------|           |------|      |MsLeft|MsDown|MsRg
 234:layouts/community/ergodox/albert/keymap.c ****  * |--------+------+------+------+------+------|      |           |      |------+------+------+----
 235:layouts/community/ergodox/albert/keymap.c ****  * |  Lclk  | MsUp | Rclk |MsDown|      |  ##  |      |           |      |  ##  |      |MsDown| Lcl
 236:layouts/community/ergodox/albert/keymap.c ****  * `--------+------+------+------+------+-------------'           `-------------+------+------+----
 237:layouts/community/ergodox/albert/keymap.c ****  *   |MsLeft|MsDown|MsRight      |      |                                       |      |      |MsLe
 238:layouts/community/ergodox/albert/keymap.c ****  *   `----------------------------------'                                       `------------------
 239:layouts/community/ergodox/albert/keymap.c ****  *                                        ,-------------.       ,-------------.
 240:layouts/community/ergodox/albert/keymap.c ****  *                                        |      |      |       |      |      |
 241:layouts/community/ergodox/albert/keymap.c ****  *                                 ,------|------|------|       |------+------+------.
 242:layouts/community/ergodox/albert/keymap.c ****  *                                 |      |      |      |       |      |      |      |
 243:layouts/community/ergodox/albert/keymap.c ****  *                                 |      |      |------|       |------|      |      |
 244:layouts/community/ergodox/albert/keymap.c ****  *                                 |      |      |      |       |      |      |      |
 245:layouts/community/ergodox/albert/keymap.c ****  *                                 `--------------------'       `--------------------'
 246:layouts/community/ergodox/albert/keymap.c ****  */
 247:layouts/community/ergodox/albert/keymap.c **** [MOUS] = LAYOUT_ergodox(
 248:layouts/community/ergodox/albert/keymap.c ****         // left hand
 249:layouts/community/ergodox/albert/keymap.c ****         KC_NO,     KC_NO,     KC_NO,     KC_NO,     KC_NO,     KC_NO,     KC_NO,
 250:layouts/community/ergodox/albert/keymap.c ****         KC_NO,     KC_NO,     KC_BTN1,   KC_MS_U,   KC_BTN2,   KC_NO,     KC_NO,
 251:layouts/community/ergodox/albert/keymap.c ****         KC_NO,     KC_NO,     KC_MS_L,   KC_MS_D,   KC_MS_R,   KC_NO,
 252:layouts/community/ergodox/albert/keymap.c ****         KC_BTN1,   KC_MS_U,   KC_BTN2,   KC_MS_D,   KC_NO,     KC_TRNS,   KC_NO,
 253:layouts/community/ergodox/albert/keymap.c ****         KC_MS_L,   KC_MS_D,   KC_MS_R,   KC_NO,     KC_NO,
 254:layouts/community/ergodox/albert/keymap.c ****                                                                    KC_NO,   KC_NO,
 255:layouts/community/ergodox/albert/keymap.c ****                                                                             KC_NO,
 256:layouts/community/ergodox/albert/keymap.c ****                                                           KC_NO,   KC_NO,   KC_NO,
 257:layouts/community/ergodox/albert/keymap.c ****         // right hand
 258:layouts/community/ergodox/albert/keymap.c ****              KC_NO,     KC_NO,     KC_NO,     KC_NO,     KC_NO,     KC_NO,     KC_NO,
 259:layouts/community/ergodox/albert/keymap.c ****              KC_NO,     KC_NO,     KC_BTN1,   KC_MS_U,   KC_BTN2,   KC_NO,     KC_NO,
 260:layouts/community/ergodox/albert/keymap.c ****                         KC_NO,     KC_MS_L,   KC_MS_D,   KC_MS_R,   KC_NO,     KC_NO,
 261:layouts/community/ergodox/albert/keymap.c ****              KC_NO,     KC_TRNS,   KC_NO,     KC_MS_D,   KC_BTN1,   KC_MS_U,   KC_BTN2,
 262:layouts/community/ergodox/albert/keymap.c ****                                    KC_NO,     KC_NO,     KC_MS_L,   KC_MS_D,   KC_MS_R,
 263:layouts/community/ergodox/albert/keymap.c ****            KC_NO,   KC_NO,
 264:layouts/community/ergodox/albert/keymap.c ****            KC_NO,
 265:layouts/community/ergodox/albert/keymap.c ****            KC_NO,   KC_NO,   KC_NO
 266:layouts/community/ergodox/albert/keymap.c ****     ),
 267:layouts/community/ergodox/albert/keymap.c **** /* Keymap 5: Keywords
 268:layouts/community/ergodox/albert/keymap.c ****  *
 269:layouts/community/ergodox/albert/keymap.c ****  * ,---------------------------------------------------.           ,-------------------------------
 270:layouts/community/ergodox/albert/keymap.c ****  * |         |      |      | scarf| sadf | smily|      |           |      | decaf|      |      |   
 271:layouts/community/ergodox/albert/keymap.c ****  * |---------+------+------+------+------+------+------|           |------+------+------+------+---
 272:layouts/community/ergodox/albert/keymap.c ****  * |         | const| volat| oper |  ret | tmpl |      |           |      | typen| cont |  prv |  p
 273:layouts/community/ergodox/albert/keymap.c ****  * |---------+------+------+------+------+------|      |           |      |------+------+------+---
 274:layouts/community/ergodox/albert/keymap.c ****  * |         |      |  str |  obj |      | gitl |------|           |------|      |      |      | nu
 275:layouts/community/ergodox/albert/keymap.c ****  * |---------+------+------+------+------+------|      |           |      |------+------+------+---
 276:layouts/community/ergodox/albert/keymap.c ****  * |         |      | extr |  cls | virt | break|      |           |      |namesp| goodm| goodn|   
 277:layouts/community/ergodox/albert/keymap.c ****  * `---------+------+------+------+------+-------------'           `-------------+------+------+---
 278:layouts/community/ergodox/albert/keymap.c ****  *   |       |      |  inc |      |      |                                       |      |      |   
 279:layouts/community/ergodox/albert/keymap.c ****  *   `-----------------------------------'                                       `-----------------
 280:layouts/community/ergodox/albert/keymap.c ****  *                                        ,-------------.       ,-------------.
 281:layouts/community/ergodox/albert/keymap.c ****  *                                        |      |      |       | ecet | ecets|
 282:layouts/community/ergodox/albert/keymap.c ****  *                                 ,------|------|------|       |------+------+------.
 283:layouts/community/ergodox/albert/keymap.c ****  *                                 |      |      |      |       |      |      |      |
 284:layouts/community/ergodox/albert/keymap.c ****  *                                 |      |      |------|       |------|      |      |
 285:layouts/community/ergodox/albert/keymap.c ****  *                                 |      |      |  ##  |       |  ##  |      |      |
 286:layouts/community/ergodox/albert/keymap.c ****  *                                 `--------------------'       `--------------------'
 287:layouts/community/ergodox/albert/keymap.c ****  */
 288:layouts/community/ergodox/albert/keymap.c **** [KEYW] = LAYOUT_ergodox(
 289:layouts/community/ergodox/albert/keymap.c ****         // left hand
 290:layouts/community/ergodox/albert/keymap.c ****         KC_NO,     KC_NO,     KC_NO,     UM_SCARF,  UM_SADF,   UM_SMILY,   KC_NO,
 291:layouts/community/ergodox/albert/keymap.c ****         KC_NO,     UM_CONST,  UM_VOLAT,  UM_OPER,   UM_RET,    UM_TMPL,    KC_NO,
 292:layouts/community/ergodox/albert/keymap.c ****         KC_NO,     KC_NO,     UM_STR,    UM_OBJ,    KC_NO,     UM_GITLOG,
 293:layouts/community/ergodox/albert/keymap.c ****         KC_NO,     KC_NO,     UM_EXTR,   UM_CLS,    UM_VIRT,   UM_BREAK,   KC_NO,
 294:layouts/community/ergodox/albert/keymap.c ****         KC_NO,     KC_NO,     UM_INC,    KC_NO,     KC_NO,
 295:layouts/community/ergodox/albert/keymap.c ****                                                                    KC_NO,    KC_NO,
 296:layouts/community/ergodox/albert/keymap.c ****                                                                              KC_NO,
 297:layouts/community/ergodox/albert/keymap.c ****                                                           KC_NO,   KC_NO,    KC_TRNS,
 298:layouts/community/ergodox/albert/keymap.c ****         // right hand
 299:layouts/community/ergodox/albert/keymap.c ****              KC_NO,     UM_DECAF,  KC_NO,     KC_NO,     KC_NO,     KC_NO,     KC_NO,
 300:layouts/community/ergodox/albert/keymap.c ****              KC_NO,     UM_TYPN,   UM_CONT,   UM_PRV,    UM_PRO,    UM_PUB,    KC_NO,
 301:layouts/community/ergodox/albert/keymap.c ****                         KC_NO,     KC_NO,     KC_NO,     UM_NULP,   KC_NO,     KC_NO,
 302:layouts/community/ergodox/albert/keymap.c ****              KC_NO,     UM_NAMESP, UM_GOODM,  UM_GOODN,  KC_NO,     KC_NO,     KC_NO,
 303:layouts/community/ergodox/albert/keymap.c ****                                    KC_NO,     KC_NO,     KC_NO,     KC_NO,     KC_NO,
 304:layouts/community/ergodox/albert/keymap.c ****            UM_ECET,  UM_ECETS,
 305:layouts/community/ergodox/albert/keymap.c ****            KC_NO,
 306:layouts/community/ergodox/albert/keymap.c ****            KC_TRNS,  KC_NO,   KC_NO
 307:layouts/community/ergodox/albert/keymap.c ****     ),
 308:layouts/community/ergodox/albert/keymap.c **** /* Keymap 6: emacs
 309:layouts/community/ergodox/albert/keymap.c ****  *
 310:layouts/community/ergodox/albert/keymap.c ****  * ,---------------------------------------------------.           ,-------------------------------
 311:layouts/community/ergodox/albert/keymap.c ****  * |         |      |      |      |      |      | empb |           | emnb | emfs | emfb |      |   
 312:layouts/community/ergodox/albert/keymap.c ****  * |---------+------+------+------+------+------+------|           |------+------+------+------+---
 313:layouts/community/ergodox/albert/keymap.c ****  * |         | emtr |      |      |      |      |      |           |      | emun | emre | w-up |   
 314:layouts/community/ergodox/albert/keymap.c ****  * |---------+------+------+------+------+------|      |           |      |------+------+------+---
 315:layouts/community/ergodox/albert/keymap.c ****  * |         |      | emwr |      |      |      |------|           |------|      |w-left|w-down|w-r
 316:layouts/community/ergodox/albert/keymap.c ****  * |---------+------+------+------+------+------|  ##  |           |  ##  |------+------+------+---
 317:layouts/community/ergodox/albert/keymap.c ****  * |         |      |      |      |      |      |      |           |      |      |      |w-down|   
 318:layouts/community/ergodox/albert/keymap.c ****  * `---------+------+------+------+------+-------------'           `-------------+------+------+---
 319:layouts/community/ergodox/albert/keymap.c ****  *   |       |      |      |      |      |                                       |      |      |   
 320:layouts/community/ergodox/albert/keymap.c ****  *   `-----------------------------------'                                       `-----------------
 321:layouts/community/ergodox/albert/keymap.c ****  *                                        ,-------------.       ,-------------.
 322:layouts/community/ergodox/albert/keymap.c ****  *                                        |      |      |       |      |      |
 323:layouts/community/ergodox/albert/keymap.c ****  *                                 ,------|------|------|       |------+------+------.
 324:layouts/community/ergodox/albert/keymap.c ****  *                                 |      |      |      |       |      |      |      |
 325:layouts/community/ergodox/albert/keymap.c ****  *                                 |      |      |------|       |------|      |      |
 326:layouts/community/ergodox/albert/keymap.c ****  *                                 |      |      |      |       |      |      |      |
 327:layouts/community/ergodox/albert/keymap.c ****  *                                 `--------------------'       `--------------------'
 328:layouts/community/ergodox/albert/keymap.c ****  */
 329:layouts/community/ergodox/albert/keymap.c **** [EMAC] = LAYOUT_ergodox(
 330:layouts/community/ergodox/albert/keymap.c ****         // left hand
 331:layouts/community/ergodox/albert/keymap.c ****         KC_NO,     KC_NO,     KC_NO,     KC_NO,     KC_NO,     KC_NO,     UM_EMPB,
 332:layouts/community/ergodox/albert/keymap.c ****         KC_NO,     UM_EMTR,   KC_NO,     KC_NO,     KC_NO,     KC_NO,     KC_NO,
 333:layouts/community/ergodox/albert/keymap.c ****         KC_NO,     KC_NO,     UM_EMWR,   KC_NO,     KC_NO,     KC_NO,
 334:layouts/community/ergodox/albert/keymap.c ****         KC_NO,     KC_NO,     KC_NO,     KC_NO,     KC_NO,     KC_NO,     KC_TRNS,
 335:layouts/community/ergodox/albert/keymap.c ****         KC_NO,     KC_NO,     KC_NO,     KC_NO,     KC_NO,
 336:layouts/community/ergodox/albert/keymap.c ****                                                                    KC_NO,   KC_NO,
 337:layouts/community/ergodox/albert/keymap.c ****                                                                             KC_NO,
 338:layouts/community/ergodox/albert/keymap.c ****                                                           KC_NO,   KC_NO,   KC_NO,
 339:layouts/community/ergodox/albert/keymap.c ****         // right hand
 340:layouts/community/ergodox/albert/keymap.c ****              UM_EMNB,   UM_EMFS,  UM_EMFB,        KC_NO,          KC_NO,          KC_NO,     KC_NO,
 341:layouts/community/ergodox/albert/keymap.c ****              KC_NO,     UM_EMUN,  UM_EMRE,        LSFT(KC_UP),    KC_NO,          KC_NO,     KC_NO,
 342:layouts/community/ergodox/albert/keymap.c ****                         KC_NO,    LSFT(KC_LEFT),  LSFT(KC_DOWN),  LSFT(KC_RGHT),  KC_NO,     KC_NO,
 343:layouts/community/ergodox/albert/keymap.c ****              KC_TRNS,   KC_NO,    KC_NO,          LSFT(KC_DOWN),  KC_NO,          KC_NO,     KC_NO,
 344:layouts/community/ergodox/albert/keymap.c ****                                   KC_NO,          KC_NO,          KC_NO,          KC_NO,     KC_NO,
 345:layouts/community/ergodox/albert/keymap.c ****            KC_NO,   KC_NO,
 346:layouts/community/ergodox/albert/keymap.c ****            KC_NO,
 347:layouts/community/ergodox/albert/keymap.c ****            KC_NO,   KC_NO,   KC_NO
 348:layouts/community/ergodox/albert/keymap.c ****     ),
 349:layouts/community/ergodox/albert/keymap.c **** };
 350:layouts/community/ergodox/albert/keymap.c **** 
 351:layouts/community/ergodox/albert/keymap.c **** enum next_key_down_up {
 352:layouts/community/ergodox/albert/keymap.c ****     NK_DOWN_UP,
 353:layouts/community/ergodox/albert/keymap.c ****     NK_DOWN,
 354:layouts/community/ergodox/albert/keymap.c ****     NK_UP // a bit of a hack, this works as long as NK_UP < KC_A
 355:layouts/community/ergodox/albert/keymap.c **** };
 356:layouts/community/ergodox/albert/keymap.c **** 
 357:layouts/community/ergodox/albert/keymap.c **** void send_keystrokes(uint8_t key, ...)
 358:layouts/community/ergodox/albert/keymap.c **** {
  17               		.loc 1 358 1 view -0
  18               		.cfi_startproc
  19               		.loc 1 358 1 is_stmt 0 view .LVU1
  20 0000 EF92      		push r14
  21               	.LCFI0:
  22               		.cfi_def_cfa_offset 3
  23               		.cfi_offset 14, -2
  24 0002 FF92      		push r15
  25               	.LCFI1:
  26               		.cfi_def_cfa_offset 4
  27               		.cfi_offset 15, -3
  28 0004 1F93      		push r17
  29               	.LCFI2:
  30               		.cfi_def_cfa_offset 5
  31               		.cfi_offset 17, -4
  32 0006 CF93      		push r28
  33               	.LCFI3:
  34               		.cfi_def_cfa_offset 6
  35               		.cfi_offset 28, -5
  36 0008 DF93      		push r29
  37               	.LCFI4:
  38               		.cfi_def_cfa_offset 7
  39               		.cfi_offset 29, -6
  40 000a CDB7      		in r28,__SP_L__
  41 000c DEB7      		in r29,__SP_H__
  42               	.LCFI5:
  43               		.cfi_def_cfa_register 28
  44               	/* prologue: function */
  45               	/* frame size = 0 */
  46               	/* stack size = 5 */
  47               	.L__stack_usage = 5
  48 000e FE01      		movw r30,r28
  49 0010 3896      		adiw r30,8
  50 0012 1191      		ld r17,Z+
 359:layouts/community/ergodox/albert/keymap.c ****     va_list vl;
  51               		.loc 1 359 5 is_stmt 1 view .LVU2
 360:layouts/community/ergodox/albert/keymap.c ****     va_start(vl, key);
  52               		.loc 1 360 5 view .LVU3
  53 0014 7F01      		movw r14,r30
  54               	.LVL1:
 361:layouts/community/ergodox/albert/keymap.c ****     enum next_key_down_up nkdu = NK_DOWN_UP;
  55               		.loc 1 361 5 view .LVU4
 362:layouts/community/ergodox/albert/keymap.c ****     while (key != KC_NO) {
  56               		.loc 1 362 5 view .LVU5
 361:layouts/community/ergodox/albert/keymap.c ****     enum next_key_down_up nkdu = NK_DOWN_UP;
  57               		.loc 1 361 27 is_stmt 0 view .LVU6
  58 0016 80E0      		ldi r24,0
  59               	.LVL2:
  60               	.L2:
  61               		.loc 1 362 11 view .LVU7
  62 0018 1111      		cpse r17,__zero_reg__
  63 001a 00C0      		rjmp .L7
  64               	/* epilogue start */
 363:layouts/community/ergodox/albert/keymap.c ****         if (key < KC_A) {
 364:layouts/community/ergodox/albert/keymap.c ****             nkdu = key;
 365:layouts/community/ergodox/albert/keymap.c ****         } else {
 366:layouts/community/ergodox/albert/keymap.c ****             switch (nkdu) {
 367:layouts/community/ergodox/albert/keymap.c ****             case NK_DOWN_UP:
 368:layouts/community/ergodox/albert/keymap.c ****                 register_code(key);
 369:layouts/community/ergodox/albert/keymap.c ****             case NK_UP:
 370:layouts/community/ergodox/albert/keymap.c ****                 unregister_code(key);
 371:layouts/community/ergodox/albert/keymap.c ****                 break;
 372:layouts/community/ergodox/albert/keymap.c ****             case NK_DOWN:
 373:layouts/community/ergodox/albert/keymap.c ****                 register_code(key);
 374:layouts/community/ergodox/albert/keymap.c ****             }
 375:layouts/community/ergodox/albert/keymap.c ****             nkdu = NK_DOWN_UP;
 376:layouts/community/ergodox/albert/keymap.c ****         }
 377:layouts/community/ergodox/albert/keymap.c ****         key = va_arg(vl, int);
 378:layouts/community/ergodox/albert/keymap.c ****     }
 379:layouts/community/ergodox/albert/keymap.c ****     va_end(vl);
 380:layouts/community/ergodox/albert/keymap.c **** }
  65               		.loc 1 380 1 view .LVU8
  66 001c DF91      		pop r29
  67 001e CF91      		pop r28
  68 0020 1F91      		pop r17
  69               	.LVL3:
  70               		.loc 1 380 1 view .LVU9
  71 0022 FF90      		pop r15
  72 0024 EF90      		pop r14
  73               	.LVL4:
  74               		.loc 1 380 1 view .LVU10
  75 0026 0895      		ret
  76               	.LVL5:
  77               	.L7:
 363:layouts/community/ergodox/albert/keymap.c ****         if (key < KC_A) {
  78               		.loc 1 363 9 is_stmt 1 view .LVU11
 363:layouts/community/ergodox/albert/keymap.c ****         if (key < KC_A) {
  79               		.loc 1 363 12 is_stmt 0 view .LVU12
  80 0028 1430      		cpi r17,lo8(4)
  81 002a 00F0      		brlo .L3
 366:layouts/community/ergodox/albert/keymap.c ****             case NK_DOWN_UP:
  82               		.loc 1 366 13 is_stmt 1 view .LVU13
  83 002c 8130      		cpi r24,lo8(1)
  84 002e 01F0      		breq .L4
  85 0030 8823      		tst r24
  86 0032 01F0      		breq .L5
  87 0034 8230      		cpi r24,lo8(2)
  88 0036 01F0      		breq .L6
  89               	.LVL6:
  90               	.L11:
 375:layouts/community/ergodox/albert/keymap.c ****         }
  91               		.loc 1 375 18 is_stmt 0 view .LVU14
  92 0038 10E0      		ldi r17,0
  93               	.LVL7:
  94               	.L3:
 377:layouts/community/ergodox/albert/keymap.c ****     }
  95               		.loc 1 377 9 is_stmt 1 view .LVU15
 377:layouts/community/ergodox/albert/keymap.c ****     }
  96               		.loc 1 377 13 is_stmt 0 view .LVU16
  97 003a F701      		movw r30,r14
  98 003c 9081      		ld r25,Z
  99               	.LVL8:
 377:layouts/community/ergodox/albert/keymap.c ****     }
 100               		.loc 1 377 15 view .LVU17
 101 003e 9701      		movw r18,r14
 102 0040 2E5F      		subi r18,-2
 103 0042 3F4F      		sbci r19,-1
 104               	.LVL9:
 377:layouts/community/ergodox/albert/keymap.c ****     }
 105               		.loc 1 377 15 view .LVU18
 106 0044 7901      		movw r14,r18
 377:layouts/community/ergodox/albert/keymap.c ****     }
 107               		.loc 1 377 13 view .LVU19
 108 0046 812F      		mov r24,r17
 109 0048 192F      		mov r17,r25
 110               	.LVL10:
 377:layouts/community/ergodox/albert/keymap.c ****     }
 111               		.loc 1 377 13 view .LVU20
 112 004a 00C0      		rjmp .L2
 113               	.LVL11:
 114               	.L5:
 368:layouts/community/ergodox/albert/keymap.c ****             case NK_UP:
 115               		.loc 1 368 17 is_stmt 1 view .LVU21
 116 004c 812F      		mov r24,r17
 117               	.LVL12:
 368:layouts/community/ergodox/albert/keymap.c ****             case NK_UP:
 118               		.loc 1 368 17 is_stmt 0 view .LVU22
 119 004e 0E94 0000 		call register_code
 120               	.LVL13:
 121               	.L6:
 370:layouts/community/ergodox/albert/keymap.c ****                 break;
 122               		.loc 1 370 17 is_stmt 1 view .LVU23
 123 0052 812F      		mov r24,r17
 124 0054 0E94 0000 		call unregister_code
 125               	.LVL14:
 371:layouts/community/ergodox/albert/keymap.c ****             case NK_DOWN:
 126               		.loc 1 371 17 view .LVU24
 127 0058 00C0      		rjmp .L11
 128               	.LVL15:
 129               	.L4:
 373:layouts/community/ergodox/albert/keymap.c ****             }
 130               		.loc 1 373 17 view .LVU25
 131 005a 812F      		mov r24,r17
 132               	.LVL16:
 373:layouts/community/ergodox/albert/keymap.c ****             }
 133               		.loc 1 373 17 is_stmt 0 view .LVU26
 134 005c 0E94 0000 		call register_code
 135               	.LVL17:
 136 0060 00C0      		rjmp .L11
 137               		.cfi_endproc
 138               	.LFE128:
 140               		.section	.text.action_get_macro,"ax",@progbits
 141               	.global	action_get_macro
 143               	action_get_macro:
 144               	.LFB129:
 381:layouts/community/ergodox/albert/keymap.c **** 
 382:layouts/community/ergodox/albert/keymap.c **** const macro_t *action_get_macro(keyrecord_t *record, uint8_t id, uint8_t opt)
 383:layouts/community/ergodox/albert/keymap.c **** {
 145               		.loc 1 383 1 is_stmt 1 view -0
 146               		.cfi_startproc
 147               	/* prologue: function */
 148               	/* frame size = 0 */
 149               	/* stack size = 0 */
 150               	.L__stack_usage = 0
 151 0000 DC01      		movw r26,r24
 384:layouts/community/ergodox/albert/keymap.c ****   // MACRODOWN only works in this function
 385:layouts/community/ergodox/albert/keymap.c ****     switch(id) {
 152               		.loc 1 385 5 view .LVU28
 153 0002 6732      		cpi r22,lo8(39)
 154 0004 00F0      		brlo .+2
 155 0006 00C0      		rjmp .L89
 156 0008 E62F      		mov r30,r22
 157 000a F0E0      		ldi r31,0
 158 000c E050      		subi r30,lo8(-(gs(.L15)))
 159 000e F040      		sbci r31,hi8(-(gs(.L15)))
 160 0010 0C94 0000 		jmp __tablejump2__
 161               		.section	.jumptables.gcc.action_get_macro,"a",@progbits
 162               		.p2align	1
 163               	.L15:
 164 0000 0000      		.word gs(.L51)
 165 0002 0000      		.word gs(.L50)
 166 0004 0000      		.word gs(.L49)
 167 0006 0000      		.word gs(.L48)
 168 0008 0000      		.word gs(.L47)
 169 000a 0000      		.word gs(.L46)
 170 000c 0000      		.word gs(.L45)
 171 000e 0000      		.word gs(.L44)
 172 0010 0000      		.word gs(.L43)
 173 0012 0000      		.word gs(.L42)
 174 0014 0000      		.word gs(.L41)
 175 0016 0000      		.word gs(.L40)
 176 0018 0000      		.word gs(.L39)
 177 001a 0000      		.word gs(.L89)
 178 001c 0000      		.word gs(.L38)
 179 001e 0000      		.word gs(.L37)
 180 0020 0000      		.word gs(.L36)
 181 0022 0000      		.word gs(.L35)
 182 0024 0000      		.word gs(.L34)
 183 0026 0000      		.word gs(.L33)
 184 0028 0000      		.word gs(.L32)
 185 002a 0000      		.word gs(.L89)
 186 002c 0000      		.word gs(.L31)
 187 002e 0000      		.word gs(.L30)
 188 0030 0000      		.word gs(.L29)
 189 0032 0000      		.word gs(.L28)
 190 0034 0000      		.word gs(.L27)
 191 0036 0000      		.word gs(.L26)
 192 0038 0000      		.word gs(.L25)
 193 003a 0000      		.word gs(.L24)
 194 003c 0000      		.word gs(.L23)
 195 003e 0000      		.word gs(.L22)
 196 0040 0000      		.word gs(.L21)
 197 0042 0000      		.word gs(.L20)
 198 0044 0000      		.word gs(.L19)
 199 0046 0000      		.word gs(.L18)
 200 0048 0000      		.word gs(.L17)
 201 004a 0000      		.word gs(.L16)
 202 004c 0000      		.word gs(.L14)
 203               		.section	.text.action_get_macro
 204               	.L51:
 386:layouts/community/ergodox/albert/keymap.c ****     case 0: // { }
 387:layouts/community/ergodox/albert/keymap.c ****         if (record->event.pressed) {
 205               		.loc 1 387 9 view .LVU29
 206               		.loc 1 387 12 is_stmt 0 view .LVU30
 207 0014 1296      		adiw r26,2
 208 0016 8C91      		ld r24,X
 209 0018 8823      		tst r24
 210 001a 01F4      		brne .+2
 211 001c 00C0      		rjmp .L89
 388:layouts/community/ergodox/albert/keymap.c ****             return MACRO(T(ENT), D(LSFT), T(LBRC), U(LSFT), T(ENT),
 212               		.loc 1 388 20 view .LVU31
 213 001e 80E0      		ldi r24,lo8(__m.6081)
 214 0020 90E0      		ldi r25,hi8(__m.6081)
 215 0022 0895      		ret
 216               	.L50:
 389:layouts/community/ergodox/albert/keymap.c ****                          D(LSFT), T(RBRC), U(LSFT), T(UP),
 390:layouts/community/ergodox/albert/keymap.c ****                          T(TAB), END);
 391:layouts/community/ergodox/albert/keymap.c ****         }
 392:layouts/community/ergodox/albert/keymap.c ****         break;
 393:layouts/community/ergodox/albert/keymap.c ****     case 1:
 394:layouts/community/ergodox/albert/keymap.c ****         if (record->event.pressed) {
 217               		.loc 1 394 9 is_stmt 1 view .LVU32
 218               		.loc 1 394 12 is_stmt 0 view .LVU33
 219 0024 1296      		adiw r26,2
 220 0026 8C91      		ld r24,X
 221 0028 8823      		tst r24
 222 002a 01F4      		brne .+2
 223 002c 00C0      		rjmp .L89
 395:layouts/community/ergodox/albert/keymap.c ****             return MACRO(T(0), T(X), END);
 224               		.loc 1 395 20 view .LVU34
 225 002e 80E0      		ldi r24,lo8(__m.6085)
 226 0030 90E0      		ldi r25,hi8(__m.6085)
 227 0032 0895      		ret
 228               	.L49:
 396:layouts/community/ergodox/albert/keymap.c ****         }
 397:layouts/community/ergodox/albert/keymap.c ****         break;
 398:layouts/community/ergodox/albert/keymap.c ****     case 2:
 399:layouts/community/ergodox/albert/keymap.c ****         if (record->event.pressed) {
 229               		.loc 1 399 9 is_stmt 1 view .LVU35
 230               		.loc 1 399 12 is_stmt 0 view .LVU36
 231 0034 1296      		adiw r26,2
 232 0036 8C91      		ld r24,X
 233 0038 8823      		tst r24
 234 003a 01F4      		brne .+2
 235 003c 00C0      		rjmp .L89
 400:layouts/community/ergodox/albert/keymap.c ****             SEND_STRING("public");
 236               		.loc 1 400 13 is_stmt 1 view .LVU37
 237               	.LBB2:
 238               		.loc 1 400 13 view .LVU38
 239               		.loc 1 400 13 view .LVU39
 240               	.LBE2:
 241 003e 80E0      		ldi r24,lo8(__c.6088)
 242 0040 90E0      		ldi r25,hi8(__c.6088)
 243               	.L90:
 401:layouts/community/ergodox/albert/keymap.c ****         }
 402:layouts/community/ergodox/albert/keymap.c ****         break;
 403:layouts/community/ergodox/albert/keymap.c ****     case 3:
 404:layouts/community/ergodox/albert/keymap.c ****         if (record->event.pressed) {
 405:layouts/community/ergodox/albert/keymap.c ****             SEND_STRING("protected");
 406:layouts/community/ergodox/albert/keymap.c ****         }
 407:layouts/community/ergodox/albert/keymap.c ****         break;
 408:layouts/community/ergodox/albert/keymap.c ****     case 4:
 409:layouts/community/ergodox/albert/keymap.c ****         if (record->event.pressed) {
 410:layouts/community/ergodox/albert/keymap.c ****             SEND_STRING("private");
 411:layouts/community/ergodox/albert/keymap.c ****         }
 412:layouts/community/ergodox/albert/keymap.c ****         break;
 413:layouts/community/ergodox/albert/keymap.c ****     case 5: // class
 414:layouts/community/ergodox/albert/keymap.c ****         if (record->event.pressed) {
 415:layouts/community/ergodox/albert/keymap.c ****             return MACRO(T(C), T(L), T(A), T(S), T(S), T(ENT),
 416:layouts/community/ergodox/albert/keymap.c ****                          D(LSFT), T(LBRC), U(LSFT), T(ENT),
 417:layouts/community/ergodox/albert/keymap.c ****                          T(P), T(U), T(B), T(L), T(I), T(C),
 418:layouts/community/ergodox/albert/keymap.c ****                          D(LSFT), T(SCLN), U(LSFT), T(ENT), T(ENT),
 419:layouts/community/ergodox/albert/keymap.c ****                          T(P), T(R), T(I), T(V), T(A), T(T), T(E),
 420:layouts/community/ergodox/albert/keymap.c ****                          D(LSFT), T(SCLN), U(LSFT), T(ENT),
 421:layouts/community/ergodox/albert/keymap.c ****                          D(LSFT), T(RBRC), U(LSFT), T(SCLN), T(ENT),
 422:layouts/community/ergodox/albert/keymap.c ****                          T(UP), T(UP), T(UP), T(UP), T(UP), T(UP), T(UP),
 423:layouts/community/ergodox/albert/keymap.c ****                          T(END), T(SPC), END);
 424:layouts/community/ergodox/albert/keymap.c ****         }
 425:layouts/community/ergodox/albert/keymap.c ****         break;
 426:layouts/community/ergodox/albert/keymap.c ****     case 6: // struct
 427:layouts/community/ergodox/albert/keymap.c ****         if (record->event.pressed) {
 428:layouts/community/ergodox/albert/keymap.c ****             return MACRO(T(S), T(T), T(R), T(U), T(C), T(T), T(ENT),
 429:layouts/community/ergodox/albert/keymap.c ****                          D(LSFT), T(LBRC), U(LSFT), T(ENT),
 430:layouts/community/ergodox/albert/keymap.c ****                          D(LSFT), T(RBRC), U(LSFT), T(SCLN), T(ENT),
 431:layouts/community/ergodox/albert/keymap.c ****                          T(UP), T(UP), T(UP), T(UP),
 432:layouts/community/ergodox/albert/keymap.c ****                          T(END), T(SPC), END);
 433:layouts/community/ergodox/albert/keymap.c ****         }
 434:layouts/community/ergodox/albert/keymap.c ****         break;
 435:layouts/community/ergodox/albert/keymap.c ****     case 7:
 436:layouts/community/ergodox/albert/keymap.c ****         if (record->event.pressed) {
 437:layouts/community/ergodox/albert/keymap.c ****             SEND_STRING("return");
 438:layouts/community/ergodox/albert/keymap.c ****         }
 439:layouts/community/ergodox/albert/keymap.c ****         break;
 440:layouts/community/ergodox/albert/keymap.c ****     case 8: // #include
 441:layouts/community/ergodox/albert/keymap.c ****         if (record->event.pressed) {
 442:layouts/community/ergodox/albert/keymap.c ****             return MACRO(T(NONUS_HASH), T(I), T(N), T(C), T(L), T(U), T(D), T(E), END);
 443:layouts/community/ergodox/albert/keymap.c ****         }
 444:layouts/community/ergodox/albert/keymap.c ****         break;
 445:layouts/community/ergodox/albert/keymap.c ****     case 9:
 446:layouts/community/ergodox/albert/keymap.c ****         if (record->event.pressed) {
 447:layouts/community/ergodox/albert/keymap.c ****             SEND_STRING("objdump -CT -x -d");
 448:layouts/community/ergodox/albert/keymap.c ****         }
 449:layouts/community/ergodox/albert/keymap.c ****         break;
 450:layouts/community/ergodox/albert/keymap.c ****     case 10:
 451:layouts/community/ergodox/albert/keymap.c ****         if (record->event.pressed) {
 452:layouts/community/ergodox/albert/keymap.c ****             SEND_STRING("git log --oneline --graph --decorate=short");
 453:layouts/community/ergodox/albert/keymap.c ****         }
 454:layouts/community/ergodox/albert/keymap.c ****         break;
 455:layouts/community/ergodox/albert/keymap.c ****     case 11:
 456:layouts/community/ergodox/albert/keymap.c ****         if (record->event.pressed) {
 457:layouts/community/ergodox/albert/keymap.c ****             SEND_STRING("good morning");
 458:layouts/community/ergodox/albert/keymap.c ****         }
 459:layouts/community/ergodox/albert/keymap.c ****         break;
 460:layouts/community/ergodox/albert/keymap.c ****     case 12:
 461:layouts/community/ergodox/albert/keymap.c ****         if (record->event.pressed) {
 462:layouts/community/ergodox/albert/keymap.c ****             SEND_STRING("namespace");
 463:layouts/community/ergodox/albert/keymap.c ****         }
 464:layouts/community/ergodox/albert/keymap.c ****         break;
 465:layouts/community/ergodox/albert/keymap.c ****     case 14: // emacs toggle read-only
 466:layouts/community/ergodox/albert/keymap.c ****         if (record->event.pressed) {
 467:layouts/community/ergodox/albert/keymap.c ****             return MACRO(D(LCTL), T(X), T(Q), U(LCTL), END);
 468:layouts/community/ergodox/albert/keymap.c ****         }
 469:layouts/community/ergodox/albert/keymap.c ****         break;
 470:layouts/community/ergodox/albert/keymap.c ****     case 15: // emacs write buffer
 471:layouts/community/ergodox/albert/keymap.c ****         if (record->event.pressed) {
 472:layouts/community/ergodox/albert/keymap.c ****             return MACRO(D(LCTL), T(X), T(S), U(LCTL), END);
 473:layouts/community/ergodox/albert/keymap.c ****         }
 474:layouts/community/ergodox/albert/keymap.c ****         break;
 475:layouts/community/ergodox/albert/keymap.c ****     case 16: // emacs undo
 476:layouts/community/ergodox/albert/keymap.c ****         if (record->event.pressed) {
 477:layouts/community/ergodox/albert/keymap.c ****             return MACRO(D(LCTL), D(LSFT), T(MINS), U(LSFT), U(LCTL), END);
 478:layouts/community/ergodox/albert/keymap.c ****         }
 479:layouts/community/ergodox/albert/keymap.c ****         break;
 480:layouts/community/ergodox/albert/keymap.c ****     case 17: // emacs redo
 481:layouts/community/ergodox/albert/keymap.c ****         if (record->event.pressed) {
 482:layouts/community/ergodox/albert/keymap.c ****             return MACRO(D(LALT), D(LSFT), T(MINS), U(LSFT), U(LALT), END);
 483:layouts/community/ergodox/albert/keymap.c ****         }
 484:layouts/community/ergodox/albert/keymap.c ****         break;
 485:layouts/community/ergodox/albert/keymap.c ****     case 18: // emacs previous buffer
 486:layouts/community/ergodox/albert/keymap.c ****         if (record->event.pressed) {
 487:layouts/community/ergodox/albert/keymap.c ****             return MACRO(D(LCTL), T(X), U(LCTL), T(LEFT), END);
 488:layouts/community/ergodox/albert/keymap.c ****         }
 489:layouts/community/ergodox/albert/keymap.c ****         break;
 490:layouts/community/ergodox/albert/keymap.c ****     case 19: // emacs next buffer
 491:layouts/community/ergodox/albert/keymap.c ****         if (record->event.pressed) {
 492:layouts/community/ergodox/albert/keymap.c ****             return MACRO(D(LCTL), T(X), U(LCTL), T(RGHT), END);
 493:layouts/community/ergodox/albert/keymap.c ****         }
 494:layouts/community/ergodox/albert/keymap.c ****         break;
 495:layouts/community/ergodox/albert/keymap.c ****     case 20:
 496:layouts/community/ergodox/albert/keymap.c ****         if (record->event.pressed) {
 497:layouts/community/ergodox/albert/keymap.c ****             SEND_STRING("good night");
 498:layouts/community/ergodox/albert/keymap.c ****         }
 499:layouts/community/ergodox/albert/keymap.c ****         break;
 500:layouts/community/ergodox/albert/keymap.c ****     case 22: // { };
 501:layouts/community/ergodox/albert/keymap.c ****         if (record->event.pressed) {
 502:layouts/community/ergodox/albert/keymap.c ****             return MACRO(T(ENT), D(LSFT), T(LBRC), U(LSFT), T(ENT),
 503:layouts/community/ergodox/albert/keymap.c ****                          D(LSFT), T(RBRC), U(LSFT), T(SCLN), T(UP),
 504:layouts/community/ergodox/albert/keymap.c ****                          T(TAB), END);
 505:layouts/community/ergodox/albert/keymap.c ****         }
 506:layouts/community/ergodox/albert/keymap.c ****         break;
 507:layouts/community/ergodox/albert/keymap.c ****     case 23:
 508:layouts/community/ergodox/albert/keymap.c ****         if (record->event.pressed) {
 509:layouts/community/ergodox/albert/keymap.c ****             SEND_STRING("template");
 510:layouts/community/ergodox/albert/keymap.c ****         }
 511:layouts/community/ergodox/albert/keymap.c ****         break;
 512:layouts/community/ergodox/albert/keymap.c ****     case 24:
 513:layouts/community/ergodox/albert/keymap.c ****         if (record->event.pressed) {
 514:layouts/community/ergodox/albert/keymap.c ****             SEND_STRING("typename");
 515:layouts/community/ergodox/albert/keymap.c ****         }
 516:layouts/community/ergodox/albert/keymap.c ****         break;
 517:layouts/community/ergodox/albert/keymap.c ****     case 25:
 518:layouts/community/ergodox/albert/keymap.c ****         if (record->event.pressed) {
 519:layouts/community/ergodox/albert/keymap.c ****             SEND_STRING("continue");
 520:layouts/community/ergodox/albert/keymap.c ****             return MACRO(T(SCLN), END);
 521:layouts/community/ergodox/albert/keymap.c ****         }
 522:layouts/community/ergodox/albert/keymap.c ****         break;
 523:layouts/community/ergodox/albert/keymap.c ****     case 26:
 524:layouts/community/ergodox/albert/keymap.c ****         if (record->event.pressed) {
 525:layouts/community/ergodox/albert/keymap.c ****             SEND_STRING("break");
 526:layouts/community/ergodox/albert/keymap.c ****             return MACRO(T(SCLN), END);
 527:layouts/community/ergodox/albert/keymap.c ****         }
 528:layouts/community/ergodox/albert/keymap.c ****         break;
 529:layouts/community/ergodox/albert/keymap.c ****     case 27:
 530:layouts/community/ergodox/albert/keymap.c ****         if (record->event.pressed) {
 531:layouts/community/ergodox/albert/keymap.c ****             SEND_STRING("const");
 532:layouts/community/ergodox/albert/keymap.c ****         }
 533:layouts/community/ergodox/albert/keymap.c ****         break;
 534:layouts/community/ergodox/albert/keymap.c ****     case 28:
 535:layouts/community/ergodox/albert/keymap.c ****         if (record->event.pressed) {
 536:layouts/community/ergodox/albert/keymap.c ****             SEND_STRING(":-)");
 537:layouts/community/ergodox/albert/keymap.c ****         }
 538:layouts/community/ergodox/albert/keymap.c ****         break;
 539:layouts/community/ergodox/albert/keymap.c ****     case 29:
 540:layouts/community/ergodox/albert/keymap.c ****         if (record->event.pressed) {
 541:layouts/community/ergodox/albert/keymap.c ****             SEND_STRING(":-(");
 542:layouts/community/ergodox/albert/keymap.c ****         }
 543:layouts/community/ergodox/albert/keymap.c ****         break;
 544:layouts/community/ergodox/albert/keymap.c ****     case 30: // dazed
 545:layouts/community/ergodox/albert/keymap.c ****         if (record->event.pressed) {
 546:layouts/community/ergodox/albert/keymap.c ****             send_keystrokes(NK_DOWN, KC_LSFT, KC_8, KC_MINS, KC_8, NK_UP, KC_LSFT, KC_NO);
 547:layouts/community/ergodox/albert/keymap.c ****         }
 548:layouts/community/ergodox/albert/keymap.c ****         break;
 549:layouts/community/ergodox/albert/keymap.c ****     case 31: // decaf
 550:layouts/community/ergodox/albert/keymap.c ****         if (record->event.pressed) {
 551:layouts/community/ergodox/albert/keymap.c ****             send_keystrokes(NK_DOWN, KC_LSFT, KC_C, KC_9, KC_MINS, KC_0, NK_UP, KC_LSFT, KC_NO);
 552:layouts/community/ergodox/albert/keymap.c ****         }
 553:layouts/community/ergodox/albert/keymap.c ****         break;
 554:layouts/community/ergodox/albert/keymap.c ****     case 32:
 555:layouts/community/ergodox/albert/keymap.c ****         if (record->event.pressed) {
 556:layouts/community/ergodox/albert/keymap.c ****             SEND_STRING("operator");
 557:layouts/community/ergodox/albert/keymap.c ****         }
 558:layouts/community/ergodox/albert/keymap.c ****         break;
 559:layouts/community/ergodox/albert/keymap.c ****     case 33:
 560:layouts/community/ergodox/albert/keymap.c ****         if (record->event.pressed) {
 561:layouts/community/ergodox/albert/keymap.c ****             SEND_STRING("nullptr");
 562:layouts/community/ergodox/albert/keymap.c ****         }
 563:layouts/community/ergodox/albert/keymap.c ****         break;
 564:layouts/community/ergodox/albert/keymap.c ****     case 34:
 565:layouts/community/ergodox/albert/keymap.c ****         if (record->event.pressed) {
 566:layouts/community/ergodox/albert/keymap.c ****             SEND_STRING("extern");
 567:layouts/community/ergodox/albert/keymap.c ****         }
 568:layouts/community/ergodox/albert/keymap.c ****         break;
 569:layouts/community/ergodox/albert/keymap.c ****     case 35:
 570:layouts/community/ergodox/albert/keymap.c ****         if (record->event.pressed) {
 571:layouts/community/ergodox/albert/keymap.c ****             SEND_STRING("virtual");
 572:layouts/community/ergodox/albert/keymap.c ****         }
 573:layouts/community/ergodox/albert/keymap.c ****         break;
 574:layouts/community/ergodox/albert/keymap.c ****     case 36: // emacs font smaller
 575:layouts/community/ergodox/albert/keymap.c ****         if (record->event.pressed) {
 576:layouts/community/ergodox/albert/keymap.c ****             return MACRO(D(LCTL), T(X), T(EQL), U(LCTL), END);
 577:layouts/community/ergodox/albert/keymap.c ****         }
 578:layouts/community/ergodox/albert/keymap.c ****         break;
 579:layouts/community/ergodox/albert/keymap.c ****     case 37:  // emacs font bigger
 580:layouts/community/ergodox/albert/keymap.c ****         if (record->event.pressed) {
 581:layouts/community/ergodox/albert/keymap.c ****             return MACRO(D(LCTL), T(X), T(MINS), U(LCTL), END);
 582:layouts/community/ergodox/albert/keymap.c ****         }
 583:layouts/community/ergodox/albert/keymap.c ****         break;
 584:layouts/community/ergodox/albert/keymap.c ****     case 38:
 585:layouts/community/ergodox/albert/keymap.c ****         if (record->event.pressed) {
 586:layouts/community/ergodox/albert/keymap.c ****             SEND_STRING("volatile");
 244               		.loc 1 586 13 is_stmt 0 view .LVU40
 245 0042 0E94 0000 		call send_string_P
 246 0046 00C0      		rjmp .L89
 247               	.L48:
 404:layouts/community/ergodox/albert/keymap.c ****             SEND_STRING("protected");
 248               		.loc 1 404 9 is_stmt 1 view .LVU41
 404:layouts/community/ergodox/albert/keymap.c ****             SEND_STRING("protected");
 249               		.loc 1 404 12 is_stmt 0 view .LVU42
 250 0048 1296      		adiw r26,2
 251 004a 8C91      		ld r24,X
 252 004c 8823      		tst r24
 253 004e 01F4      		brne .+2
 254 0050 00C0      		rjmp .L89
 405:layouts/community/ergodox/albert/keymap.c ****         }
 255               		.loc 1 405 13 is_stmt 1 view .LVU43
 256               	.LBB3:
 405:layouts/community/ergodox/albert/keymap.c ****         }
 257               		.loc 1 405 13 view .LVU44
 405:layouts/community/ergodox/albert/keymap.c ****         }
 258               		.loc 1 405 13 view .LVU45
 259               	.LBE3:
 260 0052 80E0      		ldi r24,lo8(__c.6091)
 261 0054 90E0      		ldi r25,hi8(__c.6091)
 262 0056 00C0      		rjmp .L90
 263               	.L47:
 409:layouts/community/ergodox/albert/keymap.c ****             SEND_STRING("private");
 264               		.loc 1 409 9 view .LVU46
 409:layouts/community/ergodox/albert/keymap.c ****             SEND_STRING("private");
 265               		.loc 1 409 12 is_stmt 0 view .LVU47
 266 0058 1296      		adiw r26,2
 267 005a 8C91      		ld r24,X
 268 005c 8823      		tst r24
 269 005e 01F4      		brne .+2
 270 0060 00C0      		rjmp .L89
 410:layouts/community/ergodox/albert/keymap.c ****         }
 271               		.loc 1 410 13 is_stmt 1 view .LVU48
 272               	.LBB4:
 410:layouts/community/ergodox/albert/keymap.c ****         }
 273               		.loc 1 410 13 view .LVU49
 410:layouts/community/ergodox/albert/keymap.c ****         }
 274               		.loc 1 410 13 view .LVU50
 275               	.LBE4:
 276 0062 80E0      		ldi r24,lo8(__c.6094)
 277 0064 90E0      		ldi r25,hi8(__c.6094)
 278 0066 00C0      		rjmp .L90
 279               	.L46:
 414:layouts/community/ergodox/albert/keymap.c ****             return MACRO(T(C), T(L), T(A), T(S), T(S), T(ENT),
 280               		.loc 1 414 9 view .LVU51
 414:layouts/community/ergodox/albert/keymap.c ****             return MACRO(T(C), T(L), T(A), T(S), T(S), T(ENT),
 281               		.loc 1 414 12 is_stmt 0 view .LVU52
 282 0068 1296      		adiw r26,2
 283 006a 8C91      		ld r24,X
 284 006c 8823      		tst r24
 285 006e 01F4      		brne .+2
 286 0070 00C0      		rjmp .L89
 415:layouts/community/ergodox/albert/keymap.c ****                          D(LSFT), T(LBRC), U(LSFT), T(ENT),
 287               		.loc 1 415 20 view .LVU53
 288 0072 80E0      		ldi r24,lo8(__m.6097)
 289 0074 90E0      		ldi r25,hi8(__m.6097)
 290 0076 0895      		ret
 291               	.L45:
 427:layouts/community/ergodox/albert/keymap.c ****             return MACRO(T(S), T(T), T(R), T(U), T(C), T(T), T(ENT),
 292               		.loc 1 427 9 is_stmt 1 view .LVU54
 427:layouts/community/ergodox/albert/keymap.c ****             return MACRO(T(S), T(T), T(R), T(U), T(C), T(T), T(ENT),
 293               		.loc 1 427 12 is_stmt 0 view .LVU55
 294 0078 1296      		adiw r26,2
 295 007a 8C91      		ld r24,X
 296 007c 8823      		tst r24
 297 007e 01F4      		brne .+2
 298 0080 00C0      		rjmp .L89
 428:layouts/community/ergodox/albert/keymap.c ****                          D(LSFT), T(LBRC), U(LSFT), T(ENT),
 299               		.loc 1 428 20 view .LVU56
 300 0082 80E0      		ldi r24,lo8(__m.6100)
 301 0084 90E0      		ldi r25,hi8(__m.6100)
 302 0086 0895      		ret
 303               	.L44:
 436:layouts/community/ergodox/albert/keymap.c ****             SEND_STRING("return");
 304               		.loc 1 436 9 is_stmt 1 view .LVU57
 436:layouts/community/ergodox/albert/keymap.c ****             SEND_STRING("return");
 305               		.loc 1 436 12 is_stmt 0 view .LVU58
 306 0088 1296      		adiw r26,2
 307 008a 8C91      		ld r24,X
 308 008c 8823      		tst r24
 309 008e 01F4      		brne .+2
 310 0090 00C0      		rjmp .L89
 437:layouts/community/ergodox/albert/keymap.c ****         }
 311               		.loc 1 437 13 is_stmt 1 view .LVU59
 312               	.LBB5:
 437:layouts/community/ergodox/albert/keymap.c ****         }
 313               		.loc 1 437 13 view .LVU60
 437:layouts/community/ergodox/albert/keymap.c ****         }
 314               		.loc 1 437 13 view .LVU61
 315               	.LBE5:
 316 0092 80E0      		ldi r24,lo8(__c.6103)
 317 0094 90E0      		ldi r25,hi8(__c.6103)
 318 0096 00C0      		rjmp .L90
 319               	.L43:
 441:layouts/community/ergodox/albert/keymap.c ****             return MACRO(T(NONUS_HASH), T(I), T(N), T(C), T(L), T(U), T(D), T(E), END);
 320               		.loc 1 441 9 view .LVU62
 441:layouts/community/ergodox/albert/keymap.c ****             return MACRO(T(NONUS_HASH), T(I), T(N), T(C), T(L), T(U), T(D), T(E), END);
 321               		.loc 1 441 12 is_stmt 0 view .LVU63
 322 0098 1296      		adiw r26,2
 323 009a 8C91      		ld r24,X
 324 009c 8823      		tst r24
 325 009e 01F4      		brne .+2
 326 00a0 00C0      		rjmp .L89
 442:layouts/community/ergodox/albert/keymap.c ****         }
 327               		.loc 1 442 20 view .LVU64
 328 00a2 80E0      		ldi r24,lo8(__m.6106)
 329 00a4 90E0      		ldi r25,hi8(__m.6106)
 330 00a6 0895      		ret
 331               	.L42:
 446:layouts/community/ergodox/albert/keymap.c ****             SEND_STRING("objdump -CT -x -d");
 332               		.loc 1 446 9 is_stmt 1 view .LVU65
 446:layouts/community/ergodox/albert/keymap.c ****             SEND_STRING("objdump -CT -x -d");
 333               		.loc 1 446 12 is_stmt 0 view .LVU66
 334 00a8 1296      		adiw r26,2
 335 00aa 8C91      		ld r24,X
 336 00ac 8823      		tst r24
 337 00ae 01F4      		brne .+2
 338 00b0 00C0      		rjmp .L89
 447:layouts/community/ergodox/albert/keymap.c ****         }
 339               		.loc 1 447 13 is_stmt 1 view .LVU67
 340               	.LBB6:
 447:layouts/community/ergodox/albert/keymap.c ****         }
 341               		.loc 1 447 13 view .LVU68
 447:layouts/community/ergodox/albert/keymap.c ****         }
 342               		.loc 1 447 13 view .LVU69
 343               	.LBE6:
 344 00b2 80E0      		ldi r24,lo8(__c.6109)
 345 00b4 90E0      		ldi r25,hi8(__c.6109)
 346 00b6 00C0      		rjmp .L90
 347               	.L41:
 451:layouts/community/ergodox/albert/keymap.c ****             SEND_STRING("git log --oneline --graph --decorate=short");
 348               		.loc 1 451 9 view .LVU70
 451:layouts/community/ergodox/albert/keymap.c ****             SEND_STRING("git log --oneline --graph --decorate=short");
 349               		.loc 1 451 12 is_stmt 0 view .LVU71
 350 00b8 1296      		adiw r26,2
 351 00ba 8C91      		ld r24,X
 352 00bc 8823      		tst r24
 353 00be 01F4      		brne .+2
 354 00c0 00C0      		rjmp .L89
 452:layouts/community/ergodox/albert/keymap.c ****         }
 355               		.loc 1 452 13 is_stmt 1 view .LVU72
 356               	.LBB7:
 452:layouts/community/ergodox/albert/keymap.c ****         }
 357               		.loc 1 452 13 view .LVU73
 452:layouts/community/ergodox/albert/keymap.c ****         }
 358               		.loc 1 452 13 view .LVU74
 359               	.LBE7:
 360 00c2 80E0      		ldi r24,lo8(__c.6112)
 361 00c4 90E0      		ldi r25,hi8(__c.6112)
 362 00c6 00C0      		rjmp .L90
 363               	.L40:
 456:layouts/community/ergodox/albert/keymap.c ****             SEND_STRING("good morning");
 364               		.loc 1 456 9 view .LVU75
 456:layouts/community/ergodox/albert/keymap.c ****             SEND_STRING("good morning");
 365               		.loc 1 456 12 is_stmt 0 view .LVU76
 366 00c8 1296      		adiw r26,2
 367 00ca 8C91      		ld r24,X
 368 00cc 8823      		tst r24
 369 00ce 01F4      		brne .+2
 370 00d0 00C0      		rjmp .L89
 457:layouts/community/ergodox/albert/keymap.c ****         }
 371               		.loc 1 457 13 is_stmt 1 view .LVU77
 372               	.LBB8:
 457:layouts/community/ergodox/albert/keymap.c ****         }
 373               		.loc 1 457 13 view .LVU78
 457:layouts/community/ergodox/albert/keymap.c ****         }
 374               		.loc 1 457 13 view .LVU79
 375               	.LBE8:
 376 00d2 80E0      		ldi r24,lo8(__c.6115)
 377 00d4 90E0      		ldi r25,hi8(__c.6115)
 378 00d6 00C0      		rjmp .L90
 379               	.L39:
 461:layouts/community/ergodox/albert/keymap.c ****             SEND_STRING("namespace");
 380               		.loc 1 461 9 view .LVU80
 461:layouts/community/ergodox/albert/keymap.c ****             SEND_STRING("namespace");
 381               		.loc 1 461 12 is_stmt 0 view .LVU81
 382 00d8 1296      		adiw r26,2
 383 00da 8C91      		ld r24,X
 384 00dc 8823      		tst r24
 385 00de 01F4      		brne .+2
 386 00e0 00C0      		rjmp .L89
 462:layouts/community/ergodox/albert/keymap.c ****         }
 387               		.loc 1 462 13 is_stmt 1 view .LVU82
 388               	.LBB9:
 462:layouts/community/ergodox/albert/keymap.c ****         }
 389               		.loc 1 462 13 view .LVU83
 462:layouts/community/ergodox/albert/keymap.c ****         }
 390               		.loc 1 462 13 view .LVU84
 391               	.LBE9:
 392 00e2 80E0      		ldi r24,lo8(__c.6118)
 393 00e4 90E0      		ldi r25,hi8(__c.6118)
 394 00e6 00C0      		rjmp .L90
 395               	.L38:
 466:layouts/community/ergodox/albert/keymap.c ****             return MACRO(D(LCTL), T(X), T(Q), U(LCTL), END);
 396               		.loc 1 466 9 view .LVU85
 466:layouts/community/ergodox/albert/keymap.c ****             return MACRO(D(LCTL), T(X), T(Q), U(LCTL), END);
 397               		.loc 1 466 12 is_stmt 0 view .LVU86
 398 00e8 1296      		adiw r26,2
 399 00ea 8C91      		ld r24,X
 400 00ec 8823      		tst r24
 401 00ee 01F4      		brne .+2
 402 00f0 00C0      		rjmp .L89
 467:layouts/community/ergodox/albert/keymap.c ****         }
 403               		.loc 1 467 20 view .LVU87
 404 00f2 80E0      		ldi r24,lo8(__m.6121)
 405 00f4 90E0      		ldi r25,hi8(__m.6121)
 406 00f6 0895      		ret
 407               	.L37:
 471:layouts/community/ergodox/albert/keymap.c ****             return MACRO(D(LCTL), T(X), T(S), U(LCTL), END);
 408               		.loc 1 471 9 is_stmt 1 view .LVU88
 471:layouts/community/ergodox/albert/keymap.c ****             return MACRO(D(LCTL), T(X), T(S), U(LCTL), END);
 409               		.loc 1 471 12 is_stmt 0 view .LVU89
 410 00f8 1296      		adiw r26,2
 411 00fa 8C91      		ld r24,X
 412 00fc 8823      		tst r24
 413 00fe 01F4      		brne .+2
 414 0100 00C0      		rjmp .L89
 472:layouts/community/ergodox/albert/keymap.c ****         }
 415               		.loc 1 472 20 view .LVU90
 416 0102 80E0      		ldi r24,lo8(__m.6124)
 417 0104 90E0      		ldi r25,hi8(__m.6124)
 418 0106 0895      		ret
 419               	.L36:
 476:layouts/community/ergodox/albert/keymap.c ****             return MACRO(D(LCTL), D(LSFT), T(MINS), U(LSFT), U(LCTL), END);
 420               		.loc 1 476 9 is_stmt 1 view .LVU91
 476:layouts/community/ergodox/albert/keymap.c ****             return MACRO(D(LCTL), D(LSFT), T(MINS), U(LSFT), U(LCTL), END);
 421               		.loc 1 476 12 is_stmt 0 view .LVU92
 422 0108 1296      		adiw r26,2
 423 010a 8C91      		ld r24,X
 424 010c 8823      		tst r24
 425 010e 01F4      		brne .+2
 426 0110 00C0      		rjmp .L89
 477:layouts/community/ergodox/albert/keymap.c ****         }
 427               		.loc 1 477 20 view .LVU93
 428 0112 80E0      		ldi r24,lo8(__m.6127)
 429 0114 90E0      		ldi r25,hi8(__m.6127)
 430 0116 0895      		ret
 431               	.L35:
 481:layouts/community/ergodox/albert/keymap.c ****             return MACRO(D(LALT), D(LSFT), T(MINS), U(LSFT), U(LALT), END);
 432               		.loc 1 481 9 is_stmt 1 view .LVU94
 481:layouts/community/ergodox/albert/keymap.c ****             return MACRO(D(LALT), D(LSFT), T(MINS), U(LSFT), U(LALT), END);
 433               		.loc 1 481 12 is_stmt 0 view .LVU95
 434 0118 1296      		adiw r26,2
 435 011a 8C91      		ld r24,X
 436 011c 8823      		tst r24
 437 011e 01F4      		brne .+2
 438 0120 00C0      		rjmp .L89
 482:layouts/community/ergodox/albert/keymap.c ****         }
 439               		.loc 1 482 20 view .LVU96
 440 0122 80E0      		ldi r24,lo8(__m.6130)
 441 0124 90E0      		ldi r25,hi8(__m.6130)
 442 0126 0895      		ret
 443               	.L34:
 486:layouts/community/ergodox/albert/keymap.c ****             return MACRO(D(LCTL), T(X), U(LCTL), T(LEFT), END);
 444               		.loc 1 486 9 is_stmt 1 view .LVU97
 486:layouts/community/ergodox/albert/keymap.c ****             return MACRO(D(LCTL), T(X), U(LCTL), T(LEFT), END);
 445               		.loc 1 486 12 is_stmt 0 view .LVU98
 446 0128 1296      		adiw r26,2
 447 012a 8C91      		ld r24,X
 448 012c 8823      		tst r24
 449 012e 01F4      		brne .+2
 450 0130 00C0      		rjmp .L89
 487:layouts/community/ergodox/albert/keymap.c ****         }
 451               		.loc 1 487 20 view .LVU99
 452 0132 80E0      		ldi r24,lo8(__m.6133)
 453 0134 90E0      		ldi r25,hi8(__m.6133)
 454 0136 0895      		ret
 455               	.L33:
 491:layouts/community/ergodox/albert/keymap.c ****             return MACRO(D(LCTL), T(X), U(LCTL), T(RGHT), END);
 456               		.loc 1 491 9 is_stmt 1 view .LVU100
 491:layouts/community/ergodox/albert/keymap.c ****             return MACRO(D(LCTL), T(X), U(LCTL), T(RGHT), END);
 457               		.loc 1 491 12 is_stmt 0 view .LVU101
 458 0138 1296      		adiw r26,2
 459 013a 8C91      		ld r24,X
 460 013c 8823      		tst r24
 461 013e 01F4      		brne .+2
 462 0140 00C0      		rjmp .L89
 492:layouts/community/ergodox/albert/keymap.c ****         }
 463               		.loc 1 492 20 view .LVU102
 464 0142 80E0      		ldi r24,lo8(__m.6136)
 465 0144 90E0      		ldi r25,hi8(__m.6136)
 466 0146 0895      		ret
 467               	.L32:
 496:layouts/community/ergodox/albert/keymap.c ****             SEND_STRING("good night");
 468               		.loc 1 496 9 is_stmt 1 view .LVU103
 496:layouts/community/ergodox/albert/keymap.c ****             SEND_STRING("good night");
 469               		.loc 1 496 12 is_stmt 0 view .LVU104
 470 0148 1296      		adiw r26,2
 471 014a 8C91      		ld r24,X
 472 014c 8823      		tst r24
 473 014e 01F4      		brne .+2
 474 0150 00C0      		rjmp .L89
 497:layouts/community/ergodox/albert/keymap.c ****         }
 475               		.loc 1 497 13 is_stmt 1 view .LVU105
 476               	.LBB10:
 497:layouts/community/ergodox/albert/keymap.c ****         }
 477               		.loc 1 497 13 view .LVU106
 497:layouts/community/ergodox/albert/keymap.c ****         }
 478               		.loc 1 497 13 view .LVU107
 479               	.LBE10:
 480 0152 80E0      		ldi r24,lo8(__c.6139)
 481 0154 90E0      		ldi r25,hi8(__c.6139)
 482 0156 00C0      		rjmp .L90
 483               	.L31:
 501:layouts/community/ergodox/albert/keymap.c ****             return MACRO(T(ENT), D(LSFT), T(LBRC), U(LSFT), T(ENT),
 484               		.loc 1 501 9 view .LVU108
 501:layouts/community/ergodox/albert/keymap.c ****             return MACRO(T(ENT), D(LSFT), T(LBRC), U(LSFT), T(ENT),
 485               		.loc 1 501 12 is_stmt 0 view .LVU109
 486 0158 1296      		adiw r26,2
 487 015a 8C91      		ld r24,X
 488 015c 8823      		tst r24
 489 015e 01F4      		brne .+2
 490 0160 00C0      		rjmp .L89
 502:layouts/community/ergodox/albert/keymap.c ****                          D(LSFT), T(RBRC), U(LSFT), T(SCLN), T(UP),
 491               		.loc 1 502 20 view .LVU110
 492 0162 80E0      		ldi r24,lo8(__m.6142)
 493 0164 90E0      		ldi r25,hi8(__m.6142)
 494 0166 0895      		ret
 495               	.L30:
 508:layouts/community/ergodox/albert/keymap.c ****             SEND_STRING("template");
 496               		.loc 1 508 9 is_stmt 1 view .LVU111
 508:layouts/community/ergodox/albert/keymap.c ****             SEND_STRING("template");
 497               		.loc 1 508 12 is_stmt 0 view .LVU112
 498 0168 1296      		adiw r26,2
 499 016a 8C91      		ld r24,X
 500 016c 8823      		tst r24
 501 016e 01F4      		brne .+2
 502 0170 00C0      		rjmp .L89
 509:layouts/community/ergodox/albert/keymap.c ****         }
 503               		.loc 1 509 13 is_stmt 1 view .LVU113
 504               	.LBB11:
 509:layouts/community/ergodox/albert/keymap.c ****         }
 505               		.loc 1 509 13 view .LVU114
 509:layouts/community/ergodox/albert/keymap.c ****         }
 506               		.loc 1 509 13 view .LVU115
 507               	.LBE11:
 508 0172 80E0      		ldi r24,lo8(__c.6145)
 509 0174 90E0      		ldi r25,hi8(__c.6145)
 510 0176 00C0      		rjmp .L90
 511               	.L29:
 513:layouts/community/ergodox/albert/keymap.c ****             SEND_STRING("typename");
 512               		.loc 1 513 9 view .LVU116
 513:layouts/community/ergodox/albert/keymap.c ****             SEND_STRING("typename");
 513               		.loc 1 513 12 is_stmt 0 view .LVU117
 514 0178 1296      		adiw r26,2
 515 017a 8C91      		ld r24,X
 516 017c 8823      		tst r24
 517 017e 01F4      		brne .+2
 518 0180 00C0      		rjmp .L89
 514:layouts/community/ergodox/albert/keymap.c ****         }
 519               		.loc 1 514 13 is_stmt 1 view .LVU118
 520               	.LBB12:
 514:layouts/community/ergodox/albert/keymap.c ****         }
 521               		.loc 1 514 13 view .LVU119
 514:layouts/community/ergodox/albert/keymap.c ****         }
 522               		.loc 1 514 13 view .LVU120
 523               	.LBE12:
 524 0182 80E0      		ldi r24,lo8(__c.6148)
 525 0184 90E0      		ldi r25,hi8(__c.6148)
 526 0186 00C0      		rjmp .L90
 527               	.L28:
 518:layouts/community/ergodox/albert/keymap.c ****             SEND_STRING("continue");
 528               		.loc 1 518 9 view .LVU121
 518:layouts/community/ergodox/albert/keymap.c ****             SEND_STRING("continue");
 529               		.loc 1 518 12 is_stmt 0 view .LVU122
 530 0188 1296      		adiw r26,2
 531 018a 8C91      		ld r24,X
 532 018c 8823      		tst r24
 533 018e 01F4      		brne .+2
 534 0190 00C0      		rjmp .L89
 519:layouts/community/ergodox/albert/keymap.c ****             return MACRO(T(SCLN), END);
 535               		.loc 1 519 13 is_stmt 1 view .LVU123
 536               	.LBB13:
 519:layouts/community/ergodox/albert/keymap.c ****             return MACRO(T(SCLN), END);
 537               		.loc 1 519 13 view .LVU124
 519:layouts/community/ergodox/albert/keymap.c ****             return MACRO(T(SCLN), END);
 538               		.loc 1 519 13 view .LVU125
 539               	.LBE13:
 540 0192 80E0      		ldi r24,lo8(__c.6151)
 541 0194 90E0      		ldi r25,hi8(__c.6151)
 542 0196 0E94 0000 		call send_string_P
 520:layouts/community/ergodox/albert/keymap.c ****         }
 543               		.loc 1 520 13 view .LVU126
 544               	.LBB14:
 520:layouts/community/ergodox/albert/keymap.c ****         }
 545               		.loc 1 520 20 view .LVU127
 520:layouts/community/ergodox/albert/keymap.c ****         }
 546               		.loc 1 520 20 view .LVU128
 547               	.LBE14:
 548 019a 80E0      		ldi r24,lo8(__m.6153)
 549 019c 90E0      		ldi r25,hi8(__m.6153)
 550 019e 0895      		ret
 551               	.L27:
 524:layouts/community/ergodox/albert/keymap.c ****             SEND_STRING("break");
 552               		.loc 1 524 9 view .LVU129
 524:layouts/community/ergodox/albert/keymap.c ****             SEND_STRING("break");
 553               		.loc 1 524 12 is_stmt 0 view .LVU130
 554 01a0 1296      		adiw r26,2
 555 01a2 8C91      		ld r24,X
 556 01a4 8823      		tst r24
 557 01a6 01F0      		breq .L89
 525:layouts/community/ergodox/albert/keymap.c ****             return MACRO(T(SCLN), END);
 558               		.loc 1 525 13 is_stmt 1 view .LVU131
 559               	.LBB15:
 525:layouts/community/ergodox/albert/keymap.c ****             return MACRO(T(SCLN), END);
 560               		.loc 1 525 13 view .LVU132
 525:layouts/community/ergodox/albert/keymap.c ****             return MACRO(T(SCLN), END);
 561               		.loc 1 525 13 view .LVU133
 562               	.LBE15:
 563 01a8 80E0      		ldi r24,lo8(__c.6156)
 564 01aa 90E0      		ldi r25,hi8(__c.6156)
 565 01ac 0E94 0000 		call send_string_P
 526:layouts/community/ergodox/albert/keymap.c ****         }
 566               		.loc 1 526 13 view .LVU134
 567               	.LBB16:
 526:layouts/community/ergodox/albert/keymap.c ****         }
 568               		.loc 1 526 20 view .LVU135
 526:layouts/community/ergodox/albert/keymap.c ****         }
 569               		.loc 1 526 20 view .LVU136
 570               	.LBE16:
 571 01b0 80E0      		ldi r24,lo8(__m.6158)
 572 01b2 90E0      		ldi r25,hi8(__m.6158)
 573 01b4 0895      		ret
 574               	.L26:
 530:layouts/community/ergodox/albert/keymap.c ****             SEND_STRING("const");
 575               		.loc 1 530 9 view .LVU137
 530:layouts/community/ergodox/albert/keymap.c ****             SEND_STRING("const");
 576               		.loc 1 530 12 is_stmt 0 view .LVU138
 577 01b6 1296      		adiw r26,2
 578 01b8 8C91      		ld r24,X
 579 01ba 8823      		tst r24
 580 01bc 01F0      		breq .L89
 531:layouts/community/ergodox/albert/keymap.c ****         }
 581               		.loc 1 531 13 is_stmt 1 view .LVU139
 582               	.LBB17:
 531:layouts/community/ergodox/albert/keymap.c ****         }
 583               		.loc 1 531 13 view .LVU140
 531:layouts/community/ergodox/albert/keymap.c ****         }
 584               		.loc 1 531 13 view .LVU141
 585               	.LBE17:
 586 01be 80E0      		ldi r24,lo8(__c.6161)
 587 01c0 90E0      		ldi r25,hi8(__c.6161)
 588 01c2 00C0      		rjmp .L90
 589               	.L25:
 535:layouts/community/ergodox/albert/keymap.c ****             SEND_STRING(":-)");
 590               		.loc 1 535 9 view .LVU142
 535:layouts/community/ergodox/albert/keymap.c ****             SEND_STRING(":-)");
 591               		.loc 1 535 12 is_stmt 0 view .LVU143
 592 01c4 1296      		adiw r26,2
 593 01c6 8C91      		ld r24,X
 594 01c8 8823      		tst r24
 595 01ca 01F0      		breq .L89
 536:layouts/community/ergodox/albert/keymap.c ****         }
 596               		.loc 1 536 13 is_stmt 1 view .LVU144
 597               	.LBB18:
 536:layouts/community/ergodox/albert/keymap.c ****         }
 598               		.loc 1 536 13 view .LVU145
 536:layouts/community/ergodox/albert/keymap.c ****         }
 599               		.loc 1 536 13 view .LVU146
 600               	.LBE18:
 601 01cc 80E0      		ldi r24,lo8(__c.6164)
 602 01ce 90E0      		ldi r25,hi8(__c.6164)
 603 01d0 00C0      		rjmp .L90
 604               	.L24:
 540:layouts/community/ergodox/albert/keymap.c ****             SEND_STRING(":-(");
 605               		.loc 1 540 9 view .LVU147
 540:layouts/community/ergodox/albert/keymap.c ****             SEND_STRING(":-(");
 606               		.loc 1 540 12 is_stmt 0 view .LVU148
 607 01d2 1296      		adiw r26,2
 608 01d4 8C91      		ld r24,X
 609 01d6 8823      		tst r24
 610 01d8 01F0      		breq .L89
 541:layouts/community/ergodox/albert/keymap.c ****         }
 611               		.loc 1 541 13 is_stmt 1 view .LVU149
 612               	.LBB19:
 541:layouts/community/ergodox/albert/keymap.c ****         }
 613               		.loc 1 541 13 view .LVU150
 541:layouts/community/ergodox/albert/keymap.c ****         }
 614               		.loc 1 541 13 view .LVU151
 615               	.LBE19:
 616 01da 80E0      		ldi r24,lo8(__c.6167)
 617 01dc 90E0      		ldi r25,hi8(__c.6167)
 618 01de 00C0      		rjmp .L90
 619               	.L23:
 545:layouts/community/ergodox/albert/keymap.c ****             send_keystrokes(NK_DOWN, KC_LSFT, KC_8, KC_MINS, KC_8, NK_UP, KC_LSFT, KC_NO);
 620               		.loc 1 545 9 view .LVU152
 545:layouts/community/ergodox/albert/keymap.c ****             send_keystrokes(NK_DOWN, KC_LSFT, KC_8, KC_MINS, KC_8, NK_UP, KC_LSFT, KC_NO);
 621               		.loc 1 545 12 is_stmt 0 view .LVU153
 622 01e0 1296      		adiw r26,2
 623 01e2 8C91      		ld r24,X
 624 01e4 8823      		tst r24
 625 01e6 01F0      		breq .L89
 546:layouts/community/ergodox/albert/keymap.c ****         }
 626               		.loc 1 546 13 is_stmt 1 view .LVU154
 627 01e8 1F92      		push __zero_reg__
 628               	.LCFI6:
 629               		.cfi_def_cfa_offset 3
 630 01ea 1F92      		push __zero_reg__
 631               	.LCFI7:
 632               		.cfi_def_cfa_offset 4
 633 01ec 1F92      		push __zero_reg__
 634               	.LCFI8:
 635               		.cfi_def_cfa_offset 5
 636 01ee 81EE      		ldi r24,lo8(-31)
 637 01f0 8F93      		push r24
 638               	.LCFI9:
 639               		.cfi_def_cfa_offset 6
 640 01f2 1F92      		push __zero_reg__
 641               	.LCFI10:
 642               		.cfi_def_cfa_offset 7
 643 01f4 92E0      		ldi r25,lo8(2)
 644 01f6 9F93      		push r25
 645               	.LCFI11:
 646               		.cfi_def_cfa_offset 8
 647 01f8 1F92      		push __zero_reg__
 648               	.LCFI12:
 649               		.cfi_def_cfa_offset 9
 650 01fa 95E2      		ldi r25,lo8(37)
 651 01fc 9F93      		push r25
 652               	.LCFI13:
 653               		.cfi_def_cfa_offset 10
 654 01fe 1F92      		push __zero_reg__
 655               	.LCFI14:
 656               		.cfi_def_cfa_offset 11
 657 0200 2DE2      		ldi r18,lo8(45)
 658 0202 2F93      		push r18
 659               	.LCFI15:
 660               		.cfi_def_cfa_offset 12
 661 0204 1F92      		push __zero_reg__
 662               	.LCFI16:
 663               		.cfi_def_cfa_offset 13
 664 0206 9F93      		push r25
 665               	.LCFI17:
 666               		.cfi_def_cfa_offset 14
 667 0208 1F92      		push __zero_reg__
 668               	.LCFI18:
 669               		.cfi_def_cfa_offset 15
 670 020a 8F93      		push r24
 671               	.LCFI19:
 672               		.cfi_def_cfa_offset 16
 673 020c 81E0      		ldi r24,lo8(1)
 674 020e 8F93      		push r24
 675               	.LCFI20:
 676               		.cfi_def_cfa_offset 17
 677 0210 0E94 0000 		call send_keystrokes
 678 0214 8DB7      		in r24,__SP_L__
 679 0216 9EB7      		in r25,__SP_H__
 680 0218 0F96      		adiw r24,15
 681 021a 0FB6      		in __tmp_reg__,__SREG__
 682 021c F894      		cli
 683 021e 9EBF      		out __SP_H__,r25
 684 0220 0FBE      		out __SREG__,__tmp_reg__
 685 0222 8DBF      		out __SP_L__,r24
 686               	.LCFI21:
 687               		.cfi_def_cfa_offset 2
 688               	.L89:
 587:layouts/community/ergodox/albert/keymap.c ****         }
 588:layouts/community/ergodox/albert/keymap.c ****         break;
 589:layouts/community/ergodox/albert/keymap.c ****     }
 590:layouts/community/ergodox/albert/keymap.c ****     return MACRO_NONE;
 689               		.loc 1 590 12 is_stmt 0 view .LVU155
 690 0224 90E0      		ldi r25,0
 691 0226 80E0      		ldi r24,0
 692               	/* epilogue start */
 591:layouts/community/ergodox/albert/keymap.c **** }
 693               		.loc 1 591 1 view .LVU156
 694 0228 0895      		ret
 695               	.L22:
 550:layouts/community/ergodox/albert/keymap.c ****             send_keystrokes(NK_DOWN, KC_LSFT, KC_C, KC_9, KC_MINS, KC_0, NK_UP, KC_LSFT, KC_NO);
 696               		.loc 1 550 9 is_stmt 1 view .LVU157
 550:layouts/community/ergodox/albert/keymap.c ****             send_keystrokes(NK_DOWN, KC_LSFT, KC_C, KC_9, KC_MINS, KC_0, NK_UP, KC_LSFT, KC_NO);
 697               		.loc 1 550 12 is_stmt 0 view .LVU158
 698 022a 1296      		adiw r26,2
 699 022c 8C91      		ld r24,X
 700 022e 8823      		tst r24
 701 0230 01F0      		breq .L89
 551:layouts/community/ergodox/albert/keymap.c ****         }
 702               		.loc 1 551 13 is_stmt 1 view .LVU159
 703 0232 1F92      		push __zero_reg__
 704               	.LCFI22:
 705               		.cfi_def_cfa_offset 3
 706 0234 1F92      		push __zero_reg__
 707               	.LCFI23:
 708               		.cfi_def_cfa_offset 4
 709 0236 1F92      		push __zero_reg__
 710               	.LCFI24:
 711               		.cfi_def_cfa_offset 5
 712 0238 81EE      		ldi r24,lo8(-31)
 713 023a 8F93      		push r24
 714               	.LCFI25:
 715               		.cfi_def_cfa_offset 6
 716 023c 1F92      		push __zero_reg__
 717               	.LCFI26:
 718               		.cfi_def_cfa_offset 7
 719 023e 92E0      		ldi r25,lo8(2)
 720 0240 9F93      		push r25
 721               	.LCFI27:
 722               		.cfi_def_cfa_offset 8
 723 0242 1F92      		push __zero_reg__
 724               	.LCFI28:
 725               		.cfi_def_cfa_offset 9
 726 0244 97E2      		ldi r25,lo8(39)
 727 0246 9F93      		push r25
 728               	.LCFI29:
 729               		.cfi_def_cfa_offset 10
 730 0248 1F92      		push __zero_reg__
 731               	.LCFI30:
 732               		.cfi_def_cfa_offset 11
 733 024a 9DE2      		ldi r25,lo8(45)
 734 024c 9F93      		push r25
 735               	.LCFI31:
 736               		.cfi_def_cfa_offset 12
 737 024e 1F92      		push __zero_reg__
 738               	.LCFI32:
 739               		.cfi_def_cfa_offset 13
 740 0250 96E2      		ldi r25,lo8(38)
 741 0252 9F93      		push r25
 742               	.LCFI33:
 743               		.cfi_def_cfa_offset 14
 744 0254 1F92      		push __zero_reg__
 745               	.LCFI34:
 746               		.cfi_def_cfa_offset 15
 747 0256 96E0      		ldi r25,lo8(6)
 748 0258 9F93      		push r25
 749               	.LCFI35:
 750               		.cfi_def_cfa_offset 16
 751 025a 1F92      		push __zero_reg__
 752               	.LCFI36:
 753               		.cfi_def_cfa_offset 17
 754 025c 8F93      		push r24
 755               	.LCFI37:
 756               		.cfi_def_cfa_offset 18
 757 025e 81E0      		ldi r24,lo8(1)
 758 0260 8F93      		push r24
 759               	.LCFI38:
 760               		.cfi_def_cfa_offset 19
 761 0262 0E94 0000 		call send_keystrokes
 762 0266 8DB7      		in r24,__SP_L__
 763 0268 9EB7      		in r25,__SP_H__
 764 026a 4196      		adiw r24,17
 765 026c 0FB6      		in __tmp_reg__,__SREG__
 766 026e F894      		cli
 767 0270 9EBF      		out __SP_H__,r25
 768 0272 0FBE      		out __SREG__,__tmp_reg__
 769 0274 8DBF      		out __SP_L__,r24
 770               	.LCFI39:
 771               		.cfi_def_cfa_offset 2
 772 0276 00C0      		rjmp .L89
 773               	.L21:
 555:layouts/community/ergodox/albert/keymap.c ****             SEND_STRING("operator");
 774               		.loc 1 555 9 view .LVU160
 555:layouts/community/ergodox/albert/keymap.c ****             SEND_STRING("operator");
 775               		.loc 1 555 12 is_stmt 0 view .LVU161
 776 0278 1296      		adiw r26,2
 777 027a 8C91      		ld r24,X
 778 027c 8823      		tst r24
 779 027e 01F0      		breq .L89
 556:layouts/community/ergodox/albert/keymap.c ****         }
 780               		.loc 1 556 13 is_stmt 1 view .LVU162
 781               	.LBB20:
 556:layouts/community/ergodox/albert/keymap.c ****         }
 782               		.loc 1 556 13 view .LVU163
 556:layouts/community/ergodox/albert/keymap.c ****         }
 783               		.loc 1 556 13 view .LVU164
 784               	.LBE20:
 785 0280 80E0      		ldi r24,lo8(__c.6172)
 786 0282 90E0      		ldi r25,hi8(__c.6172)
 787 0284 00C0      		rjmp .L90
 788               	.L20:
 560:layouts/community/ergodox/albert/keymap.c ****             SEND_STRING("nullptr");
 789               		.loc 1 560 9 view .LVU165
 560:layouts/community/ergodox/albert/keymap.c ****             SEND_STRING("nullptr");
 790               		.loc 1 560 12 is_stmt 0 view .LVU166
 791 0286 1296      		adiw r26,2
 792 0288 8C91      		ld r24,X
 793 028a 8823      		tst r24
 794 028c 01F0      		breq .L89
 561:layouts/community/ergodox/albert/keymap.c ****         }
 795               		.loc 1 561 13 is_stmt 1 view .LVU167
 796               	.LBB21:
 561:layouts/community/ergodox/albert/keymap.c ****         }
 797               		.loc 1 561 13 view .LVU168
 561:layouts/community/ergodox/albert/keymap.c ****         }
 798               		.loc 1 561 13 view .LVU169
 799               	.LBE21:
 800 028e 80E0      		ldi r24,lo8(__c.6175)
 801 0290 90E0      		ldi r25,hi8(__c.6175)
 802 0292 00C0      		rjmp .L90
 803               	.L19:
 565:layouts/community/ergodox/albert/keymap.c ****             SEND_STRING("extern");
 804               		.loc 1 565 9 view .LVU170
 565:layouts/community/ergodox/albert/keymap.c ****             SEND_STRING("extern");
 805               		.loc 1 565 12 is_stmt 0 view .LVU171
 806 0294 1296      		adiw r26,2
 807 0296 8C91      		ld r24,X
 808 0298 8823      		tst r24
 809 029a 01F0      		breq .L89
 566:layouts/community/ergodox/albert/keymap.c ****         }
 810               		.loc 1 566 13 is_stmt 1 view .LVU172
 811               	.LBB22:
 566:layouts/community/ergodox/albert/keymap.c ****         }
 812               		.loc 1 566 13 view .LVU173
 566:layouts/community/ergodox/albert/keymap.c ****         }
 813               		.loc 1 566 13 view .LVU174
 814               	.LBE22:
 815 029c 80E0      		ldi r24,lo8(__c.6178)
 816 029e 90E0      		ldi r25,hi8(__c.6178)
 817 02a0 00C0      		rjmp .L90
 818               	.L18:
 570:layouts/community/ergodox/albert/keymap.c ****             SEND_STRING("virtual");
 819               		.loc 1 570 9 view .LVU175
 570:layouts/community/ergodox/albert/keymap.c ****             SEND_STRING("virtual");
 820               		.loc 1 570 12 is_stmt 0 view .LVU176
 821 02a2 1296      		adiw r26,2
 822 02a4 8C91      		ld r24,X
 823 02a6 8823      		tst r24
 824 02a8 01F4      		brne .+2
 825 02aa 00C0      		rjmp .L89
 571:layouts/community/ergodox/albert/keymap.c ****         }
 826               		.loc 1 571 13 is_stmt 1 view .LVU177
 827               	.LBB23:
 571:layouts/community/ergodox/albert/keymap.c ****         }
 828               		.loc 1 571 13 view .LVU178
 571:layouts/community/ergodox/albert/keymap.c ****         }
 829               		.loc 1 571 13 view .LVU179
 830               	.LBE23:
 831 02ac 80E0      		ldi r24,lo8(__c.6181)
 832 02ae 90E0      		ldi r25,hi8(__c.6181)
 833 02b0 00C0      		rjmp .L90
 834               	.L17:
 575:layouts/community/ergodox/albert/keymap.c ****             return MACRO(D(LCTL), T(X), T(EQL), U(LCTL), END);
 835               		.loc 1 575 9 view .LVU180
 575:layouts/community/ergodox/albert/keymap.c ****             return MACRO(D(LCTL), T(X), T(EQL), U(LCTL), END);
 836               		.loc 1 575 12 is_stmt 0 view .LVU181
 837 02b2 1296      		adiw r26,2
 838 02b4 8C91      		ld r24,X
 839 02b6 8823      		tst r24
 840 02b8 01F4      		brne .+2
 841 02ba 00C0      		rjmp .L89
 576:layouts/community/ergodox/albert/keymap.c ****         }
 842               		.loc 1 576 20 view .LVU182
 843 02bc 80E0      		ldi r24,lo8(__m.6184)
 844 02be 90E0      		ldi r25,hi8(__m.6184)
 845 02c0 0895      		ret
 846               	.L16:
 580:layouts/community/ergodox/albert/keymap.c ****             return MACRO(D(LCTL), T(X), T(MINS), U(LCTL), END);
 847               		.loc 1 580 9 is_stmt 1 view .LVU183
 580:layouts/community/ergodox/albert/keymap.c ****             return MACRO(D(LCTL), T(X), T(MINS), U(LCTL), END);
 848               		.loc 1 580 12 is_stmt 0 view .LVU184
 849 02c2 1296      		adiw r26,2
 850 02c4 8C91      		ld r24,X
 851 02c6 8823      		tst r24
 852 02c8 01F4      		brne .+2
 853 02ca 00C0      		rjmp .L89
 581:layouts/community/ergodox/albert/keymap.c ****         }
 854               		.loc 1 581 20 view .LVU185
 855 02cc 80E0      		ldi r24,lo8(__m.6187)
 856 02ce 90E0      		ldi r25,hi8(__m.6187)
 857 02d0 0895      		ret
 858               	.L14:
 585:layouts/community/ergodox/albert/keymap.c ****             SEND_STRING("volatile");
 859               		.loc 1 585 9 is_stmt 1 view .LVU186
 585:layouts/community/ergodox/albert/keymap.c ****             SEND_STRING("volatile");
 860               		.loc 1 585 12 is_stmt 0 view .LVU187
 861 02d2 1296      		adiw r26,2
 862 02d4 8C91      		ld r24,X
 863 02d6 8823      		tst r24
 864 02d8 01F4      		brne .+2
 865 02da 00C0      		rjmp .L89
 586:layouts/community/ergodox/albert/keymap.c ****         }
 866               		.loc 1 586 13 is_stmt 1 view .LVU188
 867               	.LBB24:
 586:layouts/community/ergodox/albert/keymap.c ****         }
 868               		.loc 1 586 13 view .LVU189
 586:layouts/community/ergodox/albert/keymap.c ****         }
 869               		.loc 1 586 13 view .LVU190
 870               	.LBE24:
 871 02dc 80E0      		ldi r24,lo8(__c.6190)
 872 02de 90E0      		ldi r25,hi8(__c.6190)
 873 02e0 00C0      		rjmp .L90
 874               		.cfi_endproc
 875               	.LFE129:
 877               		.section	.text.matrix_scan_user,"ax",@progbits
 878               	.global	matrix_scan_user
 880               	matrix_scan_user:
 881               	.LFB130:
 592:layouts/community/ergodox/albert/keymap.c **** 
 593:layouts/community/ergodox/albert/keymap.c **** LEADER_EXTERNS();
 594:layouts/community/ergodox/albert/keymap.c **** 
 595:layouts/community/ergodox/albert/keymap.c **** // Runs constantly in the background, in a loop.
 596:layouts/community/ergodox/albert/keymap.c **** void matrix_scan_user(void) {
 882               		.loc 1 596 29 view -0
 883               		.cfi_startproc
 884               	/* prologue: function */
 885               	/* frame size = 0 */
 886               	/* stack size = 0 */
 887               	.L__stack_usage = 0
 597:layouts/community/ergodox/albert/keymap.c **** 
 598:layouts/community/ergodox/albert/keymap.c ****     LEADER_DICTIONARY() {
 888               		.loc 1 598 5 view .LVU192
 889 0000 8091 0000 		lds r24,leading
 890 0004 8823      		tst r24
 891 0006 01F4      		brne .+2
 892 0008 00C0      		rjmp .L91
 893               		.loc 1 598 5 is_stmt 0 discriminator 1 view .LVU193
 894 000a 8091 0000 		lds r24,leader_time
 895 000e 9091 0000 		lds r25,leader_time+1
 896 0012 0E94 0000 		call timer_elapsed
 897 0016 8132      		cpi r24,33
 898 0018 9340      		sbci r25,3
 899 001a 00F4      		brsh .+2
 900 001c 00C0      		rjmp .L91
 599:layouts/community/ergodox/albert/keymap.c ****         leading = false;
 901               		.loc 1 599 9 is_stmt 1 view .LVU194
 902               		.loc 1 599 17 is_stmt 0 view .LVU195
 903 001e 1092 0000 		sts leading,__zero_reg__
 600:layouts/community/ergodox/albert/keymap.c ****         leader_end();
 904               		.loc 1 600 9 is_stmt 1 view .LVU196
 905 0022 0E94 0000 		call leader_end
 601:layouts/community/ergodox/albert/keymap.c **** 
 602:layouts/community/ergodox/albert/keymap.c ****         SEQ_TWO_KEYS(KC_G, KC_A) {
 906               		.loc 1 602 9 view .LVU197
 907 0026 8091 0000 		lds r24,leader_sequence
 908 002a 9091 0000 		lds r25,leader_sequence+1
 909 002e 0A97      		sbiw r24,10
 910 0030 01F0      		breq .+2
 911 0032 00C0      		rjmp .L141
 912               		.loc 1 602 9 is_stmt 0 discriminator 1 view .LVU198
 913 0034 8091 0000 		lds r24,leader_sequence+2
 914 0038 9091 0000 		lds r25,leader_sequence+2+1
 915 003c 0497      		sbiw r24,4
 916 003e 01F4      		brne .+2
 917 0040 00C0      		rjmp .L96
 918               	.L99:
 603:layouts/community/ergodox/albert/keymap.c ****             SEND_STRING("git add .");
 604:layouts/community/ergodox/albert/keymap.c ****         }
 605:layouts/community/ergodox/albert/keymap.c ****         SEQ_TWO_KEYS(KC_G, KC_D) {
 919               		.loc 1 605 9 view .LVU199
 920 0042 8091 0000 		lds r24,leader_sequence+2
 921 0046 9091 0000 		lds r25,leader_sequence+2+1
 922 004a 0797      		sbiw r24,7
 923 004c 01F4      		brne .L101
 924               		.loc 1 605 9 discriminator 2 view .LVU200
 925 004e 8091 0000 		lds r24,leader_sequence+4
 926 0052 9091 0000 		lds r25,leader_sequence+4+1
 927 0056 2091 0000 		lds r18,leader_sequence+6
 928 005a 3091 0000 		lds r19,leader_sequence+6+1
 929 005e 822B      		or r24,r18
 930 0060 932B      		or r25,r19
 931 0062 2091 0000 		lds r18,leader_sequence+8
 932 0066 3091 0000 		lds r19,leader_sequence+8+1
 933 006a 822B      		or r24,r18
 934 006c 932B      		or r25,r19
 935 006e 892B      		or r24,r25
 936 0070 01F0      		breq .+2
 937 0072 00C0      		rjmp .L100
 606:layouts/community/ergodox/albert/keymap.c ****             SEND_STRING("git diff");
 938               		.loc 1 606 13 is_stmt 1 view .LVU201
 939               	.LBB25:
 940               		.loc 1 606 13 view .LVU202
 941               		.loc 1 606 13 view .LVU203
 942               	.LBE25:
 943 0074 80E0      		ldi r24,lo8(__c.6201)
 944 0076 90E0      		ldi r25,hi8(__c.6201)
 945 0078 0E94 0000 		call send_string_P
 607:layouts/community/ergodox/albert/keymap.c ****         }
 608:layouts/community/ergodox/albert/keymap.c ****         SEQ_THREE_KEYS(KC_G, KC_D, KC_S) {
 946               		.loc 1 608 9 view .LVU204
 947 007c 8091 0000 		lds r24,leader_sequence
 948 0080 9091 0000 		lds r25,leader_sequence+1
 949 0084 0A97      		sbiw r24,10
 950 0086 01F0      		breq .+2
 951 0088 00C0      		rjmp .L141
 952 008a 8091 0000 		lds r24,leader_sequence+2
 953 008e 9091 0000 		lds r25,leader_sequence+2+1
 954 0092 0797      		sbiw r24,7
 955 0094 01F4      		brne .+2
 956 0096 00C0      		rjmp .L100
 957               	.L101:
 609:layouts/community/ergodox/albert/keymap.c ****             SEND_STRING("git diff --staged");
 610:layouts/community/ergodox/albert/keymap.c ****         }
 611:layouts/community/ergodox/albert/keymap.c ****         SEQ_TWO_KEYS(KC_G, KC_L) {
 958               		.loc 1 611 9 is_stmt 0 view .LVU205
 959 0098 8091 0000 		lds r24,leader_sequence+2
 960 009c 9091 0000 		lds r25,leader_sequence+2+1
 961 00a0 0F97      		sbiw r24,15
 962 00a2 01F4      		brne .L108
 963               		.loc 1 611 9 discriminator 2 view .LVU206
 964 00a4 8091 0000 		lds r24,leader_sequence+4
 965 00a8 9091 0000 		lds r25,leader_sequence+4+1
 966 00ac 2091 0000 		lds r18,leader_sequence+6
 967 00b0 3091 0000 		lds r19,leader_sequence+6+1
 968 00b4 822B      		or r24,r18
 969 00b6 932B      		or r25,r19
 970 00b8 2091 0000 		lds r18,leader_sequence+8
 971 00bc 3091 0000 		lds r19,leader_sequence+8+1
 972 00c0 822B      		or r24,r18
 973 00c2 932B      		or r25,r19
 974 00c4 892B      		or r24,r25
 975 00c6 01F0      		breq .+2
 976 00c8 00C0      		rjmp .L107
 612:layouts/community/ergodox/albert/keymap.c ****             SEND_STRING("git log");
 977               		.loc 1 612 13 is_stmt 1 view .LVU207
 978               	.LBB26:
 979               		.loc 1 612 13 view .LVU208
 980               		.loc 1 612 13 view .LVU209
 981               	.LBE26:
 982 00ca 80E0      		ldi r24,lo8(__c.6205)
 983 00cc 90E0      		ldi r25,hi8(__c.6205)
 984 00ce 0E94 0000 		call send_string_P
 613:layouts/community/ergodox/albert/keymap.c ****         }
 614:layouts/community/ergodox/albert/keymap.c ****         SEQ_THREE_KEYS(KC_G, KC_L, KC_O) {
 985               		.loc 1 614 9 view .LVU210
 986 00d2 8091 0000 		lds r24,leader_sequence
 987 00d6 9091 0000 		lds r25,leader_sequence+1
 988 00da 0A97      		sbiw r24,10
 989 00dc 01F0      		breq .+2
 990 00de 00C0      		rjmp .L141
 991 00e0 8091 0000 		lds r24,leader_sequence+2
 992 00e4 9091 0000 		lds r25,leader_sequence+2+1
 993 00e8 0F97      		sbiw r24,15
 994 00ea 01F4      		brne .+2
 995 00ec 00C0      		rjmp .L107
 996               	.L108:
 615:layouts/community/ergodox/albert/keymap.c ****             SEND_STRING("git log --oneline");
 616:layouts/community/ergodox/albert/keymap.c ****         }
 617:layouts/community/ergodox/albert/keymap.c ****         SEQ_TWO_KEYS(KC_G, KC_F) {
 997               		.loc 1 617 9 is_stmt 0 view .LVU211
 998 00ee 8091 0000 		lds r24,leader_sequence+2
 999 00f2 9091 0000 		lds r25,leader_sequence+2+1
 1000 00f6 0997      		sbiw r24,9
 1001 00f8 01F4      		brne .L112
 1002               		.loc 1 617 9 discriminator 2 view .LVU212
 1003 00fa 8091 0000 		lds r24,leader_sequence+4
 1004 00fe 9091 0000 		lds r25,leader_sequence+4+1
 1005 0102 2091 0000 		lds r18,leader_sequence+6
 1006 0106 3091 0000 		lds r19,leader_sequence+6+1
 1007 010a 822B      		or r24,r18
 1008 010c 932B      		or r25,r19
 1009 010e 2091 0000 		lds r18,leader_sequence+8
 1010 0112 3091 0000 		lds r19,leader_sequence+8+1
 1011 0116 822B      		or r24,r18
 1012 0118 932B      		or r25,r19
 1013 011a 892B      		or r24,r25
 1014 011c 01F4      		brne .L115
 618:layouts/community/ergodox/albert/keymap.c ****             SEND_STRING("git fetch");
 1015               		.loc 1 618 13 is_stmt 1 view .LVU213
 1016               	.LBB27:
 1017               		.loc 1 618 13 view .LVU214
 1018               		.loc 1 618 13 view .LVU215
 1019               	.LBE27:
 1020 011e 80E0      		ldi r24,lo8(__c.6209)
 1021 0120 90E0      		ldi r25,hi8(__c.6209)
 1022 0122 0E94 0000 		call send_string_P
 619:layouts/community/ergodox/albert/keymap.c ****         }
 620:layouts/community/ergodox/albert/keymap.c ****         SEQ_TWO_KEYS(KC_G, KC_O) {
 1023               		.loc 1 620 9 view .LVU216
 1024 0126 8091 0000 		lds r24,leader_sequence
 1025 012a 9091 0000 		lds r25,leader_sequence+1
 1026 012e 0A97      		sbiw r24,10
 1027 0130 01F0      		breq .+2
 1028 0132 00C0      		rjmp .L141
 1029               	.L112:
 1030 0134 8091 0000 		lds r24,leader_sequence+2
 1031 0138 9091 0000 		lds r25,leader_sequence+2+1
 1032 013c 4297      		sbiw r24,18
 1033 013e 01F4      		brne .L115
 1034               		.loc 1 620 9 is_stmt 0 discriminator 2 view .LVU217
 1035 0140 8091 0000 		lds r24,leader_sequence+4
 1036 0144 9091 0000 		lds r25,leader_sequence+4+1
 1037 0148 2091 0000 		lds r18,leader_sequence+6
 1038 014c 3091 0000 		lds r19,leader_sequence+6+1
 1039 0150 822B      		or r24,r18
 1040 0152 932B      		or r25,r19
 1041 0154 2091 0000 		lds r18,leader_sequence+8
 1042 0158 3091 0000 		lds r19,leader_sequence+8+1
 1043 015c 822B      		or r24,r18
 1044 015e 932B      		or r25,r19
 1045 0160 892B      		or r24,r25
 1046 0162 01F4      		brne .L118
 621:layouts/community/ergodox/albert/keymap.c ****             SEND_STRING("git checkout");
 1047               		.loc 1 621 13 is_stmt 1 view .LVU218
 1048               	.LBB28:
 1049               		.loc 1 621 13 view .LVU219
 1050               		.loc 1 621 13 view .LVU220
 1051               	.LBE28:
 1052 0164 80E0      		ldi r24,lo8(__c.6211)
 1053 0166 90E0      		ldi r25,hi8(__c.6211)
 1054 0168 0E94 0000 		call send_string_P
 622:layouts/community/ergodox/albert/keymap.c ****         }
 623:layouts/community/ergodox/albert/keymap.c ****         SEQ_TWO_KEYS(KC_G, KC_P) {
 1055               		.loc 1 623 9 view .LVU221
 1056 016c 8091 0000 		lds r24,leader_sequence
 1057 0170 9091 0000 		lds r25,leader_sequence+1
 1058 0174 0A97      		sbiw r24,10
 1059 0176 01F0      		breq .+2
 1060 0178 00C0      		rjmp .L141
 1061               	.L115:
 1062 017a 8091 0000 		lds r24,leader_sequence+2
 1063 017e 9091 0000 		lds r25,leader_sequence+2+1
 1064 0182 4397      		sbiw r24,19
 1065 0184 01F4      		brne .L118
 1066               		.loc 1 623 9 is_stmt 0 discriminator 2 view .LVU222
 1067 0186 8091 0000 		lds r24,leader_sequence+4
 1068 018a 9091 0000 		lds r25,leader_sequence+4+1
 1069 018e 2091 0000 		lds r18,leader_sequence+6
 1070 0192 3091 0000 		lds r19,leader_sequence+6+1
 1071 0196 822B      		or r24,r18
 1072 0198 932B      		or r25,r19
 1073 019a 2091 0000 		lds r18,leader_sequence+8
 1074 019e 3091 0000 		lds r19,leader_sequence+8+1
 1075 01a2 822B      		or r24,r18
 1076 01a4 932B      		or r25,r19
 1077 01a6 892B      		or r24,r25
 1078 01a8 01F4      		brne .L121
 624:layouts/community/ergodox/albert/keymap.c ****             SEND_STRING("git pull");
 1079               		.loc 1 624 13 is_stmt 1 view .LVU223
 1080               	.LBB29:
 1081               		.loc 1 624 13 view .LVU224
 1082               		.loc 1 624 13 view .LVU225
 1083               	.LBE29:
 1084 01aa 80E0      		ldi r24,lo8(__c.6213)
 1085 01ac 90E0      		ldi r25,hi8(__c.6213)
 1086 01ae 0E94 0000 		call send_string_P
 625:layouts/community/ergodox/albert/keymap.c ****         }
 626:layouts/community/ergodox/albert/keymap.c ****         SEQ_TWO_KEYS(KC_G, KC_S) {
 1087               		.loc 1 626 9 view .LVU226
 1088 01b2 8091 0000 		lds r24,leader_sequence
 1089 01b6 9091 0000 		lds r25,leader_sequence+1
 1090 01ba 0A97      		sbiw r24,10
 1091 01bc 01F0      		breq .+2
 1092 01be 00C0      		rjmp .L141
 1093               	.L118:
 1094 01c0 8091 0000 		lds r24,leader_sequence+2
 1095 01c4 9091 0000 		lds r25,leader_sequence+2+1
 1096 01c8 4697      		sbiw r24,22
 1097 01ca 01F4      		brne .L121
 1098               		.loc 1 626 9 is_stmt 0 discriminator 2 view .LVU227
 1099 01cc 8091 0000 		lds r24,leader_sequence+4
 1100 01d0 9091 0000 		lds r25,leader_sequence+4+1
 1101 01d4 2091 0000 		lds r18,leader_sequence+6
 1102 01d8 3091 0000 		lds r19,leader_sequence+6+1
 1103 01dc 822B      		or r24,r18
 1104 01de 932B      		or r25,r19
 1105 01e0 2091 0000 		lds r18,leader_sequence+8
 1106 01e4 3091 0000 		lds r19,leader_sequence+8+1
 1107 01e8 822B      		or r24,r18
 1108 01ea 932B      		or r25,r19
 1109 01ec 892B      		or r24,r25
 1110 01ee 01F0      		breq .+2
 1111 01f0 00C0      		rjmp .L140
 627:layouts/community/ergodox/albert/keymap.c ****             SEND_STRING("git status");
 1112               		.loc 1 627 13 is_stmt 1 view .LVU228
 1113               	.LBB30:
 1114               		.loc 1 627 13 view .LVU229
 1115               		.loc 1 627 13 view .LVU230
 1116               	.LBE30:
 1117 01f2 80E0      		ldi r24,lo8(__c.6215)
 1118 01f4 90E0      		ldi r25,hi8(__c.6215)
 1119 01f6 0E94 0000 		call send_string_P
 628:layouts/community/ergodox/albert/keymap.c ****         }
 629:layouts/community/ergodox/albert/keymap.c ****         SEQ_TWO_KEYS(KC_G, KC_C) {
 1120               		.loc 1 629 9 view .LVU231
 1121 01fa 8091 0000 		lds r24,leader_sequence
 1122 01fe 9091 0000 		lds r25,leader_sequence+1
 1123 0202 0A97      		sbiw r24,10
 1124 0204 01F0      		breq .+2
 1125 0206 00C0      		rjmp .L141
 1126               	.L121:
 1127 0208 8091 0000 		lds r24,leader_sequence+2
 1128 020c 9091 0000 		lds r25,leader_sequence+2+1
 1129 0210 0697      		sbiw r24,6
 1130 0212 01F4      		brne .L140
 1131               		.loc 1 629 9 is_stmt 0 discriminator 2 view .LVU232
 1132 0214 8091 0000 		lds r24,leader_sequence+4
 1133 0218 9091 0000 		lds r25,leader_sequence+4+1
 1134 021c 2091 0000 		lds r18,leader_sequence+6
 1135 0220 3091 0000 		lds r19,leader_sequence+6+1
 1136 0224 822B      		or r24,r18
 1137 0226 932B      		or r25,r19
 1138 0228 2091 0000 		lds r18,leader_sequence+8
 1139 022c 3091 0000 		lds r19,leader_sequence+8+1
 1140 0230 822B      		or r24,r18
 1141 0232 932B      		or r25,r19
 1142 0234 892B      		or r24,r25
 1143 0236 01F0      		breq .+2
 1144 0238 00C0      		rjmp .L126
 630:layouts/community/ergodox/albert/keymap.c ****             SEND_STRING("git commit -m ''");
 1145               		.loc 1 630 13 is_stmt 1 view .LVU233
 1146               	.LBB31:
 1147               		.loc 1 630 13 view .LVU234
 1148               		.loc 1 630 13 view .LVU235
 1149               	.LBE31:
 1150 023a 80E0      		ldi r24,lo8(__c.6217)
 1151 023c 90E0      		ldi r25,hi8(__c.6217)
 1152 023e 0E94 0000 		call send_string_P
 631:layouts/community/ergodox/albert/keymap.c ****             send_keystrokes(KC_LEFT, KC_NO);
 1153               		.loc 1 631 13 view .LVU236
 1154 0242 1F92      		push __zero_reg__
 1155               	.LCFI40:
 1156               		.cfi_def_cfa_offset 3
 1157 0244 1F92      		push __zero_reg__
 1158               	.LCFI41:
 1159               		.cfi_def_cfa_offset 4
 1160 0246 80E5      		ldi r24,lo8(80)
 1161 0248 8F93      		push r24
 1162               	.LCFI42:
 1163               		.cfi_def_cfa_offset 5
 1164 024a 0E94 0000 		call send_keystrokes
 632:layouts/community/ergodox/albert/keymap.c ****         }
 633:layouts/community/ergodox/albert/keymap.c ****         SEQ_THREE_KEYS(KC_G, KC_C, KC_A) {
 1165               		.loc 1 633 9 view .LVU237
 1166 024e 0F90      		pop __tmp_reg__
 1167 0250 0F90      		pop __tmp_reg__
 1168 0252 0F90      		pop __tmp_reg__
 1169               	.LCFI43:
 1170               		.cfi_def_cfa_offset 2
 1171 0254 8091 0000 		lds r24,leader_sequence
 1172 0258 9091 0000 		lds r25,leader_sequence+1
 1173 025c 0A97      		sbiw r24,10
 1174 025e 01F0      		breq .+2
 1175 0260 00C0      		rjmp .L141
 1176 0262 8091 0000 		lds r24,leader_sequence+2
 1177 0266 9091 0000 		lds r25,leader_sequence+2+1
 1178 026a 0697      		sbiw r24,6
 1179 026c 01F4      		brne .+2
 1180 026e 00C0      		rjmp .L126
 1181               	.L140:
 634:layouts/community/ergodox/albert/keymap.c ****             SEND_STRING("git commit --amend");
 635:layouts/community/ergodox/albert/keymap.c ****         }
 636:layouts/community/ergodox/albert/keymap.c **** 
 637:layouts/community/ergodox/albert/keymap.c ****         SEQ_TWO_KEYS(KC_C, KC_C) {
 638:layouts/community/ergodox/albert/keymap.c ****             SEND_STRING("const_cast<>");
 639:layouts/community/ergodox/albert/keymap.c ****             send_keystrokes(KC_LEFT, KC_NO);
 640:layouts/community/ergodox/albert/keymap.c ****         }
 641:layouts/community/ergodox/albert/keymap.c ****         SEQ_TWO_KEYS(KC_C, KC_D) {
 642:layouts/community/ergodox/albert/keymap.c ****             SEND_STRING("dynamic_cast<>");
 643:layouts/community/ergodox/albert/keymap.c ****             send_keystrokes(KC_LEFT, KC_NO);
 644:layouts/community/ergodox/albert/keymap.c ****         }
 645:layouts/community/ergodox/albert/keymap.c ****         SEQ_TWO_KEYS(KC_C, KC_R) {
 646:layouts/community/ergodox/albert/keymap.c ****             SEND_STRING("reinterpret_cast<>");
 647:layouts/community/ergodox/albert/keymap.c ****             send_keystrokes(KC_LEFT, KC_NO);
 648:layouts/community/ergodox/albert/keymap.c ****         }
 649:layouts/community/ergodox/albert/keymap.c ****         SEQ_TWO_KEYS(KC_C, KC_S) {
 650:layouts/community/ergodox/albert/keymap.c ****             SEND_STRING("static_cast<>");
 651:layouts/community/ergodox/albert/keymap.c ****             send_keystrokes(KC_LEFT, KC_NO);
 652:layouts/community/ergodox/albert/keymap.c ****         }
 653:layouts/community/ergodox/albert/keymap.c **** 
 654:layouts/community/ergodox/albert/keymap.c ****         SEQ_ONE_KEY(KC_SLSH) {
 1182               		.loc 1 654 9 view .LVU238
 1183 0270 8091 0000 		lds r24,leader_sequence
 1184 0274 9091 0000 		lds r25,leader_sequence+1
 1185 0278 C897      		sbiw r24,56
 1186 027a 01F0      		breq .+2
 1187 027c 00C0      		rjmp .L91
 1188               		.loc 1 654 9 is_stmt 0 discriminator 1 view .LVU239
 1189 027e 8091 0000 		lds r24,leader_sequence+2
 1190 0282 9091 0000 		lds r25,leader_sequence+2+1
 1191 0286 2091 0000 		lds r18,leader_sequence+4
 1192 028a 3091 0000 		lds r19,leader_sequence+4+1
 1193 028e 822B      		or r24,r18
 1194 0290 932B      		or r25,r19
 1195 0292 2091 0000 		lds r18,leader_sequence+6
 1196 0296 3091 0000 		lds r19,leader_sequence+6+1
 1197 029a 822B      		or r24,r18
 1198 029c 932B      		or r25,r19
 1199 029e 2091 0000 		lds r18,leader_sequence+8
 1200 02a2 3091 0000 		lds r19,leader_sequence+8+1
 1201 02a6 822B      		or r24,r18
 1202 02a8 932B      		or r25,r19
 1203 02aa 892B      		or r24,r25
 1204 02ac 01F0      		breq .+2
 1205 02ae 00C0      		rjmp .L91
 655:layouts/community/ergodox/albert/keymap.c ****             send_keystrokes(KC_SLSH, NK_DOWN, KC_LSFT, KC_8, KC_8, NK_UP, KC_LSFT, KC_ENT,
 1206               		.loc 1 655 13 is_stmt 1 view .LVU240
 1207 02b0 1F92      		push __zero_reg__
 1208               	.LCFI44:
 1209               		.cfi_def_cfa_offset 3
 1210 02b2 1F92      		push __zero_reg__
 1211               	.LCFI45:
 1212               		.cfi_def_cfa_offset 4
 1213 02b4 1F92      		push __zero_reg__
 1214               	.LCFI46:
 1215               		.cfi_def_cfa_offset 5
 1216 02b6 8CE2      		ldi r24,lo8(44)
 1217 02b8 8F93      		push r24
 1218               	.LCFI47:
 1219               		.cfi_def_cfa_offset 6
 1220 02ba 1F92      		push __zero_reg__
 1221               	.LCFI48:
 1222               		.cfi_def_cfa_offset 7
 1223 02bc 8DE4      		ldi r24,lo8(77)
 1224 02be 8F93      		push r24
 1225               	.LCFI49:
 1226               		.cfi_def_cfa_offset 8
 1227 02c0 1F92      		push __zero_reg__
 1228               	.LCFI50:
 1229               		.cfi_def_cfa_offset 9
 1230 02c2 82E5      		ldi r24,lo8(82)
 1231 02c4 8F93      		push r24
 1232               	.LCFI51:
 1233               		.cfi_def_cfa_offset 10
 1234 02c6 1F92      		push __zero_reg__
 1235               	.LCFI52:
 1236               		.cfi_def_cfa_offset 11
 1237 02c8 48E3      		ldi r20,lo8(56)
 1238 02ca 4F93      		push r20
 1239               	.LCFI53:
 1240               		.cfi_def_cfa_offset 12
 1241 02cc 1F92      		push __zero_reg__
 1242               	.LCFI54:
 1243               		.cfi_def_cfa_offset 13
 1244 02ce 81EE      		ldi r24,lo8(-31)
 1245 02d0 8F93      		push r24
 1246               	.LCFI55:
 1247               		.cfi_def_cfa_offset 14
 1248 02d2 1F92      		push __zero_reg__
 1249               	.LCFI56:
 1250               		.cfi_def_cfa_offset 15
 1251 02d4 32E0      		ldi r19,lo8(2)
 1252 02d6 3F93      		push r19
 1253               	.LCFI57:
 1254               		.cfi_def_cfa_offset 16
 1255 02d8 1F92      		push __zero_reg__
 1256               	.LCFI58:
 1257               		.cfi_def_cfa_offset 17
 1258 02da 95E2      		ldi r25,lo8(37)
 1259 02dc 9F93      		push r25
 1260               	.LCFI59:
 1261               		.cfi_def_cfa_offset 18
 1262 02de 1F92      		push __zero_reg__
 1263               	.LCFI60:
 1264               		.cfi_def_cfa_offset 19
 1265 02e0 8F93      		push r24
 1266               	.LCFI61:
 1267               		.cfi_def_cfa_offset 20
 1268 02e2 1F92      		push __zero_reg__
 1269               	.LCFI62:
 1270               		.cfi_def_cfa_offset 21
 1271 02e4 21E0      		ldi r18,lo8(1)
 1272 02e6 2F93      		push r18
 1273               	.LCFI63:
 1274               		.cfi_def_cfa_offset 22
 1275 02e8 1F92      		push __zero_reg__
 1276               	.LCFI64:
 1277               		.cfi_def_cfa_offset 23
 1278 02ea 58E2      		ldi r21,lo8(40)
 1279 02ec 5F93      		push r21
 1280               	.LCFI65:
 1281               		.cfi_def_cfa_offset 24
 1282 02ee 1F92      		push __zero_reg__
 1283               	.LCFI66:
 1284               		.cfi_def_cfa_offset 25
 1285 02f0 8F93      		push r24
 1286               	.LCFI67:
 1287               		.cfi_def_cfa_offset 26
 1288 02f2 1F92      		push __zero_reg__
 1289               	.LCFI68:
 1290               		.cfi_def_cfa_offset 27
 1291 02f4 3F93      		push r19
 1292               	.LCFI69:
 1293               		.cfi_def_cfa_offset 28
 1294 02f6 1F92      		push __zero_reg__
 1295               	.LCFI70:
 1296               		.cfi_def_cfa_offset 29
 1297 02f8 9F93      		push r25
 1298               	.LCFI71:
 1299               		.cfi_def_cfa_offset 30
 1300 02fa 1F92      		push __zero_reg__
 1301               	.LCFI72:
 1302               		.cfi_def_cfa_offset 31
 1303 02fc 8F93      		push r24
 1304               	.LCFI73:
 1305               		.cfi_def_cfa_offset 32
 1306 02fe 1F92      		push __zero_reg__
 1307               	.LCFI74:
 1308               		.cfi_def_cfa_offset 33
 1309 0300 2F93      		push r18
 1310               	.LCFI75:
 1311               		.cfi_def_cfa_offset 34
 1312 0302 1F92      		push __zero_reg__
 1313               	.LCFI76:
 1314               		.cfi_def_cfa_offset 35
 1315 0304 5F93      		push r21
 1316               	.LCFI77:
 1317               		.cfi_def_cfa_offset 36
 1318 0306 1F92      		push __zero_reg__
 1319               	.LCFI78:
 1320               		.cfi_def_cfa_offset 37
 1321 0308 8F93      		push r24
 1322               	.LCFI79:
 1323               		.cfi_def_cfa_offset 38
 1324 030a 1F92      		push __zero_reg__
 1325               	.LCFI80:
 1326               		.cfi_def_cfa_offset 39
 1327 030c 3F93      		push r19
 1328               	.LCFI81:
 1329               		.cfi_def_cfa_offset 40
 1330 030e 1F92      		push __zero_reg__
 1331               	.LCFI82:
 1332               		.cfi_def_cfa_offset 41
 1333 0310 9F93      		push r25
 1334               	.LCFI83:
 1335               		.cfi_def_cfa_offset 42
 1336 0312 1F92      		push __zero_reg__
 1337               	.LCFI84:
 1338               		.cfi_def_cfa_offset 43
 1339 0314 9F93      		push r25
 1340               	.LCFI85:
 1341               		.cfi_def_cfa_offset 44
 1342 0316 1F92      		push __zero_reg__
 1343               	.LCFI86:
 1344               		.cfi_def_cfa_offset 45
 1345 0318 8F93      		push r24
 1346               	.LCFI87:
 1347               		.cfi_def_cfa_offset 46
 1348 031a 1F92      		push __zero_reg__
 1349               	.LCFI88:
 1350               		.cfi_def_cfa_offset 47
 1351 031c 2F93      		push r18
 1352               	.LCFI89:
 1353               		.cfi_def_cfa_offset 48
 1354 031e 4F93      		push r20
 1355               	.LCFI90:
 1356               		.cfi_def_cfa_offset 49
 1357 0320 0E94 0000 		call send_keystrokes
 1358 0324 8DB7      		in r24,__SP_L__
 1359 0326 9EB7      		in r25,__SP_H__
 1360 0328 8F96      		adiw r24,47
 1361 032a 0FB6      		in __tmp_reg__,__SREG__
 1362 032c F894      		cli
 1363 032e 9EBF      		out __SP_H__,r25
 1364 0330 0FBE      		out __SREG__,__tmp_reg__
 1365 0332 8DBF      		out __SP_L__,r24
 1366               	.LCFI91:
 1367               		.cfi_def_cfa_offset 2
 1368               	.L91:
 1369               	/* epilogue start */
 656:layouts/community/ergodox/albert/keymap.c ****                             NK_DOWN, KC_LSFT, KC_8, NK_UP, KC_LSFT, KC_ENT,
 657:layouts/community/ergodox/albert/keymap.c ****                             NK_DOWN, KC_LSFT, KC_8, NK_UP, KC_LSFT, KC_SLSH, KC_UP, KC_END, KC_SPC,
 658:layouts/community/ergodox/albert/keymap.c ****                             KC_NO);
 659:layouts/community/ergodox/albert/keymap.c ****         }
 660:layouts/community/ergodox/albert/keymap.c ****     }
 661:layouts/community/ergodox/albert/keymap.c **** }
 1370               		.loc 1 661 1 is_stmt 0 view .LVU241
 1371 0334 0895      		ret
 1372               	.L96:
 602:layouts/community/ergodox/albert/keymap.c ****             SEND_STRING("git add .");
 1373               		.loc 1 602 9 discriminator 2 view .LVU242
 1374 0336 8091 0000 		lds r24,leader_sequence+4
 1375 033a 9091 0000 		lds r25,leader_sequence+4+1
 1376 033e 2091 0000 		lds r18,leader_sequence+6
 1377 0342 3091 0000 		lds r19,leader_sequence+6+1
 1378 0346 822B      		or r24,r18
 1379 0348 932B      		or r25,r19
 1380 034a 2091 0000 		lds r18,leader_sequence+8
 1381 034e 3091 0000 		lds r19,leader_sequence+8+1
 1382 0352 822B      		or r24,r18
 1383 0354 932B      		or r25,r19
 1384 0356 892B      		or r24,r25
 1385 0358 01F0      		breq .+2
 1386 035a 00C0      		rjmp .L101
 603:layouts/community/ergodox/albert/keymap.c ****         }
 1387               		.loc 1 603 13 is_stmt 1 view .LVU243
 1388               	.LBB32:
 603:layouts/community/ergodox/albert/keymap.c ****         }
 1389               		.loc 1 603 13 view .LVU244
 603:layouts/community/ergodox/albert/keymap.c ****         }
 1390               		.loc 1 603 13 view .LVU245
 1391               	.LBE32:
 1392 035c 80E0      		ldi r24,lo8(__c.6199)
 1393 035e 90E0      		ldi r25,hi8(__c.6199)
 1394 0360 0E94 0000 		call send_string_P
 605:layouts/community/ergodox/albert/keymap.c ****             SEND_STRING("git diff");
 1395               		.loc 1 605 9 view .LVU246
 1396 0364 8091 0000 		lds r24,leader_sequence
 1397 0368 9091 0000 		lds r25,leader_sequence+1
 1398 036c 0A97      		sbiw r24,10
 1399 036e 01F4      		brne .+2
 1400 0370 00C0      		rjmp .L99
 1401               	.L141:
 637:layouts/community/ergodox/albert/keymap.c ****             SEND_STRING("const_cast<>");
 1402               		.loc 1 637 9 view .LVU247
 1403 0372 8091 0000 		lds r24,leader_sequence
 1404 0376 9091 0000 		lds r25,leader_sequence+1
 1405 037a 0697      		sbiw r24,6
 1406 037c 01F0      		breq .+2
 1407 037e 00C0      		rjmp .L140
 637:layouts/community/ergodox/albert/keymap.c ****             SEND_STRING("const_cast<>");
 1408               		.loc 1 637 9 is_stmt 0 discriminator 1 view .LVU248
 1409 0380 8091 0000 		lds r24,leader_sequence+2
 1410 0384 9091 0000 		lds r25,leader_sequence+2+1
 1411 0388 0697      		sbiw r24,6
 1412 038a 01F4      		brne .+2
 1413 038c 00C0      		rjmp .L130
 1414               	.L133:
 641:layouts/community/ergodox/albert/keymap.c ****             SEND_STRING("dynamic_cast<>");
 1415               		.loc 1 641 9 view .LVU249
 1416 038e 8091 0000 		lds r24,leader_sequence+2
 1417 0392 9091 0000 		lds r25,leader_sequence+2+1
 1418 0396 0797      		sbiw r24,7
 1419 0398 01F4      		brne .L132
 641:layouts/community/ergodox/albert/keymap.c ****             SEND_STRING("dynamic_cast<>");
 1420               		.loc 1 641 9 discriminator 2 view .LVU250
 1421 039a 8091 0000 		lds r24,leader_sequence+4
 1422 039e 9091 0000 		lds r25,leader_sequence+4+1
 1423 03a2 2091 0000 		lds r18,leader_sequence+6
 1424 03a6 3091 0000 		lds r19,leader_sequence+6+1
 1425 03aa 822B      		or r24,r18
 1426 03ac 932B      		or r25,r19
 1427 03ae 2091 0000 		lds r18,leader_sequence+8
 1428 03b2 3091 0000 		lds r19,leader_sequence+8+1
 1429 03b6 822B      		or r24,r18
 1430 03b8 932B      		or r25,r19
 1431 03ba 892B      		or r24,r25
 1432 03bc 01F0      		breq .+2
 1433 03be 00C0      		rjmp .L136
 642:layouts/community/ergodox/albert/keymap.c ****             send_keystrokes(KC_LEFT, KC_NO);
 1434               		.loc 1 642 13 is_stmt 1 view .LVU251
 1435               	.LBB33:
 642:layouts/community/ergodox/albert/keymap.c ****             send_keystrokes(KC_LEFT, KC_NO);
 1436               		.loc 1 642 13 view .LVU252
 642:layouts/community/ergodox/albert/keymap.c ****             send_keystrokes(KC_LEFT, KC_NO);
 1437               		.loc 1 642 13 view .LVU253
 1438               	.LBE33:
 1439 03c0 80E0      		ldi r24,lo8(__c.6223)
 1440 03c2 90E0      		ldi r25,hi8(__c.6223)
 1441 03c4 0E94 0000 		call send_string_P
 643:layouts/community/ergodox/albert/keymap.c ****         }
 1442               		.loc 1 643 13 view .LVU254
 1443 03c8 1F92      		push __zero_reg__
 1444               	.LCFI92:
 1445               		.cfi_def_cfa_offset 3
 1446 03ca 1F92      		push __zero_reg__
 1447               	.LCFI93:
 1448               		.cfi_def_cfa_offset 4
 1449 03cc 80E5      		ldi r24,lo8(80)
 1450 03ce 8F93      		push r24
 1451               	.LCFI94:
 1452               		.cfi_def_cfa_offset 5
 1453 03d0 0E94 0000 		call send_keystrokes
 645:layouts/community/ergodox/albert/keymap.c ****             SEND_STRING("reinterpret_cast<>");
 1454               		.loc 1 645 9 view .LVU255
 1455 03d4 0F90      		pop __tmp_reg__
 1456 03d6 0F90      		pop __tmp_reg__
 1457 03d8 0F90      		pop __tmp_reg__
 1458               	.LCFI95:
 1459               		.cfi_def_cfa_offset 2
 1460 03da 8091 0000 		lds r24,leader_sequence
 1461 03de 9091 0000 		lds r25,leader_sequence+1
 1462 03e2 0697      		sbiw r24,6
 1463 03e4 01F0      		breq .+2
 1464 03e6 00C0      		rjmp .L140
 1465               	.L132:
 1466 03e8 8091 0000 		lds r24,leader_sequence+2
 1467 03ec 9091 0000 		lds r25,leader_sequence+2+1
 1468 03f0 4597      		sbiw r24,21
 1469 03f2 01F4      		brne .L136
 645:layouts/community/ergodox/albert/keymap.c ****             SEND_STRING("reinterpret_cast<>");
 1470               		.loc 1 645 9 is_stmt 0 discriminator 2 view .LVU256
 1471 03f4 8091 0000 		lds r24,leader_sequence+4
 1472 03f8 9091 0000 		lds r25,leader_sequence+4+1
 1473 03fc 2091 0000 		lds r18,leader_sequence+6
 1474 0400 3091 0000 		lds r19,leader_sequence+6+1
 1475 0404 822B      		or r24,r18
 1476 0406 932B      		or r25,r19
 1477 0408 2091 0000 		lds r18,leader_sequence+8
 1478 040c 3091 0000 		lds r19,leader_sequence+8+1
 1479 0410 822B      		or r24,r18
 1480 0412 932B      		or r25,r19
 1481 0414 892B      		or r24,r25
 1482 0416 01F0      		breq .+2
 1483 0418 00C0      		rjmp .L91
 646:layouts/community/ergodox/albert/keymap.c ****             send_keystrokes(KC_LEFT, KC_NO);
 1484               		.loc 1 646 13 is_stmt 1 view .LVU257
 1485               	.LBB34:
 646:layouts/community/ergodox/albert/keymap.c ****             send_keystrokes(KC_LEFT, KC_NO);
 1486               		.loc 1 646 13 view .LVU258
 646:layouts/community/ergodox/albert/keymap.c ****             send_keystrokes(KC_LEFT, KC_NO);
 1487               		.loc 1 646 13 view .LVU259
 1488               	.LBE34:
 1489 041a 80E0      		ldi r24,lo8(__c.6225)
 1490 041c 90E0      		ldi r25,hi8(__c.6225)
 1491 041e 0E94 0000 		call send_string_P
 647:layouts/community/ergodox/albert/keymap.c ****         }
 1492               		.loc 1 647 13 view .LVU260
 1493 0422 1F92      		push __zero_reg__
 1494               	.LCFI96:
 1495               		.cfi_def_cfa_offset 3
 1496 0424 1F92      		push __zero_reg__
 1497               	.LCFI97:
 1498               		.cfi_def_cfa_offset 4
 1499 0426 80E5      		ldi r24,lo8(80)
 1500 0428 8F93      		push r24
 1501               	.LCFI98:
 1502               		.cfi_def_cfa_offset 5
 1503 042a 0E94 0000 		call send_keystrokes
 649:layouts/community/ergodox/albert/keymap.c ****             SEND_STRING("static_cast<>");
 1504               		.loc 1 649 9 view .LVU261
 1505 042e 0F90      		pop __tmp_reg__
 1506 0430 0F90      		pop __tmp_reg__
 1507 0432 0F90      		pop __tmp_reg__
 1508               	.LCFI99:
 1509               		.cfi_def_cfa_offset 2
 1510 0434 8091 0000 		lds r24,leader_sequence
 1511 0438 9091 0000 		lds r25,leader_sequence+1
 1512 043c 0697      		sbiw r24,6
 1513 043e 01F0      		breq .+2
 1514 0440 00C0      		rjmp .L140
 1515               	.L136:
 1516 0442 8091 0000 		lds r24,leader_sequence+2
 1517 0446 9091 0000 		lds r25,leader_sequence+2+1
 1518 044a 4697      		sbiw r24,22
 1519 044c 01F0      		breq .+2
 1520 044e 00C0      		rjmp .L91
 649:layouts/community/ergodox/albert/keymap.c ****             SEND_STRING("static_cast<>");
 1521               		.loc 1 649 9 is_stmt 0 discriminator 2 view .LVU262
 1522 0450 8091 0000 		lds r24,leader_sequence+4
 1523 0454 9091 0000 		lds r25,leader_sequence+4+1
 1524 0458 2091 0000 		lds r18,leader_sequence+6
 1525 045c 3091 0000 		lds r19,leader_sequence+6+1
 1526 0460 822B      		or r24,r18
 1527 0462 932B      		or r25,r19
 1528 0464 2091 0000 		lds r18,leader_sequence+8
 1529 0468 3091 0000 		lds r19,leader_sequence+8+1
 1530 046c 822B      		or r24,r18
 1531 046e 932B      		or r25,r19
 1532 0470 892B      		or r24,r25
 1533 0472 01F0      		breq .+2
 1534 0474 00C0      		rjmp .L91
 650:layouts/community/ergodox/albert/keymap.c ****             send_keystrokes(KC_LEFT, KC_NO);
 1535               		.loc 1 650 13 is_stmt 1 view .LVU263
 1536               	.LBB35:
 650:layouts/community/ergodox/albert/keymap.c ****             send_keystrokes(KC_LEFT, KC_NO);
 1537               		.loc 1 650 13 view .LVU264
 650:layouts/community/ergodox/albert/keymap.c ****             send_keystrokes(KC_LEFT, KC_NO);
 1538               		.loc 1 650 13 view .LVU265
 1539               	.LBE35:
 1540 0476 80E0      		ldi r24,lo8(__c.6227)
 1541 0478 90E0      		ldi r25,hi8(__c.6227)
 1542 047a 0E94 0000 		call send_string_P
 651:layouts/community/ergodox/albert/keymap.c ****         }
 1543               		.loc 1 651 13 view .LVU266
 1544 047e 1F92      		push __zero_reg__
 1545               	.LCFI100:
 1546               		.cfi_def_cfa_offset 3
 1547 0480 1F92      		push __zero_reg__
 1548               	.LCFI101:
 1549               		.cfi_def_cfa_offset 4
 1550 0482 80E5      		ldi r24,lo8(80)
 1551 0484 8F93      		push r24
 1552               	.LCFI102:
 1553               		.cfi_def_cfa_offset 5
 1554 0486 0E94 0000 		call send_keystrokes
 1555 048a 0F90      		pop __tmp_reg__
 1556 048c 0F90      		pop __tmp_reg__
 1557 048e 0F90      		pop __tmp_reg__
 1558               	.LCFI103:
 1559               		.cfi_def_cfa_offset 2
 1560 0490 00C0      		rjmp .L140
 1561               	.L100:
 608:layouts/community/ergodox/albert/keymap.c ****             SEND_STRING("git diff --staged");
 1562               		.loc 1 608 9 is_stmt 0 discriminator 2 view .LVU267
 1563 0492 8091 0000 		lds r24,leader_sequence+4
 1564 0496 9091 0000 		lds r25,leader_sequence+4+1
 1565 049a 4697      		sbiw r24,22
 1566 049c 01F0      		breq .+2
 1567 049e 00C0      		rjmp .L108
 608:layouts/community/ergodox/albert/keymap.c ****             SEND_STRING("git diff --staged");
 1568               		.loc 1 608 9 discriminator 3 view .LVU268
 1569 04a0 8091 0000 		lds r24,leader_sequence+6
 1570 04a4 9091 0000 		lds r25,leader_sequence+6+1
 1571 04a8 2091 0000 		lds r18,leader_sequence+8
 1572 04ac 3091 0000 		lds r19,leader_sequence+8+1
 1573 04b0 822B      		or r24,r18
 1574 04b2 932B      		or r25,r19
 1575 04b4 892B      		or r24,r25
 1576 04b6 01F0      		breq .+2
 1577 04b8 00C0      		rjmp .L108
 609:layouts/community/ergodox/albert/keymap.c ****         }
 1578               		.loc 1 609 13 is_stmt 1 view .LVU269
 1579               	.LBB36:
 609:layouts/community/ergodox/albert/keymap.c ****         }
 1580               		.loc 1 609 13 view .LVU270
 609:layouts/community/ergodox/albert/keymap.c ****         }
 1581               		.loc 1 609 13 view .LVU271
 1582               	.LBE36:
 1583 04ba 80E0      		ldi r24,lo8(__c.6203)
 1584 04bc 90E0      		ldi r25,hi8(__c.6203)
 1585 04be 0E94 0000 		call send_string_P
 611:layouts/community/ergodox/albert/keymap.c ****             SEND_STRING("git log");
 1586               		.loc 1 611 9 view .LVU272
 1587 04c2 8091 0000 		lds r24,leader_sequence
 1588 04c6 9091 0000 		lds r25,leader_sequence+1
 1589 04ca 0A97      		sbiw r24,10
 1590 04cc 01F4      		brne .+2
 1591 04ce 00C0      		rjmp .L101
 1592 04d0 00C0      		rjmp .L141
 1593               	.L107:
 614:layouts/community/ergodox/albert/keymap.c ****             SEND_STRING("git log --oneline");
 1594               		.loc 1 614 9 is_stmt 0 discriminator 2 view .LVU273
 1595 04d2 8091 0000 		lds r24,leader_sequence+4
 1596 04d6 9091 0000 		lds r25,leader_sequence+4+1
 1597 04da 4297      		sbiw r24,18
 1598 04dc 01F0      		breq .+2
 1599 04de 00C0      		rjmp .L112
 614:layouts/community/ergodox/albert/keymap.c ****             SEND_STRING("git log --oneline");
 1600               		.loc 1 614 9 discriminator 3 view .LVU274
 1601 04e0 8091 0000 		lds r24,leader_sequence+6
 1602 04e4 9091 0000 		lds r25,leader_sequence+6+1
 1603 04e8 2091 0000 		lds r18,leader_sequence+8
 1604 04ec 3091 0000 		lds r19,leader_sequence+8+1
 1605 04f0 822B      		or r24,r18
 1606 04f2 932B      		or r25,r19
 1607 04f4 892B      		or r24,r25
 1608 04f6 01F0      		breq .+2
 1609 04f8 00C0      		rjmp .L112
 615:layouts/community/ergodox/albert/keymap.c ****         }
 1610               		.loc 1 615 13 is_stmt 1 view .LVU275
 1611               	.LBB37:
 615:layouts/community/ergodox/albert/keymap.c ****         }
 1612               		.loc 1 615 13 view .LVU276
 615:layouts/community/ergodox/albert/keymap.c ****         }
 1613               		.loc 1 615 13 view .LVU277
 1614               	.LBE37:
 1615 04fa 80E0      		ldi r24,lo8(__c.6207)
 1616 04fc 90E0      		ldi r25,hi8(__c.6207)
 1617 04fe 0E94 0000 		call send_string_P
 617:layouts/community/ergodox/albert/keymap.c ****             SEND_STRING("git fetch");
 1618               		.loc 1 617 9 view .LVU278
 1619 0502 8091 0000 		lds r24,leader_sequence
 1620 0506 9091 0000 		lds r25,leader_sequence+1
 1621 050a 0A97      		sbiw r24,10
 1622 050c 01F4      		brne .+2
 1623 050e 00C0      		rjmp .L108
 1624 0510 00C0      		rjmp .L141
 1625               	.L126:
 633:layouts/community/ergodox/albert/keymap.c ****             SEND_STRING("git commit --amend");
 1626               		.loc 1 633 9 is_stmt 0 discriminator 2 view .LVU279
 1627 0512 8091 0000 		lds r24,leader_sequence+4
 1628 0516 9091 0000 		lds r25,leader_sequence+4+1
 1629 051a 0497      		sbiw r24,4
 1630 051c 01F0      		breq .+2
 1631 051e 00C0      		rjmp .L140
 633:layouts/community/ergodox/albert/keymap.c ****             SEND_STRING("git commit --amend");
 1632               		.loc 1 633 9 discriminator 3 view .LVU280
 1633 0520 8091 0000 		lds r24,leader_sequence+6
 1634 0524 9091 0000 		lds r25,leader_sequence+6+1
 1635 0528 2091 0000 		lds r18,leader_sequence+8
 1636 052c 3091 0000 		lds r19,leader_sequence+8+1
 1637 0530 822B      		or r24,r18
 1638 0532 932B      		or r25,r19
 1639 0534 892B      		or r24,r25
 1640 0536 01F0      		breq .+2
 1641 0538 00C0      		rjmp .L140
 634:layouts/community/ergodox/albert/keymap.c ****         }
 1642               		.loc 1 634 13 is_stmt 1 view .LVU281
 1643               	.LBB38:
 634:layouts/community/ergodox/albert/keymap.c ****         }
 1644               		.loc 1 634 13 view .LVU282
 634:layouts/community/ergodox/albert/keymap.c ****         }
 1645               		.loc 1 634 13 view .LVU283
 1646               	.LBE38:
 1647 053a 80E0      		ldi r24,lo8(__c.6219)
 1648 053c 90E0      		ldi r25,hi8(__c.6219)
 1649 053e 0E94 0000 		call send_string_P
 1650 0542 00C0      		rjmp .L141
 1651               	.L130:
 637:layouts/community/ergodox/albert/keymap.c ****             SEND_STRING("const_cast<>");
 1652               		.loc 1 637 9 is_stmt 0 discriminator 2 view .LVU284
 1653 0544 8091 0000 		lds r24,leader_sequence+4
 1654 0548 9091 0000 		lds r25,leader_sequence+4+1
 1655 054c 2091 0000 		lds r18,leader_sequence+6
 1656 0550 3091 0000 		lds r19,leader_sequence+6+1
 1657 0554 822B      		or r24,r18
 1658 0556 932B      		or r25,r19
 1659 0558 2091 0000 		lds r18,leader_sequence+8
 1660 055c 3091 0000 		lds r19,leader_sequence+8+1
 1661 0560 822B      		or r24,r18
 1662 0562 932B      		or r25,r19
 1663 0564 892B      		or r24,r25
 1664 0566 01F0      		breq .+2
 1665 0568 00C0      		rjmp .L132
 638:layouts/community/ergodox/albert/keymap.c ****             send_keystrokes(KC_LEFT, KC_NO);
 1666               		.loc 1 638 13 is_stmt 1 view .LVU285
 1667               	.LBB39:
 638:layouts/community/ergodox/albert/keymap.c ****             send_keystrokes(KC_LEFT, KC_NO);
 1668               		.loc 1 638 13 view .LVU286
 638:layouts/community/ergodox/albert/keymap.c ****             send_keystrokes(KC_LEFT, KC_NO);
 1669               		.loc 1 638 13 view .LVU287
 1670               	.LBE39:
 1671 056a 80E0      		ldi r24,lo8(__c.6221)
 1672 056c 90E0      		ldi r25,hi8(__c.6221)
 1673 056e 0E94 0000 		call send_string_P
 639:layouts/community/ergodox/albert/keymap.c ****         }
 1674               		.loc 1 639 13 view .LVU288
 1675 0572 1F92      		push __zero_reg__
 1676               	.LCFI104:
 1677               		.cfi_def_cfa_offset 3
 1678 0574 1F92      		push __zero_reg__
 1679               	.LCFI105:
 1680               		.cfi_def_cfa_offset 4
 1681 0576 80E5      		ldi r24,lo8(80)
 1682 0578 8F93      		push r24
 1683               	.LCFI106:
 1684               		.cfi_def_cfa_offset 5
 1685 057a 0E94 0000 		call send_keystrokes
 641:layouts/community/ergodox/albert/keymap.c ****             SEND_STRING("dynamic_cast<>");
 1686               		.loc 1 641 9 view .LVU289
 1687 057e 0F90      		pop __tmp_reg__
 1688 0580 0F90      		pop __tmp_reg__
 1689 0582 0F90      		pop __tmp_reg__
 1690               	.LCFI107:
 1691               		.cfi_def_cfa_offset 2
 1692 0584 8091 0000 		lds r24,leader_sequence
 1693 0588 9091 0000 		lds r25,leader_sequence+1
 1694 058c 0697      		sbiw r24,6
 1695 058e 01F4      		brne .+2
 1696 0590 00C0      		rjmp .L133
 1697 0592 00C0      		rjmp .L140
 1698               		.cfi_endproc
 1699               	.LFE130:
 1701               		.section	.progmem.data.__c.6227,"a",@progbits
 1704               	__c.6227:
 1705 0000 7374 6174 		.string	"static_cast<>"
 1705      6963 5F63 
 1705      6173 743C 
 1705      3E00 
 1706               		.section	.progmem.data.__c.6225,"a",@progbits
 1709               	__c.6225:
 1710 0000 7265 696E 		.string	"reinterpret_cast<>"
 1710      7465 7270 
 1710      7265 745F 
 1710      6361 7374 
 1710      3C3E 00
 1711               		.section	.progmem.data.__c.6223,"a",@progbits
 1714               	__c.6223:
 1715 0000 6479 6E61 		.string	"dynamic_cast<>"
 1715      6D69 635F 
 1715      6361 7374 
 1715      3C3E 00
 1716               		.section	.progmem.data.__c.6221,"a",@progbits
 1719               	__c.6221:
 1720 0000 636F 6E73 		.string	"const_cast<>"
 1720      745F 6361 
 1720      7374 3C3E 
 1720      00
 1721               		.section	.progmem.data.__c.6219,"a",@progbits
 1724               	__c.6219:
 1725 0000 6769 7420 		.string	"git commit --amend"
 1725      636F 6D6D 
 1725      6974 202D 
 1725      2D61 6D65 
 1725      6E64 00
 1726               		.section	.progmem.data.__c.6217,"a",@progbits
 1729               	__c.6217:
 1730 0000 6769 7420 		.string	"git commit -m ''"
 1730      636F 6D6D 
 1730      6974 202D 
 1730      6D20 2727 
 1730      00
 1731               		.section	.progmem.data.__c.6215,"a",@progbits
 1734               	__c.6215:
 1735 0000 6769 7420 		.string	"git status"
 1735      7374 6174 
 1735      7573 00
 1736               		.section	.progmem.data.__c.6213,"a",@progbits
 1739               	__c.6213:
 1740 0000 6769 7420 		.string	"git pull"
 1740      7075 6C6C 
 1740      00
 1741               		.section	.progmem.data.__c.6211,"a",@progbits
 1744               	__c.6211:
 1745 0000 6769 7420 		.string	"git checkout"
 1745      6368 6563 
 1745      6B6F 7574 
 1745      00
 1746               		.section	.progmem.data.__c.6209,"a",@progbits
 1749               	__c.6209:
 1750 0000 6769 7420 		.string	"git fetch"
 1750      6665 7463 
 1750      6800 
 1751               		.section	.progmem.data.__c.6207,"a",@progbits
 1754               	__c.6207:
 1755 0000 6769 7420 		.string	"git log --oneline"
 1755      6C6F 6720 
 1755      2D2D 6F6E 
 1755      656C 696E 
 1755      6500 
 1756               		.section	.progmem.data.__c.6205,"a",@progbits
 1759               	__c.6205:
 1760 0000 6769 7420 		.string	"git log"
 1760      6C6F 6700 
 1761               		.section	.progmem.data.__c.6203,"a",@progbits
 1764               	__c.6203:
 1765 0000 6769 7420 		.string	"git diff --staged"
 1765      6469 6666 
 1765      202D 2D73 
 1765      7461 6765 
 1765      6400 
 1766               		.section	.progmem.data.__c.6201,"a",@progbits
 1769               	__c.6201:
 1770 0000 6769 7420 		.string	"git diff"
 1770      6469 6666 
 1770      00
 1771               		.section	.progmem.data.__c.6199,"a",@progbits
 1774               	__c.6199:
 1775 0000 6769 7420 		.string	"git add ."
 1775      6164 6420 
 1775      2E00 
 1776               		.section	.progmem.data.__c.6190,"a",@progbits
 1779               	__c.6190:
 1780 0000 766F 6C61 		.string	"volatile"
 1780      7469 6C65 
 1780      00
 1781               		.section	.progmem.data.__m.6187,"a",@progbits
 1784               	__m.6187:
 1785 0000 01        		.byte	1
 1786 0001 E0        		.byte	-32
 1787 0002 01        		.byte	1
 1788 0003 1B        		.byte	27
 1789 0004 02        		.byte	2
 1790 0005 1B        		.byte	27
 1791 0006 01        		.byte	1
 1792 0007 2D        		.byte	45
 1793 0008 02        		.byte	2
 1794 0009 2D        		.byte	45
 1795 000a 02        		.byte	2
 1796 000b E0        		.byte	-32
 1797 000c 00        		.byte	0
 1798               		.section	.progmem.data.__m.6184,"a",@progbits
 1801               	__m.6184:
 1802 0000 01        		.byte	1
 1803 0001 E0        		.byte	-32
 1804 0002 01        		.byte	1
 1805 0003 1B        		.byte	27
 1806 0004 02        		.byte	2
 1807 0005 1B        		.byte	27
 1808 0006 01        		.byte	1
 1809 0007 2E        		.byte	46
 1810 0008 02        		.byte	2
 1811 0009 2E        		.byte	46
 1812 000a 02        		.byte	2
 1813 000b E0        		.byte	-32
 1814 000c 00        		.byte	0
 1815               		.section	.progmem.data.__c.6181,"a",@progbits
 1818               	__c.6181:
 1819 0000 7669 7274 		.string	"virtual"
 1819      7561 6C00 
 1820               		.section	.progmem.data.__c.6178,"a",@progbits
 1823               	__c.6178:
 1824 0000 6578 7465 		.string	"extern"
 1824      726E 00
 1825               		.section	.progmem.data.__c.6175,"a",@progbits
 1828               	__c.6175:
 1829 0000 6E75 6C6C 		.string	"nullptr"
 1829      7074 7200 
 1830               		.section	.progmem.data.__c.6172,"a",@progbits
 1833               	__c.6172:
 1834 0000 6F70 6572 		.string	"operator"
 1834      6174 6F72 
 1834      00
 1835               		.section	.progmem.data.__c.6167,"a",@progbits
 1838               	__c.6167:
 1839 0000 3A2D 2800 		.string	":-("
 1840               		.section	.progmem.data.__c.6164,"a",@progbits
 1843               	__c.6164:
 1844 0000 3A2D 2900 		.string	":-)"
 1845               		.section	.progmem.data.__c.6161,"a",@progbits
 1848               	__c.6161:
 1849 0000 636F 6E73 		.string	"const"
 1849      7400 
 1850               		.section	.progmem.data.__m.6158,"a",@progbits
 1853               	__m.6158:
 1854 0000 01        		.byte	1
 1855 0001 33        		.byte	51
 1856 0002 02        		.byte	2
 1857 0003 33        		.byte	51
 1858 0004 00        		.byte	0
 1859               		.section	.progmem.data.__c.6156,"a",@progbits
 1862               	__c.6156:
 1863 0000 6272 6561 		.string	"break"
 1863      6B00 
 1864               		.section	.progmem.data.__m.6153,"a",@progbits
 1867               	__m.6153:
 1868 0000 01        		.byte	1
 1869 0001 33        		.byte	51
 1870 0002 02        		.byte	2
 1871 0003 33        		.byte	51
 1872 0004 00        		.byte	0
 1873               		.section	.progmem.data.__c.6151,"a",@progbits
 1876               	__c.6151:
 1877 0000 636F 6E74 		.string	"continue"
 1877      696E 7565 
 1877      00
 1878               		.section	.progmem.data.__c.6148,"a",@progbits
 1881               	__c.6148:
 1882 0000 7479 7065 		.string	"typename"
 1882      6E61 6D65 
 1882      00
 1883               		.section	.progmem.data.__c.6145,"a",@progbits
 1886               	__c.6145:
 1887 0000 7465 6D70 		.string	"template"
 1887      6C61 7465 
 1887      00
 1888               		.section	.progmem.data.__m.6142,"a",@progbits
 1891               	__m.6142:
 1892 0000 01        		.byte	1
 1893 0001 28        		.byte	40
 1894 0002 02        		.byte	2
 1895 0003 28        		.byte	40
 1896 0004 01        		.byte	1
 1897 0005 E1        		.byte	-31
 1898 0006 01        		.byte	1
 1899 0007 2F        		.byte	47
 1900 0008 02        		.byte	2
 1901 0009 2F        		.byte	47
 1902 000a 02        		.byte	2
 1903 000b E1        		.byte	-31
 1904 000c 01        		.byte	1
 1905 000d 28        		.byte	40
 1906 000e 02        		.byte	2
 1907 000f 28        		.byte	40
 1908 0010 01        		.byte	1
 1909 0011 E1        		.byte	-31
 1910 0012 01        		.byte	1
 1911 0013 30        		.byte	48
 1912 0014 02        		.byte	2
 1913 0015 30        		.byte	48
 1914 0016 02        		.byte	2
 1915 0017 E1        		.byte	-31
 1916 0018 01        		.byte	1
 1917 0019 33        		.byte	51
 1918 001a 02        		.byte	2
 1919 001b 33        		.byte	51
 1920 001c 01        		.byte	1
 1921 001d 52        		.byte	82
 1922 001e 02        		.byte	2
 1923 001f 52        		.byte	82
 1924 0020 01        		.byte	1
 1925 0021 2B        		.byte	43
 1926 0022 02        		.byte	2
 1927 0023 2B        		.byte	43
 1928 0024 00        		.byte	0
 1929               		.section	.progmem.data.__c.6139,"a",@progbits
 1932               	__c.6139:
 1933 0000 676F 6F64 		.string	"good night"
 1933      206E 6967 
 1933      6874 00
 1934               		.section	.progmem.data.__m.6136,"a",@progbits
 1937               	__m.6136:
 1938 0000 01        		.byte	1
 1939 0001 E0        		.byte	-32
 1940 0002 01        		.byte	1
 1941 0003 1B        		.byte	27
 1942 0004 02        		.byte	2
 1943 0005 1B        		.byte	27
 1944 0006 02        		.byte	2
 1945 0007 E0        		.byte	-32
 1946 0008 01        		.byte	1
 1947 0009 4F        		.byte	79
 1948 000a 02        		.byte	2
 1949 000b 4F        		.byte	79
 1950 000c 00        		.byte	0
 1951               		.section	.progmem.data.__m.6133,"a",@progbits
 1954               	__m.6133:
 1955 0000 01        		.byte	1
 1956 0001 E0        		.byte	-32
 1957 0002 01        		.byte	1
 1958 0003 1B        		.byte	27
 1959 0004 02        		.byte	2
 1960 0005 1B        		.byte	27
 1961 0006 02        		.byte	2
 1962 0007 E0        		.byte	-32
 1963 0008 01        		.byte	1
 1964 0009 50        		.byte	80
 1965 000a 02        		.byte	2
 1966 000b 50        		.byte	80
 1967 000c 00        		.byte	0
 1968               		.section	.progmem.data.__m.6130,"a",@progbits
 1971               	__m.6130:
 1972 0000 01        		.byte	1
 1973 0001 E2        		.byte	-30
 1974 0002 01        		.byte	1
 1975 0003 E1        		.byte	-31
 1976 0004 01        		.byte	1
 1977 0005 2D        		.byte	45
 1978 0006 02        		.byte	2
 1979 0007 2D        		.byte	45
 1980 0008 02        		.byte	2
 1981 0009 E1        		.byte	-31
 1982 000a 02        		.byte	2
 1983 000b E2        		.byte	-30
 1984 000c 00        		.byte	0
 1985               		.section	.progmem.data.__m.6127,"a",@progbits
 1988               	__m.6127:
 1989 0000 01        		.byte	1
 1990 0001 E0        		.byte	-32
 1991 0002 01        		.byte	1
 1992 0003 E1        		.byte	-31
 1993 0004 01        		.byte	1
 1994 0005 2D        		.byte	45
 1995 0006 02        		.byte	2
 1996 0007 2D        		.byte	45
 1997 0008 02        		.byte	2
 1998 0009 E1        		.byte	-31
 1999 000a 02        		.byte	2
 2000 000b E0        		.byte	-32
 2001 000c 00        		.byte	0
 2002               		.section	.progmem.data.__m.6124,"a",@progbits
 2005               	__m.6124:
 2006 0000 01        		.byte	1
 2007 0001 E0        		.byte	-32
 2008 0002 01        		.byte	1
 2009 0003 1B        		.byte	27
 2010 0004 02        		.byte	2
 2011 0005 1B        		.byte	27
 2012 0006 01        		.byte	1
 2013 0007 16        		.byte	22
 2014 0008 02        		.byte	2
 2015 0009 16        		.byte	22
 2016 000a 02        		.byte	2
 2017 000b E0        		.byte	-32
 2018 000c 00        		.byte	0
 2019               		.section	.progmem.data.__m.6121,"a",@progbits
 2022               	__m.6121:
 2023 0000 01        		.byte	1
 2024 0001 E0        		.byte	-32
 2025 0002 01        		.byte	1
 2026 0003 1B        		.byte	27
 2027 0004 02        		.byte	2
 2028 0005 1B        		.byte	27
 2029 0006 01        		.byte	1
 2030 0007 14        		.byte	20
 2031 0008 02        		.byte	2
 2032 0009 14        		.byte	20
 2033 000a 02        		.byte	2
 2034 000b E0        		.byte	-32
 2035 000c 00        		.byte	0
 2036               		.section	.progmem.data.__c.6118,"a",@progbits
 2039               	__c.6118:
 2040 0000 6E61 6D65 		.string	"namespace"
 2040      7370 6163 
 2040      6500 
 2041               		.section	.progmem.data.__c.6115,"a",@progbits
 2044               	__c.6115:
 2045 0000 676F 6F64 		.string	"good morning"
 2045      206D 6F72 
 2045      6E69 6E67 
 2045      00
 2046               		.section	.progmem.data.__c.6112,"a",@progbits
 2049               	__c.6112:
 2050 0000 6769 7420 		.string	"git log --oneline --graph --decorate=short"
 2050      6C6F 6720 
 2050      2D2D 6F6E 
 2050      656C 696E 
 2050      6520 2D2D 
 2051               		.section	.progmem.data.__c.6109,"a",@progbits
 2054               	__c.6109:
 2055 0000 6F62 6A64 		.string	"objdump -CT -x -d"
 2055      756D 7020 
 2055      2D43 5420 
 2055      2D78 202D 
 2055      6400 
 2056               		.section	.progmem.data.__m.6106,"a",@progbits
 2059               	__m.6106:
 2060 0000 01        		.byte	1
 2061 0001 32        		.byte	50
 2062 0002 02        		.byte	2
 2063 0003 32        		.byte	50
 2064 0004 01        		.byte	1
 2065 0005 0C        		.byte	12
 2066 0006 02        		.byte	2
 2067 0007 0C        		.byte	12
 2068 0008 01        		.byte	1
 2069 0009 11        		.byte	17
 2070 000a 02        		.byte	2
 2071 000b 11        		.byte	17
 2072 000c 01        		.byte	1
 2073 000d 06        		.byte	6
 2074 000e 02        		.byte	2
 2075 000f 06        		.byte	6
 2076 0010 01        		.byte	1
 2077 0011 0F        		.byte	15
 2078 0012 02        		.byte	2
 2079 0013 0F        		.byte	15
 2080 0014 01        		.byte	1
 2081 0015 18        		.byte	24
 2082 0016 02        		.byte	2
 2083 0017 18        		.byte	24
 2084 0018 01        		.byte	1
 2085 0019 07        		.byte	7
 2086 001a 02        		.byte	2
 2087 001b 07        		.byte	7
 2088 001c 01        		.byte	1
 2089 001d 08        		.byte	8
 2090 001e 02        		.byte	2
 2091 001f 08        		.byte	8
 2092 0020 00        		.byte	0
 2093               		.section	.progmem.data.__c.6103,"a",@progbits
 2096               	__c.6103:
 2097 0000 7265 7475 		.string	"return"
 2097      726E 00
 2098               		.section	.progmem.data.__m.6100,"a",@progbits
 2101               	__m.6100:
 2102 0000 01        		.byte	1
 2103 0001 16        		.byte	22
 2104 0002 02        		.byte	2
 2105 0003 16        		.byte	22
 2106 0004 01        		.byte	1
 2107 0005 17        		.byte	23
 2108 0006 02        		.byte	2
 2109 0007 17        		.byte	23
 2110 0008 01        		.byte	1
 2111 0009 15        		.byte	21
 2112 000a 02        		.byte	2
 2113 000b 15        		.byte	21
 2114 000c 01        		.byte	1
 2115 000d 18        		.byte	24
 2116 000e 02        		.byte	2
 2117 000f 18        		.byte	24
 2118 0010 01        		.byte	1
 2119 0011 06        		.byte	6
 2120 0012 02        		.byte	2
 2121 0013 06        		.byte	6
 2122 0014 01        		.byte	1
 2123 0015 17        		.byte	23
 2124 0016 02        		.byte	2
 2125 0017 17        		.byte	23
 2126 0018 01        		.byte	1
 2127 0019 28        		.byte	40
 2128 001a 02        		.byte	2
 2129 001b 28        		.byte	40
 2130 001c 01        		.byte	1
 2131 001d E1        		.byte	-31
 2132 001e 01        		.byte	1
 2133 001f 2F        		.byte	47
 2134 0020 02        		.byte	2
 2135 0021 2F        		.byte	47
 2136 0022 02        		.byte	2
 2137 0023 E1        		.byte	-31
 2138 0024 01        		.byte	1
 2139 0025 28        		.byte	40
 2140 0026 02        		.byte	2
 2141 0027 28        		.byte	40
 2142 0028 01        		.byte	1
 2143 0029 E1        		.byte	-31
 2144 002a 01        		.byte	1
 2145 002b 30        		.byte	48
 2146 002c 02        		.byte	2
 2147 002d 30        		.byte	48
 2148 002e 02        		.byte	2
 2149 002f E1        		.byte	-31
 2150 0030 01        		.byte	1
 2151 0031 33        		.byte	51
 2152 0032 02        		.byte	2
 2153 0033 33        		.byte	51
 2154 0034 01        		.byte	1
 2155 0035 28        		.byte	40
 2156 0036 02        		.byte	2
 2157 0037 28        		.byte	40
 2158 0038 01        		.byte	1
 2159 0039 52        		.byte	82
 2160 003a 02        		.byte	2
 2161 003b 52        		.byte	82
 2162 003c 01        		.byte	1
 2163 003d 52        		.byte	82
 2164 003e 02        		.byte	2
 2165 003f 52        		.byte	82
 2166 0040 01        		.byte	1
 2167 0041 52        		.byte	82
 2168 0042 02        		.byte	2
 2169 0043 52        		.byte	82
 2170 0044 01        		.byte	1
 2171 0045 52        		.byte	82
 2172 0046 02        		.byte	2
 2173 0047 52        		.byte	82
 2174 0048 01        		.byte	1
 2175 0049 4D        		.byte	77
 2176 004a 02        		.byte	2
 2177 004b 4D        		.byte	77
 2178 004c 01        		.byte	1
 2179 004d 2C        		.byte	44
 2180 004e 02        		.byte	2
 2181 004f 2C        		.byte	44
 2182 0050 00        		.byte	0
 2183               		.section	.progmem.data.__m.6097,"a",@progbits
 2186               	__m.6097:
 2187 0000 01        		.byte	1
 2188 0001 06        		.byte	6
 2189 0002 02        		.byte	2
 2190 0003 06        		.byte	6
 2191 0004 01        		.byte	1
 2192 0005 0F        		.byte	15
 2193 0006 02        		.byte	2
 2194 0007 0F        		.byte	15
 2195 0008 01        		.byte	1
 2196 0009 04        		.byte	4
 2197 000a 02        		.byte	2
 2198 000b 04        		.byte	4
 2199 000c 01        		.byte	1
 2200 000d 16        		.byte	22
 2201 000e 02        		.byte	2
 2202 000f 16        		.byte	22
 2203 0010 01        		.byte	1
 2204 0011 16        		.byte	22
 2205 0012 02        		.byte	2
 2206 0013 16        		.byte	22
 2207 0014 01        		.byte	1
 2208 0015 28        		.byte	40
 2209 0016 02        		.byte	2
 2210 0017 28        		.byte	40
 2211 0018 01        		.byte	1
 2212 0019 E1        		.byte	-31
 2213 001a 01        		.byte	1
 2214 001b 2F        		.byte	47
 2215 001c 02        		.byte	2
 2216 001d 2F        		.byte	47
 2217 001e 02        		.byte	2
 2218 001f E1        		.byte	-31
 2219 0020 01        		.byte	1
 2220 0021 28        		.byte	40
 2221 0022 02        		.byte	2
 2222 0023 28        		.byte	40
 2223 0024 01        		.byte	1
 2224 0025 13        		.byte	19
 2225 0026 02        		.byte	2
 2226 0027 13        		.byte	19
 2227 0028 01        		.byte	1
 2228 0029 18        		.byte	24
 2229 002a 02        		.byte	2
 2230 002b 18        		.byte	24
 2231 002c 01        		.byte	1
 2232 002d 05        		.byte	5
 2233 002e 02        		.byte	2
 2234 002f 05        		.byte	5
 2235 0030 01        		.byte	1
 2236 0031 0F        		.byte	15
 2237 0032 02        		.byte	2
 2238 0033 0F        		.byte	15
 2239 0034 01        		.byte	1
 2240 0035 0C        		.byte	12
 2241 0036 02        		.byte	2
 2242 0037 0C        		.byte	12
 2243 0038 01        		.byte	1
 2244 0039 06        		.byte	6
 2245 003a 02        		.byte	2
 2246 003b 06        		.byte	6
 2247 003c 01        		.byte	1
 2248 003d E1        		.byte	-31
 2249 003e 01        		.byte	1
 2250 003f 33        		.byte	51
 2251 0040 02        		.byte	2
 2252 0041 33        		.byte	51
 2253 0042 02        		.byte	2
 2254 0043 E1        		.byte	-31
 2255 0044 01        		.byte	1
 2256 0045 28        		.byte	40
 2257 0046 02        		.byte	2
 2258 0047 28        		.byte	40
 2259 0048 01        		.byte	1
 2260 0049 28        		.byte	40
 2261 004a 02        		.byte	2
 2262 004b 28        		.byte	40
 2263 004c 01        		.byte	1
 2264 004d 13        		.byte	19
 2265 004e 02        		.byte	2
 2266 004f 13        		.byte	19
 2267 0050 01        		.byte	1
 2268 0051 15        		.byte	21
 2269 0052 02        		.byte	2
 2270 0053 15        		.byte	21
 2271 0054 01        		.byte	1
 2272 0055 0C        		.byte	12
 2273 0056 02        		.byte	2
 2274 0057 0C        		.byte	12
 2275 0058 01        		.byte	1
 2276 0059 19        		.byte	25
 2277 005a 02        		.byte	2
 2278 005b 19        		.byte	25
 2279 005c 01        		.byte	1
 2280 005d 04        		.byte	4
 2281 005e 02        		.byte	2
 2282 005f 04        		.byte	4
 2283 0060 01        		.byte	1
 2284 0061 17        		.byte	23
 2285 0062 02        		.byte	2
 2286 0063 17        		.byte	23
 2287 0064 01        		.byte	1
 2288 0065 08        		.byte	8
 2289 0066 02        		.byte	2
 2290 0067 08        		.byte	8
 2291 0068 01        		.byte	1
 2292 0069 E1        		.byte	-31
 2293 006a 01        		.byte	1
 2294 006b 33        		.byte	51
 2295 006c 02        		.byte	2
 2296 006d 33        		.byte	51
 2297 006e 02        		.byte	2
 2298 006f E1        		.byte	-31
 2299 0070 01        		.byte	1
 2300 0071 28        		.byte	40
 2301 0072 02        		.byte	2
 2302 0073 28        		.byte	40
 2303 0074 01        		.byte	1
 2304 0075 E1        		.byte	-31
 2305 0076 01        		.byte	1
 2306 0077 30        		.byte	48
 2307 0078 02        		.byte	2
 2308 0079 30        		.byte	48
 2309 007a 02        		.byte	2
 2310 007b E1        		.byte	-31
 2311 007c 01        		.byte	1
 2312 007d 33        		.byte	51
 2313 007e 02        		.byte	2
 2314 007f 33        		.byte	51
 2315 0080 01        		.byte	1
 2316 0081 28        		.byte	40
 2317 0082 02        		.byte	2
 2318 0083 28        		.byte	40
 2319 0084 01        		.byte	1
 2320 0085 52        		.byte	82
 2321 0086 02        		.byte	2
 2322 0087 52        		.byte	82
 2323 0088 01        		.byte	1
 2324 0089 52        		.byte	82
 2325 008a 02        		.byte	2
 2326 008b 52        		.byte	82
 2327 008c 01        		.byte	1
 2328 008d 52        		.byte	82
 2329 008e 02        		.byte	2
 2330 008f 52        		.byte	82
 2331 0090 01        		.byte	1
 2332 0091 52        		.byte	82
 2333 0092 02        		.byte	2
 2334 0093 52        		.byte	82
 2335 0094 01        		.byte	1
 2336 0095 52        		.byte	82
 2337 0096 02        		.byte	2
 2338 0097 52        		.byte	82
 2339 0098 01        		.byte	1
 2340 0099 52        		.byte	82
 2341 009a 02        		.byte	2
 2342 009b 52        		.byte	82
 2343 009c 01        		.byte	1
 2344 009d 52        		.byte	82
 2345 009e 02        		.byte	2
 2346 009f 52        		.byte	82
 2347 00a0 01        		.byte	1
 2348 00a1 4D        		.byte	77
 2349 00a2 02        		.byte	2
 2350 00a3 4D        		.byte	77
 2351 00a4 01        		.byte	1
 2352 00a5 2C        		.byte	44
 2353 00a6 02        		.byte	2
 2354 00a7 2C        		.byte	44
 2355 00a8 00        		.byte	0
 2356               		.section	.progmem.data.__c.6094,"a",@progbits
 2359               	__c.6094:
 2360 0000 7072 6976 		.string	"private"
 2360      6174 6500 
 2361               		.section	.progmem.data.__c.6091,"a",@progbits
 2364               	__c.6091:
 2365 0000 7072 6F74 		.string	"protected"
 2365      6563 7465 
 2365      6400 
 2366               		.section	.progmem.data.__c.6088,"a",@progbits
 2369               	__c.6088:
 2370 0000 7075 626C 		.string	"public"
 2370      6963 00
 2371               		.section	.progmem.data.__m.6085,"a",@progbits
 2374               	__m.6085:
 2375 0000 01        		.byte	1
 2376 0001 27        		.byte	39
 2377 0002 02        		.byte	2
 2378 0003 27        		.byte	39
 2379 0004 01        		.byte	1
 2380 0005 1B        		.byte	27
 2381 0006 02        		.byte	2
 2382 0007 1B        		.byte	27
 2383 0008 00        		.byte	0
 2384               		.section	.progmem.data.__m.6081,"a",@progbits
 2387               	__m.6081:
 2388 0000 01        		.byte	1
 2389 0001 28        		.byte	40
 2390 0002 02        		.byte	2
 2391 0003 28        		.byte	40
 2392 0004 01        		.byte	1
 2393 0005 E1        		.byte	-31
 2394 0006 01        		.byte	1
 2395 0007 2F        		.byte	47
 2396 0008 02        		.byte	2
 2397 0009 2F        		.byte	47
 2398 000a 02        		.byte	2
 2399 000b E1        		.byte	-31
 2400 000c 01        		.byte	1
 2401 000d 28        		.byte	40
 2402 000e 02        		.byte	2
 2403 000f 28        		.byte	40
 2404 0010 01        		.byte	1
 2405 0011 E1        		.byte	-31
 2406 0012 01        		.byte	1
 2407 0013 30        		.byte	48
 2408 0014 02        		.byte	2
 2409 0015 30        		.byte	48
 2410 0016 02        		.byte	2
 2411 0017 E1        		.byte	-31
 2412 0018 01        		.byte	1
 2413 0019 52        		.byte	82
 2414 001a 02        		.byte	2
 2415 001b 52        		.byte	82
 2416 001c 01        		.byte	1
 2417 001d 2B        		.byte	43
 2418 001e 02        		.byte	2
 2419 001f 2B        		.byte	43
 2420 0020 00        		.byte	0
 2421               	.global	keymaps
 2422               		.section	.progmem.data.keymaps,"a",@progbits
 2425               	keymaps:
 2426 0000 2900      		.word	41
 2427 0002 2B00      		.word	43
 2428 0004 3942      		.word	16953
 2429 0006 D85C      		.word	23768
 2430 0008 2F61      		.word	24879
 2431 000a 0000      		.word	0
 2432 000c 1E00      		.word	30
 2433 000e 1400      		.word	20
 2434 0010 0400      		.word	4
 2435 0012 1D00      		.word	29
 2436 0014 3064      		.word	25648
 2437 0016 4D45      		.word	17741
 2438 0018 1F00      		.word	31
 2439 001a 1A00      		.word	26
 2440 001c 1600      		.word	22
 2441 001e 1B00      		.word	27
 2442 0020 3200      		.word	50
 2443 0022 2A64      		.word	25642
 2444 0024 2000      		.word	32
 2445 0026 0800      		.word	8
 2446 0028 0700      		.word	7
 2447 002a 0600      		.word	6
 2448 002c 5000      		.word	80
 2449 002e 2C61      		.word	24876
 2450 0030 2100      		.word	33
 2451 0032 1500      		.word	21
 2452 0034 0900      		.word	9
 2453 0036 1943      		.word	17177
 2454 0038 4F00      		.word	79
 2455 003a 4A00      		.word	74
 2456 003c 2200      		.word	34
 2457 003e 1700      		.word	23
 2458 0040 0A00      		.word	10
 2459 0042 0544      		.word	17413
 2460 0044 0000      		.word	0
 2461 0046 0253      		.word	21250
 2462 0048 5002      		.word	592
 2463 004a 0151      		.word	20737
 2464 004c 0000      		.word	0
 2465 004e 0651      		.word	20742
 2466 0050 0000      		.word	0
 2467 0052 175C      		.word	23575
 2468 0054 4F02      		.word	591
 2469 0056 0151      		.word	20737
 2470 0058 0000      		.word	0
 2471 005a 0651      		.word	20742
 2472 005c 0000      		.word	0
 2473 005e 175C      		.word	23575
 2474 0060 2300      		.word	35
 2475 0062 1C00      		.word	28
 2476 0064 0B00      		.word	11
 2477 0066 1144      		.word	17425
 2478 0068 0000      		.word	0
 2479 006a 4900      		.word	73
 2480 006c 2400      		.word	36
 2481 006e 1800      		.word	24
 2482 0070 0D00      		.word	13
 2483 0072 1043      		.word	17168
 2484 0074 5200      		.word	82
 2485 0076 4B00      		.word	75
 2486 0078 2500      		.word	37
 2487 007a 0C00      		.word	12
 2488 007c 0E00      		.word	14
 2489 007e 3600      		.word	54
 2490 0080 5100      		.word	81
 2491 0082 2C61      		.word	24876
 2492 0084 2600      		.word	38
 2493 0086 1200      		.word	18
 2494 0088 0F00      		.word	15
 2495 008a 3700      		.word	55
 2496 008c 2D00      		.word	45
 2497 008e 2864      		.word	25640
 2498 0090 2700      		.word	39
 2499 0092 1300      		.word	19
 2500 0094 3300      		.word	51
 2501 0096 3800      		.word	56
 2502 0098 2F64      		.word	25647
 2503 009a 4E45      		.word	17742
 2504 009c 2A00      		.word	42
 2505 009e 4C00      		.word	76
 2506 00a0 2842      		.word	16936
 2507 00a2 D95C      		.word	23769
 2508 00a4 3061      		.word	24880
 2509 00a6 0000      		.word	0
 2510 00a8 0100      		.word	1
 2511 00aa 0100      		.word	1
 2512 00ac 0100      		.word	1
 2513 00ae 0100      		.word	1
 2514 00b0 0100      		.word	1
 2515 00b2 0000      		.word	0
 2516 00b4 3A00      		.word	58
 2517 00b6 1E02      		.word	542
 2518 00b8 2302      		.word	547
 2519 00ba 6400      		.word	100
 2520 00bc 0100      		.word	1
 2521 00be 0100      		.word	1
 2522 00c0 3B00      		.word	59
 2523 00c2 1F02      		.word	543
 2524 00c4 2402      		.word	548
 2525 00c6 6402      		.word	612
 2526 00c8 0100      		.word	1
 2527 00ca 0100      		.word	1
 2528 00cc 3C00      		.word	60
 2529 00ce 2002      		.word	544
 2530 00d0 2502      		.word	549
 2531 00d2 3500      		.word	53
 2532 00d4 0100      		.word	1
 2533 00d6 0100      		.word	1
 2534 00d8 3D00      		.word	61
 2535 00da 2102      		.word	545
 2536 00dc 2D02      		.word	557
 2537 00de 2D00      		.word	45
 2538 00e0 0100      		.word	1
 2539 00e2 0100      		.word	1
 2540 00e4 3E00      		.word	62
 2541 00e6 2202      		.word	546
 2542 00e8 3200      		.word	50
 2543 00ea 3800      		.word	56
 2544 00ec 0000      		.word	0
 2545 00ee 0100      		.word	1
 2546 00f0 0100      		.word	1
 2547 00f2 0100      		.word	1
 2548 00f4 0000      		.word	0
 2549 00f6 0100      		.word	1
 2550 00f8 0000      		.word	0
 2551 00fa 0100      		.word	1
 2552 00fc 0100      		.word	1
 2553 00fe 0100      		.word	1
 2554 0100 0000      		.word	0
 2555 0102 0100      		.word	1
 2556 0104 0000      		.word	0
 2557 0106 0100      		.word	1
 2558 0108 3F00      		.word	63
 2559 010a 2D00      		.word	45
 2560 010c 2F02      		.word	559
 2561 010e 2F00      		.word	47
 2562 0110 0000      		.word	0
 2563 0112 0100      		.word	1
 2564 0114 4000      		.word	64
 2565 0116 2E02      		.word	558
 2566 0118 3002      		.word	560
 2567 011a 3000      		.word	48
 2568 011c 0100      		.word	1
 2569 011e 0100      		.word	1
 2570 0120 4100      		.word	65
 2571 0122 2E00      		.word	46
 2572 0124 3300      		.word	51
 2573 0126 3602      		.word	566
 2574 0128 0100      		.word	1
 2575 012a 0100      		.word	1
 2576 012c 4200      		.word	66
 2577 012e 3402      		.word	564
 2578 0130 3400      		.word	52
 2579 0132 3702      		.word	567
 2580 0134 0100      		.word	1
 2581 0136 0100      		.word	1
 2582 0138 4300      		.word	67
 2583 013a 3202      		.word	562
 2584 013c 3200      		.word	50
 2585 013e 3802      		.word	568
 2586 0140 0100      		.word	1
 2587 0142 0100      		.word	1
 2588 0144 4400      		.word	68
 2589 0146 4500      		.word	69
 2590 0148 0100      		.word	1
 2591 014a 0100      		.word	1
 2592 014c 0100      		.word	1
 2593 014e 0000      		.word	0
 2594 0150 0100      		.word	1
 2595 0152 0100      		.word	1
 2596 0154 0100      		.word	1
 2597 0156 0100      		.word	1
 2598 0158 2E00      		.word	46
 2599 015a 0000      		.word	0
 2600 015c 0400      		.word	4
 2601 015e 2502      		.word	549
 2602 0160 3800      		.word	56
 2603 0162 2D00      		.word	45
 2604 0164 2E02      		.word	558
 2605 0166 0100      		.word	1
 2606 0168 0500      		.word	5
 2607 016a 2400      		.word	36
 2608 016c 2100      		.word	33
 2609 016e 1E00      		.word	30
 2610 0170 2700      		.word	39
 2611 0172 0100      		.word	1
 2612 0174 0600      		.word	6
 2613 0176 2500      		.word	37
 2614 0178 2200      		.word	34
 2615 017a 1F00      		.word	31
 2616 017c 3600      		.word	54
 2617 017e 0100      		.word	1
 2618 0180 0700      		.word	7
 2619 0182 2600      		.word	38
 2620 0184 2300      		.word	35
 2621 0186 2000      		.word	32
 2622 0188 3700      		.word	55
 2623 018a 0100      		.word	1
 2624 018c 0800      		.word	8
 2625 018e 2502      		.word	549
 2626 0190 3800      		.word	56
 2627 0192 2D00      		.word	45
 2628 0194 0000      		.word	0
 2629 0196 0100      		.word	1
 2630 0198 0900      		.word	9
 2631 019a 0130      		.word	12289
 2632 019c 0000      		.word	0
 2633 019e 0100      		.word	1
 2634 01a0 0000      		.word	0
 2635 01a2 0100      		.word	1
 2636 01a4 0400      		.word	4
 2637 01a6 0130      		.word	12289
 2638 01a8 0000      		.word	0
 2639 01aa 0100      		.word	1
 2640 01ac 0000      		.word	0
 2641 01ae 0100      		.word	1
 2642 01b0 0500      		.word	5
 2643 01b2 2502      		.word	549
 2644 01b4 3800      		.word	56
 2645 01b6 2D00      		.word	45
 2646 01b8 0000      		.word	0
 2647 01ba 0100      		.word	1
 2648 01bc 0600      		.word	6
 2649 01be 2400      		.word	36
 2650 01c0 2100      		.word	33
 2651 01c2 1E00      		.word	30
 2652 01c4 2700      		.word	39
 2653 01c6 0100      		.word	1
 2654 01c8 0700      		.word	7
 2655 01ca 2500      		.word	37
 2656 01cc 2200      		.word	34
 2657 01ce 1F00      		.word	31
 2658 01d0 3600      		.word	54
 2659 01d2 0100      		.word	1
 2660 01d4 0800      		.word	8
 2661 01d6 2600      		.word	38
 2662 01d8 2300      		.word	35
 2663 01da 2000      		.word	32
 2664 01dc 3700      		.word	55
 2665 01de 0100      		.word	1
 2666 01e0 0900      		.word	9
 2667 01e2 2502      		.word	549
 2668 01e4 3800      		.word	56
 2669 01e6 2D00      		.word	45
 2670 01e8 2E02      		.word	558
 2671 01ea 0100      		.word	1
 2672 01ec 0100      		.word	1
 2673 01ee 0100      		.word	1
 2674 01f0 0100      		.word	1
 2675 01f2 0100      		.word	1
 2676 01f4 2E00      		.word	46
 2677 01f6 0000      		.word	0
 2678 01f8 0000      		.word	0
 2679 01fa 0000      		.word	0
 2680 01fc 0000      		.word	0
 2681 01fe 0100      		.word	1
 2682 0200 5000      		.word	80
 2683 0202 0000      		.word	0
 2684 0204 0000      		.word	0
 2685 0206 4A00      		.word	74
 2686 0208 4D00      		.word	77
 2687 020a 5200      		.word	82
 2688 020c 5100      		.word	81
 2689 020e 0000      		.word	0
 2690 0210 0000      		.word	0
 2691 0212 0000      		.word	0
 2692 0214 5000      		.word	80
 2693 0216 0000      		.word	0
 2694 0218 4F00      		.word	79
 2695 021a 0100      		.word	1
 2696 021c 0000      		.word	0
 2697 021e 5200      		.word	82
 2698 0220 5100      		.word	81
 2699 0222 5100      		.word	81
 2700 0224 0000      		.word	0
 2701 0226 0100      		.word	1
 2702 0228 0000      		.word	0
 2703 022a 0000      		.word	0
 2704 022c 4F00      		.word	79
 2705 022e 0100      		.word	1
 2706 0230 0000      		.word	0
 2707 0232 0000      		.word	0
 2708 0234 0000      		.word	0
 2709 0236 4B00      		.word	75
 2710 0238 4E00      		.word	78
 2711 023a 0000      		.word	0
 2712 023c 0000      		.word	0
 2713 023e 0000      		.word	0
 2714 0240 0000      		.word	0
 2715 0242 0000      		.word	0
 2716 0244 0000      		.word	0
 2717 0246 0000      		.word	0
 2718 0248 0000      		.word	0
 2719 024a 0000      		.word	0
 2720 024c 0000      		.word	0
 2721 024e 0000      		.word	0
 2722 0250 0000      		.word	0
 2723 0252 0000      		.word	0
 2724 0254 0000      		.word	0
 2725 0256 0000      		.word	0
 2726 0258 0000      		.word	0
 2727 025a 4B00      		.word	75
 2728 025c 4E00      		.word	78
 2729 025e 0000      		.word	0
 2730 0260 0000      		.word	0
 2731 0262 0000      		.word	0
 2732 0264 0000      		.word	0
 2733 0266 0000      		.word	0
 2734 0268 5000      		.word	80
 2735 026a 0100      		.word	1
 2736 026c 0000      		.word	0
 2737 026e 0000      		.word	0
 2738 0270 0000      		.word	0
 2739 0272 5200      		.word	82
 2740 0274 5100      		.word	81
 2741 0276 5100      		.word	81
 2742 0278 0000      		.word	0
 2743 027a 0100      		.word	1
 2744 027c 0000      		.word	0
 2745 027e 0000      		.word	0
 2746 0280 4F00      		.word	79
 2747 0282 0000      		.word	0
 2748 0284 5000      		.word	80
 2749 0286 0100      		.word	1
 2750 0288 0000      		.word	0
 2751 028a 4A00      		.word	74
 2752 028c 4D00      		.word	77
 2753 028e 5200      		.word	82
 2754 0290 5100      		.word	81
 2755 0292 0000      		.word	0
 2756 0294 0000      		.word	0
 2757 0296 0000      		.word	0
 2758 0298 0000      		.word	0
 2759 029a 0100      		.word	1
 2760 029c 4F00      		.word	79
 2761 029e 0000      		.word	0
 2762 02a0 0000      		.word	0
 2763 02a2 0000      		.word	0
 2764 02a4 0000      		.word	0
 2765 02a6 F400      		.word	244
 2766 02a8 F200      		.word	242
 2767 02aa 0000      		.word	0
 2768 02ac 0000      		.word	0
 2769 02ae 0000      		.word	0
 2770 02b0 0000      		.word	0
 2771 02b2 F000      		.word	240
 2772 02b4 F100      		.word	241
 2773 02b6 0000      		.word	0
 2774 02b8 0000      		.word	0
 2775 02ba F400      		.word	244
 2776 02bc F200      		.word	242
 2777 02be F500      		.word	245
 2778 02c0 F300      		.word	243
 2779 02c2 0000      		.word	0
 2780 02c4 0000      		.word	0
 2781 02c6 F000      		.word	240
 2782 02c8 F100      		.word	241
 2783 02ca F100      		.word	241
 2784 02cc 0000      		.word	0
 2785 02ce 0000      		.word	0
 2786 02d0 0000      		.word	0
 2787 02d2 F500      		.word	245
 2788 02d4 F300      		.word	243
 2789 02d6 0000      		.word	0
 2790 02d8 0000      		.word	0
 2791 02da 0000      		.word	0
 2792 02dc 0000      		.word	0
 2793 02de 0000      		.word	0
 2794 02e0 0000      		.word	0
 2795 02e2 0100      		.word	1
 2796 02e4 0000      		.word	0
 2797 02e6 0000      		.word	0
 2798 02e8 0000      		.word	0
 2799 02ea 0000      		.word	0
 2800 02ec 0000      		.word	0
 2801 02ee 0000      		.word	0
 2802 02f0 0000      		.word	0
 2803 02f2 0000      		.word	0
 2804 02f4 0000      		.word	0
 2805 02f6 0000      		.word	0
 2806 02f8 0000      		.word	0
 2807 02fa 0000      		.word	0
 2808 02fc 0000      		.word	0
 2809 02fe 0000      		.word	0
 2810 0300 0000      		.word	0
 2811 0302 0000      		.word	0
 2812 0304 0000      		.word	0
 2813 0306 0100      		.word	1
 2814 0308 0000      		.word	0
 2815 030a 0000      		.word	0
 2816 030c 0000      		.word	0
 2817 030e F400      		.word	244
 2818 0310 F200      		.word	242
 2819 0312 0000      		.word	0
 2820 0314 0000      		.word	0
 2821 0316 0000      		.word	0
 2822 0318 0000      		.word	0
 2823 031a F000      		.word	240
 2824 031c F100      		.word	241
 2825 031e F100      		.word	241
 2826 0320 0000      		.word	0
 2827 0322 0000      		.word	0
 2828 0324 0000      		.word	0
 2829 0326 F500      		.word	245
 2830 0328 F300      		.word	243
 2831 032a F400      		.word	244
 2832 032c F200      		.word	242
 2833 032e 0000      		.word	0
 2834 0330 0000      		.word	0
 2835 0332 0000      		.word	0
 2836 0334 0000      		.word	0
 2837 0336 F000      		.word	240
 2838 0338 F100      		.word	241
 2839 033a 0000      		.word	0
 2840 033c 0000      		.word	0
 2841 033e 0000      		.word	0
 2842 0340 0000      		.word	0
 2843 0342 F500      		.word	245
 2844 0344 F300      		.word	243
 2845 0346 0000      		.word	0
 2846 0348 0000      		.word	0
 2847 034a 0000      		.word	0
 2848 034c 0000      		.word	0
 2849 034e 0000      		.word	0
 2850 0350 0000      		.word	0
 2851 0352 0000      		.word	0
 2852 0354 0000      		.word	0
 2853 0356 1B30      		.word	12315
 2854 0358 0000      		.word	0
 2855 035a 0000      		.word	0
 2856 035c 0000      		.word	0
 2857 035e 0100      		.word	1
 2858 0360 0000      		.word	0
 2859 0362 2630      		.word	12326
 2860 0364 0630      		.word	12294
 2861 0366 2230      		.word	12322
 2862 0368 0830      		.word	12296
 2863 036a 0000      		.word	0
 2864 036c 1E30      		.word	12318
 2865 036e 2030      		.word	12320
 2866 0370 0930      		.word	12297
 2867 0372 0530      		.word	12293
 2868 0374 0000      		.word	0
 2869 0376 0000      		.word	0
 2870 0378 1D30      		.word	12317
 2871 037a 0730      		.word	12295
 2872 037c 0000      		.word	0
 2873 037e 2330      		.word	12323
 2874 0380 0000      		.word	0
 2875 0382 0000      		.word	0
 2876 0384 1C30      		.word	12316
 2877 0386 1730      		.word	12311
 2878 0388 0A30      		.word	12298
 2879 038a 1A30      		.word	12314
 2880 038c 0000      		.word	0
 2881 038e 0000      		.word	0
 2882 0390 0000      		.word	0
 2883 0392 0000      		.word	0
 2884 0394 0000      		.word	0
 2885 0396 0000      		.word	0
 2886 0398 0000      		.word	0
 2887 039a 0000      		.word	0
 2888 039c 0000      		.word	0
 2889 039e 0000      		.word	0
 2890 03a0 0000      		.word	0
 2891 03a2 0000      		.word	0
 2892 03a4 0000      		.word	0
 2893 03a6 0030      		.word	12288
 2894 03a8 1F30      		.word	12319
 2895 03aa 1830      		.word	12312
 2896 03ac 0000      		.word	0
 2897 03ae 0C30      		.word	12300
 2898 03b0 0000      		.word	0
 2899 03b2 1630      		.word	12310
 2900 03b4 0000      		.word	0
 2901 03b6 1930      		.word	12313
 2902 03b8 0000      		.word	0
 2903 03ba 0B30      		.word	12299
 2904 03bc 0000      		.word	0
 2905 03be 0000      		.word	0
 2906 03c0 0000      		.word	0
 2907 03c2 0430      		.word	12292
 2908 03c4 0000      		.word	0
 2909 03c6 1430      		.word	12308
 2910 03c8 0000      		.word	0
 2911 03ca 0000      		.word	0
 2912 03cc 0000      		.word	0
 2913 03ce 0330      		.word	12291
 2914 03d0 2130      		.word	12321
 2915 03d2 0000      		.word	0
 2916 03d4 0000      		.word	0
 2917 03d6 0000      		.word	0
 2918 03d8 0000      		.word	0
 2919 03da 0230      		.word	12290
 2920 03dc 0000      		.word	0
 2921 03de 0000      		.word	0
 2922 03e0 0000      		.word	0
 2923 03e2 0100      		.word	1
 2924 03e4 0000      		.word	0
 2925 03e6 0000      		.word	0
 2926 03e8 0000      		.word	0
 2927 03ea 0000      		.word	0
 2928 03ec 0000      		.word	0
 2929 03ee 0000      		.word	0
 2930 03f0 0000      		.word	0
 2931 03f2 0000      		.word	0
 2932 03f4 0000      		.word	0
 2933 03f6 0000      		.word	0
 2934 03f8 0000      		.word	0
 2935 03fa 0000      		.word	0
 2936 03fc 0000      		.word	0
 2937 03fe 0E30      		.word	12302
 2938 0400 0000      		.word	0
 2939 0402 0000      		.word	0
 2940 0404 0000      		.word	0
 2941 0406 0000      		.word	0
 2942 0408 0000      		.word	0
 2943 040a 0000      		.word	0
 2944 040c 0F30      		.word	12303
 2945 040e 0000      		.word	0
 2946 0410 0000      		.word	0
 2947 0412 0000      		.word	0
 2948 0414 0000      		.word	0
 2949 0416 0000      		.word	0
 2950 0418 0000      		.word	0
 2951 041a 0000      		.word	0
 2952 041c 0000      		.word	0
 2953 041e 0000      		.word	0
 2954 0420 0000      		.word	0
 2955 0422 0000      		.word	0
 2956 0424 0000      		.word	0
 2957 0426 0000      		.word	0
 2958 0428 0000      		.word	0
 2959 042a 0000      		.word	0
 2960 042c 0000      		.word	0
 2961 042e 0000      		.word	0
 2962 0430 0000      		.word	0
 2963 0432 0000      		.word	0
 2964 0434 0000      		.word	0
 2965 0436 0000      		.word	0
 2966 0438 1230      		.word	12306
 2967 043a 0000      		.word	0
 2968 043c 0000      		.word	0
 2969 043e 0100      		.word	1
 2970 0440 0000      		.word	0
 2971 0442 0000      		.word	0
 2972 0444 1330      		.word	12307
 2973 0446 0000      		.word	0
 2974 0448 0000      		.word	0
 2975 044a 0100      		.word	1
 2976 044c 0000      		.word	0
 2977 044e 0000      		.word	0
 2978 0450 2530      		.word	12325
 2979 0452 1030      		.word	12304
 2980 0454 0000      		.word	0
 2981 0456 0000      		.word	0
 2982 0458 0000      		.word	0
 2983 045a 0000      		.word	0
 2984 045c 2430      		.word	12324
 2985 045e 1130      		.word	12305
 2986 0460 5002      		.word	592
 2987 0462 0000      		.word	0
 2988 0464 0000      		.word	0
 2989 0466 0000      		.word	0
 2990 0468 0000      		.word	0
 2991 046a 5202      		.word	594
 2992 046c 5102      		.word	593
 2993 046e 5102      		.word	593
 2994 0470 0000      		.word	0
 2995 0472 0000      		.word	0
 2996 0474 0000      		.word	0
 2997 0476 0000      		.word	0
 2998 0478 4F02      		.word	591
 2999 047a 0000      		.word	0
 3000 047c 0000      		.word	0
 3001 047e 0000      		.word	0
 3002 0480 0000      		.word	0
 3003 0482 0000      		.word	0
 3004 0484 0000      		.word	0
 3005 0486 0000      		.word	0
 3006 0488 0000      		.word	0
 3007 048a 0000      		.word	0
 3008 048c 0000      		.word	0
 3009 048e 0000      		.word	0
 3010 0490 0000      		.word	0
 3011 0492 0000      		.word	0
 3012 0494 0000      		.word	0
 3013 0496 0000      		.word	0
 3014               		.text
 3015               	.Letext0:
 3016               		.file 2 "/usr/local/Cellar/avr-gcc/8.1.0/avr/include/stdint.h"
 3017               		.file 3 "/usr/local/Cellar/avr-gcc/8.1.0/lib/avr-gcc/8/gcc/avr/8.1.0/include/stddef.h"
 3018               		.file 4 "tmk_core/common/keyboard.h"
 3019               		.file 5 "tmk_core/common/keycode.h"
 3020               		.file 6 "tmk_core/common/action_code.h"
 3021               		.file 7 "tmk_core/common/action_macro.h"
 3022               		.file 8 "tmk_core/common/action.h"
 3023               		.file 9 "lib/lufa/LUFA/Drivers/USB/Core/AVR8/../StdRequestType.h"
 3024               		.file 10 "lib/lufa/LUFA/Drivers/USB/Core/AVR8/../DeviceStandardReq.h"
 3025               		.file 11 "lib/lufa/LUFA/Drivers/USB/Core/USBTask.h"
 3026               		.file 12 "lib/lufa/LUFA/Drivers/USB/Core/HostStandardReq.h"
 3027               		.file 13 "/usr/local/Cellar/avr-gcc/8.1.0/lib/avr-gcc/8/gcc/avr/8.1.0/include/stdarg.h"
 3028               		.file 14 "/usr/local/Cellar/avr-gcc/8.1.0/avr/include/stdio.h"
 3029               		.file 15 "tmk_core/common/report.h"
 3030               		.file 16 "tmk_core/common/host.h"
 3031               		.file 17 "tmk_core/common/debug.h"
 3032               		.file 18 "quantum/keycode_config.h"
 3033               		.file 19 "quantum/quantum_keycodes.h"
 3034               		.file 20 "quantum/keymap.h"
 3035               		.file 21 "quantum/rgblight_types.h"
 3036               		.file 22 "quantum/rgblight.h"
 3037               		.file 23 "tmk_core/common/action_layer.h"
 3038               		.file 24 "tmk_core/common/timer.h"
 3039               		.file 25 "tmk_core/common/action_util.h"
 3040               		.file 26 "/usr/local/Cellar/avr-gcc/8.1.0/avr/include/stdlib.h"
 3041               		.file 27 "quantum/process_keycode/process_unicode_common.h"
 3042               		.file 28 "quantum/quantum.h"
 3043               		.file 29 "drivers/avr/i2c_master.h"
 3044               		.file 30 "keyboards/ergodox_ez/ergodox_ez.h"