   1               		.file	"lufa.c"
   2               	__SP_H__ = 0x3e
   3               	__SP_L__ = 0x3d
   4               	__SREG__ = 0x3f
   5               	__tmp_reg__ = 0
   6               	__zero_reg__ = 1
   7               		.text
   8               	.Ltext0:
   9               		.cfi_sections	.debug_frame
  10               		.section	.text.keyboard_leds,"ax",@progbits
  12               	keyboard_leds:
  13               	.LFB115:
  14               		.file 1 "./tmk_core/protocol/lufa/lufa.c"
   1:./tmk_core/protocol/lufa/lufa.c **** /*
   2:./tmk_core/protocol/lufa/lufa.c ****  * Copyright 2012 Jun Wako <wakojun@gmail.com>
   3:./tmk_core/protocol/lufa/lufa.c ****  * This file is based on:
   4:./tmk_core/protocol/lufa/lufa.c ****  *     LUFA-120219/Demos/Device/Lowlevel/KeyboardMouse
   5:./tmk_core/protocol/lufa/lufa.c ****  *     LUFA-120219/Demos/Device/Lowlevel/GenericHID
   6:./tmk_core/protocol/lufa/lufa.c ****  */
   7:./tmk_core/protocol/lufa/lufa.c **** 
   8:./tmk_core/protocol/lufa/lufa.c **** /*
   9:./tmk_core/protocol/lufa/lufa.c ****              LUFA Library
  10:./tmk_core/protocol/lufa/lufa.c ****      Copyright (C) Dean Camera, 2012.
  11:./tmk_core/protocol/lufa/lufa.c **** 
  12:./tmk_core/protocol/lufa/lufa.c ****   dean [at] fourwalledcubicle [dot] com
  13:./tmk_core/protocol/lufa/lufa.c ****            www.lufa-lib.org
  14:./tmk_core/protocol/lufa/lufa.c **** */
  15:./tmk_core/protocol/lufa/lufa.c **** 
  16:./tmk_core/protocol/lufa/lufa.c **** /*
  17:./tmk_core/protocol/lufa/lufa.c ****   Copyright 2012  Dean Camera (dean [at] fourwalledcubicle [dot] com)
  18:./tmk_core/protocol/lufa/lufa.c ****   Copyright 2010  Denver Gingerich (denver [at] ossguy [dot] com)
  19:./tmk_core/protocol/lufa/lufa.c **** 
  20:./tmk_core/protocol/lufa/lufa.c ****   Permission to use, copy, modify, distribute, and sell this
  21:./tmk_core/protocol/lufa/lufa.c ****   software and its documentation for any purpose is hereby granted
  22:./tmk_core/protocol/lufa/lufa.c ****   without fee, provided that the above copyright notice appear in
  23:./tmk_core/protocol/lufa/lufa.c ****   all copies and that both that the copyright notice and this
  24:./tmk_core/protocol/lufa/lufa.c ****   permission notice and warranty disclaimer appear in supporting
  25:./tmk_core/protocol/lufa/lufa.c ****   documentation, and that the name of the author not be used in
  26:./tmk_core/protocol/lufa/lufa.c ****   advertising or publicity pertaining to distribution of the
  27:./tmk_core/protocol/lufa/lufa.c ****   software without specific, written prior permission.
  28:./tmk_core/protocol/lufa/lufa.c **** 
  29:./tmk_core/protocol/lufa/lufa.c ****   The author disclaim all warranties with regard to this
  30:./tmk_core/protocol/lufa/lufa.c ****   software, including all implied warranties of merchantability
  31:./tmk_core/protocol/lufa/lufa.c ****   and fitness.  In no event shall the author be liable for any
  32:./tmk_core/protocol/lufa/lufa.c ****   special, indirect or consequential damages or any damages
  33:./tmk_core/protocol/lufa/lufa.c ****   whatsoever resulting from loss of use, data or profits, whether
  34:./tmk_core/protocol/lufa/lufa.c ****   in an action of contract, negligence or other tortious action,
  35:./tmk_core/protocol/lufa/lufa.c ****   arising out of or in connection with the use or performance of
  36:./tmk_core/protocol/lufa/lufa.c ****   this software.
  37:./tmk_core/protocol/lufa/lufa.c **** */
  38:./tmk_core/protocol/lufa/lufa.c **** 
  39:./tmk_core/protocol/lufa/lufa.c **** #include "report.h"
  40:./tmk_core/protocol/lufa/lufa.c **** #include "host.h"
  41:./tmk_core/protocol/lufa/lufa.c **** #include "host_driver.h"
  42:./tmk_core/protocol/lufa/lufa.c **** #include "keyboard.h"
  43:./tmk_core/protocol/lufa/lufa.c **** #include "action.h"
  44:./tmk_core/protocol/lufa/lufa.c **** #include "led.h"
  45:./tmk_core/protocol/lufa/lufa.c **** #include "sendchar.h"
  46:./tmk_core/protocol/lufa/lufa.c **** #include "debug.h"
  47:./tmk_core/protocol/lufa/lufa.c **** #ifdef SLEEP_LED_ENABLE
  48:./tmk_core/protocol/lufa/lufa.c **** #include "sleep_led.h"
  49:./tmk_core/protocol/lufa/lufa.c **** #endif
  50:./tmk_core/protocol/lufa/lufa.c **** #include "suspend.h"
  51:./tmk_core/protocol/lufa/lufa.c **** 
  52:./tmk_core/protocol/lufa/lufa.c **** #include "descriptor.h"
  53:./tmk_core/protocol/lufa/lufa.c **** #include "lufa.h"
  54:./tmk_core/protocol/lufa/lufa.c **** 
  55:./tmk_core/protocol/lufa/lufa.c **** #ifdef NKRO_ENABLE
  56:./tmk_core/protocol/lufa/lufa.c ****   #include "keycode_config.h"
  57:./tmk_core/protocol/lufa/lufa.c **** 
  58:./tmk_core/protocol/lufa/lufa.c ****   extern keymap_config_t keymap_config;
  59:./tmk_core/protocol/lufa/lufa.c **** #endif
  60:./tmk_core/protocol/lufa/lufa.c **** 
  61:./tmk_core/protocol/lufa/lufa.c **** 
  62:./tmk_core/protocol/lufa/lufa.c **** #ifdef AUDIO_ENABLE
  63:./tmk_core/protocol/lufa/lufa.c ****     #include <audio.h>
  64:./tmk_core/protocol/lufa/lufa.c **** #endif
  65:./tmk_core/protocol/lufa/lufa.c **** 
  66:./tmk_core/protocol/lufa/lufa.c **** #ifdef BLUETOOTH_ENABLE
  67:./tmk_core/protocol/lufa/lufa.c ****     #include "bluetooth.h"
  68:./tmk_core/protocol/lufa/lufa.c **** #endif
  69:./tmk_core/protocol/lufa/lufa.c **** 
  70:./tmk_core/protocol/lufa/lufa.c **** #ifdef VIRTSER_ENABLE
  71:./tmk_core/protocol/lufa/lufa.c ****     #include "virtser.h"
  72:./tmk_core/protocol/lufa/lufa.c **** #endif
  73:./tmk_core/protocol/lufa/lufa.c **** 
  74:./tmk_core/protocol/lufa/lufa.c **** uint8_t keyboard_idle = 0;
  75:./tmk_core/protocol/lufa/lufa.c **** /* 0: Boot Protocol, 1: Report Protocol(default) */
  76:./tmk_core/protocol/lufa/lufa.c **** uint8_t keyboard_protocol = 1;
  77:./tmk_core/protocol/lufa/lufa.c **** static uint8_t keyboard_led_stats = 0;
  78:./tmk_core/protocol/lufa/lufa.c **** 
  79:./tmk_core/protocol/lufa/lufa.c **** static report_keyboard_t keyboard_report_sent;
  80:./tmk_core/protocol/lufa/lufa.c **** 
  81:./tmk_core/protocol/lufa/lufa.c **** #ifdef MIDI_ENABLE
  82:./tmk_core/protocol/lufa/lufa.c **** void usb_send_func(MidiDevice * device, uint16_t cnt, uint8_t byte0, uint8_t byte1, uint8_t byte2);
  83:./tmk_core/protocol/lufa/lufa.c **** void usb_get_midi(MidiDevice * device);
  84:./tmk_core/protocol/lufa/lufa.c **** void midi_usb_init(MidiDevice * device);
  85:./tmk_core/protocol/lufa/lufa.c **** #endif
  86:./tmk_core/protocol/lufa/lufa.c **** 
  87:./tmk_core/protocol/lufa/lufa.c **** /* Host driver */
  88:./tmk_core/protocol/lufa/lufa.c **** static uint8_t keyboard_leds(void);
  89:./tmk_core/protocol/lufa/lufa.c **** static void send_keyboard(report_keyboard_t *report);
  90:./tmk_core/protocol/lufa/lufa.c **** static void send_mouse(report_mouse_t *report);
  91:./tmk_core/protocol/lufa/lufa.c **** static void send_system(uint16_t data);
  92:./tmk_core/protocol/lufa/lufa.c **** static void send_consumer(uint16_t data);
  93:./tmk_core/protocol/lufa/lufa.c **** host_driver_t lufa_driver = {
  94:./tmk_core/protocol/lufa/lufa.c ****     keyboard_leds,
  95:./tmk_core/protocol/lufa/lufa.c ****     send_keyboard,
  96:./tmk_core/protocol/lufa/lufa.c ****     send_mouse,
  97:./tmk_core/protocol/lufa/lufa.c ****     send_system,
  98:./tmk_core/protocol/lufa/lufa.c ****     send_consumer,
  99:./tmk_core/protocol/lufa/lufa.c **** #ifdef MIDI_ENABLE
 100:./tmk_core/protocol/lufa/lufa.c ****     usb_send_func,
 101:./tmk_core/protocol/lufa/lufa.c ****     usb_get_midi,
 102:./tmk_core/protocol/lufa/lufa.c ****     midi_usb_init
 103:./tmk_core/protocol/lufa/lufa.c **** #endif
 104:./tmk_core/protocol/lufa/lufa.c **** };
 105:./tmk_core/protocol/lufa/lufa.c **** 
 106:./tmk_core/protocol/lufa/lufa.c **** /*******************************************************************************
 107:./tmk_core/protocol/lufa/lufa.c ****  * MIDI
 108:./tmk_core/protocol/lufa/lufa.c ****  ******************************************************************************/
 109:./tmk_core/protocol/lufa/lufa.c **** 
 110:./tmk_core/protocol/lufa/lufa.c **** #ifdef MIDI_ENABLE
 111:./tmk_core/protocol/lufa/lufa.c **** USB_ClassInfo_MIDI_Device_t USB_MIDI_Interface =
 112:./tmk_core/protocol/lufa/lufa.c **** {
 113:./tmk_core/protocol/lufa/lufa.c ****   .Config =
 114:./tmk_core/protocol/lufa/lufa.c ****   {
 115:./tmk_core/protocol/lufa/lufa.c ****     .StreamingInterfaceNumber = AS_INTERFACE,
 116:./tmk_core/protocol/lufa/lufa.c ****     .DataINEndpoint           =
 117:./tmk_core/protocol/lufa/lufa.c ****     {
 118:./tmk_core/protocol/lufa/lufa.c ****       .Address          = MIDI_STREAM_IN_EPADDR,
 119:./tmk_core/protocol/lufa/lufa.c ****       .Size             = MIDI_STREAM_EPSIZE,
 120:./tmk_core/protocol/lufa/lufa.c ****       .Banks            = 1,
 121:./tmk_core/protocol/lufa/lufa.c ****     },
 122:./tmk_core/protocol/lufa/lufa.c ****     .DataOUTEndpoint          =
 123:./tmk_core/protocol/lufa/lufa.c ****     {
 124:./tmk_core/protocol/lufa/lufa.c ****       .Address          = MIDI_STREAM_OUT_EPADDR,
 125:./tmk_core/protocol/lufa/lufa.c ****       .Size             = MIDI_STREAM_EPSIZE,
 126:./tmk_core/protocol/lufa/lufa.c ****       .Banks            = 1,
 127:./tmk_core/protocol/lufa/lufa.c ****     },
 128:./tmk_core/protocol/lufa/lufa.c ****   },
 129:./tmk_core/protocol/lufa/lufa.c **** };
 130:./tmk_core/protocol/lufa/lufa.c **** 
 131:./tmk_core/protocol/lufa/lufa.c **** #define SYSEX_START_OR_CONT 0x40
 132:./tmk_core/protocol/lufa/lufa.c **** #define SYSEX_ENDS_IN_1 0x50
 133:./tmk_core/protocol/lufa/lufa.c **** #define SYSEX_ENDS_IN_2 0x60
 134:./tmk_core/protocol/lufa/lufa.c **** #define SYSEX_ENDS_IN_3 0x70
 135:./tmk_core/protocol/lufa/lufa.c **** 
 136:./tmk_core/protocol/lufa/lufa.c **** #define SYS_COMMON_1 0x50
 137:./tmk_core/protocol/lufa/lufa.c **** #define SYS_COMMON_2 0x20
 138:./tmk_core/protocol/lufa/lufa.c **** #define SYS_COMMON_3 0x30
 139:./tmk_core/protocol/lufa/lufa.c **** #endif
 140:./tmk_core/protocol/lufa/lufa.c **** 
 141:./tmk_core/protocol/lufa/lufa.c **** #ifdef VIRTSER_ENABLE
 142:./tmk_core/protocol/lufa/lufa.c **** USB_ClassInfo_CDC_Device_t cdc_device =
 143:./tmk_core/protocol/lufa/lufa.c **** {
 144:./tmk_core/protocol/lufa/lufa.c ****   .Config =
 145:./tmk_core/protocol/lufa/lufa.c ****   {
 146:./tmk_core/protocol/lufa/lufa.c ****     .ControlInterfaceNumber = CCI_INTERFACE,
 147:./tmk_core/protocol/lufa/lufa.c ****     .DataINEndpoint         =
 148:./tmk_core/protocol/lufa/lufa.c ****     {
 149:./tmk_core/protocol/lufa/lufa.c ****       .Address		= CDC_IN_EPADDR,
 150:./tmk_core/protocol/lufa/lufa.c ****       .Size		= CDC_EPSIZE,
 151:./tmk_core/protocol/lufa/lufa.c ****       .Banks		= 1,
 152:./tmk_core/protocol/lufa/lufa.c ****     },
 153:./tmk_core/protocol/lufa/lufa.c ****     .DataOUTEndpoint	    =
 154:./tmk_core/protocol/lufa/lufa.c ****     {
 155:./tmk_core/protocol/lufa/lufa.c ****       .Address		= CDC_OUT_EPADDR,
 156:./tmk_core/protocol/lufa/lufa.c ****       .Size		= CDC_EPSIZE,
 157:./tmk_core/protocol/lufa/lufa.c ****       .Banks		= 1,
 158:./tmk_core/protocol/lufa/lufa.c ****     },
 159:./tmk_core/protocol/lufa/lufa.c ****     .NotificationEndpoint   =
 160:./tmk_core/protocol/lufa/lufa.c ****     {
 161:./tmk_core/protocol/lufa/lufa.c ****       .Address		= CDC_NOTIFICATION_EPADDR,
 162:./tmk_core/protocol/lufa/lufa.c ****       .Size		= CDC_NOTIFICATION_EPSIZE,
 163:./tmk_core/protocol/lufa/lufa.c ****       .Banks		= 1,
 164:./tmk_core/protocol/lufa/lufa.c ****     },
 165:./tmk_core/protocol/lufa/lufa.c ****   },
 166:./tmk_core/protocol/lufa/lufa.c **** };
 167:./tmk_core/protocol/lufa/lufa.c **** #endif
 168:./tmk_core/protocol/lufa/lufa.c **** 
 169:./tmk_core/protocol/lufa/lufa.c **** 
 170:./tmk_core/protocol/lufa/lufa.c **** /*******************************************************************************
 171:./tmk_core/protocol/lufa/lufa.c ****  * Console
 172:./tmk_core/protocol/lufa/lufa.c ****  ******************************************************************************/
 173:./tmk_core/protocol/lufa/lufa.c **** #ifdef CONSOLE_ENABLE
 174:./tmk_core/protocol/lufa/lufa.c **** static void Console_Task(void)
 175:./tmk_core/protocol/lufa/lufa.c **** {
 176:./tmk_core/protocol/lufa/lufa.c ****     /* Device must be connected and configured for the task to run */
 177:./tmk_core/protocol/lufa/lufa.c ****     if (USB_DeviceState != DEVICE_STATE_Configured)
 178:./tmk_core/protocol/lufa/lufa.c ****         return;
 179:./tmk_core/protocol/lufa/lufa.c **** 
 180:./tmk_core/protocol/lufa/lufa.c ****     uint8_t ep = Endpoint_GetCurrentEndpoint();
 181:./tmk_core/protocol/lufa/lufa.c **** 
 182:./tmk_core/protocol/lufa/lufa.c **** #if 0
 183:./tmk_core/protocol/lufa/lufa.c ****     // TODO: impl receivechar()/recvchar()
 184:./tmk_core/protocol/lufa/lufa.c ****     Endpoint_SelectEndpoint(CONSOLE_OUT_EPNUM);
 185:./tmk_core/protocol/lufa/lufa.c **** 
 186:./tmk_core/protocol/lufa/lufa.c ****     /* Check to see if a packet has been sent from the host */
 187:./tmk_core/protocol/lufa/lufa.c ****     if (Endpoint_IsOUTReceived())
 188:./tmk_core/protocol/lufa/lufa.c ****     {
 189:./tmk_core/protocol/lufa/lufa.c ****         /* Check to see if the packet contains data */
 190:./tmk_core/protocol/lufa/lufa.c ****         if (Endpoint_IsReadWriteAllowed())
 191:./tmk_core/protocol/lufa/lufa.c ****         {
 192:./tmk_core/protocol/lufa/lufa.c ****             /* Create a temporary buffer to hold the read in report from the host */
 193:./tmk_core/protocol/lufa/lufa.c ****             uint8_t ConsoleData[CONSOLE_EPSIZE];
 194:./tmk_core/protocol/lufa/lufa.c **** 
 195:./tmk_core/protocol/lufa/lufa.c ****             /* Read Console Report Data */
 196:./tmk_core/protocol/lufa/lufa.c ****             Endpoint_Read_Stream_LE(&ConsoleData, sizeof(ConsoleData), NULL);
 197:./tmk_core/protocol/lufa/lufa.c **** 
 198:./tmk_core/protocol/lufa/lufa.c ****             /* Process Console Report Data */
 199:./tmk_core/protocol/lufa/lufa.c ****             //ProcessConsoleHIDReport(ConsoleData);
 200:./tmk_core/protocol/lufa/lufa.c ****         }
 201:./tmk_core/protocol/lufa/lufa.c **** 
 202:./tmk_core/protocol/lufa/lufa.c ****         /* Finalize the stream transfer to send the last packet */
 203:./tmk_core/protocol/lufa/lufa.c ****         Endpoint_ClearOUT();
 204:./tmk_core/protocol/lufa/lufa.c ****     }
 205:./tmk_core/protocol/lufa/lufa.c **** #endif
 206:./tmk_core/protocol/lufa/lufa.c **** 
 207:./tmk_core/protocol/lufa/lufa.c ****     /* IN packet */
 208:./tmk_core/protocol/lufa/lufa.c ****     Endpoint_SelectEndpoint(CONSOLE_IN_EPNUM);
 209:./tmk_core/protocol/lufa/lufa.c ****     if (!Endpoint_IsEnabled() || !Endpoint_IsConfigured()) {
 210:./tmk_core/protocol/lufa/lufa.c ****         Endpoint_SelectEndpoint(ep);
 211:./tmk_core/protocol/lufa/lufa.c ****         return;
 212:./tmk_core/protocol/lufa/lufa.c ****     }
 213:./tmk_core/protocol/lufa/lufa.c **** 
 214:./tmk_core/protocol/lufa/lufa.c ****     // fill empty bank
 215:./tmk_core/protocol/lufa/lufa.c ****     while (Endpoint_IsReadWriteAllowed())
 216:./tmk_core/protocol/lufa/lufa.c ****         Endpoint_Write_8(0);
 217:./tmk_core/protocol/lufa/lufa.c **** 
 218:./tmk_core/protocol/lufa/lufa.c ****     // flash senchar packet
 219:./tmk_core/protocol/lufa/lufa.c ****     if (Endpoint_IsINReady()) {
 220:./tmk_core/protocol/lufa/lufa.c ****         Endpoint_ClearIN();
 221:./tmk_core/protocol/lufa/lufa.c ****     }
 222:./tmk_core/protocol/lufa/lufa.c **** 
 223:./tmk_core/protocol/lufa/lufa.c ****     Endpoint_SelectEndpoint(ep);
 224:./tmk_core/protocol/lufa/lufa.c **** }
 225:./tmk_core/protocol/lufa/lufa.c **** #endif
 226:./tmk_core/protocol/lufa/lufa.c **** 
 227:./tmk_core/protocol/lufa/lufa.c **** 
 228:./tmk_core/protocol/lufa/lufa.c **** /*******************************************************************************
 229:./tmk_core/protocol/lufa/lufa.c ****  * USB Events
 230:./tmk_core/protocol/lufa/lufa.c ****  ******************************************************************************/
 231:./tmk_core/protocol/lufa/lufa.c **** /*
 232:./tmk_core/protocol/lufa/lufa.c ****  * Event Order of Plug in:
 233:./tmk_core/protocol/lufa/lufa.c ****  * 0) EVENT_USB_Device_Connect
 234:./tmk_core/protocol/lufa/lufa.c ****  * 1) EVENT_USB_Device_Suspend
 235:./tmk_core/protocol/lufa/lufa.c ****  * 2) EVENT_USB_Device_Reset
 236:./tmk_core/protocol/lufa/lufa.c ****  * 3) EVENT_USB_Device_Wake
 237:./tmk_core/protocol/lufa/lufa.c **** */
 238:./tmk_core/protocol/lufa/lufa.c **** void EVENT_USB_Device_Connect(void)
 239:./tmk_core/protocol/lufa/lufa.c **** {
 240:./tmk_core/protocol/lufa/lufa.c ****     print("[C]");
 241:./tmk_core/protocol/lufa/lufa.c ****     /* For battery powered device */
 242:./tmk_core/protocol/lufa/lufa.c ****     if (!USB_IsInitialized) {
 243:./tmk_core/protocol/lufa/lufa.c ****         USB_Disable();
 244:./tmk_core/protocol/lufa/lufa.c ****         USB_Init();
 245:./tmk_core/protocol/lufa/lufa.c ****         USB_Device_EnableSOFEvents();
 246:./tmk_core/protocol/lufa/lufa.c ****     }
 247:./tmk_core/protocol/lufa/lufa.c **** }
 248:./tmk_core/protocol/lufa/lufa.c **** 
 249:./tmk_core/protocol/lufa/lufa.c **** void EVENT_USB_Device_Disconnect(void)
 250:./tmk_core/protocol/lufa/lufa.c **** {
 251:./tmk_core/protocol/lufa/lufa.c ****     print("[D]");
 252:./tmk_core/protocol/lufa/lufa.c ****     /* For battery powered device */
 253:./tmk_core/protocol/lufa/lufa.c ****     USB_IsInitialized = false;
 254:./tmk_core/protocol/lufa/lufa.c **** /* TODO: This doesn't work. After several plug in/outs can not be enumerated.
 255:./tmk_core/protocol/lufa/lufa.c ****     if (USB_IsInitialized) {
 256:./tmk_core/protocol/lufa/lufa.c ****         USB_Disable();  // Disable all interrupts
 257:./tmk_core/protocol/lufa/lufa.c **** 	USB_Controller_Enable();
 258:./tmk_core/protocol/lufa/lufa.c ****         USB_INT_Enable(USB_INT_VBUSTI);
 259:./tmk_core/protocol/lufa/lufa.c ****     }
 260:./tmk_core/protocol/lufa/lufa.c **** */
 261:./tmk_core/protocol/lufa/lufa.c **** }
 262:./tmk_core/protocol/lufa/lufa.c **** 
 263:./tmk_core/protocol/lufa/lufa.c **** void EVENT_USB_Device_Reset(void)
 264:./tmk_core/protocol/lufa/lufa.c **** {
 265:./tmk_core/protocol/lufa/lufa.c ****     print("[R]");
 266:./tmk_core/protocol/lufa/lufa.c **** }
 267:./tmk_core/protocol/lufa/lufa.c **** 
 268:./tmk_core/protocol/lufa/lufa.c **** void EVENT_USB_Device_Suspend()
 269:./tmk_core/protocol/lufa/lufa.c **** {
 270:./tmk_core/protocol/lufa/lufa.c ****     print("[S]");
 271:./tmk_core/protocol/lufa/lufa.c **** #ifdef SLEEP_LED_ENABLE
 272:./tmk_core/protocol/lufa/lufa.c ****     sleep_led_enable();
 273:./tmk_core/protocol/lufa/lufa.c **** #endif
 274:./tmk_core/protocol/lufa/lufa.c **** }
 275:./tmk_core/protocol/lufa/lufa.c **** 
 276:./tmk_core/protocol/lufa/lufa.c **** void EVENT_USB_Device_WakeUp()
 277:./tmk_core/protocol/lufa/lufa.c **** {
 278:./tmk_core/protocol/lufa/lufa.c ****     print("[W]");
 279:./tmk_core/protocol/lufa/lufa.c ****     suspend_wakeup_init();
 280:./tmk_core/protocol/lufa/lufa.c **** 
 281:./tmk_core/protocol/lufa/lufa.c **** #ifdef SLEEP_LED_ENABLE
 282:./tmk_core/protocol/lufa/lufa.c ****     sleep_led_disable();
 283:./tmk_core/protocol/lufa/lufa.c ****     // NOTE: converters may not accept this
 284:./tmk_core/protocol/lufa/lufa.c ****     led_set(host_keyboard_leds());
 285:./tmk_core/protocol/lufa/lufa.c **** #endif
 286:./tmk_core/protocol/lufa/lufa.c **** }
 287:./tmk_core/protocol/lufa/lufa.c **** 
 288:./tmk_core/protocol/lufa/lufa.c **** #ifdef CONSOLE_ENABLE
 289:./tmk_core/protocol/lufa/lufa.c **** static bool console_flush = false;
 290:./tmk_core/protocol/lufa/lufa.c **** #define CONSOLE_FLUSH_SET(b)   do { \
 291:./tmk_core/protocol/lufa/lufa.c ****     uint8_t sreg = SREG; cli(); console_flush = b; SREG = sreg; \
 292:./tmk_core/protocol/lufa/lufa.c **** } while (0)
 293:./tmk_core/protocol/lufa/lufa.c **** 
 294:./tmk_core/protocol/lufa/lufa.c **** // called every 1ms
 295:./tmk_core/protocol/lufa/lufa.c **** void EVENT_USB_Device_StartOfFrame(void)
 296:./tmk_core/protocol/lufa/lufa.c **** {
 297:./tmk_core/protocol/lufa/lufa.c ****     static uint8_t count;
 298:./tmk_core/protocol/lufa/lufa.c ****     if (++count % 50) return;
 299:./tmk_core/protocol/lufa/lufa.c ****     count = 0;
 300:./tmk_core/protocol/lufa/lufa.c **** 
 301:./tmk_core/protocol/lufa/lufa.c ****     if (!console_flush) return;
 302:./tmk_core/protocol/lufa/lufa.c ****     Console_Task();
 303:./tmk_core/protocol/lufa/lufa.c ****     console_flush = false;
 304:./tmk_core/protocol/lufa/lufa.c **** }
 305:./tmk_core/protocol/lufa/lufa.c **** #endif
 306:./tmk_core/protocol/lufa/lufa.c **** 
 307:./tmk_core/protocol/lufa/lufa.c **** /** Event handler for the USB_ConfigurationChanged event.
 308:./tmk_core/protocol/lufa/lufa.c ****  * This is fired when the host sets the current configuration of the USB device after enumeration.
 309:./tmk_core/protocol/lufa/lufa.c ****  *
 310:./tmk_core/protocol/lufa/lufa.c ****  * ATMega32u2 supports dual bank(ping-pong mode) only on endpoint 3 and 4,
 311:./tmk_core/protocol/lufa/lufa.c ****  * it is safe to use singl bank for all endpoints.
 312:./tmk_core/protocol/lufa/lufa.c ****  */
 313:./tmk_core/protocol/lufa/lufa.c **** void EVENT_USB_Device_ConfigurationChanged(void)
 314:./tmk_core/protocol/lufa/lufa.c **** {
 315:./tmk_core/protocol/lufa/lufa.c ****     bool ConfigSuccess = true;
 316:./tmk_core/protocol/lufa/lufa.c **** 
 317:./tmk_core/protocol/lufa/lufa.c ****     /* Setup Keyboard HID Report Endpoints */
 318:./tmk_core/protocol/lufa/lufa.c ****     ConfigSuccess &= ENDPOINT_CONFIG(KEYBOARD_IN_EPNUM, EP_TYPE_INTERRUPT, ENDPOINT_DIR_IN,
 319:./tmk_core/protocol/lufa/lufa.c ****                                      KEYBOARD_EPSIZE, ENDPOINT_BANK_SINGLE);
 320:./tmk_core/protocol/lufa/lufa.c **** 
 321:./tmk_core/protocol/lufa/lufa.c **** #ifdef MOUSE_ENABLE
 322:./tmk_core/protocol/lufa/lufa.c ****     /* Setup Mouse HID Report Endpoint */
 323:./tmk_core/protocol/lufa/lufa.c ****     ConfigSuccess &= ENDPOINT_CONFIG(MOUSE_IN_EPNUM, EP_TYPE_INTERRUPT, ENDPOINT_DIR_IN,
 324:./tmk_core/protocol/lufa/lufa.c ****                                      MOUSE_EPSIZE, ENDPOINT_BANK_SINGLE);
 325:./tmk_core/protocol/lufa/lufa.c **** #endif
 326:./tmk_core/protocol/lufa/lufa.c **** 
 327:./tmk_core/protocol/lufa/lufa.c **** #ifdef EXTRAKEY_ENABLE
 328:./tmk_core/protocol/lufa/lufa.c ****     /* Setup Extra HID Report Endpoint */
 329:./tmk_core/protocol/lufa/lufa.c ****     ConfigSuccess &= ENDPOINT_CONFIG(EXTRAKEY_IN_EPNUM, EP_TYPE_INTERRUPT, ENDPOINT_DIR_IN,
 330:./tmk_core/protocol/lufa/lufa.c ****                                      EXTRAKEY_EPSIZE, ENDPOINT_BANK_SINGLE);
 331:./tmk_core/protocol/lufa/lufa.c **** #endif
 332:./tmk_core/protocol/lufa/lufa.c **** 
 333:./tmk_core/protocol/lufa/lufa.c **** #ifdef CONSOLE_ENABLE
 334:./tmk_core/protocol/lufa/lufa.c ****     /* Setup Console HID Report Endpoints */
 335:./tmk_core/protocol/lufa/lufa.c ****     ConfigSuccess &= ENDPOINT_CONFIG(CONSOLE_IN_EPNUM, EP_TYPE_INTERRUPT, ENDPOINT_DIR_IN,
 336:./tmk_core/protocol/lufa/lufa.c ****                                      CONSOLE_EPSIZE, ENDPOINT_BANK_SINGLE);
 337:./tmk_core/protocol/lufa/lufa.c **** #if 0
 338:./tmk_core/protocol/lufa/lufa.c ****     ConfigSuccess &= ENDPOINT_CONFIG(CONSOLE_OUT_EPNUM, EP_TYPE_INTERRUPT, ENDPOINT_DIR_OUT,
 339:./tmk_core/protocol/lufa/lufa.c ****                                      CONSOLE_EPSIZE, ENDPOINT_BANK_SINGLE);
 340:./tmk_core/protocol/lufa/lufa.c **** #endif
 341:./tmk_core/protocol/lufa/lufa.c **** #endif
 342:./tmk_core/protocol/lufa/lufa.c **** 
 343:./tmk_core/protocol/lufa/lufa.c **** #ifdef NKRO_ENABLE
 344:./tmk_core/protocol/lufa/lufa.c ****     /* Setup NKRO HID Report Endpoints */
 345:./tmk_core/protocol/lufa/lufa.c ****     ConfigSuccess &= ENDPOINT_CONFIG(NKRO_IN_EPNUM, EP_TYPE_INTERRUPT, ENDPOINT_DIR_IN,
 346:./tmk_core/protocol/lufa/lufa.c ****                                      NKRO_EPSIZE, ENDPOINT_BANK_SINGLE);
 347:./tmk_core/protocol/lufa/lufa.c **** #endif
 348:./tmk_core/protocol/lufa/lufa.c **** 
 349:./tmk_core/protocol/lufa/lufa.c **** #ifdef MIDI_ENABLE
 350:./tmk_core/protocol/lufa/lufa.c ****     ConfigSuccess &= Endpoint_ConfigureEndpoint(MIDI_STREAM_IN_EPADDR, EP_TYPE_BULK, MIDI_STREAM_EP
 351:./tmk_core/protocol/lufa/lufa.c ****     ConfigSuccess &= Endpoint_ConfigureEndpoint(MIDI_STREAM_OUT_EPADDR, EP_TYPE_BULK, MIDI_STREAM_E
 352:./tmk_core/protocol/lufa/lufa.c **** #endif
 353:./tmk_core/protocol/lufa/lufa.c **** 
 354:./tmk_core/protocol/lufa/lufa.c **** #ifdef VIRTSER_ENABLE
 355:./tmk_core/protocol/lufa/lufa.c ****     ConfigSuccess &= Endpoint_ConfigureEndpoint(CDC_NOTIFICATION_EPADDR, EP_TYPE_INTERRUPT, CDC_NOT
 356:./tmk_core/protocol/lufa/lufa.c ****     ConfigSuccess &= Endpoint_ConfigureEndpoint(CDC_OUT_EPADDR, EP_TYPE_BULK, CDC_EPSIZE, ENDPOINT_
 357:./tmk_core/protocol/lufa/lufa.c ****     ConfigSuccess &= Endpoint_ConfigureEndpoint(CDC_IN_EPADDR, EP_TYPE_BULK, CDC_EPSIZE, ENDPOINT_B
 358:./tmk_core/protocol/lufa/lufa.c **** #endif
 359:./tmk_core/protocol/lufa/lufa.c **** }
 360:./tmk_core/protocol/lufa/lufa.c **** 
 361:./tmk_core/protocol/lufa/lufa.c **** /*
 362:./tmk_core/protocol/lufa/lufa.c **** Appendix G: HID Request Support Requirements
 363:./tmk_core/protocol/lufa/lufa.c **** 
 364:./tmk_core/protocol/lufa/lufa.c **** The following table enumerates the requests that need to be supported by various types of HID class
 365:./tmk_core/protocol/lufa/lufa.c **** 
 366:./tmk_core/protocol/lufa/lufa.c **** Device type     GetReport   SetReport   GetIdle     SetIdle     GetProtocol SetProtocol
 367:./tmk_core/protocol/lufa/lufa.c **** ------------------------------------------------------------------------------------------
 368:./tmk_core/protocol/lufa/lufa.c **** Boot Mouse      Required    Optional    Optional    Optional    Required    Required
 369:./tmk_core/protocol/lufa/lufa.c **** Non-Boot Mouse  Required    Optional    Optional    Optional    Optional    Optional
 370:./tmk_core/protocol/lufa/lufa.c **** Boot Keyboard   Required    Optional    Required    Required    Required    Required
 371:./tmk_core/protocol/lufa/lufa.c **** Non-Boot Keybrd Required    Optional    Required    Required    Optional    Optional
 372:./tmk_core/protocol/lufa/lufa.c **** Other Device    Required    Optional    Optional    Optional    Optional    Optional
 373:./tmk_core/protocol/lufa/lufa.c **** */
 374:./tmk_core/protocol/lufa/lufa.c **** /** Event handler for the USB_ControlRequest event.
 375:./tmk_core/protocol/lufa/lufa.c ****  *  This is fired before passing along unhandled control requests to the library for processing int
 376:./tmk_core/protocol/lufa/lufa.c ****  */
 377:./tmk_core/protocol/lufa/lufa.c **** void EVENT_USB_Device_ControlRequest(void)
 378:./tmk_core/protocol/lufa/lufa.c **** {
 379:./tmk_core/protocol/lufa/lufa.c ****     uint8_t* ReportData = NULL;
 380:./tmk_core/protocol/lufa/lufa.c ****     uint8_t  ReportSize = 0;
 381:./tmk_core/protocol/lufa/lufa.c **** 
 382:./tmk_core/protocol/lufa/lufa.c ****     /* Handle HID Class specific requests */
 383:./tmk_core/protocol/lufa/lufa.c ****     switch (USB_ControlRequest.bRequest)
 384:./tmk_core/protocol/lufa/lufa.c ****     {
 385:./tmk_core/protocol/lufa/lufa.c ****         case HID_REQ_GetReport:
 386:./tmk_core/protocol/lufa/lufa.c ****             if (USB_ControlRequest.bmRequestType == (REQDIR_DEVICETOHOST | REQTYPE_CLASS | REQREC_I
 387:./tmk_core/protocol/lufa/lufa.c ****             {
 388:./tmk_core/protocol/lufa/lufa.c ****                 Endpoint_ClearSETUP();
 389:./tmk_core/protocol/lufa/lufa.c **** 
 390:./tmk_core/protocol/lufa/lufa.c ****                 // Interface
 391:./tmk_core/protocol/lufa/lufa.c ****                 switch (USB_ControlRequest.wIndex) {
 392:./tmk_core/protocol/lufa/lufa.c ****                 case KEYBOARD_INTERFACE:
 393:./tmk_core/protocol/lufa/lufa.c ****                     // TODO: test/check
 394:./tmk_core/protocol/lufa/lufa.c ****                     ReportData = (uint8_t*)&keyboard_report_sent;
 395:./tmk_core/protocol/lufa/lufa.c ****                     ReportSize = sizeof(keyboard_report_sent);
 396:./tmk_core/protocol/lufa/lufa.c ****                     break;
 397:./tmk_core/protocol/lufa/lufa.c ****                 }
 398:./tmk_core/protocol/lufa/lufa.c **** 
 399:./tmk_core/protocol/lufa/lufa.c ****                 /* Write the report data to the control endpoint */
 400:./tmk_core/protocol/lufa/lufa.c ****                 Endpoint_Write_Control_Stream_LE(ReportData, ReportSize);
 401:./tmk_core/protocol/lufa/lufa.c ****                 Endpoint_ClearOUT();
 402:./tmk_core/protocol/lufa/lufa.c ****             }
 403:./tmk_core/protocol/lufa/lufa.c **** 
 404:./tmk_core/protocol/lufa/lufa.c ****             break;
 405:./tmk_core/protocol/lufa/lufa.c ****         case HID_REQ_SetReport:
 406:./tmk_core/protocol/lufa/lufa.c ****             if (USB_ControlRequest.bmRequestType == (REQDIR_HOSTTODEVICE | REQTYPE_CLASS | REQREC_I
 407:./tmk_core/protocol/lufa/lufa.c ****             {
 408:./tmk_core/protocol/lufa/lufa.c **** 
 409:./tmk_core/protocol/lufa/lufa.c ****                 // Interface
 410:./tmk_core/protocol/lufa/lufa.c ****                 switch (USB_ControlRequest.wIndex) {
 411:./tmk_core/protocol/lufa/lufa.c ****                 case KEYBOARD_INTERFACE:
 412:./tmk_core/protocol/lufa/lufa.c **** #ifdef NKRO_ENABLE
 413:./tmk_core/protocol/lufa/lufa.c ****                 case NKRO_INTERFACE:
 414:./tmk_core/protocol/lufa/lufa.c **** #endif
 415:./tmk_core/protocol/lufa/lufa.c ****                     Endpoint_ClearSETUP();
 416:./tmk_core/protocol/lufa/lufa.c **** 
 417:./tmk_core/protocol/lufa/lufa.c ****                     while (!(Endpoint_IsOUTReceived())) {
 418:./tmk_core/protocol/lufa/lufa.c ****                         if (USB_DeviceState == DEVICE_STATE_Unattached)
 419:./tmk_core/protocol/lufa/lufa.c ****                           return;
 420:./tmk_core/protocol/lufa/lufa.c ****                     }
 421:./tmk_core/protocol/lufa/lufa.c ****                     keyboard_led_stats = Endpoint_Read_8();
 422:./tmk_core/protocol/lufa/lufa.c **** 
 423:./tmk_core/protocol/lufa/lufa.c ****                     Endpoint_ClearOUT();
 424:./tmk_core/protocol/lufa/lufa.c ****                     Endpoint_ClearStatusStage();
 425:./tmk_core/protocol/lufa/lufa.c ****                     break;
 426:./tmk_core/protocol/lufa/lufa.c ****                 }
 427:./tmk_core/protocol/lufa/lufa.c **** 
 428:./tmk_core/protocol/lufa/lufa.c ****             }
 429:./tmk_core/protocol/lufa/lufa.c **** 
 430:./tmk_core/protocol/lufa/lufa.c ****             break;
 431:./tmk_core/protocol/lufa/lufa.c **** 
 432:./tmk_core/protocol/lufa/lufa.c ****         case HID_REQ_GetProtocol:
 433:./tmk_core/protocol/lufa/lufa.c ****             if (USB_ControlRequest.bmRequestType == (REQDIR_DEVICETOHOST | REQTYPE_CLASS | REQREC_I
 434:./tmk_core/protocol/lufa/lufa.c ****             {
 435:./tmk_core/protocol/lufa/lufa.c ****                 if (USB_ControlRequest.wIndex == KEYBOARD_INTERFACE) {
 436:./tmk_core/protocol/lufa/lufa.c ****                     Endpoint_ClearSETUP();
 437:./tmk_core/protocol/lufa/lufa.c ****                     while (!(Endpoint_IsINReady()));
 438:./tmk_core/protocol/lufa/lufa.c ****                     Endpoint_Write_8(keyboard_protocol);
 439:./tmk_core/protocol/lufa/lufa.c ****                     Endpoint_ClearIN();
 440:./tmk_core/protocol/lufa/lufa.c ****                     Endpoint_ClearStatusStage();
 441:./tmk_core/protocol/lufa/lufa.c ****                 }
 442:./tmk_core/protocol/lufa/lufa.c ****             }
 443:./tmk_core/protocol/lufa/lufa.c **** 
 444:./tmk_core/protocol/lufa/lufa.c ****             break;
 445:./tmk_core/protocol/lufa/lufa.c ****         case HID_REQ_SetProtocol:
 446:./tmk_core/protocol/lufa/lufa.c ****             if (USB_ControlRequest.bmRequestType == (REQDIR_HOSTTODEVICE | REQTYPE_CLASS | REQREC_I
 447:./tmk_core/protocol/lufa/lufa.c ****             {
 448:./tmk_core/protocol/lufa/lufa.c ****                 if (USB_ControlRequest.wIndex == KEYBOARD_INTERFACE) {
 449:./tmk_core/protocol/lufa/lufa.c ****                     Endpoint_ClearSETUP();
 450:./tmk_core/protocol/lufa/lufa.c ****                     Endpoint_ClearStatusStage();
 451:./tmk_core/protocol/lufa/lufa.c **** 
 452:./tmk_core/protocol/lufa/lufa.c ****                     keyboard_protocol = (USB_ControlRequest.wValue & 0xFF);
 453:./tmk_core/protocol/lufa/lufa.c ****                     clear_keyboard();
 454:./tmk_core/protocol/lufa/lufa.c ****                 }
 455:./tmk_core/protocol/lufa/lufa.c ****             }
 456:./tmk_core/protocol/lufa/lufa.c **** 
 457:./tmk_core/protocol/lufa/lufa.c ****             break;
 458:./tmk_core/protocol/lufa/lufa.c ****         case HID_REQ_SetIdle:
 459:./tmk_core/protocol/lufa/lufa.c ****             if (USB_ControlRequest.bmRequestType == (REQDIR_HOSTTODEVICE | REQTYPE_CLASS | REQREC_I
 460:./tmk_core/protocol/lufa/lufa.c ****             {
 461:./tmk_core/protocol/lufa/lufa.c ****                 Endpoint_ClearSETUP();
 462:./tmk_core/protocol/lufa/lufa.c ****                 Endpoint_ClearStatusStage();
 463:./tmk_core/protocol/lufa/lufa.c **** 
 464:./tmk_core/protocol/lufa/lufa.c ****                 keyboard_idle = ((USB_ControlRequest.wValue & 0xFF00) >> 8);
 465:./tmk_core/protocol/lufa/lufa.c ****             }
 466:./tmk_core/protocol/lufa/lufa.c **** 
 467:./tmk_core/protocol/lufa/lufa.c ****             break;
 468:./tmk_core/protocol/lufa/lufa.c ****         case HID_REQ_GetIdle:
 469:./tmk_core/protocol/lufa/lufa.c ****             if (USB_ControlRequest.bmRequestType == (REQDIR_DEVICETOHOST | REQTYPE_CLASS | REQREC_I
 470:./tmk_core/protocol/lufa/lufa.c ****             {
 471:./tmk_core/protocol/lufa/lufa.c ****                 Endpoint_ClearSETUP();
 472:./tmk_core/protocol/lufa/lufa.c ****                 while (!(Endpoint_IsINReady()));
 473:./tmk_core/protocol/lufa/lufa.c ****                 Endpoint_Write_8(keyboard_idle);
 474:./tmk_core/protocol/lufa/lufa.c ****                 Endpoint_ClearIN();
 475:./tmk_core/protocol/lufa/lufa.c ****                 Endpoint_ClearStatusStage();
 476:./tmk_core/protocol/lufa/lufa.c ****             }
 477:./tmk_core/protocol/lufa/lufa.c **** 
 478:./tmk_core/protocol/lufa/lufa.c ****             break;
 479:./tmk_core/protocol/lufa/lufa.c ****     }
 480:./tmk_core/protocol/lufa/lufa.c **** 
 481:./tmk_core/protocol/lufa/lufa.c **** #ifdef VIRTSER_ENABLE
 482:./tmk_core/protocol/lufa/lufa.c ****     CDC_Device_ProcessControlRequest(&cdc_device);
 483:./tmk_core/protocol/lufa/lufa.c **** #endif
 484:./tmk_core/protocol/lufa/lufa.c **** }
 485:./tmk_core/protocol/lufa/lufa.c **** 
 486:./tmk_core/protocol/lufa/lufa.c **** /*******************************************************************************
 487:./tmk_core/protocol/lufa/lufa.c ****  * Host driver
 488:./tmk_core/protocol/lufa/lufa.c **** p
 489:./tmk_core/protocol/lufa/lufa.c ****  ******************************************************************************/
 490:./tmk_core/protocol/lufa/lufa.c **** static uint8_t keyboard_leds(void)
 491:./tmk_core/protocol/lufa/lufa.c **** {
  15               		.loc 1 491 0
  16               		.cfi_startproc
  17               	/* prologue: function */
  18               	/* frame size = 0 */
  19               	/* stack size = 0 */
  20               	.L__stack_usage = 0
 492:./tmk_core/protocol/lufa/lufa.c ****     return keyboard_led_stats;
 493:./tmk_core/protocol/lufa/lufa.c **** }
  21               		.loc 1 493 0
  22 0000 8091 0000 		lds r24,keyboard_led_stats
  23 0004 0895      		ret
  24               		.cfi_endproc
  25               	.LFE115:
  27               		.section	.text.send_consumer,"ax",@progbits
  29               	send_consumer:
  30               	.LFB119:
 494:./tmk_core/protocol/lufa/lufa.c **** 
 495:./tmk_core/protocol/lufa/lufa.c **** static void send_keyboard(report_keyboard_t *report)
 496:./tmk_core/protocol/lufa/lufa.c **** {
 497:./tmk_core/protocol/lufa/lufa.c **** 
 498:./tmk_core/protocol/lufa/lufa.c **** #ifdef BLUETOOTH_ENABLE
 499:./tmk_core/protocol/lufa/lufa.c ****     bluefruit_serial_send(0xFD);
 500:./tmk_core/protocol/lufa/lufa.c ****     for (uint8_t i = 0; i < KEYBOARD_EPSIZE; i++) {
 501:./tmk_core/protocol/lufa/lufa.c ****         bluefruit_serial_send(report->raw[i]);
 502:./tmk_core/protocol/lufa/lufa.c ****     }
 503:./tmk_core/protocol/lufa/lufa.c **** #endif
 504:./tmk_core/protocol/lufa/lufa.c **** 
 505:./tmk_core/protocol/lufa/lufa.c ****     uint8_t timeout = 255;
 506:./tmk_core/protocol/lufa/lufa.c **** 
 507:./tmk_core/protocol/lufa/lufa.c ****     if (USB_DeviceState != DEVICE_STATE_Configured)
 508:./tmk_core/protocol/lufa/lufa.c ****         return;
 509:./tmk_core/protocol/lufa/lufa.c **** 
 510:./tmk_core/protocol/lufa/lufa.c ****     /* Select the Keyboard Report Endpoint */
 511:./tmk_core/protocol/lufa/lufa.c **** #ifdef NKRO_ENABLE
 512:./tmk_core/protocol/lufa/lufa.c ****     if (keyboard_protocol && keymap_config.nkro) {
 513:./tmk_core/protocol/lufa/lufa.c ****         /* Report protocol - NKRO */
 514:./tmk_core/protocol/lufa/lufa.c ****         Endpoint_SelectEndpoint(NKRO_IN_EPNUM);
 515:./tmk_core/protocol/lufa/lufa.c **** 
 516:./tmk_core/protocol/lufa/lufa.c ****         /* Check if write ready for a polling interval around 1ms */
 517:./tmk_core/protocol/lufa/lufa.c ****         while (timeout-- && !Endpoint_IsReadWriteAllowed()) _delay_us(4);
 518:./tmk_core/protocol/lufa/lufa.c ****         if (!Endpoint_IsReadWriteAllowed()) return;
 519:./tmk_core/protocol/lufa/lufa.c **** 
 520:./tmk_core/protocol/lufa/lufa.c ****         /* Write Keyboard Report Data */
 521:./tmk_core/protocol/lufa/lufa.c ****         Endpoint_Write_Stream_LE(report, NKRO_EPSIZE, NULL);
 522:./tmk_core/protocol/lufa/lufa.c ****     }
 523:./tmk_core/protocol/lufa/lufa.c ****     else
 524:./tmk_core/protocol/lufa/lufa.c **** #endif
 525:./tmk_core/protocol/lufa/lufa.c ****     {
 526:./tmk_core/protocol/lufa/lufa.c ****         /* Boot protocol */
 527:./tmk_core/protocol/lufa/lufa.c ****         Endpoint_SelectEndpoint(KEYBOARD_IN_EPNUM);
 528:./tmk_core/protocol/lufa/lufa.c **** 
 529:./tmk_core/protocol/lufa/lufa.c ****         /* Check if write ready for a polling interval around 10ms */
 530:./tmk_core/protocol/lufa/lufa.c ****         while (timeout-- && !Endpoint_IsReadWriteAllowed()) _delay_us(40);
 531:./tmk_core/protocol/lufa/lufa.c ****         if (!Endpoint_IsReadWriteAllowed()) return;
 532:./tmk_core/protocol/lufa/lufa.c **** 
 533:./tmk_core/protocol/lufa/lufa.c ****         /* Write Keyboard Report Data */
 534:./tmk_core/protocol/lufa/lufa.c ****         Endpoint_Write_Stream_LE(report, KEYBOARD_EPSIZE, NULL);
 535:./tmk_core/protocol/lufa/lufa.c ****     }
 536:./tmk_core/protocol/lufa/lufa.c **** 
 537:./tmk_core/protocol/lufa/lufa.c ****     /* Finalize the stream transfer to send the last packet */
 538:./tmk_core/protocol/lufa/lufa.c ****     Endpoint_ClearIN();
 539:./tmk_core/protocol/lufa/lufa.c **** 
 540:./tmk_core/protocol/lufa/lufa.c ****     keyboard_report_sent = *report;
 541:./tmk_core/protocol/lufa/lufa.c **** }
 542:./tmk_core/protocol/lufa/lufa.c **** 
 543:./tmk_core/protocol/lufa/lufa.c **** static void send_mouse(report_mouse_t *report)
 544:./tmk_core/protocol/lufa/lufa.c **** {
 545:./tmk_core/protocol/lufa/lufa.c **** #ifdef MOUSE_ENABLE
 546:./tmk_core/protocol/lufa/lufa.c **** 
 547:./tmk_core/protocol/lufa/lufa.c **** #ifdef BLUETOOTH_ENABLE
 548:./tmk_core/protocol/lufa/lufa.c ****     bluefruit_serial_send(0xFD);
 549:./tmk_core/protocol/lufa/lufa.c ****     bluefruit_serial_send(0x00);
 550:./tmk_core/protocol/lufa/lufa.c ****     bluefruit_serial_send(0x03);
 551:./tmk_core/protocol/lufa/lufa.c ****     bluefruit_serial_send(report->buttons);
 552:./tmk_core/protocol/lufa/lufa.c ****     bluefruit_serial_send(report->x);
 553:./tmk_core/protocol/lufa/lufa.c ****     bluefruit_serial_send(report->y);
 554:./tmk_core/protocol/lufa/lufa.c ****     bluefruit_serial_send(report->v); // should try sending the wheel v here
 555:./tmk_core/protocol/lufa/lufa.c ****     bluefruit_serial_send(report->h); // should try sending the wheel h here
 556:./tmk_core/protocol/lufa/lufa.c ****     bluefruit_serial_send(0x00);
 557:./tmk_core/protocol/lufa/lufa.c **** #endif
 558:./tmk_core/protocol/lufa/lufa.c **** 
 559:./tmk_core/protocol/lufa/lufa.c ****     uint8_t timeout = 255;
 560:./tmk_core/protocol/lufa/lufa.c **** 
 561:./tmk_core/protocol/lufa/lufa.c ****     if (USB_DeviceState != DEVICE_STATE_Configured)
 562:./tmk_core/protocol/lufa/lufa.c ****         return;
 563:./tmk_core/protocol/lufa/lufa.c **** 
 564:./tmk_core/protocol/lufa/lufa.c ****     /* Select the Mouse Report Endpoint */
 565:./tmk_core/protocol/lufa/lufa.c ****     Endpoint_SelectEndpoint(MOUSE_IN_EPNUM);
 566:./tmk_core/protocol/lufa/lufa.c **** 
 567:./tmk_core/protocol/lufa/lufa.c ****     /* Check if write ready for a polling interval around 10ms */
 568:./tmk_core/protocol/lufa/lufa.c ****     while (timeout-- && !Endpoint_IsReadWriteAllowed()) _delay_us(40);
 569:./tmk_core/protocol/lufa/lufa.c ****     if (!Endpoint_IsReadWriteAllowed()) return;
 570:./tmk_core/protocol/lufa/lufa.c **** 
 571:./tmk_core/protocol/lufa/lufa.c ****     /* Write Mouse Report Data */
 572:./tmk_core/protocol/lufa/lufa.c ****     Endpoint_Write_Stream_LE(report, sizeof(report_mouse_t), NULL);
 573:./tmk_core/protocol/lufa/lufa.c **** 
 574:./tmk_core/protocol/lufa/lufa.c ****     /* Finalize the stream transfer to send the last packet */
 575:./tmk_core/protocol/lufa/lufa.c ****     Endpoint_ClearIN();
 576:./tmk_core/protocol/lufa/lufa.c **** #endif
 577:./tmk_core/protocol/lufa/lufa.c **** }
 578:./tmk_core/protocol/lufa/lufa.c **** 
 579:./tmk_core/protocol/lufa/lufa.c **** static void send_system(uint16_t data)
 580:./tmk_core/protocol/lufa/lufa.c **** {
 581:./tmk_core/protocol/lufa/lufa.c ****     uint8_t timeout = 255;
 582:./tmk_core/protocol/lufa/lufa.c **** 
 583:./tmk_core/protocol/lufa/lufa.c ****     if (USB_DeviceState != DEVICE_STATE_Configured)
 584:./tmk_core/protocol/lufa/lufa.c ****         return;
 585:./tmk_core/protocol/lufa/lufa.c **** 
 586:./tmk_core/protocol/lufa/lufa.c ****     report_extra_t r = {
 587:./tmk_core/protocol/lufa/lufa.c ****         .report_id = REPORT_ID_SYSTEM,
 588:./tmk_core/protocol/lufa/lufa.c ****         .usage = data
 589:./tmk_core/protocol/lufa/lufa.c ****     };
 590:./tmk_core/protocol/lufa/lufa.c ****     Endpoint_SelectEndpoint(EXTRAKEY_IN_EPNUM);
 591:./tmk_core/protocol/lufa/lufa.c **** 
 592:./tmk_core/protocol/lufa/lufa.c ****     /* Check if write ready for a polling interval around 10ms */
 593:./tmk_core/protocol/lufa/lufa.c ****     while (timeout-- && !Endpoint_IsReadWriteAllowed()) _delay_us(40);
 594:./tmk_core/protocol/lufa/lufa.c ****     if (!Endpoint_IsReadWriteAllowed()) return;
 595:./tmk_core/protocol/lufa/lufa.c **** 
 596:./tmk_core/protocol/lufa/lufa.c ****     Endpoint_Write_Stream_LE(&r, sizeof(report_extra_t), NULL);
 597:./tmk_core/protocol/lufa/lufa.c ****     Endpoint_ClearIN();
 598:./tmk_core/protocol/lufa/lufa.c **** }
 599:./tmk_core/protocol/lufa/lufa.c **** 
 600:./tmk_core/protocol/lufa/lufa.c **** static void send_consumer(uint16_t data)
 601:./tmk_core/protocol/lufa/lufa.c **** {
  31               		.loc 1 601 0
  32               		.cfi_startproc
  33               	.LVL0:
  34 0000 CF93      		push r28
  35               	.LCFI0:
  36               		.cfi_def_cfa_offset 3
  37               		.cfi_offset 28, -2
  38 0002 DF93      		push r29
  39               	.LCFI1:
  40               		.cfi_def_cfa_offset 4
  41               		.cfi_offset 29, -3
  42 0004 00D0      		rcall .
  43 0006 1F92      		push __zero_reg__
  44               	.LCFI2:
  45               		.cfi_def_cfa_offset 7
  46 0008 CDB7      		in r28,__SP_L__
  47 000a DEB7      		in r29,__SP_H__
  48               	.LCFI3:
  49               		.cfi_def_cfa_register 28
  50               	/* prologue: function */
  51               	/* frame size = 3 */
  52               	/* stack size = 5 */
  53               	.L__stack_usage = 5
  54 000c 9C01      		movw r18,r24
  55               	.LVL1:
 602:./tmk_core/protocol/lufa/lufa.c **** 
 603:./tmk_core/protocol/lufa/lufa.c **** #ifdef BLUETOOTH_ENABLE
 604:./tmk_core/protocol/lufa/lufa.c ****     static uint16_t last_data = 0;
 605:./tmk_core/protocol/lufa/lufa.c ****     if (data == last_data) return;
 606:./tmk_core/protocol/lufa/lufa.c ****     last_data = data;
 607:./tmk_core/protocol/lufa/lufa.c ****     uint16_t bitmap = CONSUMER2BLUEFRUIT(data);
 608:./tmk_core/protocol/lufa/lufa.c ****     bluefruit_serial_send(0xFD);
 609:./tmk_core/protocol/lufa/lufa.c ****     bluefruit_serial_send(0x00);
 610:./tmk_core/protocol/lufa/lufa.c ****     bluefruit_serial_send(0x02);
 611:./tmk_core/protocol/lufa/lufa.c ****     bluefruit_serial_send((bitmap>>8)&0xFF);
 612:./tmk_core/protocol/lufa/lufa.c ****     bluefruit_serial_send(bitmap&0xFF);
 613:./tmk_core/protocol/lufa/lufa.c ****     bluefruit_serial_send(0x00);
 614:./tmk_core/protocol/lufa/lufa.c ****     bluefruit_serial_send(0x00);
 615:./tmk_core/protocol/lufa/lufa.c ****     bluefruit_serial_send(0x00);
 616:./tmk_core/protocol/lufa/lufa.c ****     bluefruit_serial_send(0x00);
 617:./tmk_core/protocol/lufa/lufa.c **** #endif
 618:./tmk_core/protocol/lufa/lufa.c **** 
 619:./tmk_core/protocol/lufa/lufa.c ****     uint8_t timeout = 255;
 620:./tmk_core/protocol/lufa/lufa.c **** 
 621:./tmk_core/protocol/lufa/lufa.c ****     if (USB_DeviceState != DEVICE_STATE_Configured)
  56               		.loc 1 621 0
  57 000e 8091 0000 		lds r24,USB_DeviceState
  58               	.LVL2:
  59 0012 8430      		cpi r24,lo8(4)
  60 0014 01F4      		brne .L2
 622:./tmk_core/protocol/lufa/lufa.c ****         return;
 623:./tmk_core/protocol/lufa/lufa.c **** 
 624:./tmk_core/protocol/lufa/lufa.c ****     report_extra_t r = {
  61               		.loc 1 624 0
  62 0016 93E0      		ldi r25,lo8(3)
  63 0018 9983      		std Y+1,r25
  64 001a 3B83      		std Y+3,r19
  65 001c 2A83      		std Y+2,r18
  66               	.LVL3:
  67               	.LBB113:
  68               	.LBB114:
  69               		.file 2 "./tmk_core/protocol/lufa/LUFA-git/LUFA/Drivers/USB/Core/AVR8/../AVR8/Endpoint_AVR8.h"
   1:./tmk_core/protocol/lufa/LUFA-git/LUFA/Drivers/USB/Core/AVR8/../AVR8/Endpoint_AVR8.h **** /*
   2:./tmk_core/protocol/lufa/LUFA-git/LUFA/Drivers/USB/Core/AVR8/../AVR8/Endpoint_AVR8.h ****              LUFA Library
   3:./tmk_core/protocol/lufa/LUFA-git/LUFA/Drivers/USB/Core/AVR8/../AVR8/Endpoint_AVR8.h ****      Copyright (C) Dean Camera, 2014.
   4:./tmk_core/protocol/lufa/LUFA-git/LUFA/Drivers/USB/Core/AVR8/../AVR8/Endpoint_AVR8.h **** 
   5:./tmk_core/protocol/lufa/LUFA-git/LUFA/Drivers/USB/Core/AVR8/../AVR8/Endpoint_AVR8.h ****   dean [at] fourwalledcubicle [dot] com
   6:./tmk_core/protocol/lufa/LUFA-git/LUFA/Drivers/USB/Core/AVR8/../AVR8/Endpoint_AVR8.h ****            www.lufa-lib.org
   7:./tmk_core/protocol/lufa/LUFA-git/LUFA/Drivers/USB/Core/AVR8/../AVR8/Endpoint_AVR8.h **** */
   8:./tmk_core/protocol/lufa/LUFA-git/LUFA/Drivers/USB/Core/AVR8/../AVR8/Endpoint_AVR8.h **** 
   9:./tmk_core/protocol/lufa/LUFA-git/LUFA/Drivers/USB/Core/AVR8/../AVR8/Endpoint_AVR8.h **** /*
  10:./tmk_core/protocol/lufa/LUFA-git/LUFA/Drivers/USB/Core/AVR8/../AVR8/Endpoint_AVR8.h ****   Copyright 2014  Dean Camera (dean [at] fourwalledcubicle [dot] com)
  11:./tmk_core/protocol/lufa/LUFA-git/LUFA/Drivers/USB/Core/AVR8/../AVR8/Endpoint_AVR8.h **** 
  12:./tmk_core/protocol/lufa/LUFA-git/LUFA/Drivers/USB/Core/AVR8/../AVR8/Endpoint_AVR8.h ****   Permission to use, copy, modify, distribute, and sell this
  13:./tmk_core/protocol/lufa/LUFA-git/LUFA/Drivers/USB/Core/AVR8/../AVR8/Endpoint_AVR8.h ****   software and its documentation for any purpose is hereby granted
  14:./tmk_core/protocol/lufa/LUFA-git/LUFA/Drivers/USB/Core/AVR8/../AVR8/Endpoint_AVR8.h ****   without fee, provided that the above copyright notice appear in
  15:./tmk_core/protocol/lufa/LUFA-git/LUFA/Drivers/USB/Core/AVR8/../AVR8/Endpoint_AVR8.h ****   all copies and that both that the copyright notice and this
  16:./tmk_core/protocol/lufa/LUFA-git/LUFA/Drivers/USB/Core/AVR8/../AVR8/Endpoint_AVR8.h ****   permission notice and warranty disclaimer appear in supporting
  17:./tmk_core/protocol/lufa/LUFA-git/LUFA/Drivers/USB/Core/AVR8/../AVR8/Endpoint_AVR8.h ****   documentation, and that the name of the author not be used in
  18:./tmk_core/protocol/lufa/LUFA-git/LUFA/Drivers/USB/Core/AVR8/../AVR8/Endpoint_AVR8.h ****   advertising or publicity pertaining to distribution of the
  19:./tmk_core/protocol/lufa/LUFA-git/LUFA/Drivers/USB/Core/AVR8/../AVR8/Endpoint_AVR8.h ****   software without specific, written prior permission.
  20:./tmk_core/protocol/lufa/LUFA-git/LUFA/Drivers/USB/Core/AVR8/../AVR8/Endpoint_AVR8.h **** 
  21:./tmk_core/protocol/lufa/LUFA-git/LUFA/Drivers/USB/Core/AVR8/../AVR8/Endpoint_AVR8.h ****   The author disclaims all warranties with regard to this
  22:./tmk_core/protocol/lufa/LUFA-git/LUFA/Drivers/USB/Core/AVR8/../AVR8/Endpoint_AVR8.h ****   software, including all implied warranties of merchantability
  23:./tmk_core/protocol/lufa/LUFA-git/LUFA/Drivers/USB/Core/AVR8/../AVR8/Endpoint_AVR8.h ****   and fitness.  In no event shall the author be liable for any
  24:./tmk_core/protocol/lufa/LUFA-git/LUFA/Drivers/USB/Core/AVR8/../AVR8/Endpoint_AVR8.h ****   special, indirect or consequential damages or any damages
  25:./tmk_core/protocol/lufa/LUFA-git/LUFA/Drivers/USB/Core/AVR8/../AVR8/Endpoint_AVR8.h ****   whatsoever resulting from loss of use, data or profits, whether
  26:./tmk_core/protocol/lufa/LUFA-git/LUFA/Drivers/USB/Core/AVR8/../AVR8/Endpoint_AVR8.h ****   in an action of contract, negligence or other tortious action,
  27:./tmk_core/protocol/lufa/LUFA-git/LUFA/Drivers/USB/Core/AVR8/../AVR8/Endpoint_AVR8.h ****   arising out of or in connection with the use or performance of
  28:./tmk_core/protocol/lufa/LUFA-git/LUFA/Drivers/USB/Core/AVR8/../AVR8/Endpoint_AVR8.h ****   this software.
  29:./tmk_core/protocol/lufa/LUFA-git/LUFA/Drivers/USB/Core/AVR8/../AVR8/Endpoint_AVR8.h **** */
  30:./tmk_core/protocol/lufa/LUFA-git/LUFA/Drivers/USB/Core/AVR8/../AVR8/Endpoint_AVR8.h **** 
  31:./tmk_core/protocol/lufa/LUFA-git/LUFA/Drivers/USB/Core/AVR8/../AVR8/Endpoint_AVR8.h **** /** \file
  32:./tmk_core/protocol/lufa/LUFA-git/LUFA/Drivers/USB/Core/AVR8/../AVR8/Endpoint_AVR8.h ****  *  \brief USB Endpoint definitions for the AVR8 microcontrollers.
  33:./tmk_core/protocol/lufa/LUFA-git/LUFA/Drivers/USB/Core/AVR8/../AVR8/Endpoint_AVR8.h ****  *  \copydetails Group_EndpointManagement_AVR8
  34:./tmk_core/protocol/lufa/LUFA-git/LUFA/Drivers/USB/Core/AVR8/../AVR8/Endpoint_AVR8.h ****  *
  35:./tmk_core/protocol/lufa/LUFA-git/LUFA/Drivers/USB/Core/AVR8/../AVR8/Endpoint_AVR8.h ****  *  \note This file should not be included directly. It is automatically included as needed by the 
  36:./tmk_core/protocol/lufa/LUFA-git/LUFA/Drivers/USB/Core/AVR8/../AVR8/Endpoint_AVR8.h ****  *        dispatch header located in LUFA/Drivers/USB/USB.h.
  37:./tmk_core/protocol/lufa/LUFA-git/LUFA/Drivers/USB/Core/AVR8/../AVR8/Endpoint_AVR8.h ****  */
  38:./tmk_core/protocol/lufa/LUFA-git/LUFA/Drivers/USB/Core/AVR8/../AVR8/Endpoint_AVR8.h **** 
  39:./tmk_core/protocol/lufa/LUFA-git/LUFA/Drivers/USB/Core/AVR8/../AVR8/Endpoint_AVR8.h **** /** \ingroup Group_EndpointRW
  40:./tmk_core/protocol/lufa/LUFA-git/LUFA/Drivers/USB/Core/AVR8/../AVR8/Endpoint_AVR8.h ****  *  \defgroup Group_EndpointRW_AVR8 Endpoint Data Reading and Writing (AVR8)
  41:./tmk_core/protocol/lufa/LUFA-git/LUFA/Drivers/USB/Core/AVR8/../AVR8/Endpoint_AVR8.h ****  *  \brief Endpoint data read/write definitions for the Atmel AVR8 architecture.
  42:./tmk_core/protocol/lufa/LUFA-git/LUFA/Drivers/USB/Core/AVR8/../AVR8/Endpoint_AVR8.h ****  *
  43:./tmk_core/protocol/lufa/LUFA-git/LUFA/Drivers/USB/Core/AVR8/../AVR8/Endpoint_AVR8.h ****  *  Functions, macros, variables, enums and types related to data reading and writing from and to e
  44:./tmk_core/protocol/lufa/LUFA-git/LUFA/Drivers/USB/Core/AVR8/../AVR8/Endpoint_AVR8.h ****  */
  45:./tmk_core/protocol/lufa/LUFA-git/LUFA/Drivers/USB/Core/AVR8/../AVR8/Endpoint_AVR8.h **** 
  46:./tmk_core/protocol/lufa/LUFA-git/LUFA/Drivers/USB/Core/AVR8/../AVR8/Endpoint_AVR8.h **** /** \ingroup Group_EndpointPrimitiveRW
  47:./tmk_core/protocol/lufa/LUFA-git/LUFA/Drivers/USB/Core/AVR8/../AVR8/Endpoint_AVR8.h ****  *  \defgroup Group_EndpointPrimitiveRW_AVR8 Read/Write of Primitive Data Types (AVR8)
  48:./tmk_core/protocol/lufa/LUFA-git/LUFA/Drivers/USB/Core/AVR8/../AVR8/Endpoint_AVR8.h ****  *  \brief Endpoint primitive read/write definitions for the Atmel AVR8 architecture.
  49:./tmk_core/protocol/lufa/LUFA-git/LUFA/Drivers/USB/Core/AVR8/../AVR8/Endpoint_AVR8.h ****  *
  50:./tmk_core/protocol/lufa/LUFA-git/LUFA/Drivers/USB/Core/AVR8/../AVR8/Endpoint_AVR8.h ****  *  Functions, macros, variables, enums and types related to data reading and writing of primitive 
  51:./tmk_core/protocol/lufa/LUFA-git/LUFA/Drivers/USB/Core/AVR8/../AVR8/Endpoint_AVR8.h ****  *  from and to endpoints.
  52:./tmk_core/protocol/lufa/LUFA-git/LUFA/Drivers/USB/Core/AVR8/../AVR8/Endpoint_AVR8.h ****  */
  53:./tmk_core/protocol/lufa/LUFA-git/LUFA/Drivers/USB/Core/AVR8/../AVR8/Endpoint_AVR8.h **** 
  54:./tmk_core/protocol/lufa/LUFA-git/LUFA/Drivers/USB/Core/AVR8/../AVR8/Endpoint_AVR8.h **** /** \ingroup Group_EndpointPacketManagement
  55:./tmk_core/protocol/lufa/LUFA-git/LUFA/Drivers/USB/Core/AVR8/../AVR8/Endpoint_AVR8.h ****  *  \defgroup Group_EndpointPacketManagement_AVR8 Endpoint Packet Management (AVR8)
  56:./tmk_core/protocol/lufa/LUFA-git/LUFA/Drivers/USB/Core/AVR8/../AVR8/Endpoint_AVR8.h ****  *  \brief Endpoint packet management definitions for the Atmel AVR8 architecture.
  57:./tmk_core/protocol/lufa/LUFA-git/LUFA/Drivers/USB/Core/AVR8/../AVR8/Endpoint_AVR8.h ****  *
  58:./tmk_core/protocol/lufa/LUFA-git/LUFA/Drivers/USB/Core/AVR8/../AVR8/Endpoint_AVR8.h ****  *  Functions, macros, variables, enums and types related to packet management of endpoints.
  59:./tmk_core/protocol/lufa/LUFA-git/LUFA/Drivers/USB/Core/AVR8/../AVR8/Endpoint_AVR8.h ****  */
  60:./tmk_core/protocol/lufa/LUFA-git/LUFA/Drivers/USB/Core/AVR8/../AVR8/Endpoint_AVR8.h **** 
  61:./tmk_core/protocol/lufa/LUFA-git/LUFA/Drivers/USB/Core/AVR8/../AVR8/Endpoint_AVR8.h **** /** \ingroup Group_EndpointManagement
  62:./tmk_core/protocol/lufa/LUFA-git/LUFA/Drivers/USB/Core/AVR8/../AVR8/Endpoint_AVR8.h ****  *  \defgroup Group_EndpointManagement_AVR8 Endpoint Management (AVR8)
  63:./tmk_core/protocol/lufa/LUFA-git/LUFA/Drivers/USB/Core/AVR8/../AVR8/Endpoint_AVR8.h ****  *  \brief Endpoint management definitions for the Atmel AVR8 architecture.
  64:./tmk_core/protocol/lufa/LUFA-git/LUFA/Drivers/USB/Core/AVR8/../AVR8/Endpoint_AVR8.h ****  *
  65:./tmk_core/protocol/lufa/LUFA-git/LUFA/Drivers/USB/Core/AVR8/../AVR8/Endpoint_AVR8.h ****  *  Functions, macros and enums related to endpoint management when in USB Device mode. This
  66:./tmk_core/protocol/lufa/LUFA-git/LUFA/Drivers/USB/Core/AVR8/../AVR8/Endpoint_AVR8.h ****  *  module contains the endpoint management macros, as well as endpoint interrupt and data
  67:./tmk_core/protocol/lufa/LUFA-git/LUFA/Drivers/USB/Core/AVR8/../AVR8/Endpoint_AVR8.h ****  *  send/receive functions for various data types.
  68:./tmk_core/protocol/lufa/LUFA-git/LUFA/Drivers/USB/Core/AVR8/../AVR8/Endpoint_AVR8.h ****  *
  69:./tmk_core/protocol/lufa/LUFA-git/LUFA/Drivers/USB/Core/AVR8/../AVR8/Endpoint_AVR8.h ****  *  @{
  70:./tmk_core/protocol/lufa/LUFA-git/LUFA/Drivers/USB/Core/AVR8/../AVR8/Endpoint_AVR8.h ****  */
  71:./tmk_core/protocol/lufa/LUFA-git/LUFA/Drivers/USB/Core/AVR8/../AVR8/Endpoint_AVR8.h **** 
  72:./tmk_core/protocol/lufa/LUFA-git/LUFA/Drivers/USB/Core/AVR8/../AVR8/Endpoint_AVR8.h **** #ifndef __ENDPOINT_AVR8_H__
  73:./tmk_core/protocol/lufa/LUFA-git/LUFA/Drivers/USB/Core/AVR8/../AVR8/Endpoint_AVR8.h **** #define __ENDPOINT_AVR8_H__
  74:./tmk_core/protocol/lufa/LUFA-git/LUFA/Drivers/USB/Core/AVR8/../AVR8/Endpoint_AVR8.h **** 
  75:./tmk_core/protocol/lufa/LUFA-git/LUFA/Drivers/USB/Core/AVR8/../AVR8/Endpoint_AVR8.h **** 	/* Includes: */
  76:./tmk_core/protocol/lufa/LUFA-git/LUFA/Drivers/USB/Core/AVR8/../AVR8/Endpoint_AVR8.h **** 		#include "../../../../Common/Common.h"
  77:./tmk_core/protocol/lufa/LUFA-git/LUFA/Drivers/USB/Core/AVR8/../AVR8/Endpoint_AVR8.h **** 		#include "../USBTask.h"
  78:./tmk_core/protocol/lufa/LUFA-git/LUFA/Drivers/USB/Core/AVR8/../AVR8/Endpoint_AVR8.h **** 		#include "../USBInterrupt.h"
  79:./tmk_core/protocol/lufa/LUFA-git/LUFA/Drivers/USB/Core/AVR8/../AVR8/Endpoint_AVR8.h **** 
  80:./tmk_core/protocol/lufa/LUFA-git/LUFA/Drivers/USB/Core/AVR8/../AVR8/Endpoint_AVR8.h **** 	/* Enable C linkage for C++ Compilers: */
  81:./tmk_core/protocol/lufa/LUFA-git/LUFA/Drivers/USB/Core/AVR8/../AVR8/Endpoint_AVR8.h **** 		#if defined(__cplusplus)
  82:./tmk_core/protocol/lufa/LUFA-git/LUFA/Drivers/USB/Core/AVR8/../AVR8/Endpoint_AVR8.h **** 			extern "C" {
  83:./tmk_core/protocol/lufa/LUFA-git/LUFA/Drivers/USB/Core/AVR8/../AVR8/Endpoint_AVR8.h **** 		#endif
  84:./tmk_core/protocol/lufa/LUFA-git/LUFA/Drivers/USB/Core/AVR8/../AVR8/Endpoint_AVR8.h **** 
  85:./tmk_core/protocol/lufa/LUFA-git/LUFA/Drivers/USB/Core/AVR8/../AVR8/Endpoint_AVR8.h **** 	/* Preprocessor Checks: */
  86:./tmk_core/protocol/lufa/LUFA-git/LUFA/Drivers/USB/Core/AVR8/../AVR8/Endpoint_AVR8.h **** 		#if !defined(__INCLUDE_FROM_USB_DRIVER)
  87:./tmk_core/protocol/lufa/LUFA-git/LUFA/Drivers/USB/Core/AVR8/../AVR8/Endpoint_AVR8.h **** 			#error Do not include this file directly. Include LUFA/Drivers/USB/USB.h instead.
  88:./tmk_core/protocol/lufa/LUFA-git/LUFA/Drivers/USB/Core/AVR8/../AVR8/Endpoint_AVR8.h **** 		#endif
  89:./tmk_core/protocol/lufa/LUFA-git/LUFA/Drivers/USB/Core/AVR8/../AVR8/Endpoint_AVR8.h **** 
  90:./tmk_core/protocol/lufa/LUFA-git/LUFA/Drivers/USB/Core/AVR8/../AVR8/Endpoint_AVR8.h **** 	/* Private Interface - For use in library only: */
  91:./tmk_core/protocol/lufa/LUFA-git/LUFA/Drivers/USB/Core/AVR8/../AVR8/Endpoint_AVR8.h **** 	#if !defined(__DOXYGEN__)
  92:./tmk_core/protocol/lufa/LUFA-git/LUFA/Drivers/USB/Core/AVR8/../AVR8/Endpoint_AVR8.h **** 		/* Inline Functions: */
  93:./tmk_core/protocol/lufa/LUFA-git/LUFA/Drivers/USB/Core/AVR8/../AVR8/Endpoint_AVR8.h **** 			static inline uint8_t Endpoint_BytesToEPSizeMask(const uint16_t Bytes) ATTR_WARN_UNUSED_RESULT A
  94:./tmk_core/protocol/lufa/LUFA-git/LUFA/Drivers/USB/Core/AVR8/../AVR8/Endpoint_AVR8.h **** 			                                                                       ATTR_ALWAYS_INLINE;
  95:./tmk_core/protocol/lufa/LUFA-git/LUFA/Drivers/USB/Core/AVR8/../AVR8/Endpoint_AVR8.h **** 			static inline uint8_t Endpoint_BytesToEPSizeMask(const uint16_t Bytes)
  96:./tmk_core/protocol/lufa/LUFA-git/LUFA/Drivers/USB/Core/AVR8/../AVR8/Endpoint_AVR8.h **** 			{
  97:./tmk_core/protocol/lufa/LUFA-git/LUFA/Drivers/USB/Core/AVR8/../AVR8/Endpoint_AVR8.h **** 				uint8_t  MaskVal    = 0;
  98:./tmk_core/protocol/lufa/LUFA-git/LUFA/Drivers/USB/Core/AVR8/../AVR8/Endpoint_AVR8.h **** 				uint16_t CheckBytes = 8;
  99:./tmk_core/protocol/lufa/LUFA-git/LUFA/Drivers/USB/Core/AVR8/../AVR8/Endpoint_AVR8.h **** 
 100:./tmk_core/protocol/lufa/LUFA-git/LUFA/Drivers/USB/Core/AVR8/../AVR8/Endpoint_AVR8.h **** 				while (CheckBytes < Bytes)
 101:./tmk_core/protocol/lufa/LUFA-git/LUFA/Drivers/USB/Core/AVR8/../AVR8/Endpoint_AVR8.h **** 				{
 102:./tmk_core/protocol/lufa/LUFA-git/LUFA/Drivers/USB/Core/AVR8/../AVR8/Endpoint_AVR8.h **** 					MaskVal++;
 103:./tmk_core/protocol/lufa/LUFA-git/LUFA/Drivers/USB/Core/AVR8/../AVR8/Endpoint_AVR8.h **** 					CheckBytes <<= 1;
 104:./tmk_core/protocol/lufa/LUFA-git/LUFA/Drivers/USB/Core/AVR8/../AVR8/Endpoint_AVR8.h **** 				}
 105:./tmk_core/protocol/lufa/LUFA-git/LUFA/Drivers/USB/Core/AVR8/../AVR8/Endpoint_AVR8.h **** 
 106:./tmk_core/protocol/lufa/LUFA-git/LUFA/Drivers/USB/Core/AVR8/../AVR8/Endpoint_AVR8.h **** 				return (MaskVal << EPSIZE0);
 107:./tmk_core/protocol/lufa/LUFA-git/LUFA/Drivers/USB/Core/AVR8/../AVR8/Endpoint_AVR8.h **** 			}
 108:./tmk_core/protocol/lufa/LUFA-git/LUFA/Drivers/USB/Core/AVR8/../AVR8/Endpoint_AVR8.h **** 
 109:./tmk_core/protocol/lufa/LUFA-git/LUFA/Drivers/USB/Core/AVR8/../AVR8/Endpoint_AVR8.h **** 		/* Function Prototypes: */
 110:./tmk_core/protocol/lufa/LUFA-git/LUFA/Drivers/USB/Core/AVR8/../AVR8/Endpoint_AVR8.h **** 			void Endpoint_ClearEndpoints(void);
 111:./tmk_core/protocol/lufa/LUFA-git/LUFA/Drivers/USB/Core/AVR8/../AVR8/Endpoint_AVR8.h **** 			bool Endpoint_ConfigureEndpoint_Prv(const uint8_t Number,
 112:./tmk_core/protocol/lufa/LUFA-git/LUFA/Drivers/USB/Core/AVR8/../AVR8/Endpoint_AVR8.h **** 			                                    const uint8_t UECFG0XData,
 113:./tmk_core/protocol/lufa/LUFA-git/LUFA/Drivers/USB/Core/AVR8/../AVR8/Endpoint_AVR8.h **** 			                                    const uint8_t UECFG1XData);
 114:./tmk_core/protocol/lufa/LUFA-git/LUFA/Drivers/USB/Core/AVR8/../AVR8/Endpoint_AVR8.h **** 
 115:./tmk_core/protocol/lufa/LUFA-git/LUFA/Drivers/USB/Core/AVR8/../AVR8/Endpoint_AVR8.h **** 	#endif
 116:./tmk_core/protocol/lufa/LUFA-git/LUFA/Drivers/USB/Core/AVR8/../AVR8/Endpoint_AVR8.h **** 
 117:./tmk_core/protocol/lufa/LUFA-git/LUFA/Drivers/USB/Core/AVR8/../AVR8/Endpoint_AVR8.h **** 	/* Public Interface - May be used in end-application: */
 118:./tmk_core/protocol/lufa/LUFA-git/LUFA/Drivers/USB/Core/AVR8/../AVR8/Endpoint_AVR8.h **** 		/* Macros: */
 119:./tmk_core/protocol/lufa/LUFA-git/LUFA/Drivers/USB/Core/AVR8/../AVR8/Endpoint_AVR8.h **** 			#if (!defined(FIXED_CONTROL_ENDPOINT_SIZE) || defined(__DOXYGEN__))
 120:./tmk_core/protocol/lufa/LUFA-git/LUFA/Drivers/USB/Core/AVR8/../AVR8/Endpoint_AVR8.h **** 				/** Default size of the default control endpoint's bank, until altered by the control endpoint 
 121:./tmk_core/protocol/lufa/LUFA-git/LUFA/Drivers/USB/Core/AVR8/../AVR8/Endpoint_AVR8.h **** 				 *  value in the device descriptor. Not available if the \c FIXED_CONTROL_ENDPOINT_SIZE token i
 122:./tmk_core/protocol/lufa/LUFA-git/LUFA/Drivers/USB/Core/AVR8/../AVR8/Endpoint_AVR8.h **** 				 */
 123:./tmk_core/protocol/lufa/LUFA-git/LUFA/Drivers/USB/Core/AVR8/../AVR8/Endpoint_AVR8.h **** 				#define ENDPOINT_CONTROLEP_DEFAULT_SIZE     8
 124:./tmk_core/protocol/lufa/LUFA-git/LUFA/Drivers/USB/Core/AVR8/../AVR8/Endpoint_AVR8.h **** 			#endif
 125:./tmk_core/protocol/lufa/LUFA-git/LUFA/Drivers/USB/Core/AVR8/../AVR8/Endpoint_AVR8.h **** 
 126:./tmk_core/protocol/lufa/LUFA-git/LUFA/Drivers/USB/Core/AVR8/../AVR8/Endpoint_AVR8.h **** 			#if !defined(CONTROL_ONLY_DEVICE) || defined(__DOXYGEN__)
 127:./tmk_core/protocol/lufa/LUFA-git/LUFA/Drivers/USB/Core/AVR8/../AVR8/Endpoint_AVR8.h **** 				#if defined(USB_SERIES_4_AVR) || defined(USB_SERIES_6_AVR) || defined(USB_SERIES_7_AVR) || defi
 128:./tmk_core/protocol/lufa/LUFA-git/LUFA/Drivers/USB/Core/AVR8/../AVR8/Endpoint_AVR8.h **** 					/** Total number of endpoints (including the default control endpoint at address 0) which may
 129:./tmk_core/protocol/lufa/LUFA-git/LUFA/Drivers/USB/Core/AVR8/../AVR8/Endpoint_AVR8.h **** 					 *  be used in the device. Different USB AVR models support different amounts of endpoints,
 130:./tmk_core/protocol/lufa/LUFA-git/LUFA/Drivers/USB/Core/AVR8/../AVR8/Endpoint_AVR8.h **** 					 *  this value reflects the maximum number of endpoints for the currently selected AVR model.
 131:./tmk_core/protocol/lufa/LUFA-git/LUFA/Drivers/USB/Core/AVR8/../AVR8/Endpoint_AVR8.h **** 					 */
 132:./tmk_core/protocol/lufa/LUFA-git/LUFA/Drivers/USB/Core/AVR8/../AVR8/Endpoint_AVR8.h **** 					#define ENDPOINT_TOTAL_ENDPOINTS        7
 133:./tmk_core/protocol/lufa/LUFA-git/LUFA/Drivers/USB/Core/AVR8/../AVR8/Endpoint_AVR8.h **** 				#else
 134:./tmk_core/protocol/lufa/LUFA-git/LUFA/Drivers/USB/Core/AVR8/../AVR8/Endpoint_AVR8.h **** 					#define ENDPOINT_TOTAL_ENDPOINTS        5
 135:./tmk_core/protocol/lufa/LUFA-git/LUFA/Drivers/USB/Core/AVR8/../AVR8/Endpoint_AVR8.h **** 				#endif
 136:./tmk_core/protocol/lufa/LUFA-git/LUFA/Drivers/USB/Core/AVR8/../AVR8/Endpoint_AVR8.h **** 			#else
 137:./tmk_core/protocol/lufa/LUFA-git/LUFA/Drivers/USB/Core/AVR8/../AVR8/Endpoint_AVR8.h **** 				#define ENDPOINT_TOTAL_ENDPOINTS            1
 138:./tmk_core/protocol/lufa/LUFA-git/LUFA/Drivers/USB/Core/AVR8/../AVR8/Endpoint_AVR8.h **** 			#endif
 139:./tmk_core/protocol/lufa/LUFA-git/LUFA/Drivers/USB/Core/AVR8/../AVR8/Endpoint_AVR8.h **** 
 140:./tmk_core/protocol/lufa/LUFA-git/LUFA/Drivers/USB/Core/AVR8/../AVR8/Endpoint_AVR8.h **** 		/* Enums: */
 141:./tmk_core/protocol/lufa/LUFA-git/LUFA/Drivers/USB/Core/AVR8/../AVR8/Endpoint_AVR8.h **** 			/** Enum for the possible error return codes of the \ref Endpoint_WaitUntilReady() function.
 142:./tmk_core/protocol/lufa/LUFA-git/LUFA/Drivers/USB/Core/AVR8/../AVR8/Endpoint_AVR8.h **** 			 *
 143:./tmk_core/protocol/lufa/LUFA-git/LUFA/Drivers/USB/Core/AVR8/../AVR8/Endpoint_AVR8.h **** 			 *  \ingroup Group_EndpointRW_AVR8
 144:./tmk_core/protocol/lufa/LUFA-git/LUFA/Drivers/USB/Core/AVR8/../AVR8/Endpoint_AVR8.h **** 			 */
 145:./tmk_core/protocol/lufa/LUFA-git/LUFA/Drivers/USB/Core/AVR8/../AVR8/Endpoint_AVR8.h **** 			enum Endpoint_WaitUntilReady_ErrorCodes_t
 146:./tmk_core/protocol/lufa/LUFA-git/LUFA/Drivers/USB/Core/AVR8/../AVR8/Endpoint_AVR8.h **** 			{
 147:./tmk_core/protocol/lufa/LUFA-git/LUFA/Drivers/USB/Core/AVR8/../AVR8/Endpoint_AVR8.h **** 				ENDPOINT_READYWAIT_NoError                 = 0, /**< Endpoint is ready for next packet, no erro
 148:./tmk_core/protocol/lufa/LUFA-git/LUFA/Drivers/USB/Core/AVR8/../AVR8/Endpoint_AVR8.h **** 				ENDPOINT_READYWAIT_EndpointStalled         = 1, /**< The endpoint was stalled during the stream
 149:./tmk_core/protocol/lufa/LUFA-git/LUFA/Drivers/USB/Core/AVR8/../AVR8/Endpoint_AVR8.h **** 				                                                 *   transfer by the host or device.
 150:./tmk_core/protocol/lufa/LUFA-git/LUFA/Drivers/USB/Core/AVR8/../AVR8/Endpoint_AVR8.h **** 				                                                 */
 151:./tmk_core/protocol/lufa/LUFA-git/LUFA/Drivers/USB/Core/AVR8/../AVR8/Endpoint_AVR8.h **** 				ENDPOINT_READYWAIT_DeviceDisconnected      = 2,	/**< Device was disconnected from the host whil
 152:./tmk_core/protocol/lufa/LUFA-git/LUFA/Drivers/USB/Core/AVR8/../AVR8/Endpoint_AVR8.h **** 				                                                 *   waiting for the endpoint to become ready.
 153:./tmk_core/protocol/lufa/LUFA-git/LUFA/Drivers/USB/Core/AVR8/../AVR8/Endpoint_AVR8.h **** 				                                                 */
 154:./tmk_core/protocol/lufa/LUFA-git/LUFA/Drivers/USB/Core/AVR8/../AVR8/Endpoint_AVR8.h **** 				ENDPOINT_READYWAIT_BusSuspended            = 3, /**< The USB bus has been suspended by the host
 155:./tmk_core/protocol/lufa/LUFA-git/LUFA/Drivers/USB/Core/AVR8/../AVR8/Endpoint_AVR8.h **** 				                                                 *   no USB endpoint traffic can occur until th
 156:./tmk_core/protocol/lufa/LUFA-git/LUFA/Drivers/USB/Core/AVR8/../AVR8/Endpoint_AVR8.h **** 				                                                 *   has resumed.
 157:./tmk_core/protocol/lufa/LUFA-git/LUFA/Drivers/USB/Core/AVR8/../AVR8/Endpoint_AVR8.h **** 				                                                 */
 158:./tmk_core/protocol/lufa/LUFA-git/LUFA/Drivers/USB/Core/AVR8/../AVR8/Endpoint_AVR8.h **** 				ENDPOINT_READYWAIT_Timeout                 = 4, /**< The host failed to accept or send the next
 159:./tmk_core/protocol/lufa/LUFA-git/LUFA/Drivers/USB/Core/AVR8/../AVR8/Endpoint_AVR8.h **** 				                                                 *   within the software timeout period set by 
 160:./tmk_core/protocol/lufa/LUFA-git/LUFA/Drivers/USB/Core/AVR8/../AVR8/Endpoint_AVR8.h **** 				                                                 *   \ref USB_STREAM_TIMEOUT_MS macro.
 161:./tmk_core/protocol/lufa/LUFA-git/LUFA/Drivers/USB/Core/AVR8/../AVR8/Endpoint_AVR8.h **** 				                                                 */
 162:./tmk_core/protocol/lufa/LUFA-git/LUFA/Drivers/USB/Core/AVR8/../AVR8/Endpoint_AVR8.h **** 			};
 163:./tmk_core/protocol/lufa/LUFA-git/LUFA/Drivers/USB/Core/AVR8/../AVR8/Endpoint_AVR8.h **** 
 164:./tmk_core/protocol/lufa/LUFA-git/LUFA/Drivers/USB/Core/AVR8/../AVR8/Endpoint_AVR8.h **** 		/* Inline Functions: */
 165:./tmk_core/protocol/lufa/LUFA-git/LUFA/Drivers/USB/Core/AVR8/../AVR8/Endpoint_AVR8.h **** 			/** Configures the specified endpoint address with the given endpoint type, bank size and number
 166:./tmk_core/protocol/lufa/LUFA-git/LUFA/Drivers/USB/Core/AVR8/../AVR8/Endpoint_AVR8.h **** 			 *  banks. Once configured, the endpoint may be read from or written to, depending on its direct
 167:./tmk_core/protocol/lufa/LUFA-git/LUFA/Drivers/USB/Core/AVR8/../AVR8/Endpoint_AVR8.h **** 			 *
 168:./tmk_core/protocol/lufa/LUFA-git/LUFA/Drivers/USB/Core/AVR8/../AVR8/Endpoint_AVR8.h **** 			 *  \param[in] Address    Endpoint address to configure.
 169:./tmk_core/protocol/lufa/LUFA-git/LUFA/Drivers/USB/Core/AVR8/../AVR8/Endpoint_AVR8.h **** 			 *
 170:./tmk_core/protocol/lufa/LUFA-git/LUFA/Drivers/USB/Core/AVR8/../AVR8/Endpoint_AVR8.h **** 			 *  \param[in] Type       Type of endpoint to configure, a \c EP_TYPE_* mask. Not all endpoint t
 171:./tmk_core/protocol/lufa/LUFA-git/LUFA/Drivers/USB/Core/AVR8/../AVR8/Endpoint_AVR8.h **** 			 *                        are available on Low Speed USB devices - refer to the USB 2.0 specific
 172:./tmk_core/protocol/lufa/LUFA-git/LUFA/Drivers/USB/Core/AVR8/../AVR8/Endpoint_AVR8.h **** 			 *
 173:./tmk_core/protocol/lufa/LUFA-git/LUFA/Drivers/USB/Core/AVR8/../AVR8/Endpoint_AVR8.h **** 			 *  \param[in] Size       Size of the endpoint's bank, where packets are stored before they are 
 174:./tmk_core/protocol/lufa/LUFA-git/LUFA/Drivers/USB/Core/AVR8/../AVR8/Endpoint_AVR8.h **** 			 *                        to the USB host, or after they have been received from the USB host (d
 175:./tmk_core/protocol/lufa/LUFA-git/LUFA/Drivers/USB/Core/AVR8/../AVR8/Endpoint_AVR8.h **** 			 *                        the endpoint's data direction). The bank size must indicate the maximu
 176:./tmk_core/protocol/lufa/LUFA-git/LUFA/Drivers/USB/Core/AVR8/../AVR8/Endpoint_AVR8.h **** 			 *                        that the endpoint can handle.
 177:./tmk_core/protocol/lufa/LUFA-git/LUFA/Drivers/USB/Core/AVR8/../AVR8/Endpoint_AVR8.h **** 			 *
 178:./tmk_core/protocol/lufa/LUFA-git/LUFA/Drivers/USB/Core/AVR8/../AVR8/Endpoint_AVR8.h **** 			 *  \param[in] Banks      Number of banks to use for the endpoint being configured.
 179:./tmk_core/protocol/lufa/LUFA-git/LUFA/Drivers/USB/Core/AVR8/../AVR8/Endpoint_AVR8.h **** 			 *
 180:./tmk_core/protocol/lufa/LUFA-git/LUFA/Drivers/USB/Core/AVR8/../AVR8/Endpoint_AVR8.h **** 			 *  \attention When the \c ORDERED_EP_CONFIG compile time option is used, Endpoints <b>must</b> 
 181:./tmk_core/protocol/lufa/LUFA-git/LUFA/Drivers/USB/Core/AVR8/../AVR8/Endpoint_AVR8.h **** 			 *             ascending order, or bank corruption will occur.
 182:./tmk_core/protocol/lufa/LUFA-git/LUFA/Drivers/USB/Core/AVR8/../AVR8/Endpoint_AVR8.h **** 			 *
 183:./tmk_core/protocol/lufa/LUFA-git/LUFA/Drivers/USB/Core/AVR8/../AVR8/Endpoint_AVR8.h **** 			 *  \note Different endpoints may have different maximum packet sizes based on the endpoint's in
 184:./tmk_core/protocol/lufa/LUFA-git/LUFA/Drivers/USB/Core/AVR8/../AVR8/Endpoint_AVR8.h **** 			 *        refer to the chosen microcontroller model's datasheet to determine the maximum bank si
 185:./tmk_core/protocol/lufa/LUFA-git/LUFA/Drivers/USB/Core/AVR8/../AVR8/Endpoint_AVR8.h **** 			 *        \n\n
 186:./tmk_core/protocol/lufa/LUFA-git/LUFA/Drivers/USB/Core/AVR8/../AVR8/Endpoint_AVR8.h **** 			 *
 187:./tmk_core/protocol/lufa/LUFA-git/LUFA/Drivers/USB/Core/AVR8/../AVR8/Endpoint_AVR8.h **** 			 *  \note The default control endpoint should not be manually configured by the user application
 188:./tmk_core/protocol/lufa/LUFA-git/LUFA/Drivers/USB/Core/AVR8/../AVR8/Endpoint_AVR8.h **** 			 *        it is automatically configured by the library internally.
 189:./tmk_core/protocol/lufa/LUFA-git/LUFA/Drivers/USB/Core/AVR8/../AVR8/Endpoint_AVR8.h **** 			 *        \n\n
 190:./tmk_core/protocol/lufa/LUFA-git/LUFA/Drivers/USB/Core/AVR8/../AVR8/Endpoint_AVR8.h **** 			 *
 191:./tmk_core/protocol/lufa/LUFA-git/LUFA/Drivers/USB/Core/AVR8/../AVR8/Endpoint_AVR8.h **** 			 *  \note This routine will automatically select the specified endpoint upon success. Upon failu
 192:./tmk_core/protocol/lufa/LUFA-git/LUFA/Drivers/USB/Core/AVR8/../AVR8/Endpoint_AVR8.h **** 			 *        which failed to reconfigure correctly will be selected.
 193:./tmk_core/protocol/lufa/LUFA-git/LUFA/Drivers/USB/Core/AVR8/../AVR8/Endpoint_AVR8.h **** 			 *
 194:./tmk_core/protocol/lufa/LUFA-git/LUFA/Drivers/USB/Core/AVR8/../AVR8/Endpoint_AVR8.h **** 			 *  \return Boolean \c true if the configuration succeeded, \c false otherwise.
 195:./tmk_core/protocol/lufa/LUFA-git/LUFA/Drivers/USB/Core/AVR8/../AVR8/Endpoint_AVR8.h **** 			 */
 196:./tmk_core/protocol/lufa/LUFA-git/LUFA/Drivers/USB/Core/AVR8/../AVR8/Endpoint_AVR8.h **** 			static inline bool Endpoint_ConfigureEndpoint(const uint8_t Address,
 197:./tmk_core/protocol/lufa/LUFA-git/LUFA/Drivers/USB/Core/AVR8/../AVR8/Endpoint_AVR8.h **** 			                                              const uint8_t Type,
 198:./tmk_core/protocol/lufa/LUFA-git/LUFA/Drivers/USB/Core/AVR8/../AVR8/Endpoint_AVR8.h **** 			                                              const uint16_t Size,
 199:./tmk_core/protocol/lufa/LUFA-git/LUFA/Drivers/USB/Core/AVR8/../AVR8/Endpoint_AVR8.h **** 			                                              const uint8_t Banks) ATTR_ALWAYS_INLINE;
 200:./tmk_core/protocol/lufa/LUFA-git/LUFA/Drivers/USB/Core/AVR8/../AVR8/Endpoint_AVR8.h **** 			static inline bool Endpoint_ConfigureEndpoint(const uint8_t Address,
 201:./tmk_core/protocol/lufa/LUFA-git/LUFA/Drivers/USB/Core/AVR8/../AVR8/Endpoint_AVR8.h **** 			                                              const uint8_t Type,
 202:./tmk_core/protocol/lufa/LUFA-git/LUFA/Drivers/USB/Core/AVR8/../AVR8/Endpoint_AVR8.h **** 			                                              const uint16_t Size,
 203:./tmk_core/protocol/lufa/LUFA-git/LUFA/Drivers/USB/Core/AVR8/../AVR8/Endpoint_AVR8.h **** 			                                              const uint8_t Banks)
 204:./tmk_core/protocol/lufa/LUFA-git/LUFA/Drivers/USB/Core/AVR8/../AVR8/Endpoint_AVR8.h **** 			{
 205:./tmk_core/protocol/lufa/LUFA-git/LUFA/Drivers/USB/Core/AVR8/../AVR8/Endpoint_AVR8.h **** 				uint8_t Number = (Address & ENDPOINT_EPNUM_MASK);
 206:./tmk_core/protocol/lufa/LUFA-git/LUFA/Drivers/USB/Core/AVR8/../AVR8/Endpoint_AVR8.h **** 
 207:./tmk_core/protocol/lufa/LUFA-git/LUFA/Drivers/USB/Core/AVR8/../AVR8/Endpoint_AVR8.h **** 				if (Number >= ENDPOINT_TOTAL_ENDPOINTS)
 208:./tmk_core/protocol/lufa/LUFA-git/LUFA/Drivers/USB/Core/AVR8/../AVR8/Endpoint_AVR8.h **** 				  return false;
 209:./tmk_core/protocol/lufa/LUFA-git/LUFA/Drivers/USB/Core/AVR8/../AVR8/Endpoint_AVR8.h **** 
 210:./tmk_core/protocol/lufa/LUFA-git/LUFA/Drivers/USB/Core/AVR8/../AVR8/Endpoint_AVR8.h **** 				return Endpoint_ConfigureEndpoint_Prv(Number,
 211:./tmk_core/protocol/lufa/LUFA-git/LUFA/Drivers/USB/Core/AVR8/../AVR8/Endpoint_AVR8.h **** 				                                      ((Type << EPTYPE0) | ((Address & ENDPOINT_DIR_IN) ? (1 <<
 212:./tmk_core/protocol/lufa/LUFA-git/LUFA/Drivers/USB/Core/AVR8/../AVR8/Endpoint_AVR8.h **** 				                                      ((1 << ALLOC) | ((Banks > 1) ? (1 << EPBK0) : 0) | Endpoi
 213:./tmk_core/protocol/lufa/LUFA-git/LUFA/Drivers/USB/Core/AVR8/../AVR8/Endpoint_AVR8.h **** 			}
 214:./tmk_core/protocol/lufa/LUFA-git/LUFA/Drivers/USB/Core/AVR8/../AVR8/Endpoint_AVR8.h **** 
 215:./tmk_core/protocol/lufa/LUFA-git/LUFA/Drivers/USB/Core/AVR8/../AVR8/Endpoint_AVR8.h **** 			/** Indicates the number of bytes currently stored in the current endpoint's selected bank.
 216:./tmk_core/protocol/lufa/LUFA-git/LUFA/Drivers/USB/Core/AVR8/../AVR8/Endpoint_AVR8.h **** 			 *
 217:./tmk_core/protocol/lufa/LUFA-git/LUFA/Drivers/USB/Core/AVR8/../AVR8/Endpoint_AVR8.h **** 			 *  \ingroup Group_EndpointRW_AVR8
 218:./tmk_core/protocol/lufa/LUFA-git/LUFA/Drivers/USB/Core/AVR8/../AVR8/Endpoint_AVR8.h **** 			 *
 219:./tmk_core/protocol/lufa/LUFA-git/LUFA/Drivers/USB/Core/AVR8/../AVR8/Endpoint_AVR8.h **** 			 *  \return Total number of bytes in the currently selected Endpoint's FIFO buffer.
 220:./tmk_core/protocol/lufa/LUFA-git/LUFA/Drivers/USB/Core/AVR8/../AVR8/Endpoint_AVR8.h **** 			 */
 221:./tmk_core/protocol/lufa/LUFA-git/LUFA/Drivers/USB/Core/AVR8/../AVR8/Endpoint_AVR8.h **** 			static inline uint16_t Endpoint_BytesInEndpoint(void) ATTR_WARN_UNUSED_RESULT ATTR_ALWAYS_INLINE
 222:./tmk_core/protocol/lufa/LUFA-git/LUFA/Drivers/USB/Core/AVR8/../AVR8/Endpoint_AVR8.h **** 			static inline uint16_t Endpoint_BytesInEndpoint(void)
 223:./tmk_core/protocol/lufa/LUFA-git/LUFA/Drivers/USB/Core/AVR8/../AVR8/Endpoint_AVR8.h **** 			{
 224:./tmk_core/protocol/lufa/LUFA-git/LUFA/Drivers/USB/Core/AVR8/../AVR8/Endpoint_AVR8.h **** 				#if (defined(USB_SERIES_6_AVR) || defined(USB_SERIES_7_AVR))
 225:./tmk_core/protocol/lufa/LUFA-git/LUFA/Drivers/USB/Core/AVR8/../AVR8/Endpoint_AVR8.h **** 					return UEBCX;
 226:./tmk_core/protocol/lufa/LUFA-git/LUFA/Drivers/USB/Core/AVR8/../AVR8/Endpoint_AVR8.h **** 				#elif defined(USB_SERIES_4_AVR)
 227:./tmk_core/protocol/lufa/LUFA-git/LUFA/Drivers/USB/Core/AVR8/../AVR8/Endpoint_AVR8.h **** 					return (((uint16_t)UEBCHX << 8) | UEBCLX);
 228:./tmk_core/protocol/lufa/LUFA-git/LUFA/Drivers/USB/Core/AVR8/../AVR8/Endpoint_AVR8.h **** 				#elif defined(USB_SERIES_2_AVR)
 229:./tmk_core/protocol/lufa/LUFA-git/LUFA/Drivers/USB/Core/AVR8/../AVR8/Endpoint_AVR8.h **** 					return UEBCLX;
 230:./tmk_core/protocol/lufa/LUFA-git/LUFA/Drivers/USB/Core/AVR8/../AVR8/Endpoint_AVR8.h **** 				#endif
 231:./tmk_core/protocol/lufa/LUFA-git/LUFA/Drivers/USB/Core/AVR8/../AVR8/Endpoint_AVR8.h **** 			}
 232:./tmk_core/protocol/lufa/LUFA-git/LUFA/Drivers/USB/Core/AVR8/../AVR8/Endpoint_AVR8.h **** 
 233:./tmk_core/protocol/lufa/LUFA-git/LUFA/Drivers/USB/Core/AVR8/../AVR8/Endpoint_AVR8.h **** 			/** Determines the currently selected endpoint's direction.
 234:./tmk_core/protocol/lufa/LUFA-git/LUFA/Drivers/USB/Core/AVR8/../AVR8/Endpoint_AVR8.h **** 			 *
 235:./tmk_core/protocol/lufa/LUFA-git/LUFA/Drivers/USB/Core/AVR8/../AVR8/Endpoint_AVR8.h **** 			 *  \return The currently selected endpoint's direction, as a \c ENDPOINT_DIR_* mask.
 236:./tmk_core/protocol/lufa/LUFA-git/LUFA/Drivers/USB/Core/AVR8/../AVR8/Endpoint_AVR8.h **** 			 */
 237:./tmk_core/protocol/lufa/LUFA-git/LUFA/Drivers/USB/Core/AVR8/../AVR8/Endpoint_AVR8.h **** 			static inline uint8_t Endpoint_GetEndpointDirection(void) ATTR_WARN_UNUSED_RESULT ATTR_ALWAYS_IN
 238:./tmk_core/protocol/lufa/LUFA-git/LUFA/Drivers/USB/Core/AVR8/../AVR8/Endpoint_AVR8.h **** 			static inline uint8_t Endpoint_GetEndpointDirection(void)
 239:./tmk_core/protocol/lufa/LUFA-git/LUFA/Drivers/USB/Core/AVR8/../AVR8/Endpoint_AVR8.h **** 			{
 240:./tmk_core/protocol/lufa/LUFA-git/LUFA/Drivers/USB/Core/AVR8/../AVR8/Endpoint_AVR8.h **** 				return (UECFG0X & (1 << EPDIR)) ? ENDPOINT_DIR_IN : ENDPOINT_DIR_OUT;
 241:./tmk_core/protocol/lufa/LUFA-git/LUFA/Drivers/USB/Core/AVR8/../AVR8/Endpoint_AVR8.h **** 			}
 242:./tmk_core/protocol/lufa/LUFA-git/LUFA/Drivers/USB/Core/AVR8/../AVR8/Endpoint_AVR8.h **** 
 243:./tmk_core/protocol/lufa/LUFA-git/LUFA/Drivers/USB/Core/AVR8/../AVR8/Endpoint_AVR8.h **** 			/** Get the endpoint address of the currently selected endpoint. This is typically used to save
 244:./tmk_core/protocol/lufa/LUFA-git/LUFA/Drivers/USB/Core/AVR8/../AVR8/Endpoint_AVR8.h **** 			 *  the currently selected endpoint so that it can be restored after another endpoint has been
 245:./tmk_core/protocol/lufa/LUFA-git/LUFA/Drivers/USB/Core/AVR8/../AVR8/Endpoint_AVR8.h **** 			 *  manipulated.
 246:./tmk_core/protocol/lufa/LUFA-git/LUFA/Drivers/USB/Core/AVR8/../AVR8/Endpoint_AVR8.h **** 			 *
 247:./tmk_core/protocol/lufa/LUFA-git/LUFA/Drivers/USB/Core/AVR8/../AVR8/Endpoint_AVR8.h **** 			 *  \return Index of the currently selected endpoint.
 248:./tmk_core/protocol/lufa/LUFA-git/LUFA/Drivers/USB/Core/AVR8/../AVR8/Endpoint_AVR8.h **** 			 */
 249:./tmk_core/protocol/lufa/LUFA-git/LUFA/Drivers/USB/Core/AVR8/../AVR8/Endpoint_AVR8.h **** 			static inline uint8_t Endpoint_GetCurrentEndpoint(void) ATTR_WARN_UNUSED_RESULT ATTR_ALWAYS_INLI
 250:./tmk_core/protocol/lufa/LUFA-git/LUFA/Drivers/USB/Core/AVR8/../AVR8/Endpoint_AVR8.h **** 			static inline uint8_t Endpoint_GetCurrentEndpoint(void)
 251:./tmk_core/protocol/lufa/LUFA-git/LUFA/Drivers/USB/Core/AVR8/../AVR8/Endpoint_AVR8.h **** 			{
 252:./tmk_core/protocol/lufa/LUFA-git/LUFA/Drivers/USB/Core/AVR8/../AVR8/Endpoint_AVR8.h **** 				#if !defined(CONTROL_ONLY_DEVICE)
 253:./tmk_core/protocol/lufa/LUFA-git/LUFA/Drivers/USB/Core/AVR8/../AVR8/Endpoint_AVR8.h **** 					return ((UENUM & ENDPOINT_EPNUM_MASK) | Endpoint_GetEndpointDirection());
 254:./tmk_core/protocol/lufa/LUFA-git/LUFA/Drivers/USB/Core/AVR8/../AVR8/Endpoint_AVR8.h **** 				#else
 255:./tmk_core/protocol/lufa/LUFA-git/LUFA/Drivers/USB/Core/AVR8/../AVR8/Endpoint_AVR8.h **** 					return ENDPOINT_CONTROLEP;
 256:./tmk_core/protocol/lufa/LUFA-git/LUFA/Drivers/USB/Core/AVR8/../AVR8/Endpoint_AVR8.h **** 				#endif
 257:./tmk_core/protocol/lufa/LUFA-git/LUFA/Drivers/USB/Core/AVR8/../AVR8/Endpoint_AVR8.h **** 			}
 258:./tmk_core/protocol/lufa/LUFA-git/LUFA/Drivers/USB/Core/AVR8/../AVR8/Endpoint_AVR8.h **** 
 259:./tmk_core/protocol/lufa/LUFA-git/LUFA/Drivers/USB/Core/AVR8/../AVR8/Endpoint_AVR8.h **** 			/** Selects the given endpoint address.
 260:./tmk_core/protocol/lufa/LUFA-git/LUFA/Drivers/USB/Core/AVR8/../AVR8/Endpoint_AVR8.h **** 			 *
 261:./tmk_core/protocol/lufa/LUFA-git/LUFA/Drivers/USB/Core/AVR8/../AVR8/Endpoint_AVR8.h **** 			 *  Any endpoint operations which do not require the endpoint address to be indicated will opera
 262:./tmk_core/protocol/lufa/LUFA-git/LUFA/Drivers/USB/Core/AVR8/../AVR8/Endpoint_AVR8.h **** 			 *  the currently selected endpoint.
 263:./tmk_core/protocol/lufa/LUFA-git/LUFA/Drivers/USB/Core/AVR8/../AVR8/Endpoint_AVR8.h **** 			 *
 264:./tmk_core/protocol/lufa/LUFA-git/LUFA/Drivers/USB/Core/AVR8/../AVR8/Endpoint_AVR8.h **** 			 *  \param[in] Address Endpoint address to select.
 265:./tmk_core/protocol/lufa/LUFA-git/LUFA/Drivers/USB/Core/AVR8/../AVR8/Endpoint_AVR8.h **** 			 */
 266:./tmk_core/protocol/lufa/LUFA-git/LUFA/Drivers/USB/Core/AVR8/../AVR8/Endpoint_AVR8.h **** 			static inline void Endpoint_SelectEndpoint(const uint8_t Address) ATTR_ALWAYS_INLINE;
 267:./tmk_core/protocol/lufa/LUFA-git/LUFA/Drivers/USB/Core/AVR8/../AVR8/Endpoint_AVR8.h **** 			static inline void Endpoint_SelectEndpoint(const uint8_t Address)
 268:./tmk_core/protocol/lufa/LUFA-git/LUFA/Drivers/USB/Core/AVR8/../AVR8/Endpoint_AVR8.h **** 			{
 269:./tmk_core/protocol/lufa/LUFA-git/LUFA/Drivers/USB/Core/AVR8/../AVR8/Endpoint_AVR8.h **** 				#if !defined(CONTROL_ONLY_DEVICE)
 270:./tmk_core/protocol/lufa/LUFA-git/LUFA/Drivers/USB/Core/AVR8/../AVR8/Endpoint_AVR8.h **** 					UENUM = (Address & ENDPOINT_EPNUM_MASK);
  70               		.loc 2 270 0
  71 001e 9093 E900 		sts 233,r25
  72               	.LVL4:
  73 0022 8FEF      		ldi r24,lo8(-1)
  74               	.LVL5:
  75               	.L4:
  76               	.LBE114:
  77               	.LBE113:
  78               	.LBB115:
  79               	.LBB116:
 271:./tmk_core/protocol/lufa/LUFA-git/LUFA/Drivers/USB/Core/AVR8/../AVR8/Endpoint_AVR8.h **** 				#endif
 272:./tmk_core/protocol/lufa/LUFA-git/LUFA/Drivers/USB/Core/AVR8/../AVR8/Endpoint_AVR8.h **** 			}
 273:./tmk_core/protocol/lufa/LUFA-git/LUFA/Drivers/USB/Core/AVR8/../AVR8/Endpoint_AVR8.h **** 
 274:./tmk_core/protocol/lufa/LUFA-git/LUFA/Drivers/USB/Core/AVR8/../AVR8/Endpoint_AVR8.h **** 			/** Resets the endpoint bank FIFO. This clears all the endpoint banks and resets the USB control
 275:./tmk_core/protocol/lufa/LUFA-git/LUFA/Drivers/USB/Core/AVR8/../AVR8/Endpoint_AVR8.h **** 			 *  data In and Out pointers to the bank's contents.
 276:./tmk_core/protocol/lufa/LUFA-git/LUFA/Drivers/USB/Core/AVR8/../AVR8/Endpoint_AVR8.h **** 			 *
 277:./tmk_core/protocol/lufa/LUFA-git/LUFA/Drivers/USB/Core/AVR8/../AVR8/Endpoint_AVR8.h **** 			 *  \param[in] Address  Endpoint address whose FIFO buffers are to be reset.
 278:./tmk_core/protocol/lufa/LUFA-git/LUFA/Drivers/USB/Core/AVR8/../AVR8/Endpoint_AVR8.h **** 			 */
 279:./tmk_core/protocol/lufa/LUFA-git/LUFA/Drivers/USB/Core/AVR8/../AVR8/Endpoint_AVR8.h **** 			static inline void Endpoint_ResetEndpoint(const uint8_t Address) ATTR_ALWAYS_INLINE;
 280:./tmk_core/protocol/lufa/LUFA-git/LUFA/Drivers/USB/Core/AVR8/../AVR8/Endpoint_AVR8.h **** 			static inline void Endpoint_ResetEndpoint(const uint8_t Address)
 281:./tmk_core/protocol/lufa/LUFA-git/LUFA/Drivers/USB/Core/AVR8/../AVR8/Endpoint_AVR8.h **** 			{
 282:./tmk_core/protocol/lufa/LUFA-git/LUFA/Drivers/USB/Core/AVR8/../AVR8/Endpoint_AVR8.h **** 				UERST = (1 << (Address & ENDPOINT_EPNUM_MASK));
 283:./tmk_core/protocol/lufa/LUFA-git/LUFA/Drivers/USB/Core/AVR8/../AVR8/Endpoint_AVR8.h **** 				UERST = 0;
 284:./tmk_core/protocol/lufa/LUFA-git/LUFA/Drivers/USB/Core/AVR8/../AVR8/Endpoint_AVR8.h **** 			}
 285:./tmk_core/protocol/lufa/LUFA-git/LUFA/Drivers/USB/Core/AVR8/../AVR8/Endpoint_AVR8.h **** 
 286:./tmk_core/protocol/lufa/LUFA-git/LUFA/Drivers/USB/Core/AVR8/../AVR8/Endpoint_AVR8.h **** 			/** Enables the currently selected endpoint so that data can be sent and received through it to
 287:./tmk_core/protocol/lufa/LUFA-git/LUFA/Drivers/USB/Core/AVR8/../AVR8/Endpoint_AVR8.h **** 			 *  and from a host.
 288:./tmk_core/protocol/lufa/LUFA-git/LUFA/Drivers/USB/Core/AVR8/../AVR8/Endpoint_AVR8.h **** 			 *
 289:./tmk_core/protocol/lufa/LUFA-git/LUFA/Drivers/USB/Core/AVR8/../AVR8/Endpoint_AVR8.h **** 			 *  \note Endpoints must first be configured properly via \ref Endpoint_ConfigureEndpoint().
 290:./tmk_core/protocol/lufa/LUFA-git/LUFA/Drivers/USB/Core/AVR8/../AVR8/Endpoint_AVR8.h **** 			 */
 291:./tmk_core/protocol/lufa/LUFA-git/LUFA/Drivers/USB/Core/AVR8/../AVR8/Endpoint_AVR8.h **** 			static inline void Endpoint_EnableEndpoint(void) ATTR_ALWAYS_INLINE;
 292:./tmk_core/protocol/lufa/LUFA-git/LUFA/Drivers/USB/Core/AVR8/../AVR8/Endpoint_AVR8.h **** 			static inline void Endpoint_EnableEndpoint(void)
 293:./tmk_core/protocol/lufa/LUFA-git/LUFA/Drivers/USB/Core/AVR8/../AVR8/Endpoint_AVR8.h **** 			{
 294:./tmk_core/protocol/lufa/LUFA-git/LUFA/Drivers/USB/Core/AVR8/../AVR8/Endpoint_AVR8.h **** 				UECONX |= (1 << EPEN);
 295:./tmk_core/protocol/lufa/LUFA-git/LUFA/Drivers/USB/Core/AVR8/../AVR8/Endpoint_AVR8.h **** 			}
 296:./tmk_core/protocol/lufa/LUFA-git/LUFA/Drivers/USB/Core/AVR8/../AVR8/Endpoint_AVR8.h **** 
 297:./tmk_core/protocol/lufa/LUFA-git/LUFA/Drivers/USB/Core/AVR8/../AVR8/Endpoint_AVR8.h **** 			/** Disables the currently selected endpoint so that data cannot be sent and received through it
 298:./tmk_core/protocol/lufa/LUFA-git/LUFA/Drivers/USB/Core/AVR8/../AVR8/Endpoint_AVR8.h **** 			 *  to and from a host.
 299:./tmk_core/protocol/lufa/LUFA-git/LUFA/Drivers/USB/Core/AVR8/../AVR8/Endpoint_AVR8.h **** 			 */
 300:./tmk_core/protocol/lufa/LUFA-git/LUFA/Drivers/USB/Core/AVR8/../AVR8/Endpoint_AVR8.h **** 			static inline void Endpoint_DisableEndpoint(void) ATTR_ALWAYS_INLINE;
 301:./tmk_core/protocol/lufa/LUFA-git/LUFA/Drivers/USB/Core/AVR8/../AVR8/Endpoint_AVR8.h **** 			static inline void Endpoint_DisableEndpoint(void)
 302:./tmk_core/protocol/lufa/LUFA-git/LUFA/Drivers/USB/Core/AVR8/../AVR8/Endpoint_AVR8.h **** 			{
 303:./tmk_core/protocol/lufa/LUFA-git/LUFA/Drivers/USB/Core/AVR8/../AVR8/Endpoint_AVR8.h **** 				UECONX &= ~(1 << EPEN);
 304:./tmk_core/protocol/lufa/LUFA-git/LUFA/Drivers/USB/Core/AVR8/../AVR8/Endpoint_AVR8.h **** 			}
 305:./tmk_core/protocol/lufa/LUFA-git/LUFA/Drivers/USB/Core/AVR8/../AVR8/Endpoint_AVR8.h **** 
 306:./tmk_core/protocol/lufa/LUFA-git/LUFA/Drivers/USB/Core/AVR8/../AVR8/Endpoint_AVR8.h **** 			/** Determines if the currently selected endpoint is enabled, but not necessarily configured.
 307:./tmk_core/protocol/lufa/LUFA-git/LUFA/Drivers/USB/Core/AVR8/../AVR8/Endpoint_AVR8.h **** 			 *
 308:./tmk_core/protocol/lufa/LUFA-git/LUFA/Drivers/USB/Core/AVR8/../AVR8/Endpoint_AVR8.h **** 			 * \return Boolean \c true if the currently selected endpoint is enabled, \c false otherwise.
 309:./tmk_core/protocol/lufa/LUFA-git/LUFA/Drivers/USB/Core/AVR8/../AVR8/Endpoint_AVR8.h **** 			 */
 310:./tmk_core/protocol/lufa/LUFA-git/LUFA/Drivers/USB/Core/AVR8/../AVR8/Endpoint_AVR8.h **** 			static inline bool Endpoint_IsEnabled(void) ATTR_WARN_UNUSED_RESULT ATTR_ALWAYS_INLINE;
 311:./tmk_core/protocol/lufa/LUFA-git/LUFA/Drivers/USB/Core/AVR8/../AVR8/Endpoint_AVR8.h **** 			static inline bool Endpoint_IsEnabled(void)
 312:./tmk_core/protocol/lufa/LUFA-git/LUFA/Drivers/USB/Core/AVR8/../AVR8/Endpoint_AVR8.h **** 			{
 313:./tmk_core/protocol/lufa/LUFA-git/LUFA/Drivers/USB/Core/AVR8/../AVR8/Endpoint_AVR8.h **** 				return ((UECONX & (1 << EPEN)) ? true : false);
 314:./tmk_core/protocol/lufa/LUFA-git/LUFA/Drivers/USB/Core/AVR8/../AVR8/Endpoint_AVR8.h **** 			}
 315:./tmk_core/protocol/lufa/LUFA-git/LUFA/Drivers/USB/Core/AVR8/../AVR8/Endpoint_AVR8.h **** 
 316:./tmk_core/protocol/lufa/LUFA-git/LUFA/Drivers/USB/Core/AVR8/../AVR8/Endpoint_AVR8.h **** 			/** Retrieves the number of busy banks in the currently selected endpoint, which have been queue
 317:./tmk_core/protocol/lufa/LUFA-git/LUFA/Drivers/USB/Core/AVR8/../AVR8/Endpoint_AVR8.h **** 			 *  transmission via the \ref Endpoint_ClearIN() command, or are awaiting acknowledgment via the
 318:./tmk_core/protocol/lufa/LUFA-git/LUFA/Drivers/USB/Core/AVR8/../AVR8/Endpoint_AVR8.h **** 			 *  \ref Endpoint_ClearOUT() command.
 319:./tmk_core/protocol/lufa/LUFA-git/LUFA/Drivers/USB/Core/AVR8/../AVR8/Endpoint_AVR8.h **** 			 *
 320:./tmk_core/protocol/lufa/LUFA-git/LUFA/Drivers/USB/Core/AVR8/../AVR8/Endpoint_AVR8.h **** 			 *  \ingroup Group_EndpointPacketManagement_AVR8
 321:./tmk_core/protocol/lufa/LUFA-git/LUFA/Drivers/USB/Core/AVR8/../AVR8/Endpoint_AVR8.h **** 			 *
 322:./tmk_core/protocol/lufa/LUFA-git/LUFA/Drivers/USB/Core/AVR8/../AVR8/Endpoint_AVR8.h **** 			 *  \return Total number of busy banks in the selected endpoint.
 323:./tmk_core/protocol/lufa/LUFA-git/LUFA/Drivers/USB/Core/AVR8/../AVR8/Endpoint_AVR8.h **** 			 */
 324:./tmk_core/protocol/lufa/LUFA-git/LUFA/Drivers/USB/Core/AVR8/../AVR8/Endpoint_AVR8.h **** 			static inline uint8_t Endpoint_GetBusyBanks(void) ATTR_ALWAYS_INLINE ATTR_WARN_UNUSED_RESULT;
 325:./tmk_core/protocol/lufa/LUFA-git/LUFA/Drivers/USB/Core/AVR8/../AVR8/Endpoint_AVR8.h **** 			static inline uint8_t Endpoint_GetBusyBanks(void)
 326:./tmk_core/protocol/lufa/LUFA-git/LUFA/Drivers/USB/Core/AVR8/../AVR8/Endpoint_AVR8.h **** 			{
 327:./tmk_core/protocol/lufa/LUFA-git/LUFA/Drivers/USB/Core/AVR8/../AVR8/Endpoint_AVR8.h **** 				return (UESTA0X & (0x03 << NBUSYBK0));
 328:./tmk_core/protocol/lufa/LUFA-git/LUFA/Drivers/USB/Core/AVR8/../AVR8/Endpoint_AVR8.h **** 			}
 329:./tmk_core/protocol/lufa/LUFA-git/LUFA/Drivers/USB/Core/AVR8/../AVR8/Endpoint_AVR8.h **** 
 330:./tmk_core/protocol/lufa/LUFA-git/LUFA/Drivers/USB/Core/AVR8/../AVR8/Endpoint_AVR8.h **** 			/** Aborts all pending IN transactions on the currently selected endpoint, once the bank
 331:./tmk_core/protocol/lufa/LUFA-git/LUFA/Drivers/USB/Core/AVR8/../AVR8/Endpoint_AVR8.h **** 			 *  has been queued for transmission to the host via \ref Endpoint_ClearIN(). This function
 332:./tmk_core/protocol/lufa/LUFA-git/LUFA/Drivers/USB/Core/AVR8/../AVR8/Endpoint_AVR8.h **** 			 *  will terminate all queued transactions, resetting the endpoint banks ready for a new
 333:./tmk_core/protocol/lufa/LUFA-git/LUFA/Drivers/USB/Core/AVR8/../AVR8/Endpoint_AVR8.h **** 			 *  packet.
 334:./tmk_core/protocol/lufa/LUFA-git/LUFA/Drivers/USB/Core/AVR8/../AVR8/Endpoint_AVR8.h **** 			 *
 335:./tmk_core/protocol/lufa/LUFA-git/LUFA/Drivers/USB/Core/AVR8/../AVR8/Endpoint_AVR8.h **** 			 *  \ingroup Group_EndpointPacketManagement_AVR8
 336:./tmk_core/protocol/lufa/LUFA-git/LUFA/Drivers/USB/Core/AVR8/../AVR8/Endpoint_AVR8.h **** 			 */
 337:./tmk_core/protocol/lufa/LUFA-git/LUFA/Drivers/USB/Core/AVR8/../AVR8/Endpoint_AVR8.h **** 			static inline void Endpoint_AbortPendingIN(void)
 338:./tmk_core/protocol/lufa/LUFA-git/LUFA/Drivers/USB/Core/AVR8/../AVR8/Endpoint_AVR8.h **** 			{
 339:./tmk_core/protocol/lufa/LUFA-git/LUFA/Drivers/USB/Core/AVR8/../AVR8/Endpoint_AVR8.h **** 				while (Endpoint_GetBusyBanks() != 0)
 340:./tmk_core/protocol/lufa/LUFA-git/LUFA/Drivers/USB/Core/AVR8/../AVR8/Endpoint_AVR8.h **** 				{
 341:./tmk_core/protocol/lufa/LUFA-git/LUFA/Drivers/USB/Core/AVR8/../AVR8/Endpoint_AVR8.h **** 					UEINTX |= (1 << RXOUTI);
 342:./tmk_core/protocol/lufa/LUFA-git/LUFA/Drivers/USB/Core/AVR8/../AVR8/Endpoint_AVR8.h **** 					while (UEINTX & (1 << RXOUTI));
 343:./tmk_core/protocol/lufa/LUFA-git/LUFA/Drivers/USB/Core/AVR8/../AVR8/Endpoint_AVR8.h **** 				}
 344:./tmk_core/protocol/lufa/LUFA-git/LUFA/Drivers/USB/Core/AVR8/../AVR8/Endpoint_AVR8.h **** 			}
 345:./tmk_core/protocol/lufa/LUFA-git/LUFA/Drivers/USB/Core/AVR8/../AVR8/Endpoint_AVR8.h **** 
 346:./tmk_core/protocol/lufa/LUFA-git/LUFA/Drivers/USB/Core/AVR8/../AVR8/Endpoint_AVR8.h **** 			/** Determines if the currently selected endpoint may be read from (if data is waiting in the en
 347:./tmk_core/protocol/lufa/LUFA-git/LUFA/Drivers/USB/Core/AVR8/../AVR8/Endpoint_AVR8.h **** 			 *  bank and the endpoint is an OUT direction, or if the bank is not yet full if the endpoint is
 348:./tmk_core/protocol/lufa/LUFA-git/LUFA/Drivers/USB/Core/AVR8/../AVR8/Endpoint_AVR8.h **** 			 *  direction). This function will return false if an error has occurred in the endpoint, if the
 349:./tmk_core/protocol/lufa/LUFA-git/LUFA/Drivers/USB/Core/AVR8/../AVR8/Endpoint_AVR8.h **** 			 *  is an OUT direction and no packet (or an empty packet) has been received, or if the endpoint
 350:./tmk_core/protocol/lufa/LUFA-git/LUFA/Drivers/USB/Core/AVR8/../AVR8/Endpoint_AVR8.h **** 			 *  direction and the endpoint bank is full.
 351:./tmk_core/protocol/lufa/LUFA-git/LUFA/Drivers/USB/Core/AVR8/../AVR8/Endpoint_AVR8.h **** 			 *
 352:./tmk_core/protocol/lufa/LUFA-git/LUFA/Drivers/USB/Core/AVR8/../AVR8/Endpoint_AVR8.h **** 			 *  \ingroup Group_EndpointPacketManagement_AVR8
 353:./tmk_core/protocol/lufa/LUFA-git/LUFA/Drivers/USB/Core/AVR8/../AVR8/Endpoint_AVR8.h **** 			 *
 354:./tmk_core/protocol/lufa/LUFA-git/LUFA/Drivers/USB/Core/AVR8/../AVR8/Endpoint_AVR8.h **** 			 *  \return Boolean \c true if the currently selected endpoint may be read from or written to, d
 355:./tmk_core/protocol/lufa/LUFA-git/LUFA/Drivers/USB/Core/AVR8/../AVR8/Endpoint_AVR8.h **** 			 *          on its direction.
 356:./tmk_core/protocol/lufa/LUFA-git/LUFA/Drivers/USB/Core/AVR8/../AVR8/Endpoint_AVR8.h **** 			 */
 357:./tmk_core/protocol/lufa/LUFA-git/LUFA/Drivers/USB/Core/AVR8/../AVR8/Endpoint_AVR8.h **** 			static inline bool Endpoint_IsReadWriteAllowed(void) ATTR_WARN_UNUSED_RESULT ATTR_ALWAYS_INLINE;
 358:./tmk_core/protocol/lufa/LUFA-git/LUFA/Drivers/USB/Core/AVR8/../AVR8/Endpoint_AVR8.h **** 			static inline bool Endpoint_IsReadWriteAllowed(void)
 359:./tmk_core/protocol/lufa/LUFA-git/LUFA/Drivers/USB/Core/AVR8/../AVR8/Endpoint_AVR8.h **** 			{
 360:./tmk_core/protocol/lufa/LUFA-git/LUFA/Drivers/USB/Core/AVR8/../AVR8/Endpoint_AVR8.h **** 				return ((UEINTX & (1 << RWAL)) ? true : false);
  80               		.loc 2 360 0
  81 0024 9091 E800 		lds r25,232
  82 0028 8150      		subi r24,lo8(-(-1))
  83               	.LVL6:
  84               	.LBE116:
  85               	.LBE115:
 625:./tmk_core/protocol/lufa/lufa.c ****         .report_id = REPORT_ID_CONSUMER,
 626:./tmk_core/protocol/lufa/lufa.c ****         .usage = data
 627:./tmk_core/protocol/lufa/lufa.c ****     };
 628:./tmk_core/protocol/lufa/lufa.c ****     Endpoint_SelectEndpoint(EXTRAKEY_IN_EPNUM);
 629:./tmk_core/protocol/lufa/lufa.c **** 
 630:./tmk_core/protocol/lufa/lufa.c ****     /* Check if write ready for a polling interval around 10ms */
 631:./tmk_core/protocol/lufa/lufa.c ****     while (timeout-- && !Endpoint_IsReadWriteAllowed()) _delay_us(40);
  86               		.loc 1 631 0
  87 002a 95FD      		sbrc r25,5
  88 002c 00C0      		rjmp .L5
  89               	.LVL7:
  90               	.LBB117:
  91               	.LBB118:
  92               		.file 3 "/usr/lib/avr/include/util/delay.h"
   1:/usr/lib/avr/include/util/delay.h **** /* Copyright (c) 2002, Marek Michalkiewicz
   2:/usr/lib/avr/include/util/delay.h ****    Copyright (c) 2004,2005,2007 Joerg Wunsch
   3:/usr/lib/avr/include/util/delay.h ****    Copyright (c) 2007  Florin-Viorel Petrov
   4:/usr/lib/avr/include/util/delay.h ****    All rights reserved.
   5:/usr/lib/avr/include/util/delay.h **** 
   6:/usr/lib/avr/include/util/delay.h ****    Redistribution and use in source and binary forms, with or without
   7:/usr/lib/avr/include/util/delay.h ****    modification, are permitted provided that the following conditions are met:
   8:/usr/lib/avr/include/util/delay.h **** 
   9:/usr/lib/avr/include/util/delay.h ****    * Redistributions of source code must retain the above copyright
  10:/usr/lib/avr/include/util/delay.h ****      notice, this list of conditions and the following disclaimer.
  11:/usr/lib/avr/include/util/delay.h **** 
  12:/usr/lib/avr/include/util/delay.h ****    * Redistributions in binary form must reproduce the above copyright
  13:/usr/lib/avr/include/util/delay.h ****      notice, this list of conditions and the following disclaimer in
  14:/usr/lib/avr/include/util/delay.h ****      the documentation and/or other materials provided with the
  15:/usr/lib/avr/include/util/delay.h ****      distribution.
  16:/usr/lib/avr/include/util/delay.h **** 
  17:/usr/lib/avr/include/util/delay.h ****    * Neither the name of the copyright holders nor the names of
  18:/usr/lib/avr/include/util/delay.h ****      contributors may be used to endorse or promote products derived
  19:/usr/lib/avr/include/util/delay.h ****      from this software without specific prior written permission.
  20:/usr/lib/avr/include/util/delay.h **** 
  21:/usr/lib/avr/include/util/delay.h ****   THIS SOFTWARE IS PROVIDED BY THE COPYRIGHT HOLDERS AND CONTRIBUTORS "AS IS"
  22:/usr/lib/avr/include/util/delay.h ****   AND ANY EXPRESS OR IMPLIED WARRANTIES, INCLUDING, BUT NOT LIMITED TO, THE
  23:/usr/lib/avr/include/util/delay.h ****   IMPLIED WARRANTIES OF MERCHANTABILITY AND FITNESS FOR A PARTICULAR PURPOSE
  24:/usr/lib/avr/include/util/delay.h ****   ARE DISCLAIMED. IN NO EVENT SHALL THE COPYRIGHT OWNER OR CONTRIBUTORS BE
  25:/usr/lib/avr/include/util/delay.h ****   LIABLE FOR ANY DIRECT, INDIRECT, INCIDENTAL, SPECIAL, EXEMPLARY, OR
  26:/usr/lib/avr/include/util/delay.h ****   CONSEQUENTIAL DAMAGES (INCLUDING, BUT NOT LIMITED TO, PROCUREMENT OF
  27:/usr/lib/avr/include/util/delay.h ****   SUBSTITUTE GOODS OR SERVICES; LOSS OF USE, DATA, OR PROFITS; OR BUSINESS
  28:/usr/lib/avr/include/util/delay.h ****   INTERRUPTION) HOWEVER CAUSED AND ON ANY THEORY OF LIABILITY, WHETHER IN
  29:/usr/lib/avr/include/util/delay.h ****   CONTRACT, STRICT LIABILITY, OR TORT (INCLUDING NEGLIGENCE OR OTHERWISE)
  30:/usr/lib/avr/include/util/delay.h ****   ARISING IN ANY WAY OUT OF THE USE OF THIS SOFTWARE, EVEN IF ADVISED OF THE
  31:/usr/lib/avr/include/util/delay.h ****   POSSIBILITY OF SUCH DAMAGE. */
  32:/usr/lib/avr/include/util/delay.h **** 
  33:/usr/lib/avr/include/util/delay.h **** /* $Id$ */
  34:/usr/lib/avr/include/util/delay.h **** 
  35:/usr/lib/avr/include/util/delay.h **** #ifndef _UTIL_DELAY_H_
  36:/usr/lib/avr/include/util/delay.h **** #define _UTIL_DELAY_H_ 1
  37:/usr/lib/avr/include/util/delay.h **** 
  38:/usr/lib/avr/include/util/delay.h **** #ifndef __HAS_DELAY_CYCLES
  39:/usr/lib/avr/include/util/delay.h **** #define __HAS_DELAY_CYCLES 1
  40:/usr/lib/avr/include/util/delay.h **** #endif
  41:/usr/lib/avr/include/util/delay.h **** 
  42:/usr/lib/avr/include/util/delay.h **** #include <inttypes.h>
  43:/usr/lib/avr/include/util/delay.h **** #include <util/delay_basic.h>
  44:/usr/lib/avr/include/util/delay.h **** #include <math.h>
  45:/usr/lib/avr/include/util/delay.h **** 
  46:/usr/lib/avr/include/util/delay.h **** /** \file */
  47:/usr/lib/avr/include/util/delay.h **** /** \defgroup util_delay <util/delay.h>: Convenience functions for busy-wait delay loops
  48:/usr/lib/avr/include/util/delay.h ****     \code
  49:/usr/lib/avr/include/util/delay.h ****     #define F_CPU 1000000UL  // 1 MHz
  50:/usr/lib/avr/include/util/delay.h ****     //#define F_CPU 14.7456E6
  51:/usr/lib/avr/include/util/delay.h ****     #include <util/delay.h>
  52:/usr/lib/avr/include/util/delay.h ****     \endcode
  53:/usr/lib/avr/include/util/delay.h **** 
  54:/usr/lib/avr/include/util/delay.h ****     \note As an alternative method, it is possible to pass the
  55:/usr/lib/avr/include/util/delay.h ****     F_CPU macro down to the compiler from the Makefile.
  56:/usr/lib/avr/include/util/delay.h ****     Obviously, in that case, no \c \#define statement should be
  57:/usr/lib/avr/include/util/delay.h ****     used.
  58:/usr/lib/avr/include/util/delay.h **** 
  59:/usr/lib/avr/include/util/delay.h ****     The functions in this header file are wrappers around the basic
  60:/usr/lib/avr/include/util/delay.h ****     busy-wait functions from <util/delay_basic.h>.  They are meant as
  61:/usr/lib/avr/include/util/delay.h ****     convenience functions where actual time values can be specified
  62:/usr/lib/avr/include/util/delay.h ****     rather than a number of cycles to wait for.  The idea behind is
  63:/usr/lib/avr/include/util/delay.h ****     that compile-time constant expressions will be eliminated by
  64:/usr/lib/avr/include/util/delay.h ****     compiler optimization so floating-point expressions can be used
  65:/usr/lib/avr/include/util/delay.h ****     to calculate the number of delay cycles needed based on the CPU
  66:/usr/lib/avr/include/util/delay.h ****     frequency passed by the macro F_CPU.
  67:/usr/lib/avr/include/util/delay.h **** 
  68:/usr/lib/avr/include/util/delay.h ****     \note In order for these functions to work as intended, compiler
  69:/usr/lib/avr/include/util/delay.h ****     optimizations <em>must</em> be enabled, and the delay time
  70:/usr/lib/avr/include/util/delay.h ****     <em>must</em> be an expression that is a known constant at
  71:/usr/lib/avr/include/util/delay.h ****     compile-time.  If these requirements are not met, the resulting
  72:/usr/lib/avr/include/util/delay.h ****     delay will be much longer (and basically unpredictable), and
  73:/usr/lib/avr/include/util/delay.h ****     applications that otherwise do not use floating-point calculations
  74:/usr/lib/avr/include/util/delay.h ****     will experience severe code bloat by the floating-point library
  75:/usr/lib/avr/include/util/delay.h ****     routines linked into the application.
  76:/usr/lib/avr/include/util/delay.h **** 
  77:/usr/lib/avr/include/util/delay.h ****     The functions available allow the specification of microsecond, and
  78:/usr/lib/avr/include/util/delay.h ****     millisecond delays directly, using the application-supplied macro
  79:/usr/lib/avr/include/util/delay.h ****     F_CPU as the CPU clock frequency (in Hertz).
  80:/usr/lib/avr/include/util/delay.h **** 
  81:/usr/lib/avr/include/util/delay.h **** */
  82:/usr/lib/avr/include/util/delay.h **** 
  83:/usr/lib/avr/include/util/delay.h **** #if !defined(__DOXYGEN__)
  84:/usr/lib/avr/include/util/delay.h **** static inline void _delay_us(double __us) __attribute__((always_inline));
  85:/usr/lib/avr/include/util/delay.h **** static inline void _delay_ms(double __ms) __attribute__((always_inline));
  86:/usr/lib/avr/include/util/delay.h **** #endif
  87:/usr/lib/avr/include/util/delay.h **** 
  88:/usr/lib/avr/include/util/delay.h **** #ifndef F_CPU
  89:/usr/lib/avr/include/util/delay.h **** /* prevent compiler error by supplying a default */
  90:/usr/lib/avr/include/util/delay.h **** # warning "F_CPU not defined for <util/delay.h>"
  91:/usr/lib/avr/include/util/delay.h **** # define F_CPU 1000000UL
  92:/usr/lib/avr/include/util/delay.h **** #endif
  93:/usr/lib/avr/include/util/delay.h **** 
  94:/usr/lib/avr/include/util/delay.h **** #ifndef __OPTIMIZE__
  95:/usr/lib/avr/include/util/delay.h **** # warning "Compiler optimizations disabled; functions from <util/delay.h> won't work as designed"
  96:/usr/lib/avr/include/util/delay.h **** #endif
  97:/usr/lib/avr/include/util/delay.h **** 
  98:/usr/lib/avr/include/util/delay.h **** #if __HAS_DELAY_CYCLES && defined(__OPTIMIZE__) && \
  99:/usr/lib/avr/include/util/delay.h ****   !defined(__DELAY_BACKWARD_COMPATIBLE__) &&	   \
 100:/usr/lib/avr/include/util/delay.h ****   __STDC_HOSTED__
 101:/usr/lib/avr/include/util/delay.h **** #  include <math.h>
 102:/usr/lib/avr/include/util/delay.h **** #endif
 103:/usr/lib/avr/include/util/delay.h **** 
 104:/usr/lib/avr/include/util/delay.h **** /**
 105:/usr/lib/avr/include/util/delay.h ****    \ingroup util_delay
 106:/usr/lib/avr/include/util/delay.h **** 
 107:/usr/lib/avr/include/util/delay.h ****    Perform a delay of \c __ms milliseconds, using _delay_loop_2().
 108:/usr/lib/avr/include/util/delay.h **** 
 109:/usr/lib/avr/include/util/delay.h ****    The macro F_CPU is supposed to be defined to a
 110:/usr/lib/avr/include/util/delay.h ****    constant defining the CPU clock frequency (in Hertz).
 111:/usr/lib/avr/include/util/delay.h **** 
 112:/usr/lib/avr/include/util/delay.h ****    The maximal possible delay is 262.14 ms / F_CPU in MHz.
 113:/usr/lib/avr/include/util/delay.h **** 
 114:/usr/lib/avr/include/util/delay.h ****    When the user request delay which exceed the maximum possible one,
 115:/usr/lib/avr/include/util/delay.h ****    _delay_ms() provides a decreased resolution functionality. In this
 116:/usr/lib/avr/include/util/delay.h ****    mode _delay_ms() will work with a resolution of 1/10 ms, providing
 117:/usr/lib/avr/include/util/delay.h ****    delays up to 6.5535 seconds (independent from CPU frequency).  The
 118:/usr/lib/avr/include/util/delay.h ****    user will not be informed about decreased resolution.
 119:/usr/lib/avr/include/util/delay.h **** 
 120:/usr/lib/avr/include/util/delay.h ****    If the avr-gcc toolchain has __builtin_avr_delay_cycles(unsigned long)
 121:/usr/lib/avr/include/util/delay.h ****    support, maximal possible delay is 4294967.295 ms/ F_CPU in MHz. For
 122:/usr/lib/avr/include/util/delay.h ****    values greater than the maximal possible delay, overflows results in
 123:/usr/lib/avr/include/util/delay.h ****    no delay i.e., 0ms.
 124:/usr/lib/avr/include/util/delay.h **** 
 125:/usr/lib/avr/include/util/delay.h ****    Conversion of __us into clock cycles may not always result in integer.
 126:/usr/lib/avr/include/util/delay.h ****    By default, the clock cycles rounded up to next integer. This ensures that
 127:/usr/lib/avr/include/util/delay.h ****    the user gets atleast __us microseconds of delay.
 128:/usr/lib/avr/include/util/delay.h **** 
 129:/usr/lib/avr/include/util/delay.h ****    Alternatively, user can define __DELAY_ROUND_DOWN__ and __DELAY_ROUND_CLOSEST__
 130:/usr/lib/avr/include/util/delay.h ****    to round down and round to closest integer.
 131:/usr/lib/avr/include/util/delay.h **** 
 132:/usr/lib/avr/include/util/delay.h ****    Note: The new implementation of _delay_ms(double __ms) with 
 133:/usr/lib/avr/include/util/delay.h ****     __builtin_avr_delay_cycles(unsigned long) support is not backward compatible. 
 134:/usr/lib/avr/include/util/delay.h ****    User can define __DELAY_BACKWARD_COMPATIBLE__ to get a backward compatible delay.
 135:/usr/lib/avr/include/util/delay.h ****    Also, the backward compatible
 136:/usr/lib/avr/include/util/delay.h ****    algorithm will be chosen if the code is compiled in a <em>freestanding
 137:/usr/lib/avr/include/util/delay.h ****    environment</em> (GCC option \c -ffreestanding), as the math functions
 138:/usr/lib/avr/include/util/delay.h ****    required for rounding are not available to the compiler then.
 139:/usr/lib/avr/include/util/delay.h **** 
 140:/usr/lib/avr/include/util/delay.h ****  */
 141:/usr/lib/avr/include/util/delay.h **** void
 142:/usr/lib/avr/include/util/delay.h **** _delay_ms(double __ms)
 143:/usr/lib/avr/include/util/delay.h **** {
 144:/usr/lib/avr/include/util/delay.h **** 	double __tmp ; 
 145:/usr/lib/avr/include/util/delay.h **** #if __HAS_DELAY_CYCLES && defined(__OPTIMIZE__) && \
 146:/usr/lib/avr/include/util/delay.h ****   !defined(__DELAY_BACKWARD_COMPATIBLE__) &&	   \
 147:/usr/lib/avr/include/util/delay.h ****   __STDC_HOSTED__
 148:/usr/lib/avr/include/util/delay.h **** 	uint32_t __ticks_dc;
 149:/usr/lib/avr/include/util/delay.h **** 	extern void __builtin_avr_delay_cycles(unsigned long);
 150:/usr/lib/avr/include/util/delay.h **** 	__tmp = ((F_CPU) / 1e3) * __ms;
 151:/usr/lib/avr/include/util/delay.h **** 
 152:/usr/lib/avr/include/util/delay.h **** 	#if defined(__DELAY_ROUND_DOWN__)
 153:/usr/lib/avr/include/util/delay.h **** 		__ticks_dc = (uint32_t)fabs(__tmp);
 154:/usr/lib/avr/include/util/delay.h **** 
 155:/usr/lib/avr/include/util/delay.h **** 	#elif defined(__DELAY_ROUND_CLOSEST__)
 156:/usr/lib/avr/include/util/delay.h **** 		__ticks_dc = (uint32_t)(fabs(__tmp)+0.5);
 157:/usr/lib/avr/include/util/delay.h **** 
 158:/usr/lib/avr/include/util/delay.h **** 	#else
 159:/usr/lib/avr/include/util/delay.h **** 		//round up by default
 160:/usr/lib/avr/include/util/delay.h **** 		__ticks_dc = (uint32_t)(ceil(fabs(__tmp)));
 161:/usr/lib/avr/include/util/delay.h **** 	#endif
 162:/usr/lib/avr/include/util/delay.h **** 
 163:/usr/lib/avr/include/util/delay.h **** 	__builtin_avr_delay_cycles(__ticks_dc);
 164:/usr/lib/avr/include/util/delay.h **** 
 165:/usr/lib/avr/include/util/delay.h **** #else
 166:/usr/lib/avr/include/util/delay.h **** 	uint16_t __ticks;
 167:/usr/lib/avr/include/util/delay.h **** 	__tmp = ((F_CPU) / 4e3) * __ms;
 168:/usr/lib/avr/include/util/delay.h **** 	if (__tmp < 1.0)
 169:/usr/lib/avr/include/util/delay.h **** 		__ticks = 1;
 170:/usr/lib/avr/include/util/delay.h **** 	else if (__tmp > 65535)
 171:/usr/lib/avr/include/util/delay.h **** 	{
 172:/usr/lib/avr/include/util/delay.h **** 		//	__ticks = requested delay in 1/10 ms
 173:/usr/lib/avr/include/util/delay.h **** 		__ticks = (uint16_t) (__ms * 10.0);
 174:/usr/lib/avr/include/util/delay.h **** 		while(__ticks)
 175:/usr/lib/avr/include/util/delay.h **** 		{
 176:/usr/lib/avr/include/util/delay.h **** 			// wait 1/10 ms
 177:/usr/lib/avr/include/util/delay.h **** 			_delay_loop_2(((F_CPU) / 4e3) / 10);
 178:/usr/lib/avr/include/util/delay.h **** 			__ticks --;
 179:/usr/lib/avr/include/util/delay.h **** 		}
 180:/usr/lib/avr/include/util/delay.h **** 		return;
 181:/usr/lib/avr/include/util/delay.h **** 	}
 182:/usr/lib/avr/include/util/delay.h **** 	else
 183:/usr/lib/avr/include/util/delay.h **** 		__ticks = (uint16_t)__tmp;
 184:/usr/lib/avr/include/util/delay.h **** 	_delay_loop_2(__ticks);
 185:/usr/lib/avr/include/util/delay.h **** #endif
 186:/usr/lib/avr/include/util/delay.h **** }
 187:/usr/lib/avr/include/util/delay.h **** 
 188:/usr/lib/avr/include/util/delay.h **** /**
 189:/usr/lib/avr/include/util/delay.h ****    \ingroup util_delay
 190:/usr/lib/avr/include/util/delay.h **** 
 191:/usr/lib/avr/include/util/delay.h ****    Perform a delay of \c __us microseconds, using _delay_loop_1().
 192:/usr/lib/avr/include/util/delay.h **** 
 193:/usr/lib/avr/include/util/delay.h ****    The macro F_CPU is supposed to be defined to a
 194:/usr/lib/avr/include/util/delay.h ****    constant defining the CPU clock frequency (in Hertz).
 195:/usr/lib/avr/include/util/delay.h **** 
 196:/usr/lib/avr/include/util/delay.h ****    The maximal possible delay is 768 us / F_CPU in MHz.
 197:/usr/lib/avr/include/util/delay.h **** 
 198:/usr/lib/avr/include/util/delay.h ****    If the user requests a delay greater than the maximal possible one,
 199:/usr/lib/avr/include/util/delay.h ****    _delay_us() will automatically call _delay_ms() instead.  The user
 200:/usr/lib/avr/include/util/delay.h ****    will not be informed about this case.
 201:/usr/lib/avr/include/util/delay.h **** 
 202:/usr/lib/avr/include/util/delay.h ****    If the avr-gcc toolchain has __builtin_avr_delay_cycles(unsigned long)
 203:/usr/lib/avr/include/util/delay.h ****    support, maximal possible delay is 4294967.295 us/ F_CPU in MHz. For
 204:/usr/lib/avr/include/util/delay.h ****    values greater than the maximal possible delay, overflow results in
 205:/usr/lib/avr/include/util/delay.h ****    no delay i.e., 0us.
 206:/usr/lib/avr/include/util/delay.h ****   
 207:/usr/lib/avr/include/util/delay.h ****    Conversion of __us into clock cycles may not always result in integer.
 208:/usr/lib/avr/include/util/delay.h ****    By default, the clock cycles rounded up to next integer. This ensures that
 209:/usr/lib/avr/include/util/delay.h ****    the user gets atleast __us microseconds of delay.
 210:/usr/lib/avr/include/util/delay.h **** 
 211:/usr/lib/avr/include/util/delay.h ****    Alternatively, user can define __DELAY_ROUND_DOWN__ and __DELAY_ROUND_CLOSEST__
 212:/usr/lib/avr/include/util/delay.h ****    to round down and round to closest integer.
 213:/usr/lib/avr/include/util/delay.h ****  
 214:/usr/lib/avr/include/util/delay.h ****    Note: The new implementation of _delay_us(double __us) with 
 215:/usr/lib/avr/include/util/delay.h ****     __builtin_avr_delay_cycles(unsigned long) support is not backward compatible.
 216:/usr/lib/avr/include/util/delay.h ****    User can define __DELAY_BACKWARD_COMPATIBLE__ to get a backward compatible delay.
 217:/usr/lib/avr/include/util/delay.h ****    Also, the backward compatible
 218:/usr/lib/avr/include/util/delay.h ****    algorithm will be chosen if the code is compiled in a <em>freestanding
 219:/usr/lib/avr/include/util/delay.h ****    environment</em> (GCC option \c -ffreestanding), as the math functions
 220:/usr/lib/avr/include/util/delay.h ****    required for rounding are not available to the compiler then.
 221:/usr/lib/avr/include/util/delay.h **** 
 222:/usr/lib/avr/include/util/delay.h ****  */
 223:/usr/lib/avr/include/util/delay.h **** void
 224:/usr/lib/avr/include/util/delay.h **** _delay_us(double __us)
 225:/usr/lib/avr/include/util/delay.h **** {
 226:/usr/lib/avr/include/util/delay.h **** 	double __tmp ; 
 227:/usr/lib/avr/include/util/delay.h **** #if __HAS_DELAY_CYCLES && defined(__OPTIMIZE__) && \
 228:/usr/lib/avr/include/util/delay.h ****   !defined(__DELAY_BACKWARD_COMPATIBLE__) &&	   \
 229:/usr/lib/avr/include/util/delay.h ****   __STDC_HOSTED__
 230:/usr/lib/avr/include/util/delay.h **** 	uint32_t __ticks_dc;
 231:/usr/lib/avr/include/util/delay.h **** 	extern void __builtin_avr_delay_cycles(unsigned long);
 232:/usr/lib/avr/include/util/delay.h **** 	__tmp = ((F_CPU) / 1e6) * __us;
 233:/usr/lib/avr/include/util/delay.h **** 
 234:/usr/lib/avr/include/util/delay.h **** 	#if defined(__DELAY_ROUND_DOWN__)
 235:/usr/lib/avr/include/util/delay.h **** 		__ticks_dc = (uint32_t)fabs(__tmp);
 236:/usr/lib/avr/include/util/delay.h **** 
 237:/usr/lib/avr/include/util/delay.h **** 	#elif defined(__DELAY_ROUND_CLOSEST__)
 238:/usr/lib/avr/include/util/delay.h **** 		__ticks_dc = (uint32_t)(fabs(__tmp)+0.5);
 239:/usr/lib/avr/include/util/delay.h **** 
 240:/usr/lib/avr/include/util/delay.h **** 	#else
 241:/usr/lib/avr/include/util/delay.h **** 		//round up by default
 242:/usr/lib/avr/include/util/delay.h **** 		__ticks_dc = (uint32_t)(ceil(fabs(__tmp)));
 243:/usr/lib/avr/include/util/delay.h **** 	#endif
 244:/usr/lib/avr/include/util/delay.h **** 
 245:/usr/lib/avr/include/util/delay.h **** 	__builtin_avr_delay_cycles(__ticks_dc);
  93               		.loc 3 245 0
  94 002e 95ED      		ldi r25,lo8(-43)
  95 0030 9A95      	1:	dec r25
  96 0032 01F4      		brne 1b
  97 0034 0000      		nop
  98               	.LVL8:
  99               	.LBE118:
 100               	.LBE117:
 101               		.loc 1 631 0
 102 0036 8111      		cpse r24,__zero_reg__
 103 0038 00C0      		rjmp .L4
 104               	.LVL9:
 105               	.L5:
 106               	.LBB119:
 107               	.LBB120:
 108               		.loc 2 360 0
 109 003a 8091 E800 		lds r24,232
 110               	.LBE120:
 111               	.LBE119:
 632:./tmk_core/protocol/lufa/lufa.c ****     if (!Endpoint_IsReadWriteAllowed()) return;
 112               		.loc 1 632 0
 113 003e 85FF      		sbrs r24,5
 114 0040 00C0      		rjmp .L2
 633:./tmk_core/protocol/lufa/lufa.c **** 
 634:./tmk_core/protocol/lufa/lufa.c ****     Endpoint_Write_Stream_LE(&r, sizeof(report_extra_t), NULL);
 115               		.loc 1 634 0
 116 0042 40E0      		ldi r20,0
 117 0044 50E0      		ldi r21,0
 118 0046 63E0      		ldi r22,lo8(3)
 119 0048 70E0      		ldi r23,0
 120 004a CE01      		movw r24,r28
 121 004c 0196      		adiw r24,1
 122 004e 0E94 0000 		call Endpoint_Write_Stream_LE
 123               	.LVL10:
 124               	.LBB121:
 125               	.LBB122:
 361:./tmk_core/protocol/lufa/LUFA-git/LUFA/Drivers/USB/Core/AVR8/../AVR8/Endpoint_AVR8.h **** 			}
 362:./tmk_core/protocol/lufa/LUFA-git/LUFA/Drivers/USB/Core/AVR8/../AVR8/Endpoint_AVR8.h **** 
 363:./tmk_core/protocol/lufa/LUFA-git/LUFA/Drivers/USB/Core/AVR8/../AVR8/Endpoint_AVR8.h **** 			/** Determines if the currently selected endpoint is configured.
 364:./tmk_core/protocol/lufa/LUFA-git/LUFA/Drivers/USB/Core/AVR8/../AVR8/Endpoint_AVR8.h **** 			 *
 365:./tmk_core/protocol/lufa/LUFA-git/LUFA/Drivers/USB/Core/AVR8/../AVR8/Endpoint_AVR8.h **** 			 *  \return Boolean \c true if the currently selected endpoint has been configured, \c false oth
 366:./tmk_core/protocol/lufa/LUFA-git/LUFA/Drivers/USB/Core/AVR8/../AVR8/Endpoint_AVR8.h **** 			 */
 367:./tmk_core/protocol/lufa/LUFA-git/LUFA/Drivers/USB/Core/AVR8/../AVR8/Endpoint_AVR8.h **** 			static inline bool Endpoint_IsConfigured(void) ATTR_WARN_UNUSED_RESULT ATTR_ALWAYS_INLINE;
 368:./tmk_core/protocol/lufa/LUFA-git/LUFA/Drivers/USB/Core/AVR8/../AVR8/Endpoint_AVR8.h **** 			static inline bool Endpoint_IsConfigured(void)
 369:./tmk_core/protocol/lufa/LUFA-git/LUFA/Drivers/USB/Core/AVR8/../AVR8/Endpoint_AVR8.h **** 			{
 370:./tmk_core/protocol/lufa/LUFA-git/LUFA/Drivers/USB/Core/AVR8/../AVR8/Endpoint_AVR8.h **** 				return ((UESTA0X & (1 << CFGOK)) ? true : false);
 371:./tmk_core/protocol/lufa/LUFA-git/LUFA/Drivers/USB/Core/AVR8/../AVR8/Endpoint_AVR8.h **** 			}
 372:./tmk_core/protocol/lufa/LUFA-git/LUFA/Drivers/USB/Core/AVR8/../AVR8/Endpoint_AVR8.h **** 
 373:./tmk_core/protocol/lufa/LUFA-git/LUFA/Drivers/USB/Core/AVR8/../AVR8/Endpoint_AVR8.h **** 			/** Returns a mask indicating which INTERRUPT type endpoints have interrupted - i.e. their
 374:./tmk_core/protocol/lufa/LUFA-git/LUFA/Drivers/USB/Core/AVR8/../AVR8/Endpoint_AVR8.h **** 			 *  interrupt duration has elapsed. Which endpoints have interrupted can be determined by
 375:./tmk_core/protocol/lufa/LUFA-git/LUFA/Drivers/USB/Core/AVR8/../AVR8/Endpoint_AVR8.h **** 			 *  masking the return value against <tt>(1 << <i>{Endpoint Number}</i>)</tt>.
 376:./tmk_core/protocol/lufa/LUFA-git/LUFA/Drivers/USB/Core/AVR8/../AVR8/Endpoint_AVR8.h **** 			 *
 377:./tmk_core/protocol/lufa/LUFA-git/LUFA/Drivers/USB/Core/AVR8/../AVR8/Endpoint_AVR8.h **** 			 *  \return Mask whose bits indicate which endpoints have interrupted.
 378:./tmk_core/protocol/lufa/LUFA-git/LUFA/Drivers/USB/Core/AVR8/../AVR8/Endpoint_AVR8.h **** 			 */
 379:./tmk_core/protocol/lufa/LUFA-git/LUFA/Drivers/USB/Core/AVR8/../AVR8/Endpoint_AVR8.h **** 			static inline uint8_t Endpoint_GetEndpointInterrupts(void) ATTR_WARN_UNUSED_RESULT ATTR_ALWAYS_I
 380:./tmk_core/protocol/lufa/LUFA-git/LUFA/Drivers/USB/Core/AVR8/../AVR8/Endpoint_AVR8.h **** 			static inline uint8_t Endpoint_GetEndpointInterrupts(void)
 381:./tmk_core/protocol/lufa/LUFA-git/LUFA/Drivers/USB/Core/AVR8/../AVR8/Endpoint_AVR8.h **** 			{
 382:./tmk_core/protocol/lufa/LUFA-git/LUFA/Drivers/USB/Core/AVR8/../AVR8/Endpoint_AVR8.h **** 				return UEINT;
 383:./tmk_core/protocol/lufa/LUFA-git/LUFA/Drivers/USB/Core/AVR8/../AVR8/Endpoint_AVR8.h **** 			}
 384:./tmk_core/protocol/lufa/LUFA-git/LUFA/Drivers/USB/Core/AVR8/../AVR8/Endpoint_AVR8.h **** 
 385:./tmk_core/protocol/lufa/LUFA-git/LUFA/Drivers/USB/Core/AVR8/../AVR8/Endpoint_AVR8.h **** 			/** Determines if the specified endpoint number has interrupted (valid only for INTERRUPT type
 386:./tmk_core/protocol/lufa/LUFA-git/LUFA/Drivers/USB/Core/AVR8/../AVR8/Endpoint_AVR8.h **** 			 *  endpoints).
 387:./tmk_core/protocol/lufa/LUFA-git/LUFA/Drivers/USB/Core/AVR8/../AVR8/Endpoint_AVR8.h **** 			 *
 388:./tmk_core/protocol/lufa/LUFA-git/LUFA/Drivers/USB/Core/AVR8/../AVR8/Endpoint_AVR8.h **** 			 *  \param[in] Address  Address of the endpoint whose interrupt flag should be tested.
 389:./tmk_core/protocol/lufa/LUFA-git/LUFA/Drivers/USB/Core/AVR8/../AVR8/Endpoint_AVR8.h **** 			 *
 390:./tmk_core/protocol/lufa/LUFA-git/LUFA/Drivers/USB/Core/AVR8/../AVR8/Endpoint_AVR8.h **** 			 *  \return Boolean \c true if the specified endpoint has interrupted, \c false otherwise.
 391:./tmk_core/protocol/lufa/LUFA-git/LUFA/Drivers/USB/Core/AVR8/../AVR8/Endpoint_AVR8.h **** 			 */
 392:./tmk_core/protocol/lufa/LUFA-git/LUFA/Drivers/USB/Core/AVR8/../AVR8/Endpoint_AVR8.h **** 			static inline bool Endpoint_HasEndpointInterrupted(const uint8_t Address) ATTR_WARN_UNUSED_RESUL
 393:./tmk_core/protocol/lufa/LUFA-git/LUFA/Drivers/USB/Core/AVR8/../AVR8/Endpoint_AVR8.h **** 			static inline bool Endpoint_HasEndpointInterrupted(const uint8_t Address)
 394:./tmk_core/protocol/lufa/LUFA-git/LUFA/Drivers/USB/Core/AVR8/../AVR8/Endpoint_AVR8.h **** 			{
 395:./tmk_core/protocol/lufa/LUFA-git/LUFA/Drivers/USB/Core/AVR8/../AVR8/Endpoint_AVR8.h **** 				return ((Endpoint_GetEndpointInterrupts() & (1 << (Address & ENDPOINT_EPNUM_MASK))) ? true : fa
 396:./tmk_core/protocol/lufa/LUFA-git/LUFA/Drivers/USB/Core/AVR8/../AVR8/Endpoint_AVR8.h **** 			}
 397:./tmk_core/protocol/lufa/LUFA-git/LUFA/Drivers/USB/Core/AVR8/../AVR8/Endpoint_AVR8.h **** 
 398:./tmk_core/protocol/lufa/LUFA-git/LUFA/Drivers/USB/Core/AVR8/../AVR8/Endpoint_AVR8.h **** 			/** Determines if the selected IN endpoint is ready for a new packet to be sent to the host.
 399:./tmk_core/protocol/lufa/LUFA-git/LUFA/Drivers/USB/Core/AVR8/../AVR8/Endpoint_AVR8.h **** 			 *
 400:./tmk_core/protocol/lufa/LUFA-git/LUFA/Drivers/USB/Core/AVR8/../AVR8/Endpoint_AVR8.h **** 			 *  \ingroup Group_EndpointPacketManagement_AVR8
 401:./tmk_core/protocol/lufa/LUFA-git/LUFA/Drivers/USB/Core/AVR8/../AVR8/Endpoint_AVR8.h **** 			 *
 402:./tmk_core/protocol/lufa/LUFA-git/LUFA/Drivers/USB/Core/AVR8/../AVR8/Endpoint_AVR8.h **** 			 *  \return Boolean \c true if the current endpoint is ready for an IN packet, \c false otherwis
 403:./tmk_core/protocol/lufa/LUFA-git/LUFA/Drivers/USB/Core/AVR8/../AVR8/Endpoint_AVR8.h **** 			 */
 404:./tmk_core/protocol/lufa/LUFA-git/LUFA/Drivers/USB/Core/AVR8/../AVR8/Endpoint_AVR8.h **** 			static inline bool Endpoint_IsINReady(void) ATTR_WARN_UNUSED_RESULT ATTR_ALWAYS_INLINE;
 405:./tmk_core/protocol/lufa/LUFA-git/LUFA/Drivers/USB/Core/AVR8/../AVR8/Endpoint_AVR8.h **** 			static inline bool Endpoint_IsINReady(void)
 406:./tmk_core/protocol/lufa/LUFA-git/LUFA/Drivers/USB/Core/AVR8/../AVR8/Endpoint_AVR8.h **** 			{
 407:./tmk_core/protocol/lufa/LUFA-git/LUFA/Drivers/USB/Core/AVR8/../AVR8/Endpoint_AVR8.h **** 				return ((UEINTX & (1 << TXINI)) ? true : false);
 408:./tmk_core/protocol/lufa/LUFA-git/LUFA/Drivers/USB/Core/AVR8/../AVR8/Endpoint_AVR8.h **** 			}
 409:./tmk_core/protocol/lufa/LUFA-git/LUFA/Drivers/USB/Core/AVR8/../AVR8/Endpoint_AVR8.h **** 
 410:./tmk_core/protocol/lufa/LUFA-git/LUFA/Drivers/USB/Core/AVR8/../AVR8/Endpoint_AVR8.h **** 			/** Determines if the selected OUT endpoint has received new packet from the host.
 411:./tmk_core/protocol/lufa/LUFA-git/LUFA/Drivers/USB/Core/AVR8/../AVR8/Endpoint_AVR8.h **** 			 *
 412:./tmk_core/protocol/lufa/LUFA-git/LUFA/Drivers/USB/Core/AVR8/../AVR8/Endpoint_AVR8.h **** 			 *  \ingroup Group_EndpointPacketManagement_AVR8
 413:./tmk_core/protocol/lufa/LUFA-git/LUFA/Drivers/USB/Core/AVR8/../AVR8/Endpoint_AVR8.h **** 			 *
 414:./tmk_core/protocol/lufa/LUFA-git/LUFA/Drivers/USB/Core/AVR8/../AVR8/Endpoint_AVR8.h **** 			 *  \return Boolean \c true if current endpoint is has received an OUT packet, \c false otherwis
 415:./tmk_core/protocol/lufa/LUFA-git/LUFA/Drivers/USB/Core/AVR8/../AVR8/Endpoint_AVR8.h **** 			 */
 416:./tmk_core/protocol/lufa/LUFA-git/LUFA/Drivers/USB/Core/AVR8/../AVR8/Endpoint_AVR8.h **** 			static inline bool Endpoint_IsOUTReceived(void) ATTR_WARN_UNUSED_RESULT ATTR_ALWAYS_INLINE;
 417:./tmk_core/protocol/lufa/LUFA-git/LUFA/Drivers/USB/Core/AVR8/../AVR8/Endpoint_AVR8.h **** 			static inline bool Endpoint_IsOUTReceived(void)
 418:./tmk_core/protocol/lufa/LUFA-git/LUFA/Drivers/USB/Core/AVR8/../AVR8/Endpoint_AVR8.h **** 			{
 419:./tmk_core/protocol/lufa/LUFA-git/LUFA/Drivers/USB/Core/AVR8/../AVR8/Endpoint_AVR8.h **** 				return ((UEINTX & (1 << RXOUTI)) ? true : false);
 420:./tmk_core/protocol/lufa/LUFA-git/LUFA/Drivers/USB/Core/AVR8/../AVR8/Endpoint_AVR8.h **** 			}
 421:./tmk_core/protocol/lufa/LUFA-git/LUFA/Drivers/USB/Core/AVR8/../AVR8/Endpoint_AVR8.h **** 
 422:./tmk_core/protocol/lufa/LUFA-git/LUFA/Drivers/USB/Core/AVR8/../AVR8/Endpoint_AVR8.h **** 			/** Determines if the current CONTROL type endpoint has received a SETUP packet.
 423:./tmk_core/protocol/lufa/LUFA-git/LUFA/Drivers/USB/Core/AVR8/../AVR8/Endpoint_AVR8.h **** 			 *
 424:./tmk_core/protocol/lufa/LUFA-git/LUFA/Drivers/USB/Core/AVR8/../AVR8/Endpoint_AVR8.h **** 			 *  \ingroup Group_EndpointPacketManagement_AVR8
 425:./tmk_core/protocol/lufa/LUFA-git/LUFA/Drivers/USB/Core/AVR8/../AVR8/Endpoint_AVR8.h **** 			 *
 426:./tmk_core/protocol/lufa/LUFA-git/LUFA/Drivers/USB/Core/AVR8/../AVR8/Endpoint_AVR8.h **** 			 *  \return Boolean \c true if the selected endpoint has received a SETUP packet, \c false other
 427:./tmk_core/protocol/lufa/LUFA-git/LUFA/Drivers/USB/Core/AVR8/../AVR8/Endpoint_AVR8.h **** 			 */
 428:./tmk_core/protocol/lufa/LUFA-git/LUFA/Drivers/USB/Core/AVR8/../AVR8/Endpoint_AVR8.h **** 			static inline bool Endpoint_IsSETUPReceived(void) ATTR_WARN_UNUSED_RESULT ATTR_ALWAYS_INLINE;
 429:./tmk_core/protocol/lufa/LUFA-git/LUFA/Drivers/USB/Core/AVR8/../AVR8/Endpoint_AVR8.h **** 			static inline bool Endpoint_IsSETUPReceived(void)
 430:./tmk_core/protocol/lufa/LUFA-git/LUFA/Drivers/USB/Core/AVR8/../AVR8/Endpoint_AVR8.h **** 			{
 431:./tmk_core/protocol/lufa/LUFA-git/LUFA/Drivers/USB/Core/AVR8/../AVR8/Endpoint_AVR8.h **** 				return ((UEINTX & (1 << RXSTPI)) ? true : false);
 432:./tmk_core/protocol/lufa/LUFA-git/LUFA/Drivers/USB/Core/AVR8/../AVR8/Endpoint_AVR8.h **** 			}
 433:./tmk_core/protocol/lufa/LUFA-git/LUFA/Drivers/USB/Core/AVR8/../AVR8/Endpoint_AVR8.h **** 
 434:./tmk_core/protocol/lufa/LUFA-git/LUFA/Drivers/USB/Core/AVR8/../AVR8/Endpoint_AVR8.h **** 			/** Clears a received SETUP packet on the currently selected CONTROL type endpoint, freeing up t
 435:./tmk_core/protocol/lufa/LUFA-git/LUFA/Drivers/USB/Core/AVR8/../AVR8/Endpoint_AVR8.h **** 			 *  endpoint for the next packet.
 436:./tmk_core/protocol/lufa/LUFA-git/LUFA/Drivers/USB/Core/AVR8/../AVR8/Endpoint_AVR8.h **** 			 *
 437:./tmk_core/protocol/lufa/LUFA-git/LUFA/Drivers/USB/Core/AVR8/../AVR8/Endpoint_AVR8.h **** 			 *  \ingroup Group_EndpointPacketManagement_AVR8
 438:./tmk_core/protocol/lufa/LUFA-git/LUFA/Drivers/USB/Core/AVR8/../AVR8/Endpoint_AVR8.h **** 			 *
 439:./tmk_core/protocol/lufa/LUFA-git/LUFA/Drivers/USB/Core/AVR8/../AVR8/Endpoint_AVR8.h **** 			 *  \note This is not applicable for non CONTROL type endpoints.
 440:./tmk_core/protocol/lufa/LUFA-git/LUFA/Drivers/USB/Core/AVR8/../AVR8/Endpoint_AVR8.h **** 			 */
 441:./tmk_core/protocol/lufa/LUFA-git/LUFA/Drivers/USB/Core/AVR8/../AVR8/Endpoint_AVR8.h **** 			static inline void Endpoint_ClearSETUP(void) ATTR_ALWAYS_INLINE;
 442:./tmk_core/protocol/lufa/LUFA-git/LUFA/Drivers/USB/Core/AVR8/../AVR8/Endpoint_AVR8.h **** 			static inline void Endpoint_ClearSETUP(void)
 443:./tmk_core/protocol/lufa/LUFA-git/LUFA/Drivers/USB/Core/AVR8/../AVR8/Endpoint_AVR8.h **** 			{
 444:./tmk_core/protocol/lufa/LUFA-git/LUFA/Drivers/USB/Core/AVR8/../AVR8/Endpoint_AVR8.h **** 				UEINTX &= ~(1 << RXSTPI);
 445:./tmk_core/protocol/lufa/LUFA-git/LUFA/Drivers/USB/Core/AVR8/../AVR8/Endpoint_AVR8.h **** 			}
 446:./tmk_core/protocol/lufa/LUFA-git/LUFA/Drivers/USB/Core/AVR8/../AVR8/Endpoint_AVR8.h **** 
 447:./tmk_core/protocol/lufa/LUFA-git/LUFA/Drivers/USB/Core/AVR8/../AVR8/Endpoint_AVR8.h **** 			/** Sends an IN packet to the host on the currently selected endpoint, freeing up the endpoint f
 448:./tmk_core/protocol/lufa/LUFA-git/LUFA/Drivers/USB/Core/AVR8/../AVR8/Endpoint_AVR8.h **** 			 *  next packet and switching to the alternative endpoint bank if double banked.
 449:./tmk_core/protocol/lufa/LUFA-git/LUFA/Drivers/USB/Core/AVR8/../AVR8/Endpoint_AVR8.h **** 			 *
 450:./tmk_core/protocol/lufa/LUFA-git/LUFA/Drivers/USB/Core/AVR8/../AVR8/Endpoint_AVR8.h **** 			 *  \ingroup Group_EndpointPacketManagement_AVR8
 451:./tmk_core/protocol/lufa/LUFA-git/LUFA/Drivers/USB/Core/AVR8/../AVR8/Endpoint_AVR8.h **** 			 */
 452:./tmk_core/protocol/lufa/LUFA-git/LUFA/Drivers/USB/Core/AVR8/../AVR8/Endpoint_AVR8.h **** 			static inline void Endpoint_ClearIN(void) ATTR_ALWAYS_INLINE;
 453:./tmk_core/protocol/lufa/LUFA-git/LUFA/Drivers/USB/Core/AVR8/../AVR8/Endpoint_AVR8.h **** 			static inline void Endpoint_ClearIN(void)
 454:./tmk_core/protocol/lufa/LUFA-git/LUFA/Drivers/USB/Core/AVR8/../AVR8/Endpoint_AVR8.h **** 			{
 455:./tmk_core/protocol/lufa/LUFA-git/LUFA/Drivers/USB/Core/AVR8/../AVR8/Endpoint_AVR8.h **** 				#if !defined(CONTROL_ONLY_DEVICE)
 456:./tmk_core/protocol/lufa/LUFA-git/LUFA/Drivers/USB/Core/AVR8/../AVR8/Endpoint_AVR8.h **** 					UEINTX &= ~((1 << TXINI) | (1 << FIFOCON));
 126               		.loc 2 456 0
 127 0052 8091 E800 		lds r24,232
 128 0056 8E77      		andi r24,lo8(126)
 129 0058 8093 E800 		sts 232,r24
 130               	.LVL11:
 131               	.L2:
 132               	/* epilogue start */
 133               	.LBE122:
 134               	.LBE121:
 635:./tmk_core/protocol/lufa/lufa.c ****     Endpoint_ClearIN();
 636:./tmk_core/protocol/lufa/lufa.c **** }
 135               		.loc 1 636 0
 136 005c 0F90      		pop __tmp_reg__
 137 005e 0F90      		pop __tmp_reg__
 138 0060 0F90      		pop __tmp_reg__
 139 0062 DF91      		pop r29
 140 0064 CF91      		pop r28
 141 0066 0895      		ret
 142               		.cfi_endproc
 143               	.LFE119:
 145               		.section	.text.send_system,"ax",@progbits
 147               	send_system:
 148               	.LFB118:
 580:./tmk_core/protocol/lufa/lufa.c ****     uint8_t timeout = 255;
 149               		.loc 1 580 0
 150               		.cfi_startproc
 151               	.LVL12:
 152 0000 CF93      		push r28
 153               	.LCFI4:
 154               		.cfi_def_cfa_offset 3
 155               		.cfi_offset 28, -2
 156 0002 DF93      		push r29
 157               	.LCFI5:
 158               		.cfi_def_cfa_offset 4
 159               		.cfi_offset 29, -3
 160 0004 00D0      		rcall .
 161 0006 1F92      		push __zero_reg__
 162               	.LCFI6:
 163               		.cfi_def_cfa_offset 7
 164 0008 CDB7      		in r28,__SP_L__
 165 000a DEB7      		in r29,__SP_H__
 166               	.LCFI7:
 167               		.cfi_def_cfa_register 28
 168               	/* prologue: function */
 169               	/* frame size = 3 */
 170               	/* stack size = 5 */
 171               	.L__stack_usage = 5
 172               	.LVL13:
 583:./tmk_core/protocol/lufa/lufa.c ****         return;
 173               		.loc 1 583 0
 174 000c 2091 0000 		lds r18,USB_DeviceState
 175 0010 2430      		cpi r18,lo8(4)
 176 0012 01F4      		brne .L15
 586:./tmk_core/protocol/lufa/lufa.c ****         .report_id = REPORT_ID_SYSTEM,
 177               		.loc 1 586 0
 178 0014 22E0      		ldi r18,lo8(2)
 179 0016 2983      		std Y+1,r18
 180 0018 9B83      		std Y+3,r25
 181 001a 8A83      		std Y+2,r24
 182               	.LVL14:
 183               	.LBB123:
 184               	.LBB124:
 270:./tmk_core/protocol/lufa/LUFA-git/LUFA/Drivers/USB/Core/AVR8/../AVR8/Endpoint_AVR8.h **** 				#endif
 185               		.loc 2 270 0
 186 001c 83E0      		ldi r24,lo8(3)
 187               	.LVL15:
 188 001e 8093 E900 		sts 233,r24
 189               	.LVL16:
 190 0022 8FEF      		ldi r24,lo8(-1)
 191               	.LVL17:
 192               	.L17:
 193               	.LBE124:
 194               	.LBE123:
 195               	.LBB125:
 196               	.LBB126:
 360:./tmk_core/protocol/lufa/LUFA-git/LUFA/Drivers/USB/Core/AVR8/../AVR8/Endpoint_AVR8.h **** 			}
 197               		.loc 2 360 0
 198 0024 9091 E800 		lds r25,232
 199 0028 8150      		subi r24,lo8(-(-1))
 200               	.LVL18:
 201               	.LBE126:
 202               	.LBE125:
 593:./tmk_core/protocol/lufa/lufa.c ****     if (!Endpoint_IsReadWriteAllowed()) return;
 203               		.loc 1 593 0
 204 002a 95FD      		sbrc r25,5
 205 002c 00C0      		rjmp .L18
 206               	.LVL19:
 207               	.LBB127:
 208               	.LBB128:
 209               		.loc 3 245 0
 210 002e 95ED      		ldi r25,lo8(-43)
 211 0030 9A95      	1:	dec r25
 212 0032 01F4      		brne 1b
 213 0034 0000      		nop
 214               	.LVL20:
 215               	.LBE128:
 216               	.LBE127:
 593:./tmk_core/protocol/lufa/lufa.c ****     if (!Endpoint_IsReadWriteAllowed()) return;
 217               		.loc 1 593 0
 218 0036 8111      		cpse r24,__zero_reg__
 219 0038 00C0      		rjmp .L17
 220               	.LVL21:
 221               	.L18:
 222               	.LBB129:
 223               	.LBB130:
 360:./tmk_core/protocol/lufa/LUFA-git/LUFA/Drivers/USB/Core/AVR8/../AVR8/Endpoint_AVR8.h **** 			}
 224               		.loc 2 360 0
 225 003a 8091 E800 		lds r24,232
 226               	.LBE130:
 227               	.LBE129:
 594:./tmk_core/protocol/lufa/lufa.c **** 
 228               		.loc 1 594 0
 229 003e 85FF      		sbrs r24,5
 230 0040 00C0      		rjmp .L15
 596:./tmk_core/protocol/lufa/lufa.c ****     Endpoint_ClearIN();
 231               		.loc 1 596 0
 232 0042 40E0      		ldi r20,0
 233 0044 50E0      		ldi r21,0
 234 0046 63E0      		ldi r22,lo8(3)
 235 0048 70E0      		ldi r23,0
 236 004a CE01      		movw r24,r28
 237 004c 0196      		adiw r24,1
 238 004e 0E94 0000 		call Endpoint_Write_Stream_LE
 239               	.LVL22:
 240               	.LBB131:
 241               	.LBB132:
 242               		.loc 2 456 0
 243 0052 8091 E800 		lds r24,232
 244 0056 8E77      		andi r24,lo8(126)
 245 0058 8093 E800 		sts 232,r24
 246               	.LVL23:
 247               	.L15:
 248               	/* epilogue start */
 249               	.LBE132:
 250               	.LBE131:
 598:./tmk_core/protocol/lufa/lufa.c **** 
 251               		.loc 1 598 0
 252 005c 0F90      		pop __tmp_reg__
 253 005e 0F90      		pop __tmp_reg__
 254 0060 0F90      		pop __tmp_reg__
 255 0062 DF91      		pop r29
 256 0064 CF91      		pop r28
 257 0066 0895      		ret
 258               		.cfi_endproc
 259               	.LFE118:
 261               		.section	.text.send_mouse,"ax",@progbits
 263               	send_mouse:
 264               	.LFB117:
 544:./tmk_core/protocol/lufa/lufa.c **** #ifdef MOUSE_ENABLE
 265               		.loc 1 544 0
 266               		.cfi_startproc
 267               	.LVL24:
 268               	/* prologue: function */
 269               	/* frame size = 0 */
 270               	/* stack size = 0 */
 271               	.L__stack_usage = 0
 561:./tmk_core/protocol/lufa/lufa.c ****         return;
 272               		.loc 1 561 0
 273 0000 2091 0000 		lds r18,USB_DeviceState
 274 0004 2430      		cpi r18,lo8(4)
 275 0006 01F4      		brne .L27
 276               	.LVL25:
 277               	.LBB133:
 278               	.LBB134:
 270:./tmk_core/protocol/lufa/LUFA-git/LUFA/Drivers/USB/Core/AVR8/../AVR8/Endpoint_AVR8.h **** 				#endif
 279               		.loc 2 270 0
 280 0008 22E0      		ldi r18,lo8(2)
 281 000a 2093 E900 		sts 233,r18
 282               	.LVL26:
 283 000e 2FEF      		ldi r18,lo8(-1)
 284               	.LVL27:
 285               	.L30:
 286               	.LBE134:
 287               	.LBE133:
 288               	.LBB135:
 289               	.LBB136:
 360:./tmk_core/protocol/lufa/LUFA-git/LUFA/Drivers/USB/Core/AVR8/../AVR8/Endpoint_AVR8.h **** 			}
 290               		.loc 2 360 0
 291 0010 3091 E800 		lds r19,232
 292 0014 2150      		subi r18,lo8(-(-1))
 293               	.LVL28:
 294               	.LBE136:
 295               	.LBE135:
 568:./tmk_core/protocol/lufa/lufa.c ****     if (!Endpoint_IsReadWriteAllowed()) return;
 296               		.loc 1 568 0
 297 0016 35FD      		sbrc r19,5
 298 0018 00C0      		rjmp .L31
 299               	.LVL29:
 300               	.LBB137:
 301               	.LBB138:
 302               		.loc 3 245 0
 303 001a 35ED      		ldi r19,lo8(-43)
 304 001c 3A95      	1:	dec r19
 305 001e 01F4      		brne 1b
 306 0020 0000      		nop
 307               	.LVL30:
 308               	.LBE138:
 309               	.LBE137:
 568:./tmk_core/protocol/lufa/lufa.c ****     if (!Endpoint_IsReadWriteAllowed()) return;
 310               		.loc 1 568 0
 311 0022 2111      		cpse r18,__zero_reg__
 312 0024 00C0      		rjmp .L30
 313               	.LVL31:
 314               	.L31:
 315               	.LBB139:
 316               	.LBB140:
 360:./tmk_core/protocol/lufa/LUFA-git/LUFA/Drivers/USB/Core/AVR8/../AVR8/Endpoint_AVR8.h **** 			}
 317               		.loc 2 360 0
 318 0026 2091 E800 		lds r18,232
 319               	.LBE140:
 320               	.LBE139:
 569:./tmk_core/protocol/lufa/lufa.c **** 
 321               		.loc 1 569 0
 322 002a 25FF      		sbrs r18,5
 323 002c 00C0      		rjmp .L27
 572:./tmk_core/protocol/lufa/lufa.c **** 
 324               		.loc 1 572 0
 325 002e 40E0      		ldi r20,0
 326 0030 50E0      		ldi r21,0
 327 0032 65E0      		ldi r22,lo8(5)
 328 0034 70E0      		ldi r23,0
 329 0036 0E94 0000 		call Endpoint_Write_Stream_LE
 330               	.LVL32:
 331               	.LBB141:
 332               	.LBB142:
 333               		.loc 2 456 0
 334 003a 8091 E800 		lds r24,232
 335 003e 8E77      		andi r24,lo8(126)
 336 0040 8093 E800 		sts 232,r24
 337               	.LVL33:
 338               	.L27:
 339 0044 0895      		ret
 340               	.LBE142:
 341               	.LBE141:
 342               		.cfi_endproc
 343               	.LFE117:
 345               		.section	.text.send_keyboard,"ax",@progbits
 347               	send_keyboard:
 348               	.LFB116:
 496:./tmk_core/protocol/lufa/lufa.c **** 
 349               		.loc 1 496 0
 350               		.cfi_startproc
 351               	.LVL34:
 352 0000 CF93      		push r28
 353               	.LCFI8:
 354               		.cfi_def_cfa_offset 3
 355               		.cfi_offset 28, -2
 356 0002 DF93      		push r29
 357               	.LCFI9:
 358               		.cfi_def_cfa_offset 4
 359               		.cfi_offset 29, -3
 360               	/* prologue: function */
 361               	/* frame size = 0 */
 362               	/* stack size = 2 */
 363               	.L__stack_usage = 2
 364 0004 EC01      		movw r28,r24
 365               	.LVL35:
 507:./tmk_core/protocol/lufa/lufa.c ****         return;
 366               		.loc 1 507 0
 367 0006 9091 0000 		lds r25,USB_DeviceState
 368 000a 9430      		cpi r25,lo8(4)
 369 000c 01F0      		breq .+2
 370 000e 00C0      		rjmp .L40
 512:./tmk_core/protocol/lufa/lufa.c ****         /* Report protocol - NKRO */
 371               		.loc 1 512 0
 372 0010 8091 0000 		lds r24,keyboard_protocol
 373               	.LVL36:
 374 0014 8823      		tst r24
 375 0016 01F0      		breq .L43
 512:./tmk_core/protocol/lufa/lufa.c ****         /* Report protocol - NKRO */
 376               		.loc 1 512 0 is_stmt 0 discriminator 1
 377 0018 8091 0000 		lds r24,keymap_config
 378 001c 87FF      		sbrs r24,7
 379 001e 00C0      		rjmp .L43
 380               	.LVL37:
 381               	.LBB143:
 382               	.LBB144:
 270:./tmk_core/protocol/lufa/LUFA-git/LUFA/Drivers/USB/Core/AVR8/../AVR8/Endpoint_AVR8.h **** 				#endif
 383               		.loc 2 270 0 is_stmt 1
 384 0020 9093 E900 		sts 233,r25
 385               	.LVL38:
 386 0024 8FEF      		ldi r24,lo8(-1)
 387               	.LVL39:
 388               	.L44:
 389               	.LBE144:
 390               	.LBE143:
 391               	.LBB145:
 392               	.LBB146:
 360:./tmk_core/protocol/lufa/LUFA-git/LUFA/Drivers/USB/Core/AVR8/../AVR8/Endpoint_AVR8.h **** 			}
 393               		.loc 2 360 0
 394 0026 9091 E800 		lds r25,232
 395 002a 8150      		subi r24,lo8(-(-1))
 396               	.LVL40:
 397               	.LBE146:
 398               	.LBE145:
 517:./tmk_core/protocol/lufa/lufa.c ****         if (!Endpoint_IsReadWriteAllowed()) return;
 399               		.loc 1 517 0
 400 002c 95FD      		sbrc r25,5
 401 002e 00C0      		rjmp .L45
 402               	.LVL41:
 403               	.LBB147:
 404               	.LBB148:
 405               		.loc 3 245 0
 406 0030 95E1      		ldi r25,lo8(21)
 407 0032 9A95      	1:	dec r25
 408 0034 01F4      		brne 1b
 409 0036 0000      		nop
 410               	.LVL42:
 411               	.LBE148:
 412               	.LBE147:
 517:./tmk_core/protocol/lufa/lufa.c ****         if (!Endpoint_IsReadWriteAllowed()) return;
 413               		.loc 1 517 0
 414 0038 8111      		cpse r24,__zero_reg__
 415 003a 00C0      		rjmp .L44
 416               	.LVL43:
 417               	.L45:
 418               	.LBB149:
 419               	.LBB150:
 360:./tmk_core/protocol/lufa/LUFA-git/LUFA/Drivers/USB/Core/AVR8/../AVR8/Endpoint_AVR8.h **** 			}
 420               		.loc 2 360 0
 421 003c 8091 E800 		lds r24,232
 422               	.LBE150:
 423               	.LBE149:
 518:./tmk_core/protocol/lufa/lufa.c **** 
 424               		.loc 1 518 0
 425 0040 85FF      		sbrs r24,5
 426 0042 00C0      		rjmp .L40
 521:./tmk_core/protocol/lufa/lufa.c ****     }
 427               		.loc 1 521 0
 428 0044 40E0      		ldi r20,0
 429 0046 50E0      		ldi r21,0
 430 0048 60E2      		ldi r22,lo8(32)
 431 004a 70E0      		ldi r23,0
 432 004c 00C0      		rjmp .L70
 433               	.LVL44:
 434               	.L43:
 435               	.LBB151:
 436               	.LBB152:
 270:./tmk_core/protocol/lufa/LUFA-git/LUFA/Drivers/USB/Core/AVR8/../AVR8/Endpoint_AVR8.h **** 				#endif
 437               		.loc 2 270 0
 438 004e 81E0      		ldi r24,lo8(1)
 439 0050 8093 E900 		sts 233,r24
 440               	.LVL45:
 441 0054 8FEF      		ldi r24,lo8(-1)
 442               	.LVL46:
 443               	.L49:
 444               	.LBE152:
 445               	.LBE151:
 446               	.LBB153:
 447               	.LBB154:
 360:./tmk_core/protocol/lufa/LUFA-git/LUFA/Drivers/USB/Core/AVR8/../AVR8/Endpoint_AVR8.h **** 			}
 448               		.loc 2 360 0
 449 0056 9091 E800 		lds r25,232
 450 005a 8150      		subi r24,lo8(-(-1))
 451               	.LVL47:
 452               	.LBE154:
 453               	.LBE153:
 530:./tmk_core/protocol/lufa/lufa.c ****         if (!Endpoint_IsReadWriteAllowed()) return;
 454               		.loc 1 530 0
 455 005c 95FD      		sbrc r25,5
 456 005e 00C0      		rjmp .L50
 457               	.LVL48:
 458               	.LBB155:
 459               	.LBB156:
 460               		.loc 3 245 0
 461 0060 95ED      		ldi r25,lo8(-43)
 462 0062 9A95      	1:	dec r25
 463 0064 01F4      		brne 1b
 464 0066 0000      		nop
 465               	.LVL49:
 466               	.LBE156:
 467               	.LBE155:
 530:./tmk_core/protocol/lufa/lufa.c ****         if (!Endpoint_IsReadWriteAllowed()) return;
 468               		.loc 1 530 0
 469 0068 8111      		cpse r24,__zero_reg__
 470 006a 00C0      		rjmp .L49
 471               	.LVL50:
 472               	.L50:
 473               	.LBB157:
 474               	.LBB158:
 360:./tmk_core/protocol/lufa/LUFA-git/LUFA/Drivers/USB/Core/AVR8/../AVR8/Endpoint_AVR8.h **** 			}
 475               		.loc 2 360 0
 476 006c 8091 E800 		lds r24,232
 477               	.LBE158:
 478               	.LBE157:
 531:./tmk_core/protocol/lufa/lufa.c **** 
 479               		.loc 1 531 0
 480 0070 85FF      		sbrs r24,5
 481 0072 00C0      		rjmp .L40
 534:./tmk_core/protocol/lufa/lufa.c ****     }
 482               		.loc 1 534 0
 483 0074 40E0      		ldi r20,0
 484 0076 50E0      		ldi r21,0
 485 0078 68E0      		ldi r22,lo8(8)
 486 007a 70E0      		ldi r23,0
 487               	.LVL51:
 488               	.L70:
 489 007c CE01      		movw r24,r28
 490 007e 0E94 0000 		call Endpoint_Write_Stream_LE
 491               	.LVL52:
 492               	.LBB159:
 493               	.LBB160:
 494               		.loc 2 456 0
 495 0082 8091 E800 		lds r24,232
 496 0086 8E77      		andi r24,lo8(126)
 497 0088 8093 E800 		sts 232,r24
 498               	.LBE160:
 499               	.LBE159:
 540:./tmk_core/protocol/lufa/lufa.c **** }
 500               		.loc 1 540 0
 501 008c 80E2      		ldi r24,lo8(32)
 502 008e FE01      		movw r30,r28
 503 0090 A0E0      		ldi r26,lo8(keyboard_report_sent)
 504 0092 B0E0      		ldi r27,hi8(keyboard_report_sent)
 505               		0:
 506 0094 0190      		ld r0,Z+
 507 0096 0D92      		st X+,r0
 508 0098 8A95      		dec r24
 509 009a 01F4      		brne 0b
 510               	.L40:
 511               	/* epilogue start */
 541:./tmk_core/protocol/lufa/lufa.c **** 
 512               		.loc 1 541 0
 513 009c DF91      		pop r29
 514 009e CF91      		pop r28
 515               	.LVL53:
 516 00a0 0895      		ret
 517               		.cfi_endproc
 518               	.LFE116:
 520               		.section	.text.EVENT_USB_Device_Connect,"ax",@progbits
 521               	.global	EVENT_USB_Device_Connect
 523               	EVENT_USB_Device_Connect:
 524               	.LFB108:
 239:./tmk_core/protocol/lufa/lufa.c ****     print("[C]");
 525               		.loc 1 239 0
 526               		.cfi_startproc
 527               	/* prologue: function */
 528               	/* frame size = 0 */
 529               	/* stack size = 0 */
 530               	.L__stack_usage = 0
 242:./tmk_core/protocol/lufa/lufa.c ****         USB_Disable();
 531               		.loc 1 242 0
 532 0000 8091 0000 		lds r24,USB_IsInitialized
 533 0004 8111      		cpse r24,__zero_reg__
 534 0006 00C0      		rjmp .L71
 243:./tmk_core/protocol/lufa/lufa.c ****         USB_Init();
 535               		.loc 1 243 0
 536 0008 0E94 0000 		call USB_Disable
 537               	.LVL54:
 244:./tmk_core/protocol/lufa/lufa.c ****         USB_Device_EnableSOFEvents();
 538               		.loc 1 244 0
 539 000c 0E94 0000 		call USB_Init
 540               	.LVL55:
 541               	.LBB161:
 542               	.LBB162:
 543               	.LBB163:
 544               		.file 4 "./tmk_core/protocol/lufa/LUFA-git/LUFA/Drivers/USB/Core/AVR8/../AVR8/USBInterrupt_AVR8.h"
   1:./tmk_core/protocol/lufa/LUFA-git/LUFA/Drivers/USB/Core/AVR8/../AVR8/USBInterrupt_AVR8.h **** /*
   2:./tmk_core/protocol/lufa/LUFA-git/LUFA/Drivers/USB/Core/AVR8/../AVR8/USBInterrupt_AVR8.h ****              LUFA Library
   3:./tmk_core/protocol/lufa/LUFA-git/LUFA/Drivers/USB/Core/AVR8/../AVR8/USBInterrupt_AVR8.h ****      Copyright (C) Dean Camera, 2014.
   4:./tmk_core/protocol/lufa/LUFA-git/LUFA/Drivers/USB/Core/AVR8/../AVR8/USBInterrupt_AVR8.h **** 
   5:./tmk_core/protocol/lufa/LUFA-git/LUFA/Drivers/USB/Core/AVR8/../AVR8/USBInterrupt_AVR8.h ****   dean [at] fourwalledcubicle [dot] com
   6:./tmk_core/protocol/lufa/LUFA-git/LUFA/Drivers/USB/Core/AVR8/../AVR8/USBInterrupt_AVR8.h ****            www.lufa-lib.org
   7:./tmk_core/protocol/lufa/LUFA-git/LUFA/Drivers/USB/Core/AVR8/../AVR8/USBInterrupt_AVR8.h **** */
   8:./tmk_core/protocol/lufa/LUFA-git/LUFA/Drivers/USB/Core/AVR8/../AVR8/USBInterrupt_AVR8.h **** 
   9:./tmk_core/protocol/lufa/LUFA-git/LUFA/Drivers/USB/Core/AVR8/../AVR8/USBInterrupt_AVR8.h **** /*
  10:./tmk_core/protocol/lufa/LUFA-git/LUFA/Drivers/USB/Core/AVR8/../AVR8/USBInterrupt_AVR8.h ****   Copyright 2014  Dean Camera (dean [at] fourwalledcubicle [dot] com)
  11:./tmk_core/protocol/lufa/LUFA-git/LUFA/Drivers/USB/Core/AVR8/../AVR8/USBInterrupt_AVR8.h **** 
  12:./tmk_core/protocol/lufa/LUFA-git/LUFA/Drivers/USB/Core/AVR8/../AVR8/USBInterrupt_AVR8.h ****   Permission to use, copy, modify, distribute, and sell this
  13:./tmk_core/protocol/lufa/LUFA-git/LUFA/Drivers/USB/Core/AVR8/../AVR8/USBInterrupt_AVR8.h ****   software and its documentation for any purpose is hereby granted
  14:./tmk_core/protocol/lufa/LUFA-git/LUFA/Drivers/USB/Core/AVR8/../AVR8/USBInterrupt_AVR8.h ****   without fee, provided that the above copyright notice appear in
  15:./tmk_core/protocol/lufa/LUFA-git/LUFA/Drivers/USB/Core/AVR8/../AVR8/USBInterrupt_AVR8.h ****   all copies and that both that the copyright notice and this
  16:./tmk_core/protocol/lufa/LUFA-git/LUFA/Drivers/USB/Core/AVR8/../AVR8/USBInterrupt_AVR8.h ****   permission notice and warranty disclaimer appear in supporting
  17:./tmk_core/protocol/lufa/LUFA-git/LUFA/Drivers/USB/Core/AVR8/../AVR8/USBInterrupt_AVR8.h ****   documentation, and that the name of the author not be used in
  18:./tmk_core/protocol/lufa/LUFA-git/LUFA/Drivers/USB/Core/AVR8/../AVR8/USBInterrupt_AVR8.h ****   advertising or publicity pertaining to distribution of the
  19:./tmk_core/protocol/lufa/LUFA-git/LUFA/Drivers/USB/Core/AVR8/../AVR8/USBInterrupt_AVR8.h ****   software without specific, written prior permission.
  20:./tmk_core/protocol/lufa/LUFA-git/LUFA/Drivers/USB/Core/AVR8/../AVR8/USBInterrupt_AVR8.h **** 
  21:./tmk_core/protocol/lufa/LUFA-git/LUFA/Drivers/USB/Core/AVR8/../AVR8/USBInterrupt_AVR8.h ****   The author disclaims all warranties with regard to this
  22:./tmk_core/protocol/lufa/LUFA-git/LUFA/Drivers/USB/Core/AVR8/../AVR8/USBInterrupt_AVR8.h ****   software, including all implied warranties of merchantability
  23:./tmk_core/protocol/lufa/LUFA-git/LUFA/Drivers/USB/Core/AVR8/../AVR8/USBInterrupt_AVR8.h ****   and fitness.  In no event shall the author be liable for any
  24:./tmk_core/protocol/lufa/LUFA-git/LUFA/Drivers/USB/Core/AVR8/../AVR8/USBInterrupt_AVR8.h ****   special, indirect or consequential damages or any damages
  25:./tmk_core/protocol/lufa/LUFA-git/LUFA/Drivers/USB/Core/AVR8/../AVR8/USBInterrupt_AVR8.h ****   whatsoever resulting from loss of use, data or profits, whether
  26:./tmk_core/protocol/lufa/LUFA-git/LUFA/Drivers/USB/Core/AVR8/../AVR8/USBInterrupt_AVR8.h ****   in an action of contract, negligence or other tortious action,
  27:./tmk_core/protocol/lufa/LUFA-git/LUFA/Drivers/USB/Core/AVR8/../AVR8/USBInterrupt_AVR8.h ****   arising out of or in connection with the use or performance of
  28:./tmk_core/protocol/lufa/LUFA-git/LUFA/Drivers/USB/Core/AVR8/../AVR8/USBInterrupt_AVR8.h ****   this software.
  29:./tmk_core/protocol/lufa/LUFA-git/LUFA/Drivers/USB/Core/AVR8/../AVR8/USBInterrupt_AVR8.h **** */
  30:./tmk_core/protocol/lufa/LUFA-git/LUFA/Drivers/USB/Core/AVR8/../AVR8/USBInterrupt_AVR8.h **** 
  31:./tmk_core/protocol/lufa/LUFA-git/LUFA/Drivers/USB/Core/AVR8/../AVR8/USBInterrupt_AVR8.h **** /** \file
  32:./tmk_core/protocol/lufa/LUFA-git/LUFA/Drivers/USB/Core/AVR8/../AVR8/USBInterrupt_AVR8.h ****  *  \brief USB Controller Interrupt definitions for the AVR8 microcontrollers.
  33:./tmk_core/protocol/lufa/LUFA-git/LUFA/Drivers/USB/Core/AVR8/../AVR8/USBInterrupt_AVR8.h ****  *
  34:./tmk_core/protocol/lufa/LUFA-git/LUFA/Drivers/USB/Core/AVR8/../AVR8/USBInterrupt_AVR8.h ****  *  This file contains definitions required for the correct handling of low level USB service routi
  35:./tmk_core/protocol/lufa/LUFA-git/LUFA/Drivers/USB/Core/AVR8/../AVR8/USBInterrupt_AVR8.h ****  *  from the USB controller.
  36:./tmk_core/protocol/lufa/LUFA-git/LUFA/Drivers/USB/Core/AVR8/../AVR8/USBInterrupt_AVR8.h ****  *
  37:./tmk_core/protocol/lufa/LUFA-git/LUFA/Drivers/USB/Core/AVR8/../AVR8/USBInterrupt_AVR8.h ****  *  \note This file should not be included directly. It is automatically included as needed by the 
  38:./tmk_core/protocol/lufa/LUFA-git/LUFA/Drivers/USB/Core/AVR8/../AVR8/USBInterrupt_AVR8.h ****  *        dispatch header located in LUFA/Drivers/USB/USB.h.
  39:./tmk_core/protocol/lufa/LUFA-git/LUFA/Drivers/USB/Core/AVR8/../AVR8/USBInterrupt_AVR8.h ****  */
  40:./tmk_core/protocol/lufa/LUFA-git/LUFA/Drivers/USB/Core/AVR8/../AVR8/USBInterrupt_AVR8.h **** 
  41:./tmk_core/protocol/lufa/LUFA-git/LUFA/Drivers/USB/Core/AVR8/../AVR8/USBInterrupt_AVR8.h **** #ifndef __USBINTERRUPT_AVR8_H__
  42:./tmk_core/protocol/lufa/LUFA-git/LUFA/Drivers/USB/Core/AVR8/../AVR8/USBInterrupt_AVR8.h **** #define __USBINTERRUPT_AVR8_H__
  43:./tmk_core/protocol/lufa/LUFA-git/LUFA/Drivers/USB/Core/AVR8/../AVR8/USBInterrupt_AVR8.h **** 
  44:./tmk_core/protocol/lufa/LUFA-git/LUFA/Drivers/USB/Core/AVR8/../AVR8/USBInterrupt_AVR8.h **** 	/* Includes: */
  45:./tmk_core/protocol/lufa/LUFA-git/LUFA/Drivers/USB/Core/AVR8/../AVR8/USBInterrupt_AVR8.h **** 		#include "../../../../Common/Common.h"
  46:./tmk_core/protocol/lufa/LUFA-git/LUFA/Drivers/USB/Core/AVR8/../AVR8/USBInterrupt_AVR8.h **** 
  47:./tmk_core/protocol/lufa/LUFA-git/LUFA/Drivers/USB/Core/AVR8/../AVR8/USBInterrupt_AVR8.h **** 	/* Enable C linkage for C++ Compilers: */
  48:./tmk_core/protocol/lufa/LUFA-git/LUFA/Drivers/USB/Core/AVR8/../AVR8/USBInterrupt_AVR8.h **** 		#if defined(__cplusplus)
  49:./tmk_core/protocol/lufa/LUFA-git/LUFA/Drivers/USB/Core/AVR8/../AVR8/USBInterrupt_AVR8.h **** 			extern "C" {
  50:./tmk_core/protocol/lufa/LUFA-git/LUFA/Drivers/USB/Core/AVR8/../AVR8/USBInterrupt_AVR8.h **** 		#endif
  51:./tmk_core/protocol/lufa/LUFA-git/LUFA/Drivers/USB/Core/AVR8/../AVR8/USBInterrupt_AVR8.h **** 
  52:./tmk_core/protocol/lufa/LUFA-git/LUFA/Drivers/USB/Core/AVR8/../AVR8/USBInterrupt_AVR8.h **** 	/* Preprocessor Checks: */
  53:./tmk_core/protocol/lufa/LUFA-git/LUFA/Drivers/USB/Core/AVR8/../AVR8/USBInterrupt_AVR8.h **** 		#if !defined(__INCLUDE_FROM_USB_DRIVER)
  54:./tmk_core/protocol/lufa/LUFA-git/LUFA/Drivers/USB/Core/AVR8/../AVR8/USBInterrupt_AVR8.h **** 			#error Do not include this file directly. Include LUFA/Drivers/USB/USB.h instead.
  55:./tmk_core/protocol/lufa/LUFA-git/LUFA/Drivers/USB/Core/AVR8/../AVR8/USBInterrupt_AVR8.h **** 		#endif
  56:./tmk_core/protocol/lufa/LUFA-git/LUFA/Drivers/USB/Core/AVR8/../AVR8/USBInterrupt_AVR8.h **** 
  57:./tmk_core/protocol/lufa/LUFA-git/LUFA/Drivers/USB/Core/AVR8/../AVR8/USBInterrupt_AVR8.h **** 	/* Private Interface - For use in library only: */
  58:./tmk_core/protocol/lufa/LUFA-git/LUFA/Drivers/USB/Core/AVR8/../AVR8/USBInterrupt_AVR8.h **** 	#if !defined(__DOXYGEN__)
  59:./tmk_core/protocol/lufa/LUFA-git/LUFA/Drivers/USB/Core/AVR8/../AVR8/USBInterrupt_AVR8.h **** 		/* Enums: */
  60:./tmk_core/protocol/lufa/LUFA-git/LUFA/Drivers/USB/Core/AVR8/../AVR8/USBInterrupt_AVR8.h **** 			enum USB_Interrupts_t
  61:./tmk_core/protocol/lufa/LUFA-git/LUFA/Drivers/USB/Core/AVR8/../AVR8/USBInterrupt_AVR8.h **** 			{
  62:./tmk_core/protocol/lufa/LUFA-git/LUFA/Drivers/USB/Core/AVR8/../AVR8/USBInterrupt_AVR8.h **** 				#if (defined(USB_SERIES_4_AVR) || defined(USB_SERIES_6_AVR) || defined(USB_SERIES_7_AVR) || def
  63:./tmk_core/protocol/lufa/LUFA-git/LUFA/Drivers/USB/Core/AVR8/../AVR8/USBInterrupt_AVR8.h **** 				USB_INT_VBUSTI  = 0,
  64:./tmk_core/protocol/lufa/LUFA-git/LUFA/Drivers/USB/Core/AVR8/../AVR8/USBInterrupt_AVR8.h **** 				#endif
  65:./tmk_core/protocol/lufa/LUFA-git/LUFA/Drivers/USB/Core/AVR8/../AVR8/USBInterrupt_AVR8.h **** 				#if (defined(USB_CAN_BE_BOTH) || defined(__DOXYGEN__))
  66:./tmk_core/protocol/lufa/LUFA-git/LUFA/Drivers/USB/Core/AVR8/../AVR8/USBInterrupt_AVR8.h **** 				USB_INT_IDTI    = 1,
  67:./tmk_core/protocol/lufa/LUFA-git/LUFA/Drivers/USB/Core/AVR8/../AVR8/USBInterrupt_AVR8.h **** 				#endif
  68:./tmk_core/protocol/lufa/LUFA-git/LUFA/Drivers/USB/Core/AVR8/../AVR8/USBInterrupt_AVR8.h **** 				#if (defined(USB_CAN_BE_DEVICE) || defined(__DOXYGEN__))
  69:./tmk_core/protocol/lufa/LUFA-git/LUFA/Drivers/USB/Core/AVR8/../AVR8/USBInterrupt_AVR8.h **** 				USB_INT_WAKEUPI = 2,
  70:./tmk_core/protocol/lufa/LUFA-git/LUFA/Drivers/USB/Core/AVR8/../AVR8/USBInterrupt_AVR8.h **** 				USB_INT_SUSPI   = 3,
  71:./tmk_core/protocol/lufa/LUFA-git/LUFA/Drivers/USB/Core/AVR8/../AVR8/USBInterrupt_AVR8.h **** 				USB_INT_EORSTI  = 4,
  72:./tmk_core/protocol/lufa/LUFA-git/LUFA/Drivers/USB/Core/AVR8/../AVR8/USBInterrupt_AVR8.h **** 				USB_INT_SOFI    = 5,
  73:./tmk_core/protocol/lufa/LUFA-git/LUFA/Drivers/USB/Core/AVR8/../AVR8/USBInterrupt_AVR8.h **** 				USB_INT_RXSTPI  = 6,
  74:./tmk_core/protocol/lufa/LUFA-git/LUFA/Drivers/USB/Core/AVR8/../AVR8/USBInterrupt_AVR8.h **** 				#endif
  75:./tmk_core/protocol/lufa/LUFA-git/LUFA/Drivers/USB/Core/AVR8/../AVR8/USBInterrupt_AVR8.h **** 				#if (defined(USB_CAN_BE_HOST) || defined(__DOXYGEN__))
  76:./tmk_core/protocol/lufa/LUFA-git/LUFA/Drivers/USB/Core/AVR8/../AVR8/USBInterrupt_AVR8.h **** 				USB_INT_HSOFI   = 7,
  77:./tmk_core/protocol/lufa/LUFA-git/LUFA/Drivers/USB/Core/AVR8/../AVR8/USBInterrupt_AVR8.h **** 				USB_INT_DCONNI  = 8,
  78:./tmk_core/protocol/lufa/LUFA-git/LUFA/Drivers/USB/Core/AVR8/../AVR8/USBInterrupt_AVR8.h **** 				USB_INT_DDISCI  = 9,
  79:./tmk_core/protocol/lufa/LUFA-git/LUFA/Drivers/USB/Core/AVR8/../AVR8/USBInterrupt_AVR8.h **** 				USB_INT_RSTI    = 10,
  80:./tmk_core/protocol/lufa/LUFA-git/LUFA/Drivers/USB/Core/AVR8/../AVR8/USBInterrupt_AVR8.h **** 				USB_INT_BCERRI  = 11,
  81:./tmk_core/protocol/lufa/LUFA-git/LUFA/Drivers/USB/Core/AVR8/../AVR8/USBInterrupt_AVR8.h **** 				USB_INT_VBERRI  = 12,
  82:./tmk_core/protocol/lufa/LUFA-git/LUFA/Drivers/USB/Core/AVR8/../AVR8/USBInterrupt_AVR8.h **** 				USB_INT_SRPI    = 13,
  83:./tmk_core/protocol/lufa/LUFA-git/LUFA/Drivers/USB/Core/AVR8/../AVR8/USBInterrupt_AVR8.h **** 				#endif
  84:./tmk_core/protocol/lufa/LUFA-git/LUFA/Drivers/USB/Core/AVR8/../AVR8/USBInterrupt_AVR8.h **** 			};
  85:./tmk_core/protocol/lufa/LUFA-git/LUFA/Drivers/USB/Core/AVR8/../AVR8/USBInterrupt_AVR8.h **** 
  86:./tmk_core/protocol/lufa/LUFA-git/LUFA/Drivers/USB/Core/AVR8/../AVR8/USBInterrupt_AVR8.h **** 		/* Inline Functions: */
  87:./tmk_core/protocol/lufa/LUFA-git/LUFA/Drivers/USB/Core/AVR8/../AVR8/USBInterrupt_AVR8.h **** 			static inline void USB_INT_Enable(const uint8_t Interrupt) ATTR_ALWAYS_INLINE;
  88:./tmk_core/protocol/lufa/LUFA-git/LUFA/Drivers/USB/Core/AVR8/../AVR8/USBInterrupt_AVR8.h **** 			static inline void USB_INT_Enable(const uint8_t Interrupt)
  89:./tmk_core/protocol/lufa/LUFA-git/LUFA/Drivers/USB/Core/AVR8/../AVR8/USBInterrupt_AVR8.h **** 			{
  90:./tmk_core/protocol/lufa/LUFA-git/LUFA/Drivers/USB/Core/AVR8/../AVR8/USBInterrupt_AVR8.h **** 				switch (Interrupt)
  91:./tmk_core/protocol/lufa/LUFA-git/LUFA/Drivers/USB/Core/AVR8/../AVR8/USBInterrupt_AVR8.h **** 				{
  92:./tmk_core/protocol/lufa/LUFA-git/LUFA/Drivers/USB/Core/AVR8/../AVR8/USBInterrupt_AVR8.h **** 					#if (defined(USB_SERIES_4_AVR) || defined(USB_SERIES_6_AVR) || defined(USB_SERIES_7_AVR))
  93:./tmk_core/protocol/lufa/LUFA-git/LUFA/Drivers/USB/Core/AVR8/../AVR8/USBInterrupt_AVR8.h **** 					case USB_INT_VBUSTI:
  94:./tmk_core/protocol/lufa/LUFA-git/LUFA/Drivers/USB/Core/AVR8/../AVR8/USBInterrupt_AVR8.h **** 						USBCON |= (1 << VBUSTE);
  95:./tmk_core/protocol/lufa/LUFA-git/LUFA/Drivers/USB/Core/AVR8/../AVR8/USBInterrupt_AVR8.h **** 						break;
  96:./tmk_core/protocol/lufa/LUFA-git/LUFA/Drivers/USB/Core/AVR8/../AVR8/USBInterrupt_AVR8.h **** 					#endif
  97:./tmk_core/protocol/lufa/LUFA-git/LUFA/Drivers/USB/Core/AVR8/../AVR8/USBInterrupt_AVR8.h **** 					#if defined(USB_CAN_BE_BOTH)
  98:./tmk_core/protocol/lufa/LUFA-git/LUFA/Drivers/USB/Core/AVR8/../AVR8/USBInterrupt_AVR8.h **** 					case USB_INT_IDTI:
  99:./tmk_core/protocol/lufa/LUFA-git/LUFA/Drivers/USB/Core/AVR8/../AVR8/USBInterrupt_AVR8.h **** 						USBCON |= (1 << IDTE);
 100:./tmk_core/protocol/lufa/LUFA-git/LUFA/Drivers/USB/Core/AVR8/../AVR8/USBInterrupt_AVR8.h **** 						break;
 101:./tmk_core/protocol/lufa/LUFA-git/LUFA/Drivers/USB/Core/AVR8/../AVR8/USBInterrupt_AVR8.h **** 					#endif
 102:./tmk_core/protocol/lufa/LUFA-git/LUFA/Drivers/USB/Core/AVR8/../AVR8/USBInterrupt_AVR8.h **** 					#if defined(USB_CAN_BE_DEVICE)
 103:./tmk_core/protocol/lufa/LUFA-git/LUFA/Drivers/USB/Core/AVR8/../AVR8/USBInterrupt_AVR8.h **** 					case USB_INT_WAKEUPI:
 104:./tmk_core/protocol/lufa/LUFA-git/LUFA/Drivers/USB/Core/AVR8/../AVR8/USBInterrupt_AVR8.h **** 						UDIEN  |= (1 << WAKEUPE);
 105:./tmk_core/protocol/lufa/LUFA-git/LUFA/Drivers/USB/Core/AVR8/../AVR8/USBInterrupt_AVR8.h **** 						break;
 106:./tmk_core/protocol/lufa/LUFA-git/LUFA/Drivers/USB/Core/AVR8/../AVR8/USBInterrupt_AVR8.h **** 					case USB_INT_SUSPI:
 107:./tmk_core/protocol/lufa/LUFA-git/LUFA/Drivers/USB/Core/AVR8/../AVR8/USBInterrupt_AVR8.h **** 						UDIEN  |= (1 << SUSPE);
 108:./tmk_core/protocol/lufa/LUFA-git/LUFA/Drivers/USB/Core/AVR8/../AVR8/USBInterrupt_AVR8.h **** 						break;
 109:./tmk_core/protocol/lufa/LUFA-git/LUFA/Drivers/USB/Core/AVR8/../AVR8/USBInterrupt_AVR8.h **** 					case USB_INT_EORSTI:
 110:./tmk_core/protocol/lufa/LUFA-git/LUFA/Drivers/USB/Core/AVR8/../AVR8/USBInterrupt_AVR8.h **** 						UDIEN  |= (1 << EORSTE);
 111:./tmk_core/protocol/lufa/LUFA-git/LUFA/Drivers/USB/Core/AVR8/../AVR8/USBInterrupt_AVR8.h **** 						break;
 112:./tmk_core/protocol/lufa/LUFA-git/LUFA/Drivers/USB/Core/AVR8/../AVR8/USBInterrupt_AVR8.h **** 					case USB_INT_SOFI:
 113:./tmk_core/protocol/lufa/LUFA-git/LUFA/Drivers/USB/Core/AVR8/../AVR8/USBInterrupt_AVR8.h **** 						UDIEN  |= (1 << SOFE);
 545               		.loc 4 113 0
 546 0010 8091 E200 		lds r24,226
 547 0014 8460      		ori r24,lo8(4)
 548 0016 8093 E200 		sts 226,r24
 549               	.LVL56:
 550               	.L71:
 551 001a 0895      		ret
 552               	.LBE163:
 553               	.LBE162:
 554               	.LBE161:
 555               		.cfi_endproc
 556               	.LFE108:
 558               		.section	.text.EVENT_USB_Device_Disconnect,"ax",@progbits
 559               	.global	EVENT_USB_Device_Disconnect
 561               	EVENT_USB_Device_Disconnect:
 562               	.LFB109:
 250:./tmk_core/protocol/lufa/lufa.c ****     print("[D]");
 563               		.loc 1 250 0
 564               		.cfi_startproc
 565               	/* prologue: function */
 566               	/* frame size = 0 */
 567               	/* stack size = 0 */
 568               	.L__stack_usage = 0
 253:./tmk_core/protocol/lufa/lufa.c **** /* TODO: This doesn't work. After several plug in/outs can not be enumerated.
 569               		.loc 1 253 0
 570 0000 1092 0000 		sts USB_IsInitialized,__zero_reg__
 571 0004 0895      		ret
 572               		.cfi_endproc
 573               	.LFE109:
 575               		.section	.text.EVENT_USB_Device_Reset,"ax",@progbits
 576               	.global	EVENT_USB_Device_Reset
 578               	EVENT_USB_Device_Reset:
 579               	.LFB110:
 264:./tmk_core/protocol/lufa/lufa.c ****     print("[R]");
 580               		.loc 1 264 0
 581               		.cfi_startproc
 582               	/* prologue: function */
 583               	/* frame size = 0 */
 584               	/* stack size = 0 */
 585               	.L__stack_usage = 0
 586 0000 0895      		ret
 587               		.cfi_endproc
 588               	.LFE110:
 590               		.section	.text.EVENT_USB_Device_Suspend,"ax",@progbits
 591               	.global	EVENT_USB_Device_Suspend
 593               	EVENT_USB_Device_Suspend:
 594               	.LFB111:
 269:./tmk_core/protocol/lufa/lufa.c ****     print("[S]");
 595               		.loc 1 269 0
 596               		.cfi_startproc
 597               	/* prologue: function */
 598               	/* frame size = 0 */
 599               	/* stack size = 0 */
 600               	.L__stack_usage = 0
 601 0000 0895      		ret
 602               		.cfi_endproc
 603               	.LFE111:
 605               		.section	.text.EVENT_USB_Device_WakeUp,"ax",@progbits
 606               	.global	EVENT_USB_Device_WakeUp
 608               	EVENT_USB_Device_WakeUp:
 609               	.LFB112:
 277:./tmk_core/protocol/lufa/lufa.c ****     print("[W]");
 610               		.loc 1 277 0
 611               		.cfi_startproc
 612               	/* prologue: function */
 613               	/* frame size = 0 */
 614               	/* stack size = 0 */
 615               	.L__stack_usage = 0
 279:./tmk_core/protocol/lufa/lufa.c **** 
 616               		.loc 1 279 0
 617 0000 0C94 0000 		jmp suspend_wakeup_init
 618               	.LVL57:
 619               		.cfi_endproc
 620               	.LFE112:
 622               		.section	.text.EVENT_USB_Device_ConfigurationChanged,"ax",@progbits
 623               	.global	EVENT_USB_Device_ConfigurationChanged
 625               	EVENT_USB_Device_ConfigurationChanged:
 626               	.LFB113:
 314:./tmk_core/protocol/lufa/lufa.c ****     bool ConfigSuccess = true;
 627               		.loc 1 314 0
 628               		.cfi_startproc
 629               	/* prologue: function */
 630               	/* frame size = 0 */
 631               	/* stack size = 0 */
 632               	.L__stack_usage = 0
 633               	.LVL58:
 634               	.LBB164:
 635               	.LBB165:
 210:./tmk_core/protocol/lufa/LUFA-git/LUFA/Drivers/USB/Core/AVR8/../AVR8/Endpoint_AVR8.h **** 				                                      ((Type << EPTYPE0) | ((Address & ENDPOINT_DIR_IN) ? (1 <<
 636               		.loc 2 210 0
 637 0000 42E0      		ldi r20,lo8(2)
 638 0002 61EC      		ldi r22,lo8(-63)
 639 0004 81E0      		ldi r24,lo8(1)
 640 0006 0E94 0000 		call Endpoint_ConfigureEndpoint_Prv
 641               	.LVL59:
 642               	.LBE165:
 643               	.LBE164:
 644               	.LBB166:
 645               	.LBB167:
 646 000a 42E0      		ldi r20,lo8(2)
 647 000c 61EC      		ldi r22,lo8(-63)
 648 000e 82E0      		ldi r24,lo8(2)
 649 0010 0E94 0000 		call Endpoint_ConfigureEndpoint_Prv
 650               	.LVL60:
 651               	.LBE167:
 652               	.LBE166:
 653               	.LBB168:
 654               	.LBB169:
 655 0014 42E0      		ldi r20,lo8(2)
 656 0016 61EC      		ldi r22,lo8(-63)
 657 0018 83E0      		ldi r24,lo8(3)
 658 001a 0E94 0000 		call Endpoint_ConfigureEndpoint_Prv
 659               	.LVL61:
 660               	.LBE169:
 661               	.LBE168:
 662               	.LBB170:
 663               	.LBB171:
 664 001e 42E2      		ldi r20,lo8(34)
 665 0020 61EC      		ldi r22,lo8(-63)
 666 0022 84E0      		ldi r24,lo8(4)
 667 0024 0C94 0000 		jmp Endpoint_ConfigureEndpoint_Prv
 668               	.LVL62:
 669               	.LBE171:
 670               	.LBE170:
 671               		.cfi_endproc
 672               	.LFE113:
 674               		.section	.text.EVENT_USB_Device_ControlRequest,"ax",@progbits
 675               	.global	EVENT_USB_Device_ControlRequest
 677               	EVENT_USB_Device_ControlRequest:
 678               	.LFB114:
 378:./tmk_core/protocol/lufa/lufa.c ****     uint8_t* ReportData = NULL;
 679               		.loc 1 378 0
 680               		.cfi_startproc
 681               	/* prologue: function */
 682               	/* frame size = 0 */
 683               	/* stack size = 0 */
 684               	.L__stack_usage = 0
 685               	.LVL63:
 383:./tmk_core/protocol/lufa/lufa.c ****     {
 686               		.loc 1 383 0
 687 0000 8091 0000 		lds r24,USB_ControlRequest+1
 688 0004 8330      		cpi r24,lo8(3)
 689 0006 01F4      		brne .+2
 690 0008 00C0      		rjmp .L80
 691 000a 00F4      		brsh .L81
 692 000c 8130      		cpi r24,lo8(1)
 693 000e 01F0      		breq .L82
 694 0010 8230      		cpi r24,lo8(2)
 695 0012 01F4      		brne .+2
 696 0014 00C0      		rjmp .L83
 697 0016 0895      		ret
 698               	.L81:
 699 0018 8A30      		cpi r24,lo8(10)
 700 001a 01F4      		brne .+2
 701 001c 00C0      		rjmp .L84
 702 001e 8B30      		cpi r24,lo8(11)
 703 0020 01F4      		brne .+2
 704 0022 00C0      		rjmp .L85
 705 0024 8930      		cpi r24,lo8(9)
 706 0026 01F0      		breq .+2
 707 0028 00C0      		rjmp .L78
 708 002a 00C0      		rjmp .L113
 709               	.L82:
 386:./tmk_core/protocol/lufa/lufa.c ****             {
 710               		.loc 1 386 0
 711 002c 8091 0000 		lds r24,USB_ControlRequest
 712 0030 813A      		cpi r24,lo8(-95)
 713 0032 01F0      		breq .+2
 714 0034 00C0      		rjmp .L78
 715               	.LBB172:
 716               	.LBB173:
 444:./tmk_core/protocol/lufa/LUFA-git/LUFA/Drivers/USB/Core/AVR8/../AVR8/Endpoint_AVR8.h **** 			}
 717               		.loc 2 444 0
 718 0036 8091 E800 		lds r24,232
 719 003a 877F      		andi r24,lo8(-9)
 720 003c 8093 E800 		sts 232,r24
 721               	.LBE173:
 722               	.LBE172:
 391:./tmk_core/protocol/lufa/lufa.c ****                 case KEYBOARD_INTERFACE:
 723               		.loc 1 391 0
 724 0040 8091 0000 		lds r24,USB_ControlRequest+4
 725 0044 9091 0000 		lds r25,USB_ControlRequest+4+1
 726 0048 892B      		or r24,r25
 727 004a 01F4      		brne .L110
 395:./tmk_core/protocol/lufa/lufa.c ****                     break;
 728               		.loc 1 395 0
 729 004c 60E2      		ldi r22,lo8(32)
 394:./tmk_core/protocol/lufa/lufa.c ****                     ReportSize = sizeof(keyboard_report_sent);
 730               		.loc 1 394 0
 731 004e 80E0      		ldi r24,lo8(keyboard_report_sent)
 732 0050 90E0      		ldi r25,hi8(keyboard_report_sent)
 733 0052 00C0      		rjmp .L88
 734               	.L110:
 380:./tmk_core/protocol/lufa/lufa.c **** 
 735               		.loc 1 380 0
 736 0054 60E0      		ldi r22,0
 379:./tmk_core/protocol/lufa/lufa.c ****     uint8_t  ReportSize = 0;
 737               		.loc 1 379 0
 738 0056 80E0      		ldi r24,0
 739 0058 90E0      		ldi r25,0
 740               	.L88:
 741               	.LVL64:
 400:./tmk_core/protocol/lufa/lufa.c ****                 Endpoint_ClearOUT();
 742               		.loc 1 400 0
 743 005a 70E0      		ldi r23,0
 744 005c 0E94 0000 		call Endpoint_Write_Control_Stream_LE
 745               	.LVL65:
 746               	.LBB174:
 747               	.LBB175:
 457:./tmk_core/protocol/lufa/LUFA-git/LUFA/Drivers/USB/Core/AVR8/../AVR8/Endpoint_AVR8.h **** 				#else
 458:./tmk_core/protocol/lufa/LUFA-git/LUFA/Drivers/USB/Core/AVR8/../AVR8/Endpoint_AVR8.h **** 					UEINTX &= ~(1 << TXINI);
 459:./tmk_core/protocol/lufa/LUFA-git/LUFA/Drivers/USB/Core/AVR8/../AVR8/Endpoint_AVR8.h **** 				#endif
 460:./tmk_core/protocol/lufa/LUFA-git/LUFA/Drivers/USB/Core/AVR8/../AVR8/Endpoint_AVR8.h **** 			}
 461:./tmk_core/protocol/lufa/LUFA-git/LUFA/Drivers/USB/Core/AVR8/../AVR8/Endpoint_AVR8.h **** 
 462:./tmk_core/protocol/lufa/LUFA-git/LUFA/Drivers/USB/Core/AVR8/../AVR8/Endpoint_AVR8.h **** 			/** Acknowledges an OUT packet to the host on the currently selected endpoint, freeing up the en
 463:./tmk_core/protocol/lufa/LUFA-git/LUFA/Drivers/USB/Core/AVR8/../AVR8/Endpoint_AVR8.h **** 			 *  for the next packet and switching to the alternative endpoint bank if double banked.
 464:./tmk_core/protocol/lufa/LUFA-git/LUFA/Drivers/USB/Core/AVR8/../AVR8/Endpoint_AVR8.h **** 			 *
 465:./tmk_core/protocol/lufa/LUFA-git/LUFA/Drivers/USB/Core/AVR8/../AVR8/Endpoint_AVR8.h **** 			 *  \ingroup Group_EndpointPacketManagement_AVR8
 466:./tmk_core/protocol/lufa/LUFA-git/LUFA/Drivers/USB/Core/AVR8/../AVR8/Endpoint_AVR8.h **** 			 */
 467:./tmk_core/protocol/lufa/LUFA-git/LUFA/Drivers/USB/Core/AVR8/../AVR8/Endpoint_AVR8.h **** 			static inline void Endpoint_ClearOUT(void) ATTR_ALWAYS_INLINE;
 468:./tmk_core/protocol/lufa/LUFA-git/LUFA/Drivers/USB/Core/AVR8/../AVR8/Endpoint_AVR8.h **** 			static inline void Endpoint_ClearOUT(void)
 469:./tmk_core/protocol/lufa/LUFA-git/LUFA/Drivers/USB/Core/AVR8/../AVR8/Endpoint_AVR8.h **** 			{
 470:./tmk_core/protocol/lufa/LUFA-git/LUFA/Drivers/USB/Core/AVR8/../AVR8/Endpoint_AVR8.h **** 				#if !defined(CONTROL_ONLY_DEVICE)
 471:./tmk_core/protocol/lufa/LUFA-git/LUFA/Drivers/USB/Core/AVR8/../AVR8/Endpoint_AVR8.h **** 					UEINTX &= ~((1 << RXOUTI) | (1 << FIFOCON));
 748               		.loc 2 471 0
 749 0060 8091 E800 		lds r24,232
 750 0064 8B77      		andi r24,lo8(123)
 751 0066 8093 E800 		sts 232,r24
 752 006a 0895      		ret
 753               	.LVL66:
 754               	.L113:
 755               	.LBE175:
 756               	.LBE174:
 406:./tmk_core/protocol/lufa/lufa.c ****             {
 757               		.loc 1 406 0
 758 006c 8091 0000 		lds r24,USB_ControlRequest
 759 0070 8132      		cpi r24,lo8(33)
 760 0072 01F0      		breq .+2
 761 0074 00C0      		rjmp .L78
 410:./tmk_core/protocol/lufa/lufa.c ****                 case KEYBOARD_INTERFACE:
 762               		.loc 1 410 0
 763 0076 8091 0000 		lds r24,USB_ControlRequest+4
 764 007a 9091 0000 		lds r25,USB_ControlRequest+4+1
 765 007e 0097      		sbiw r24,0
 766 0080 01F0      		breq .L91
 767 0082 0397      		sbiw r24,3
 768 0084 01F0      		breq .+2
 769 0086 00C0      		rjmp .L78
 770               	.L91:
 771               	.LBB176:
 772               	.LBB177:
 444:./tmk_core/protocol/lufa/LUFA-git/LUFA/Drivers/USB/Core/AVR8/../AVR8/Endpoint_AVR8.h **** 			}
 773               		.loc 2 444 0
 774 0088 8091 E800 		lds r24,232
 775 008c 877F      		andi r24,lo8(-9)
 776 008e 8093 E800 		sts 232,r24
 777               	.L92:
 778               	.LBE177:
 779               	.LBE176:
 780               	.LBB178:
 781               	.LBB179:
 419:./tmk_core/protocol/lufa/LUFA-git/LUFA/Drivers/USB/Core/AVR8/../AVR8/Endpoint_AVR8.h **** 			}
 782               		.loc 2 419 0
 783 0092 8091 E800 		lds r24,232
 784               	.LBE179:
 785               	.LBE178:
 417:./tmk_core/protocol/lufa/lufa.c ****                         if (USB_DeviceState == DEVICE_STATE_Unattached)
 786               		.loc 1 417 0
 787 0096 82FD      		sbrc r24,2
 788 0098 00C0      		rjmp .L114
 418:./tmk_core/protocol/lufa/lufa.c ****                           return;
 789               		.loc 1 418 0
 790 009a 8091 0000 		lds r24,USB_DeviceState
 791 009e 8111      		cpse r24,__zero_reg__
 792 00a0 00C0      		rjmp .L92
 793 00a2 00C0      		rjmp .L78
 794               	.L114:
 795               	.LBB180:
 796               	.LBB181:
 472:./tmk_core/protocol/lufa/LUFA-git/LUFA/Drivers/USB/Core/AVR8/../AVR8/Endpoint_AVR8.h **** 				#else
 473:./tmk_core/protocol/lufa/LUFA-git/LUFA/Drivers/USB/Core/AVR8/../AVR8/Endpoint_AVR8.h **** 					UEINTX &= ~(1 << RXOUTI);
 474:./tmk_core/protocol/lufa/LUFA-git/LUFA/Drivers/USB/Core/AVR8/../AVR8/Endpoint_AVR8.h **** 				#endif
 475:./tmk_core/protocol/lufa/LUFA-git/LUFA/Drivers/USB/Core/AVR8/../AVR8/Endpoint_AVR8.h **** 			}
 476:./tmk_core/protocol/lufa/LUFA-git/LUFA/Drivers/USB/Core/AVR8/../AVR8/Endpoint_AVR8.h **** 
 477:./tmk_core/protocol/lufa/LUFA-git/LUFA/Drivers/USB/Core/AVR8/../AVR8/Endpoint_AVR8.h **** 			/** Stalls the current endpoint, indicating to the host that a logical problem occurred with the
 478:./tmk_core/protocol/lufa/LUFA-git/LUFA/Drivers/USB/Core/AVR8/../AVR8/Endpoint_AVR8.h **** 			 *  indicated endpoint and that the current transfer sequence should be aborted. This provides a
 479:./tmk_core/protocol/lufa/LUFA-git/LUFA/Drivers/USB/Core/AVR8/../AVR8/Endpoint_AVR8.h **** 			 *  way for devices to indicate invalid commands to the host so that the current transfer can be
 480:./tmk_core/protocol/lufa/LUFA-git/LUFA/Drivers/USB/Core/AVR8/../AVR8/Endpoint_AVR8.h **** 			 *  aborted and the host can begin its own recovery sequence.
 481:./tmk_core/protocol/lufa/LUFA-git/LUFA/Drivers/USB/Core/AVR8/../AVR8/Endpoint_AVR8.h **** 			 *
 482:./tmk_core/protocol/lufa/LUFA-git/LUFA/Drivers/USB/Core/AVR8/../AVR8/Endpoint_AVR8.h **** 			 *  The currently selected endpoint remains stalled until either the \ref Endpoint_ClearStall() 
 483:./tmk_core/protocol/lufa/LUFA-git/LUFA/Drivers/USB/Core/AVR8/../AVR8/Endpoint_AVR8.h **** 			 *  is called, or the host issues a CLEAR FEATURE request to the device for the currently select
 484:./tmk_core/protocol/lufa/LUFA-git/LUFA/Drivers/USB/Core/AVR8/../AVR8/Endpoint_AVR8.h **** 			 *  endpoint.
 485:./tmk_core/protocol/lufa/LUFA-git/LUFA/Drivers/USB/Core/AVR8/../AVR8/Endpoint_AVR8.h **** 			 *
 486:./tmk_core/protocol/lufa/LUFA-git/LUFA/Drivers/USB/Core/AVR8/../AVR8/Endpoint_AVR8.h **** 			 *  \ingroup Group_EndpointPacketManagement_AVR8
 487:./tmk_core/protocol/lufa/LUFA-git/LUFA/Drivers/USB/Core/AVR8/../AVR8/Endpoint_AVR8.h **** 			 */
 488:./tmk_core/protocol/lufa/LUFA-git/LUFA/Drivers/USB/Core/AVR8/../AVR8/Endpoint_AVR8.h **** 			static inline void Endpoint_StallTransaction(void) ATTR_ALWAYS_INLINE;
 489:./tmk_core/protocol/lufa/LUFA-git/LUFA/Drivers/USB/Core/AVR8/../AVR8/Endpoint_AVR8.h **** 			static inline void Endpoint_StallTransaction(void)
 490:./tmk_core/protocol/lufa/LUFA-git/LUFA/Drivers/USB/Core/AVR8/../AVR8/Endpoint_AVR8.h **** 			{
 491:./tmk_core/protocol/lufa/LUFA-git/LUFA/Drivers/USB/Core/AVR8/../AVR8/Endpoint_AVR8.h **** 				UECONX |= (1 << STALLRQ);
 492:./tmk_core/protocol/lufa/LUFA-git/LUFA/Drivers/USB/Core/AVR8/../AVR8/Endpoint_AVR8.h **** 			}
 493:./tmk_core/protocol/lufa/LUFA-git/LUFA/Drivers/USB/Core/AVR8/../AVR8/Endpoint_AVR8.h **** 
 494:./tmk_core/protocol/lufa/LUFA-git/LUFA/Drivers/USB/Core/AVR8/../AVR8/Endpoint_AVR8.h **** 			/** Clears the STALL condition on the currently selected endpoint.
 495:./tmk_core/protocol/lufa/LUFA-git/LUFA/Drivers/USB/Core/AVR8/../AVR8/Endpoint_AVR8.h **** 			 *
 496:./tmk_core/protocol/lufa/LUFA-git/LUFA/Drivers/USB/Core/AVR8/../AVR8/Endpoint_AVR8.h **** 			 *  \ingroup Group_EndpointPacketManagement_AVR8
 497:./tmk_core/protocol/lufa/LUFA-git/LUFA/Drivers/USB/Core/AVR8/../AVR8/Endpoint_AVR8.h **** 			 */
 498:./tmk_core/protocol/lufa/LUFA-git/LUFA/Drivers/USB/Core/AVR8/../AVR8/Endpoint_AVR8.h **** 			static inline void Endpoint_ClearStall(void) ATTR_ALWAYS_INLINE;
 499:./tmk_core/protocol/lufa/LUFA-git/LUFA/Drivers/USB/Core/AVR8/../AVR8/Endpoint_AVR8.h **** 			static inline void Endpoint_ClearStall(void)
 500:./tmk_core/protocol/lufa/LUFA-git/LUFA/Drivers/USB/Core/AVR8/../AVR8/Endpoint_AVR8.h **** 			{
 501:./tmk_core/protocol/lufa/LUFA-git/LUFA/Drivers/USB/Core/AVR8/../AVR8/Endpoint_AVR8.h **** 				UECONX |= (1 << STALLRQC);
 502:./tmk_core/protocol/lufa/LUFA-git/LUFA/Drivers/USB/Core/AVR8/../AVR8/Endpoint_AVR8.h **** 			}
 503:./tmk_core/protocol/lufa/LUFA-git/LUFA/Drivers/USB/Core/AVR8/../AVR8/Endpoint_AVR8.h **** 
 504:./tmk_core/protocol/lufa/LUFA-git/LUFA/Drivers/USB/Core/AVR8/../AVR8/Endpoint_AVR8.h **** 			/** Determines if the currently selected endpoint is stalled, \c false otherwise.
 505:./tmk_core/protocol/lufa/LUFA-git/LUFA/Drivers/USB/Core/AVR8/../AVR8/Endpoint_AVR8.h **** 			 *
 506:./tmk_core/protocol/lufa/LUFA-git/LUFA/Drivers/USB/Core/AVR8/../AVR8/Endpoint_AVR8.h **** 			 *  \ingroup Group_EndpointPacketManagement_AVR8
 507:./tmk_core/protocol/lufa/LUFA-git/LUFA/Drivers/USB/Core/AVR8/../AVR8/Endpoint_AVR8.h **** 			 *
 508:./tmk_core/protocol/lufa/LUFA-git/LUFA/Drivers/USB/Core/AVR8/../AVR8/Endpoint_AVR8.h **** 			 *  \return Boolean \c true if the currently selected endpoint is stalled, \c false otherwise.
 509:./tmk_core/protocol/lufa/LUFA-git/LUFA/Drivers/USB/Core/AVR8/../AVR8/Endpoint_AVR8.h **** 			 */
 510:./tmk_core/protocol/lufa/LUFA-git/LUFA/Drivers/USB/Core/AVR8/../AVR8/Endpoint_AVR8.h **** 			static inline bool Endpoint_IsStalled(void) ATTR_WARN_UNUSED_RESULT ATTR_ALWAYS_INLINE;
 511:./tmk_core/protocol/lufa/LUFA-git/LUFA/Drivers/USB/Core/AVR8/../AVR8/Endpoint_AVR8.h **** 			static inline bool Endpoint_IsStalled(void)
 512:./tmk_core/protocol/lufa/LUFA-git/LUFA/Drivers/USB/Core/AVR8/../AVR8/Endpoint_AVR8.h **** 			{
 513:./tmk_core/protocol/lufa/LUFA-git/LUFA/Drivers/USB/Core/AVR8/../AVR8/Endpoint_AVR8.h **** 				return ((UECONX & (1 << STALLRQ)) ? true : false);
 514:./tmk_core/protocol/lufa/LUFA-git/LUFA/Drivers/USB/Core/AVR8/../AVR8/Endpoint_AVR8.h **** 			}
 515:./tmk_core/protocol/lufa/LUFA-git/LUFA/Drivers/USB/Core/AVR8/../AVR8/Endpoint_AVR8.h **** 
 516:./tmk_core/protocol/lufa/LUFA-git/LUFA/Drivers/USB/Core/AVR8/../AVR8/Endpoint_AVR8.h **** 			/** Resets the data toggle of the currently selected endpoint. */
 517:./tmk_core/protocol/lufa/LUFA-git/LUFA/Drivers/USB/Core/AVR8/../AVR8/Endpoint_AVR8.h **** 			static inline void Endpoint_ResetDataToggle(void) ATTR_ALWAYS_INLINE;
 518:./tmk_core/protocol/lufa/LUFA-git/LUFA/Drivers/USB/Core/AVR8/../AVR8/Endpoint_AVR8.h **** 			static inline void Endpoint_ResetDataToggle(void)
 519:./tmk_core/protocol/lufa/LUFA-git/LUFA/Drivers/USB/Core/AVR8/../AVR8/Endpoint_AVR8.h **** 			{
 520:./tmk_core/protocol/lufa/LUFA-git/LUFA/Drivers/USB/Core/AVR8/../AVR8/Endpoint_AVR8.h **** 				UECONX |= (1 << RSTDT);
 521:./tmk_core/protocol/lufa/LUFA-git/LUFA/Drivers/USB/Core/AVR8/../AVR8/Endpoint_AVR8.h **** 			}
 522:./tmk_core/protocol/lufa/LUFA-git/LUFA/Drivers/USB/Core/AVR8/../AVR8/Endpoint_AVR8.h **** 
 523:./tmk_core/protocol/lufa/LUFA-git/LUFA/Drivers/USB/Core/AVR8/../AVR8/Endpoint_AVR8.h **** 			/** Sets the direction of the currently selected endpoint.
 524:./tmk_core/protocol/lufa/LUFA-git/LUFA/Drivers/USB/Core/AVR8/../AVR8/Endpoint_AVR8.h **** 			 *
 525:./tmk_core/protocol/lufa/LUFA-git/LUFA/Drivers/USB/Core/AVR8/../AVR8/Endpoint_AVR8.h **** 			 *  \param[in] DirectionMask  New endpoint direction, as a \c ENDPOINT_DIR_* mask.
 526:./tmk_core/protocol/lufa/LUFA-git/LUFA/Drivers/USB/Core/AVR8/../AVR8/Endpoint_AVR8.h **** 			 */
 527:./tmk_core/protocol/lufa/LUFA-git/LUFA/Drivers/USB/Core/AVR8/../AVR8/Endpoint_AVR8.h **** 			static inline void Endpoint_SetEndpointDirection(const uint8_t DirectionMask) ATTR_ALWAYS_INLINE
 528:./tmk_core/protocol/lufa/LUFA-git/LUFA/Drivers/USB/Core/AVR8/../AVR8/Endpoint_AVR8.h **** 			static inline void Endpoint_SetEndpointDirection(const uint8_t DirectionMask)
 529:./tmk_core/protocol/lufa/LUFA-git/LUFA/Drivers/USB/Core/AVR8/../AVR8/Endpoint_AVR8.h **** 			{
 530:./tmk_core/protocol/lufa/LUFA-git/LUFA/Drivers/USB/Core/AVR8/../AVR8/Endpoint_AVR8.h **** 				UECFG0X = ((UECFG0X & ~(1 << EPDIR)) | (DirectionMask ? (1 << EPDIR) : 0));
 531:./tmk_core/protocol/lufa/LUFA-git/LUFA/Drivers/USB/Core/AVR8/../AVR8/Endpoint_AVR8.h **** 			}
 532:./tmk_core/protocol/lufa/LUFA-git/LUFA/Drivers/USB/Core/AVR8/../AVR8/Endpoint_AVR8.h **** 
 533:./tmk_core/protocol/lufa/LUFA-git/LUFA/Drivers/USB/Core/AVR8/../AVR8/Endpoint_AVR8.h **** 			/** Reads one byte from the currently selected endpoint's bank, for OUT direction endpoints.
 534:./tmk_core/protocol/lufa/LUFA-git/LUFA/Drivers/USB/Core/AVR8/../AVR8/Endpoint_AVR8.h **** 			 *
 535:./tmk_core/protocol/lufa/LUFA-git/LUFA/Drivers/USB/Core/AVR8/../AVR8/Endpoint_AVR8.h **** 			 *  \ingroup Group_EndpointPrimitiveRW_AVR8
 536:./tmk_core/protocol/lufa/LUFA-git/LUFA/Drivers/USB/Core/AVR8/../AVR8/Endpoint_AVR8.h **** 			 *
 537:./tmk_core/protocol/lufa/LUFA-git/LUFA/Drivers/USB/Core/AVR8/../AVR8/Endpoint_AVR8.h **** 			 *  \return Next byte in the currently selected endpoint's FIFO buffer.
 538:./tmk_core/protocol/lufa/LUFA-git/LUFA/Drivers/USB/Core/AVR8/../AVR8/Endpoint_AVR8.h **** 			 */
 539:./tmk_core/protocol/lufa/LUFA-git/LUFA/Drivers/USB/Core/AVR8/../AVR8/Endpoint_AVR8.h **** 			static inline uint8_t Endpoint_Read_8(void) ATTR_WARN_UNUSED_RESULT ATTR_ALWAYS_INLINE;
 540:./tmk_core/protocol/lufa/LUFA-git/LUFA/Drivers/USB/Core/AVR8/../AVR8/Endpoint_AVR8.h **** 			static inline uint8_t Endpoint_Read_8(void)
 541:./tmk_core/protocol/lufa/LUFA-git/LUFA/Drivers/USB/Core/AVR8/../AVR8/Endpoint_AVR8.h **** 			{
 542:./tmk_core/protocol/lufa/LUFA-git/LUFA/Drivers/USB/Core/AVR8/../AVR8/Endpoint_AVR8.h **** 				return UEDATX;
 797               		.loc 2 542 0
 798 00a4 8091 F100 		lds r24,241
 799               	.LBE181:
 800               	.LBE180:
 421:./tmk_core/protocol/lufa/lufa.c **** 
 801               		.loc 1 421 0
 802 00a8 8093 0000 		sts keyboard_led_stats,r24
 803               	.LBB182:
 804               	.LBB183:
 471:./tmk_core/protocol/lufa/LUFA-git/LUFA/Drivers/USB/Core/AVR8/../AVR8/Endpoint_AVR8.h **** 				#else
 805               		.loc 2 471 0
 806 00ac 8091 E800 		lds r24,232
 807 00b0 8B77      		andi r24,lo8(123)
 808 00b2 00C0      		rjmp .L111
 809               	.L80:
 810               	.LBE183:
 811               	.LBE182:
 433:./tmk_core/protocol/lufa/lufa.c ****             {
 812               		.loc 1 433 0
 813 00b4 8091 0000 		lds r24,USB_ControlRequest
 814 00b8 813A      		cpi r24,lo8(-95)
 815 00ba 01F0      		breq .+2
 816 00bc 00C0      		rjmp .L78
 435:./tmk_core/protocol/lufa/lufa.c ****                     Endpoint_ClearSETUP();
 817               		.loc 1 435 0
 818 00be 8091 0000 		lds r24,USB_ControlRequest+4
 819 00c2 9091 0000 		lds r25,USB_ControlRequest+4+1
 820 00c6 892B      		or r24,r25
 821 00c8 01F0      		breq .+2
 822 00ca 00C0      		rjmp .L78
 823               	.LBB184:
 824               	.LBB185:
 444:./tmk_core/protocol/lufa/LUFA-git/LUFA/Drivers/USB/Core/AVR8/../AVR8/Endpoint_AVR8.h **** 			}
 825               		.loc 2 444 0
 826 00cc 8091 E800 		lds r24,232
 827 00d0 877F      		andi r24,lo8(-9)
 828 00d2 8093 E800 		sts 232,r24
 829               	.L94:
 830               	.LBE185:
 831               	.LBE184:
 832               	.LBB186:
 833               	.LBB187:
 407:./tmk_core/protocol/lufa/LUFA-git/LUFA/Drivers/USB/Core/AVR8/../AVR8/Endpoint_AVR8.h **** 			}
 834               		.loc 2 407 0 discriminator 1
 835 00d6 8091 E800 		lds r24,232
 836               	.LBE187:
 837               	.LBE186:
 437:./tmk_core/protocol/lufa/lufa.c ****                     Endpoint_Write_8(keyboard_protocol);
 838               		.loc 1 437 0 discriminator 1
 839 00da 80FF      		sbrs r24,0
 840 00dc 00C0      		rjmp .L94
 438:./tmk_core/protocol/lufa/lufa.c ****                     Endpoint_ClearIN();
 841               		.loc 1 438 0
 842 00de 8091 0000 		lds r24,keyboard_protocol
 843               	.LVL67:
 844 00e2 00C0      		rjmp .L112
 845               	.LVL68:
 846               	.L85:
 446:./tmk_core/protocol/lufa/lufa.c ****             {
 847               		.loc 1 446 0
 848 00e4 8091 0000 		lds r24,USB_ControlRequest
 849 00e8 8132      		cpi r24,lo8(33)
 850 00ea 01F4      		brne .L78
 448:./tmk_core/protocol/lufa/lufa.c ****                     Endpoint_ClearSETUP();
 851               		.loc 1 448 0
 852 00ec 8091 0000 		lds r24,USB_ControlRequest+4
 853 00f0 9091 0000 		lds r25,USB_ControlRequest+4+1
 854 00f4 892B      		or r24,r25
 855 00f6 01F4      		brne .L78
 856               	.LBB188:
 857               	.LBB189:
 444:./tmk_core/protocol/lufa/LUFA-git/LUFA/Drivers/USB/Core/AVR8/../AVR8/Endpoint_AVR8.h **** 			}
 858               		.loc 2 444 0
 859 00f8 8091 E800 		lds r24,232
 860 00fc 877F      		andi r24,lo8(-9)
 861 00fe 8093 E800 		sts 232,r24
 862               	.LBE189:
 863               	.LBE188:
 450:./tmk_core/protocol/lufa/lufa.c **** 
 864               		.loc 1 450 0
 865 0102 0E94 0000 		call Endpoint_ClearStatusStage
 866               	.LVL69:
 452:./tmk_core/protocol/lufa/lufa.c ****                     clear_keyboard();
 867               		.loc 1 452 0
 868 0106 8091 0000 		lds r24,USB_ControlRequest+2
 869 010a 8093 0000 		sts keyboard_protocol,r24
 453:./tmk_core/protocol/lufa/lufa.c ****                 }
 870               		.loc 1 453 0
 871 010e 0C94 0000 		jmp clear_keyboard
 872               	.LVL70:
 873               	.L84:
 459:./tmk_core/protocol/lufa/lufa.c ****             {
 874               		.loc 1 459 0
 875 0112 8091 0000 		lds r24,USB_ControlRequest
 876 0116 8132      		cpi r24,lo8(33)
 877 0118 01F4      		brne .L78
 878               	.LBB190:
 879               	.LBB191:
 444:./tmk_core/protocol/lufa/LUFA-git/LUFA/Drivers/USB/Core/AVR8/../AVR8/Endpoint_AVR8.h **** 			}
 880               		.loc 2 444 0
 881 011a 8091 E800 		lds r24,232
 882 011e 877F      		andi r24,lo8(-9)
 883 0120 8093 E800 		sts 232,r24
 884               	.LBE191:
 885               	.LBE190:
 462:./tmk_core/protocol/lufa/lufa.c **** 
 886               		.loc 1 462 0
 887 0124 0E94 0000 		call Endpoint_ClearStatusStage
 888               	.LVL71:
 464:./tmk_core/protocol/lufa/lufa.c ****             }
 889               		.loc 1 464 0
 890 0128 8091 0000 		lds r24,USB_ControlRequest+3
 891 012c 8093 0000 		sts keyboard_idle,r24
 892 0130 0895      		ret
 893               	.L83:
 469:./tmk_core/protocol/lufa/lufa.c ****             {
 894               		.loc 1 469 0
 895 0132 8091 0000 		lds r24,USB_ControlRequest
 896 0136 813A      		cpi r24,lo8(-95)
 897 0138 01F4      		brne .L78
 898               	.LBB192:
 899               	.LBB193:
 444:./tmk_core/protocol/lufa/LUFA-git/LUFA/Drivers/USB/Core/AVR8/../AVR8/Endpoint_AVR8.h **** 			}
 900               		.loc 2 444 0
 901 013a 8091 E800 		lds r24,232
 902 013e 877F      		andi r24,lo8(-9)
 903 0140 8093 E800 		sts 232,r24
 904               	.L95:
 905               	.LBE193:
 906               	.LBE192:
 907               	.LBB194:
 908               	.LBB195:
 407:./tmk_core/protocol/lufa/LUFA-git/LUFA/Drivers/USB/Core/AVR8/../AVR8/Endpoint_AVR8.h **** 			}
 909               		.loc 2 407 0 discriminator 1
 910 0144 8091 E800 		lds r24,232
 911               	.LBE195:
 912               	.LBE194:
 472:./tmk_core/protocol/lufa/lufa.c ****                 Endpoint_Write_8(keyboard_idle);
 913               		.loc 1 472 0 discriminator 1
 914 0148 80FF      		sbrs r24,0
 915 014a 00C0      		rjmp .L95
 473:./tmk_core/protocol/lufa/lufa.c ****                 Endpoint_ClearIN();
 916               		.loc 1 473 0
 917 014c 8091 0000 		lds r24,keyboard_idle
 918               	.L112:
 919               	.LVL72:
 920               	.LBB196:
 921               	.LBB197:
 543:./tmk_core/protocol/lufa/LUFA-git/LUFA/Drivers/USB/Core/AVR8/../AVR8/Endpoint_AVR8.h **** 			}
 544:./tmk_core/protocol/lufa/LUFA-git/LUFA/Drivers/USB/Core/AVR8/../AVR8/Endpoint_AVR8.h **** 
 545:./tmk_core/protocol/lufa/LUFA-git/LUFA/Drivers/USB/Core/AVR8/../AVR8/Endpoint_AVR8.h **** 			/** Writes one byte to the currently selected endpoint's bank, for IN direction endpoints.
 546:./tmk_core/protocol/lufa/LUFA-git/LUFA/Drivers/USB/Core/AVR8/../AVR8/Endpoint_AVR8.h **** 			 *
 547:./tmk_core/protocol/lufa/LUFA-git/LUFA/Drivers/USB/Core/AVR8/../AVR8/Endpoint_AVR8.h **** 			 *  \ingroup Group_EndpointPrimitiveRW_AVR8
 548:./tmk_core/protocol/lufa/LUFA-git/LUFA/Drivers/USB/Core/AVR8/../AVR8/Endpoint_AVR8.h **** 			 *
 549:./tmk_core/protocol/lufa/LUFA-git/LUFA/Drivers/USB/Core/AVR8/../AVR8/Endpoint_AVR8.h **** 			 *  \param[in] Data  Data to write into the the currently selected endpoint's FIFO buffer.
 550:./tmk_core/protocol/lufa/LUFA-git/LUFA/Drivers/USB/Core/AVR8/../AVR8/Endpoint_AVR8.h **** 			 */
 551:./tmk_core/protocol/lufa/LUFA-git/LUFA/Drivers/USB/Core/AVR8/../AVR8/Endpoint_AVR8.h **** 			static inline void Endpoint_Write_8(const uint8_t Data) ATTR_ALWAYS_INLINE;
 552:./tmk_core/protocol/lufa/LUFA-git/LUFA/Drivers/USB/Core/AVR8/../AVR8/Endpoint_AVR8.h **** 			static inline void Endpoint_Write_8(const uint8_t Data)
 553:./tmk_core/protocol/lufa/LUFA-git/LUFA/Drivers/USB/Core/AVR8/../AVR8/Endpoint_AVR8.h **** 			{
 554:./tmk_core/protocol/lufa/LUFA-git/LUFA/Drivers/USB/Core/AVR8/../AVR8/Endpoint_AVR8.h **** 				UEDATX = Data;
 922               		.loc 2 554 0
 923 0150 8093 F100 		sts 241,r24
 924               	.LBE197:
 925               	.LBE196:
 926               	.LBB198:
 927               	.LBB199:
 456:./tmk_core/protocol/lufa/LUFA-git/LUFA/Drivers/USB/Core/AVR8/../AVR8/Endpoint_AVR8.h **** 				#else
 928               		.loc 2 456 0
 929 0154 8091 E800 		lds r24,232
 930               	.LVL73:
 931 0158 8E77      		andi r24,lo8(126)
 932               	.LVL74:
 933               	.L111:
 934 015a 8093 E800 		sts 232,r24
 935               	.LBE199:
 936               	.LBE198:
 475:./tmk_core/protocol/lufa/lufa.c ****             }
 937               		.loc 1 475 0
 938 015e 0C94 0000 		jmp Endpoint_ClearStatusStage
 939               	.LVL75:
 940               	.L78:
 941 0162 0895      		ret
 942               		.cfi_endproc
 943               	.LFE114:
 945               		.section	.text.sendchar,"ax",@progbits
 946               	.global	sendchar
 948               	sendchar:
 949               	.LFB120:
 637:./tmk_core/protocol/lufa/lufa.c **** 
 638:./tmk_core/protocol/lufa/lufa.c **** 
 639:./tmk_core/protocol/lufa/lufa.c **** /*******************************************************************************
 640:./tmk_core/protocol/lufa/lufa.c ****  * sendchar
 641:./tmk_core/protocol/lufa/lufa.c ****  ******************************************************************************/
 642:./tmk_core/protocol/lufa/lufa.c **** #ifdef CONSOLE_ENABLE
 643:./tmk_core/protocol/lufa/lufa.c **** #define SEND_TIMEOUT 5
 644:./tmk_core/protocol/lufa/lufa.c **** int8_t sendchar(uint8_t c)
 645:./tmk_core/protocol/lufa/lufa.c **** {
 646:./tmk_core/protocol/lufa/lufa.c ****     // Not wait once timeouted.
 647:./tmk_core/protocol/lufa/lufa.c ****     // Because sendchar() is called so many times, waiting each call causes big lag.
 648:./tmk_core/protocol/lufa/lufa.c ****     static bool timeouted = false;
 649:./tmk_core/protocol/lufa/lufa.c **** 
 650:./tmk_core/protocol/lufa/lufa.c ****     // prevents Console_Task() from running during sendchar() runs.
 651:./tmk_core/protocol/lufa/lufa.c ****     // or char will be lost. These two function is mutually exclusive.
 652:./tmk_core/protocol/lufa/lufa.c ****     CONSOLE_FLUSH_SET(false);
 653:./tmk_core/protocol/lufa/lufa.c **** 
 654:./tmk_core/protocol/lufa/lufa.c ****     if (USB_DeviceState != DEVICE_STATE_Configured)
 655:./tmk_core/protocol/lufa/lufa.c ****         return -1;
 656:./tmk_core/protocol/lufa/lufa.c **** 
 657:./tmk_core/protocol/lufa/lufa.c ****     uint8_t ep = Endpoint_GetCurrentEndpoint();
 658:./tmk_core/protocol/lufa/lufa.c ****     Endpoint_SelectEndpoint(CONSOLE_IN_EPNUM);
 659:./tmk_core/protocol/lufa/lufa.c ****     if (!Endpoint_IsEnabled() || !Endpoint_IsConfigured()) {
 660:./tmk_core/protocol/lufa/lufa.c ****         goto ERROR_EXIT;
 661:./tmk_core/protocol/lufa/lufa.c ****     }
 662:./tmk_core/protocol/lufa/lufa.c **** 
 663:./tmk_core/protocol/lufa/lufa.c ****     if (timeouted && !Endpoint_IsReadWriteAllowed()) {
 664:./tmk_core/protocol/lufa/lufa.c ****         goto ERROR_EXIT;
 665:./tmk_core/protocol/lufa/lufa.c ****     }
 666:./tmk_core/protocol/lufa/lufa.c **** 
 667:./tmk_core/protocol/lufa/lufa.c ****     timeouted = false;
 668:./tmk_core/protocol/lufa/lufa.c **** 
 669:./tmk_core/protocol/lufa/lufa.c ****     uint8_t timeout = SEND_TIMEOUT;
 670:./tmk_core/protocol/lufa/lufa.c ****     while (!Endpoint_IsReadWriteAllowed()) {
 671:./tmk_core/protocol/lufa/lufa.c ****         if (USB_DeviceState != DEVICE_STATE_Configured) {
 672:./tmk_core/protocol/lufa/lufa.c ****             goto ERROR_EXIT;
 673:./tmk_core/protocol/lufa/lufa.c ****         }
 674:./tmk_core/protocol/lufa/lufa.c ****         if (Endpoint_IsStalled()) {
 675:./tmk_core/protocol/lufa/lufa.c ****             goto ERROR_EXIT;
 676:./tmk_core/protocol/lufa/lufa.c ****         }
 677:./tmk_core/protocol/lufa/lufa.c ****         if (!(timeout--)) {
 678:./tmk_core/protocol/lufa/lufa.c ****             timeouted = true;
 679:./tmk_core/protocol/lufa/lufa.c ****             goto ERROR_EXIT;
 680:./tmk_core/protocol/lufa/lufa.c ****         }
 681:./tmk_core/protocol/lufa/lufa.c ****         _delay_ms(1);
 682:./tmk_core/protocol/lufa/lufa.c ****     }
 683:./tmk_core/protocol/lufa/lufa.c **** 
 684:./tmk_core/protocol/lufa/lufa.c ****     Endpoint_Write_8(c);
 685:./tmk_core/protocol/lufa/lufa.c **** 
 686:./tmk_core/protocol/lufa/lufa.c ****     // send when bank is full
 687:./tmk_core/protocol/lufa/lufa.c ****     if (!Endpoint_IsReadWriteAllowed()) {
 688:./tmk_core/protocol/lufa/lufa.c ****         while (!(Endpoint_IsINReady()));
 689:./tmk_core/protocol/lufa/lufa.c ****         Endpoint_ClearIN();
 690:./tmk_core/protocol/lufa/lufa.c ****     } else {
 691:./tmk_core/protocol/lufa/lufa.c ****         CONSOLE_FLUSH_SET(true);
 692:./tmk_core/protocol/lufa/lufa.c ****     }
 693:./tmk_core/protocol/lufa/lufa.c **** 
 694:./tmk_core/protocol/lufa/lufa.c ****     Endpoint_SelectEndpoint(ep);
 695:./tmk_core/protocol/lufa/lufa.c ****     return 0;
 696:./tmk_core/protocol/lufa/lufa.c **** ERROR_EXIT:
 697:./tmk_core/protocol/lufa/lufa.c ****     Endpoint_SelectEndpoint(ep);
 698:./tmk_core/protocol/lufa/lufa.c ****     return -1;
 699:./tmk_core/protocol/lufa/lufa.c **** }
 700:./tmk_core/protocol/lufa/lufa.c **** #else
 701:./tmk_core/protocol/lufa/lufa.c **** int8_t sendchar(uint8_t c)
 702:./tmk_core/protocol/lufa/lufa.c **** {
 950               		.loc 1 702 0
 951               		.cfi_startproc
 952               	.LVL76:
 953               	/* prologue: function */
 954               	/* frame size = 0 */
 955               	/* stack size = 0 */
 956               	.L__stack_usage = 0
 703:./tmk_core/protocol/lufa/lufa.c ****     return 0;
 704:./tmk_core/protocol/lufa/lufa.c **** }
 957               		.loc 1 704 0
 958 0000 80E0      		ldi r24,0
 959               	.LVL77:
 960 0002 0895      		ret
 961               		.cfi_endproc
 962               	.LFE120:
 964               		.section	.text.startup.main,"ax",@progbits
 965               		.weak	main
 967               	main:
 968               	.LFB123:
 705:./tmk_core/protocol/lufa/lufa.c **** #endif
 706:./tmk_core/protocol/lufa/lufa.c **** 
 707:./tmk_core/protocol/lufa/lufa.c **** /*******************************************************************************
 708:./tmk_core/protocol/lufa/lufa.c ****  * MIDI
 709:./tmk_core/protocol/lufa/lufa.c ****  ******************************************************************************/
 710:./tmk_core/protocol/lufa/lufa.c **** 
 711:./tmk_core/protocol/lufa/lufa.c **** #ifdef MIDI_ENABLE
 712:./tmk_core/protocol/lufa/lufa.c **** void usb_send_func(MidiDevice * device, uint16_t cnt, uint8_t byte0, uint8_t byte1, uint8_t byte2) 
 713:./tmk_core/protocol/lufa/lufa.c ****   MIDI_EventPacket_t event;
 714:./tmk_core/protocol/lufa/lufa.c ****   event.Data1 = byte0;
 715:./tmk_core/protocol/lufa/lufa.c ****   event.Data2 = byte1;
 716:./tmk_core/protocol/lufa/lufa.c ****   event.Data3 = byte2;
 717:./tmk_core/protocol/lufa/lufa.c **** 
 718:./tmk_core/protocol/lufa/lufa.c ****   uint8_t cable = 0;
 719:./tmk_core/protocol/lufa/lufa.c **** 
 720:./tmk_core/protocol/lufa/lufa.c **** // Endpoint_SelectEndpoint(MIDI_STREAM_IN_EPNUM);
 721:./tmk_core/protocol/lufa/lufa.c **** 
 722:./tmk_core/protocol/lufa/lufa.c ****   //if the length is undefined we assume it is a SYSEX message
 723:./tmk_core/protocol/lufa/lufa.c ****   if (midi_packet_length(byte0) == UNDEFINED) {
 724:./tmk_core/protocol/lufa/lufa.c ****     switch(cnt) {
 725:./tmk_core/protocol/lufa/lufa.c ****       case 3:
 726:./tmk_core/protocol/lufa/lufa.c ****         if (byte2 == SYSEX_END)
 727:./tmk_core/protocol/lufa/lufa.c ****           event.Event = MIDI_EVENT(cable, SYSEX_ENDS_IN_3);
 728:./tmk_core/protocol/lufa/lufa.c ****         else
 729:./tmk_core/protocol/lufa/lufa.c ****           event.Event = MIDI_EVENT(cable, SYSEX_START_OR_CONT);
 730:./tmk_core/protocol/lufa/lufa.c ****         break;
 731:./tmk_core/protocol/lufa/lufa.c ****       case 2:
 732:./tmk_core/protocol/lufa/lufa.c ****         if (byte1 == SYSEX_END)
 733:./tmk_core/protocol/lufa/lufa.c ****           event.Event = MIDI_EVENT(cable, SYSEX_ENDS_IN_2);
 734:./tmk_core/protocol/lufa/lufa.c ****         else
 735:./tmk_core/protocol/lufa/lufa.c ****           event.Event = MIDI_EVENT(cable, SYSEX_START_OR_CONT);
 736:./tmk_core/protocol/lufa/lufa.c ****         break;
 737:./tmk_core/protocol/lufa/lufa.c ****       case 1:
 738:./tmk_core/protocol/lufa/lufa.c ****         if (byte0 == SYSEX_END)
 739:./tmk_core/protocol/lufa/lufa.c ****           event.Event = MIDI_EVENT(cable, SYSEX_ENDS_IN_1);
 740:./tmk_core/protocol/lufa/lufa.c ****         else
 741:./tmk_core/protocol/lufa/lufa.c ****           event.Event = MIDI_EVENT(cable, SYSEX_START_OR_CONT);
 742:./tmk_core/protocol/lufa/lufa.c ****         break;
 743:./tmk_core/protocol/lufa/lufa.c ****       default:
 744:./tmk_core/protocol/lufa/lufa.c ****         return; //invalid cnt
 745:./tmk_core/protocol/lufa/lufa.c ****     }
 746:./tmk_core/protocol/lufa/lufa.c ****   } else {
 747:./tmk_core/protocol/lufa/lufa.c ****     //deal with 'system common' messages
 748:./tmk_core/protocol/lufa/lufa.c ****     //TODO are there any more?
 749:./tmk_core/protocol/lufa/lufa.c ****     switch(byte0 & 0xF0){
 750:./tmk_core/protocol/lufa/lufa.c ****       case MIDI_SONGPOSITION:
 751:./tmk_core/protocol/lufa/lufa.c ****         event.Event = MIDI_EVENT(cable, SYS_COMMON_3);
 752:./tmk_core/protocol/lufa/lufa.c ****         break;
 753:./tmk_core/protocol/lufa/lufa.c ****       case MIDI_SONGSELECT:
 754:./tmk_core/protocol/lufa/lufa.c ****       case MIDI_TC_QUARTERFRAME:
 755:./tmk_core/protocol/lufa/lufa.c ****         event.Event = MIDI_EVENT(cable, SYS_COMMON_2);
 756:./tmk_core/protocol/lufa/lufa.c ****         break;
 757:./tmk_core/protocol/lufa/lufa.c ****       default:
 758:./tmk_core/protocol/lufa/lufa.c ****         event.Event = MIDI_EVENT(cable, byte0);
 759:./tmk_core/protocol/lufa/lufa.c ****         break;
 760:./tmk_core/protocol/lufa/lufa.c ****     }
 761:./tmk_core/protocol/lufa/lufa.c ****   }
 762:./tmk_core/protocol/lufa/lufa.c **** 
 763:./tmk_core/protocol/lufa/lufa.c **** // Endpoint_Write_Stream_LE(&event, sizeof(event), NULL);
 764:./tmk_core/protocol/lufa/lufa.c **** // Endpoint_ClearIN();
 765:./tmk_core/protocol/lufa/lufa.c **** 
 766:./tmk_core/protocol/lufa/lufa.c ****   MIDI_Device_SendEventPacket(&USB_MIDI_Interface, &event);
 767:./tmk_core/protocol/lufa/lufa.c ****   MIDI_Device_Flush(&USB_MIDI_Interface);
 768:./tmk_core/protocol/lufa/lufa.c ****   MIDI_Device_USBTask(&USB_MIDI_Interface);
 769:./tmk_core/protocol/lufa/lufa.c ****   USB_USBTask();
 770:./tmk_core/protocol/lufa/lufa.c **** }
 771:./tmk_core/protocol/lufa/lufa.c **** 
 772:./tmk_core/protocol/lufa/lufa.c **** void usb_get_midi(MidiDevice * device) {
 773:./tmk_core/protocol/lufa/lufa.c ****   MIDI_EventPacket_t event;
 774:./tmk_core/protocol/lufa/lufa.c ****   while (MIDI_Device_ReceiveEventPacket(&USB_MIDI_Interface, &event)) {
 775:./tmk_core/protocol/lufa/lufa.c **** 
 776:./tmk_core/protocol/lufa/lufa.c ****     midi_packet_length_t length = midi_packet_length(event.Data1);
 777:./tmk_core/protocol/lufa/lufa.c ****     uint8_t input[3];
 778:./tmk_core/protocol/lufa/lufa.c ****     input[0] = event.Data1;
 779:./tmk_core/protocol/lufa/lufa.c ****     input[1] = event.Data2;
 780:./tmk_core/protocol/lufa/lufa.c ****     input[2] = event.Data3;
 781:./tmk_core/protocol/lufa/lufa.c ****     if (length == UNDEFINED) {
 782:./tmk_core/protocol/lufa/lufa.c ****       //sysex
 783:./tmk_core/protocol/lufa/lufa.c ****       if (event.Event == MIDI_EVENT(0, SYSEX_START_OR_CONT) || event.Event == MIDI_EVENT(0, SYSEX_E
 784:./tmk_core/protocol/lufa/lufa.c ****         length = 3;
 785:./tmk_core/protocol/lufa/lufa.c ****       } else if (event.Event == MIDI_EVENT(0, SYSEX_ENDS_IN_2)) {
 786:./tmk_core/protocol/lufa/lufa.c ****         length = 2;
 787:./tmk_core/protocol/lufa/lufa.c ****       } else if(event.Event ==  MIDI_EVENT(0, SYSEX_ENDS_IN_1)) {
 788:./tmk_core/protocol/lufa/lufa.c ****         length = 1;
 789:./tmk_core/protocol/lufa/lufa.c ****       } else {
 790:./tmk_core/protocol/lufa/lufa.c ****         //XXX what to do?
 791:./tmk_core/protocol/lufa/lufa.c ****       }
 792:./tmk_core/protocol/lufa/lufa.c ****     }
 793:./tmk_core/protocol/lufa/lufa.c **** 
 794:./tmk_core/protocol/lufa/lufa.c ****     //pass the data to the device input function
 795:./tmk_core/protocol/lufa/lufa.c ****     if (length != UNDEFINED)
 796:./tmk_core/protocol/lufa/lufa.c ****       midi_device_input(device, length, input);
 797:./tmk_core/protocol/lufa/lufa.c ****   }
 798:./tmk_core/protocol/lufa/lufa.c ****   MIDI_Device_USBTask(&USB_MIDI_Interface);
 799:./tmk_core/protocol/lufa/lufa.c ****   USB_USBTask();
 800:./tmk_core/protocol/lufa/lufa.c **** }
 801:./tmk_core/protocol/lufa/lufa.c **** 
 802:./tmk_core/protocol/lufa/lufa.c **** void midi_usb_init(MidiDevice * device){
 803:./tmk_core/protocol/lufa/lufa.c ****   midi_device_init(device);
 804:./tmk_core/protocol/lufa/lufa.c ****   midi_device_set_send_func(device, usb_send_func);
 805:./tmk_core/protocol/lufa/lufa.c ****   midi_device_set_pre_input_process_func(device, usb_get_midi);
 806:./tmk_core/protocol/lufa/lufa.c **** 
 807:./tmk_core/protocol/lufa/lufa.c ****   SetupHardware();
 808:./tmk_core/protocol/lufa/lufa.c ****   sei();
 809:./tmk_core/protocol/lufa/lufa.c **** }
 810:./tmk_core/protocol/lufa/lufa.c **** 
 811:./tmk_core/protocol/lufa/lufa.c **** void MIDI_Task(void)
 812:./tmk_core/protocol/lufa/lufa.c **** {
 813:./tmk_core/protocol/lufa/lufa.c **** 
 814:./tmk_core/protocol/lufa/lufa.c ****     /* Device must be connected and configured for the task to run */
 815:./tmk_core/protocol/lufa/lufa.c ****     dprint("in MIDI_TASK\n");
 816:./tmk_core/protocol/lufa/lufa.c ****     if (USB_DeviceState != DEVICE_STATE_Configured)
 817:./tmk_core/protocol/lufa/lufa.c ****       return;
 818:./tmk_core/protocol/lufa/lufa.c ****     dprint("continuing in MIDI_TASK\n");
 819:./tmk_core/protocol/lufa/lufa.c **** 
 820:./tmk_core/protocol/lufa/lufa.c ****     Endpoint_SelectEndpoint(MIDI_STREAM_IN_EPADDR);
 821:./tmk_core/protocol/lufa/lufa.c **** 
 822:./tmk_core/protocol/lufa/lufa.c ****     if (Endpoint_IsINReady())
 823:./tmk_core/protocol/lufa/lufa.c ****     {
 824:./tmk_core/protocol/lufa/lufa.c **** 
 825:./tmk_core/protocol/lufa/lufa.c ****         dprint("Endpoint is ready\n");
 826:./tmk_core/protocol/lufa/lufa.c **** 
 827:./tmk_core/protocol/lufa/lufa.c ****         uint8_t MIDICommand = 0;
 828:./tmk_core/protocol/lufa/lufa.c ****         uint8_t MIDIPitch;
 829:./tmk_core/protocol/lufa/lufa.c **** 
 830:./tmk_core/protocol/lufa/lufa.c ****         /* Get board button status - if pressed use channel 10 (percussion), otherwise use channel 
 831:./tmk_core/protocol/lufa/lufa.c ****         uint8_t Channel = MIDI_CHANNEL(1);
 832:./tmk_core/protocol/lufa/lufa.c **** 
 833:./tmk_core/protocol/lufa/lufa.c ****         MIDICommand = MIDI_COMMAND_NOTE_ON;
 834:./tmk_core/protocol/lufa/lufa.c ****         MIDIPitch   = 0x3E;
 835:./tmk_core/protocol/lufa/lufa.c **** 
 836:./tmk_core/protocol/lufa/lufa.c ****         /* Check if a MIDI command is to be sent */
 837:./tmk_core/protocol/lufa/lufa.c ****         if (MIDICommand)
 838:./tmk_core/protocol/lufa/lufa.c ****         {
 839:./tmk_core/protocol/lufa/lufa.c ****             dprint("Command exists\n");
 840:./tmk_core/protocol/lufa/lufa.c ****             MIDI_EventPacket_t MIDIEvent = (MIDI_EventPacket_t)
 841:./tmk_core/protocol/lufa/lufa.c ****                 {
 842:./tmk_core/protocol/lufa/lufa.c ****                     .Event       = MIDI_EVENT(0, MIDICommand),
 843:./tmk_core/protocol/lufa/lufa.c **** 
 844:./tmk_core/protocol/lufa/lufa.c ****                     .Data1       = MIDICommand | Channel,
 845:./tmk_core/protocol/lufa/lufa.c ****                     .Data2       = MIDIPitch,
 846:./tmk_core/protocol/lufa/lufa.c ****                     .Data3       = MIDI_STANDARD_VELOCITY,
 847:./tmk_core/protocol/lufa/lufa.c ****                 };
 848:./tmk_core/protocol/lufa/lufa.c **** 
 849:./tmk_core/protocol/lufa/lufa.c ****             /* Write the MIDI event packet to the endpoint */
 850:./tmk_core/protocol/lufa/lufa.c ****             Endpoint_Write_Stream_LE(&MIDIEvent, sizeof(MIDIEvent), NULL);
 851:./tmk_core/protocol/lufa/lufa.c **** 
 852:./tmk_core/protocol/lufa/lufa.c ****             /* Send the data in the endpoint to the host */
 853:./tmk_core/protocol/lufa/lufa.c ****             Endpoint_ClearIN();
 854:./tmk_core/protocol/lufa/lufa.c ****         }
 855:./tmk_core/protocol/lufa/lufa.c ****     }
 856:./tmk_core/protocol/lufa/lufa.c **** 
 857:./tmk_core/protocol/lufa/lufa.c **** 
 858:./tmk_core/protocol/lufa/lufa.c ****     /* Select the MIDI OUT stream */
 859:./tmk_core/protocol/lufa/lufa.c ****     Endpoint_SelectEndpoint(MIDI_STREAM_OUT_EPADDR);
 860:./tmk_core/protocol/lufa/lufa.c **** 
 861:./tmk_core/protocol/lufa/lufa.c ****     /* Check if a MIDI command has been received */
 862:./tmk_core/protocol/lufa/lufa.c ****     if (Endpoint_IsOUTReceived())
 863:./tmk_core/protocol/lufa/lufa.c ****     {
 864:./tmk_core/protocol/lufa/lufa.c ****         MIDI_EventPacket_t MIDIEvent;
 865:./tmk_core/protocol/lufa/lufa.c **** 
 866:./tmk_core/protocol/lufa/lufa.c ****         /* Read the MIDI event packet from the endpoint */
 867:./tmk_core/protocol/lufa/lufa.c ****         Endpoint_Read_Stream_LE(&MIDIEvent, sizeof(MIDIEvent), NULL);
 868:./tmk_core/protocol/lufa/lufa.c **** 
 869:./tmk_core/protocol/lufa/lufa.c ****         /* If the endpoint is now empty, clear the bank */
 870:./tmk_core/protocol/lufa/lufa.c ****         if (!(Endpoint_BytesInEndpoint()))
 871:./tmk_core/protocol/lufa/lufa.c ****         {
 872:./tmk_core/protocol/lufa/lufa.c ****             /* Clear the endpoint ready for new packet */
 873:./tmk_core/protocol/lufa/lufa.c ****             Endpoint_ClearOUT();
 874:./tmk_core/protocol/lufa/lufa.c ****         }
 875:./tmk_core/protocol/lufa/lufa.c ****     }
 876:./tmk_core/protocol/lufa/lufa.c **** }
 877:./tmk_core/protocol/lufa/lufa.c **** 
 878:./tmk_core/protocol/lufa/lufa.c **** #endif
 879:./tmk_core/protocol/lufa/lufa.c **** 
 880:./tmk_core/protocol/lufa/lufa.c **** /*******************************************************************************
 881:./tmk_core/protocol/lufa/lufa.c ****  * VIRTUAL SERIAL
 882:./tmk_core/protocol/lufa/lufa.c ****  ******************************************************************************/
 883:./tmk_core/protocol/lufa/lufa.c **** 
 884:./tmk_core/protocol/lufa/lufa.c **** #ifdef VIRTSER_ENABLE
 885:./tmk_core/protocol/lufa/lufa.c **** void virtser_init(void)
 886:./tmk_core/protocol/lufa/lufa.c **** {
 887:./tmk_core/protocol/lufa/lufa.c ****   cdc_device.State.ControlLineStates.DeviceToHost = CDC_CONTROL_LINE_IN_DSR ;
 888:./tmk_core/protocol/lufa/lufa.c ****   CDC_Device_SendControlLineStateChange(&cdc_device);
 889:./tmk_core/protocol/lufa/lufa.c **** }
 890:./tmk_core/protocol/lufa/lufa.c **** 
 891:./tmk_core/protocol/lufa/lufa.c **** void virtser_recv(uint8_t c) __attribute__ ((weak));
 892:./tmk_core/protocol/lufa/lufa.c **** void virtser_recv(uint8_t c)
 893:./tmk_core/protocol/lufa/lufa.c **** {
 894:./tmk_core/protocol/lufa/lufa.c ****   // Ignore by default
 895:./tmk_core/protocol/lufa/lufa.c **** }
 896:./tmk_core/protocol/lufa/lufa.c **** 
 897:./tmk_core/protocol/lufa/lufa.c **** void virtser_task(void)
 898:./tmk_core/protocol/lufa/lufa.c **** {
 899:./tmk_core/protocol/lufa/lufa.c ****   uint16_t count = CDC_Device_BytesReceived(&cdc_device);
 900:./tmk_core/protocol/lufa/lufa.c ****   uint8_t ch;
 901:./tmk_core/protocol/lufa/lufa.c ****   if (count)
 902:./tmk_core/protocol/lufa/lufa.c ****   {
 903:./tmk_core/protocol/lufa/lufa.c ****     ch = CDC_Device_ReceiveByte(&cdc_device);
 904:./tmk_core/protocol/lufa/lufa.c ****     virtser_recv(ch);
 905:./tmk_core/protocol/lufa/lufa.c ****   }
 906:./tmk_core/protocol/lufa/lufa.c **** }
 907:./tmk_core/protocol/lufa/lufa.c **** void virtser_send(const uint8_t byte)
 908:./tmk_core/protocol/lufa/lufa.c **** {
 909:./tmk_core/protocol/lufa/lufa.c ****   uint8_t timeout = 255;
 910:./tmk_core/protocol/lufa/lufa.c ****   uint8_t ep = Endpoint_GetCurrentEndpoint();
 911:./tmk_core/protocol/lufa/lufa.c **** 
 912:./tmk_core/protocol/lufa/lufa.c ****   if (cdc_device.State.ControlLineStates.HostToDevice & CDC_CONTROL_LINE_OUT_DTR)
 913:./tmk_core/protocol/lufa/lufa.c ****   {
 914:./tmk_core/protocol/lufa/lufa.c ****     /* IN packet */
 915:./tmk_core/protocol/lufa/lufa.c ****     Endpoint_SelectEndpoint(cdc_device.Config.DataINEndpoint.Address);
 916:./tmk_core/protocol/lufa/lufa.c **** 
 917:./tmk_core/protocol/lufa/lufa.c ****     if (!Endpoint_IsEnabled() || !Endpoint_IsConfigured()) {
 918:./tmk_core/protocol/lufa/lufa.c ****         Endpoint_SelectEndpoint(ep);
 919:./tmk_core/protocol/lufa/lufa.c ****         return;
 920:./tmk_core/protocol/lufa/lufa.c ****     }
 921:./tmk_core/protocol/lufa/lufa.c **** 
 922:./tmk_core/protocol/lufa/lufa.c ****     while (timeout-- && !Endpoint_IsReadWriteAllowed()) _delay_us(40);
 923:./tmk_core/protocol/lufa/lufa.c **** 
 924:./tmk_core/protocol/lufa/lufa.c ****     Endpoint_Write_8(byte);
 925:./tmk_core/protocol/lufa/lufa.c ****     CDC_Device_Flush(&cdc_device);
 926:./tmk_core/protocol/lufa/lufa.c **** 
 927:./tmk_core/protocol/lufa/lufa.c ****     if (Endpoint_IsINReady()) {
 928:./tmk_core/protocol/lufa/lufa.c ****       Endpoint_ClearIN();
 929:./tmk_core/protocol/lufa/lufa.c ****     }
 930:./tmk_core/protocol/lufa/lufa.c **** 
 931:./tmk_core/protocol/lufa/lufa.c ****     Endpoint_SelectEndpoint(ep);
 932:./tmk_core/protocol/lufa/lufa.c ****   }
 933:./tmk_core/protocol/lufa/lufa.c **** }
 934:./tmk_core/protocol/lufa/lufa.c **** #endif
 935:./tmk_core/protocol/lufa/lufa.c **** 
 936:./tmk_core/protocol/lufa/lufa.c **** /*******************************************************************************
 937:./tmk_core/protocol/lufa/lufa.c ****  * main
 938:./tmk_core/protocol/lufa/lufa.c ****  ******************************************************************************/
 939:./tmk_core/protocol/lufa/lufa.c **** static void setup_mcu(void)
 940:./tmk_core/protocol/lufa/lufa.c **** {
 941:./tmk_core/protocol/lufa/lufa.c ****     /* Disable watchdog if enabled by bootloader/fuses */
 942:./tmk_core/protocol/lufa/lufa.c ****     MCUSR &= ~(1 << WDRF);
 943:./tmk_core/protocol/lufa/lufa.c ****     wdt_disable();
 944:./tmk_core/protocol/lufa/lufa.c **** 
 945:./tmk_core/protocol/lufa/lufa.c ****     /* Disable clock division */
 946:./tmk_core/protocol/lufa/lufa.c ****     // clock_prescale_set(clock_div_1);
 947:./tmk_core/protocol/lufa/lufa.c **** 
 948:./tmk_core/protocol/lufa/lufa.c ****     CLKPR = (1 << CLKPCE);
 949:./tmk_core/protocol/lufa/lufa.c ****     CLKPR = (0 << CLKPS3) | (0 << CLKPS2) | (0 << CLKPS1) | (0 << CLKPS0);
 950:./tmk_core/protocol/lufa/lufa.c **** }
 951:./tmk_core/protocol/lufa/lufa.c **** 
 952:./tmk_core/protocol/lufa/lufa.c **** static void setup_usb(void)
 953:./tmk_core/protocol/lufa/lufa.c **** {
 954:./tmk_core/protocol/lufa/lufa.c ****     // Leonardo needs. Without this USB device is not recognized.
 955:./tmk_core/protocol/lufa/lufa.c ****     USB_Disable();
 956:./tmk_core/protocol/lufa/lufa.c **** 
 957:./tmk_core/protocol/lufa/lufa.c ****     USB_Init();
 958:./tmk_core/protocol/lufa/lufa.c **** 
 959:./tmk_core/protocol/lufa/lufa.c ****     // for Console_Task
 960:./tmk_core/protocol/lufa/lufa.c ****     USB_Device_EnableSOFEvents();
 961:./tmk_core/protocol/lufa/lufa.c ****     print_set_sendchar(sendchar);
 962:./tmk_core/protocol/lufa/lufa.c **** }
 963:./tmk_core/protocol/lufa/lufa.c **** 
 964:./tmk_core/protocol/lufa/lufa.c **** 
 965:./tmk_core/protocol/lufa/lufa.c **** #ifdef MIDI_ENABLE
 966:./tmk_core/protocol/lufa/lufa.c **** void fallthrough_callback(MidiDevice * device,
 967:./tmk_core/protocol/lufa/lufa.c ****     uint16_t cnt, uint8_t byte0, uint8_t byte1, uint8_t byte2);
 968:./tmk_core/protocol/lufa/lufa.c **** void cc_callback(MidiDevice * device,
 969:./tmk_core/protocol/lufa/lufa.c ****     uint8_t chan, uint8_t num, uint8_t val);
 970:./tmk_core/protocol/lufa/lufa.c **** void sysex_callback(MidiDevice * device,
 971:./tmk_core/protocol/lufa/lufa.c ****     uint16_t start, uint8_t length, uint8_t * data);
 972:./tmk_core/protocol/lufa/lufa.c **** #endif
 973:./tmk_core/protocol/lufa/lufa.c **** 
 974:./tmk_core/protocol/lufa/lufa.c **** int main(void)  __attribute__ ((weak));
 975:./tmk_core/protocol/lufa/lufa.c **** int main(void)
 976:./tmk_core/protocol/lufa/lufa.c **** {
 969               		.loc 1 976 0
 970               		.cfi_startproc
 971               	/* prologue: function */
 972               	/* frame size = 0 */
 973               	/* stack size = 0 */
 974               	.L__stack_usage = 0
 975               	.LBB209:
 976               	.LBB210:
 942:./tmk_core/protocol/lufa/lufa.c ****     wdt_disable();
 977               		.loc 1 942 0
 978 0000 84B7      		in r24,0x34
 979 0002 877F      		andi r24,lo8(-9)
 980 0004 84BF      		out 0x34,r24
 981               	.LBB211:
 982               	.LBB212:
 983               		.file 5 "/usr/lib/avr/include/avr/wdt.h"
   1:/usr/lib/avr/include/avr/wdt.h **** /* Copyright (c) 2002, 2004 Marek Michalkiewicz
   2:/usr/lib/avr/include/avr/wdt.h ****    Copyright (c) 2005, 2006, 2007 Eric B. Weddington
   3:/usr/lib/avr/include/avr/wdt.h ****    All rights reserved.
   4:/usr/lib/avr/include/avr/wdt.h **** 
   5:/usr/lib/avr/include/avr/wdt.h ****    Redistribution and use in source and binary forms, with or without
   6:/usr/lib/avr/include/avr/wdt.h ****    modification, are permitted provided that the following conditions are met:
   7:/usr/lib/avr/include/avr/wdt.h **** 
   8:/usr/lib/avr/include/avr/wdt.h ****    * Redistributions of source code must retain the above copyright
   9:/usr/lib/avr/include/avr/wdt.h ****      notice, this list of conditions and the following disclaimer.
  10:/usr/lib/avr/include/avr/wdt.h **** 
  11:/usr/lib/avr/include/avr/wdt.h ****    * Redistributions in binary form must reproduce the above copyright
  12:/usr/lib/avr/include/avr/wdt.h ****      notice, this list of conditions and the following disclaimer in
  13:/usr/lib/avr/include/avr/wdt.h ****      the documentation and/or other materials provided with the
  14:/usr/lib/avr/include/avr/wdt.h ****      distribution.
  15:/usr/lib/avr/include/avr/wdt.h **** 
  16:/usr/lib/avr/include/avr/wdt.h ****    * Neither the name of the copyright holders nor the names of
  17:/usr/lib/avr/include/avr/wdt.h ****      contributors may be used to endorse or promote products derived
  18:/usr/lib/avr/include/avr/wdt.h ****      from this software without specific prior written permission.
  19:/usr/lib/avr/include/avr/wdt.h **** 
  20:/usr/lib/avr/include/avr/wdt.h ****   THIS SOFTWARE IS PROVIDED BY THE COPYRIGHT HOLDERS AND CONTRIBUTORS "AS IS"
  21:/usr/lib/avr/include/avr/wdt.h ****   AND ANY EXPRESS OR IMPLIED WARRANTIES, INCLUDING, BUT NOT LIMITED TO, THE
  22:/usr/lib/avr/include/avr/wdt.h ****   IMPLIED WARRANTIES OF MERCHANTABILITY AND FITNESS FOR A PARTICULAR PURPOSE
  23:/usr/lib/avr/include/avr/wdt.h ****   ARE DISCLAIMED. IN NO EVENT SHALL THE COPYRIGHT OWNER OR CONTRIBUTORS BE
  24:/usr/lib/avr/include/avr/wdt.h ****   LIABLE FOR ANY DIRECT, INDIRECT, INCIDENTAL, SPECIAL, EXEMPLARY, OR
  25:/usr/lib/avr/include/avr/wdt.h ****   CONSEQUENTIAL DAMAGES (INCLUDING, BUT NOT LIMITED TO, PROCUREMENT OF
  26:/usr/lib/avr/include/avr/wdt.h ****   SUBSTITUTE GOODS OR SERVICES; LOSS OF USE, DATA, OR PROFITS; OR BUSINESS
  27:/usr/lib/avr/include/avr/wdt.h ****   INTERRUPTION) HOWEVER CAUSED AND ON ANY THEORY OF LIABILITY, WHETHER IN
  28:/usr/lib/avr/include/avr/wdt.h ****   CONTRACT, STRICT LIABILITY, OR TORT (INCLUDING NEGLIGENCE OR OTHERWISE)
  29:/usr/lib/avr/include/avr/wdt.h ****   ARISING IN ANY WAY OUT OF THE USE OF THIS SOFTWARE, EVEN IF ADVISED OF THE
  30:/usr/lib/avr/include/avr/wdt.h ****   POSSIBILITY OF SUCH DAMAGE. */
  31:/usr/lib/avr/include/avr/wdt.h **** 
  32:/usr/lib/avr/include/avr/wdt.h **** /* $Id$ */
  33:/usr/lib/avr/include/avr/wdt.h **** 
  34:/usr/lib/avr/include/avr/wdt.h **** /*
  35:/usr/lib/avr/include/avr/wdt.h ****    avr/wdt.h - macros for AVR watchdog timer
  36:/usr/lib/avr/include/avr/wdt.h ****  */
  37:/usr/lib/avr/include/avr/wdt.h **** 
  38:/usr/lib/avr/include/avr/wdt.h **** #ifndef _AVR_WDT_H_
  39:/usr/lib/avr/include/avr/wdt.h **** #define _AVR_WDT_H_
  40:/usr/lib/avr/include/avr/wdt.h **** 
  41:/usr/lib/avr/include/avr/wdt.h **** #include <avr/io.h>
  42:/usr/lib/avr/include/avr/wdt.h **** #include <stdint.h>
  43:/usr/lib/avr/include/avr/wdt.h **** 
  44:/usr/lib/avr/include/avr/wdt.h **** /** \file */
  45:/usr/lib/avr/include/avr/wdt.h **** /** \defgroup avr_watchdog <avr/wdt.h>: Watchdog timer handling
  46:/usr/lib/avr/include/avr/wdt.h ****     \code #include <avr/wdt.h> \endcode
  47:/usr/lib/avr/include/avr/wdt.h **** 
  48:/usr/lib/avr/include/avr/wdt.h ****     This header file declares the interface to some inline macros
  49:/usr/lib/avr/include/avr/wdt.h ****     handling the watchdog timer present in many AVR devices.  In order
  50:/usr/lib/avr/include/avr/wdt.h ****     to prevent the watchdog timer configuration from being
  51:/usr/lib/avr/include/avr/wdt.h ****     accidentally altered by a crashing application, a special timed
  52:/usr/lib/avr/include/avr/wdt.h ****     sequence is required in order to change it.  The macros within
  53:/usr/lib/avr/include/avr/wdt.h ****     this header file handle the required sequence automatically
  54:/usr/lib/avr/include/avr/wdt.h ****     before changing any value.  Interrupts will be disabled during
  55:/usr/lib/avr/include/avr/wdt.h ****     the manipulation.
  56:/usr/lib/avr/include/avr/wdt.h **** 
  57:/usr/lib/avr/include/avr/wdt.h ****     \note Depending on the fuse configuration of the particular
  58:/usr/lib/avr/include/avr/wdt.h ****     device, further restrictions might apply, in particular it might
  59:/usr/lib/avr/include/avr/wdt.h ****     be disallowed to turn off the watchdog timer.
  60:/usr/lib/avr/include/avr/wdt.h **** 
  61:/usr/lib/avr/include/avr/wdt.h ****     Note that for newer devices (ATmega88 and newer, effectively any
  62:/usr/lib/avr/include/avr/wdt.h ****     AVR that has the option to also generate interrupts), the watchdog
  63:/usr/lib/avr/include/avr/wdt.h ****     timer remains active even after a system reset (except a power-on
  64:/usr/lib/avr/include/avr/wdt.h ****     condition), using the fastest prescaler value (approximately 15
  65:/usr/lib/avr/include/avr/wdt.h ****     ms).  It is therefore required to turn off the watchdog early
  66:/usr/lib/avr/include/avr/wdt.h ****     during program startup, the datasheet recommends a sequence like
  67:/usr/lib/avr/include/avr/wdt.h ****     the following:
  68:/usr/lib/avr/include/avr/wdt.h **** 
  69:/usr/lib/avr/include/avr/wdt.h ****     \code
  70:/usr/lib/avr/include/avr/wdt.h ****     #include <stdint.h>
  71:/usr/lib/avr/include/avr/wdt.h ****     #include <avr/wdt.h>
  72:/usr/lib/avr/include/avr/wdt.h **** 
  73:/usr/lib/avr/include/avr/wdt.h ****     uint8_t mcusr_mirror __attribute__ ((section (".noinit")));
  74:/usr/lib/avr/include/avr/wdt.h **** 
  75:/usr/lib/avr/include/avr/wdt.h ****     void get_mcusr(void) \
  76:/usr/lib/avr/include/avr/wdt.h ****       __attribute__((naked)) \
  77:/usr/lib/avr/include/avr/wdt.h ****       __attribute__((section(".init3")));
  78:/usr/lib/avr/include/avr/wdt.h ****     void get_mcusr(void)
  79:/usr/lib/avr/include/avr/wdt.h ****     {
  80:/usr/lib/avr/include/avr/wdt.h ****       mcusr_mirror = MCUSR;
  81:/usr/lib/avr/include/avr/wdt.h ****       MCUSR = 0;
  82:/usr/lib/avr/include/avr/wdt.h ****       wdt_disable();
  83:/usr/lib/avr/include/avr/wdt.h ****     }
  84:/usr/lib/avr/include/avr/wdt.h ****     \endcode
  85:/usr/lib/avr/include/avr/wdt.h **** 
  86:/usr/lib/avr/include/avr/wdt.h ****     Saving the value of MCUSR in \c mcusr_mirror is only needed if the
  87:/usr/lib/avr/include/avr/wdt.h ****     application later wants to examine the reset source, but in particular, 
  88:/usr/lib/avr/include/avr/wdt.h ****     clearing the watchdog reset flag before disabling the
  89:/usr/lib/avr/include/avr/wdt.h ****     watchdog is required, according to the datasheet.
  90:/usr/lib/avr/include/avr/wdt.h **** */
  91:/usr/lib/avr/include/avr/wdt.h **** 
  92:/usr/lib/avr/include/avr/wdt.h **** /**
  93:/usr/lib/avr/include/avr/wdt.h ****    \ingroup avr_watchdog
  94:/usr/lib/avr/include/avr/wdt.h ****    Reset the watchdog timer.  When the watchdog timer is enabled,
  95:/usr/lib/avr/include/avr/wdt.h ****    a call to this instruction is required before the timer expires,
  96:/usr/lib/avr/include/avr/wdt.h ****    otherwise a watchdog-initiated device reset will occur. 
  97:/usr/lib/avr/include/avr/wdt.h **** */
  98:/usr/lib/avr/include/avr/wdt.h **** 
  99:/usr/lib/avr/include/avr/wdt.h **** #define wdt_reset() __asm__ __volatile__ ("wdr")
 100:/usr/lib/avr/include/avr/wdt.h **** 
 101:/usr/lib/avr/include/avr/wdt.h **** 
 102:/usr/lib/avr/include/avr/wdt.h **** #if defined(WDP3)
 103:/usr/lib/avr/include/avr/wdt.h **** # define _WD_PS3_MASK       _BV(WDP3)
 104:/usr/lib/avr/include/avr/wdt.h **** #else
 105:/usr/lib/avr/include/avr/wdt.h **** # define _WD_PS3_MASK       0x00
 106:/usr/lib/avr/include/avr/wdt.h **** #endif
 107:/usr/lib/avr/include/avr/wdt.h **** 
 108:/usr/lib/avr/include/avr/wdt.h **** #if defined(WDTCSR)
 109:/usr/lib/avr/include/avr/wdt.h **** #  define _WD_CONTROL_REG     WDTCSR
 110:/usr/lib/avr/include/avr/wdt.h **** #elif defined(WDTCR)
 111:/usr/lib/avr/include/avr/wdt.h **** #  define _WD_CONTROL_REG     WDTCR
 112:/usr/lib/avr/include/avr/wdt.h **** #else
 113:/usr/lib/avr/include/avr/wdt.h **** #  define _WD_CONTROL_REG     WDT
 114:/usr/lib/avr/include/avr/wdt.h **** #endif
 115:/usr/lib/avr/include/avr/wdt.h **** 
 116:/usr/lib/avr/include/avr/wdt.h **** #if defined(WDTOE)
 117:/usr/lib/avr/include/avr/wdt.h **** #define _WD_CHANGE_BIT      WDTOE
 118:/usr/lib/avr/include/avr/wdt.h **** #else
 119:/usr/lib/avr/include/avr/wdt.h **** #define _WD_CHANGE_BIT      WDCE
 120:/usr/lib/avr/include/avr/wdt.h **** #endif
 121:/usr/lib/avr/include/avr/wdt.h **** 
 122:/usr/lib/avr/include/avr/wdt.h **** 
 123:/usr/lib/avr/include/avr/wdt.h **** /**
 124:/usr/lib/avr/include/avr/wdt.h ****    \ingroup avr_watchdog
 125:/usr/lib/avr/include/avr/wdt.h ****    Enable the watchdog timer, configuring it for expiry after
 126:/usr/lib/avr/include/avr/wdt.h ****    \c timeout (which is a combination of the \c WDP0 through
 127:/usr/lib/avr/include/avr/wdt.h ****    \c WDP2 bits to write into the \c WDTCR register; For those devices 
 128:/usr/lib/avr/include/avr/wdt.h ****    that have a \c WDTCSR register, it uses the combination of the \c WDP0 
 129:/usr/lib/avr/include/avr/wdt.h ****    through \c WDP3 bits).
 130:/usr/lib/avr/include/avr/wdt.h **** 
 131:/usr/lib/avr/include/avr/wdt.h ****    See also the symbolic constants \c WDTO_15MS et al.
 132:/usr/lib/avr/include/avr/wdt.h **** */
 133:/usr/lib/avr/include/avr/wdt.h **** 
 134:/usr/lib/avr/include/avr/wdt.h **** 
 135:/usr/lib/avr/include/avr/wdt.h **** #if defined(__AVR_XMEGA__)
 136:/usr/lib/avr/include/avr/wdt.h **** 
 137:/usr/lib/avr/include/avr/wdt.h **** /*
 138:/usr/lib/avr/include/avr/wdt.h ****    wdt_enable(timeout) for xmega devices
 139:/usr/lib/avr/include/avr/wdt.h **** ** write signature (CCP_IOREG_gc) that enables change of protected I/O
 140:/usr/lib/avr/include/avr/wdt.h ****    registers to the CCP register
 141:/usr/lib/avr/include/avr/wdt.h **** ** At the same time,
 142:/usr/lib/avr/include/avr/wdt.h ****    1) set WDT change enable (WDT_CEN_bm)
 143:/usr/lib/avr/include/avr/wdt.h ****    2) enable WDT (WDT_ENABLE_bm)
 144:/usr/lib/avr/include/avr/wdt.h ****    3) set timeout (timeout)
 145:/usr/lib/avr/include/avr/wdt.h **** ** Synchronization starts when ENABLE bit of WDT is set. So, wait till it
 146:/usr/lib/avr/include/avr/wdt.h ****    finishes (SYNCBUSY of STATUS register is automatically cleared after the
 147:/usr/lib/avr/include/avr/wdt.h ****    sync is finished).
 148:/usr/lib/avr/include/avr/wdt.h **** */
 149:/usr/lib/avr/include/avr/wdt.h **** #define wdt_enable(timeout) \
 150:/usr/lib/avr/include/avr/wdt.h **** do { \
 151:/usr/lib/avr/include/avr/wdt.h **** uint8_t temp; \
 152:/usr/lib/avr/include/avr/wdt.h **** __asm__ __volatile__ (         \
 153:/usr/lib/avr/include/avr/wdt.h ****     "in __tmp_reg__, %[rampd]"              "\n\t" \
 154:/usr/lib/avr/include/avr/wdt.h ****     "out %[rampd], __zero_reg__"            "\n\t" \
 155:/usr/lib/avr/include/avr/wdt.h ****     "out %[ccp_reg], %[ioreg_cen_mask]"     "\n\t" \
 156:/usr/lib/avr/include/avr/wdt.h ****     "sts %[wdt_reg], %[wdt_enable_timeout]" "\n\t" \
 157:/usr/lib/avr/include/avr/wdt.h ****     "1:lds %[tmp], %[wdt_status_reg]"       "\n\t" \
 158:/usr/lib/avr/include/avr/wdt.h ****     "sbrc %[tmp], %[wdt_syncbusy_bit]"      "\n\t" \
 159:/usr/lib/avr/include/avr/wdt.h ****     "rjmp 1b"                               "\n\t" \
 160:/usr/lib/avr/include/avr/wdt.h ****     "out %[rampd], __tmp_reg__"             "\n\t" \
 161:/usr/lib/avr/include/avr/wdt.h ****     : [tmp]                "=r" (temp) \
 162:/usr/lib/avr/include/avr/wdt.h ****     : [rampd]              "I" (_SFR_IO_ADDR(RAMPD)),      \
 163:/usr/lib/avr/include/avr/wdt.h ****       [ccp_reg]            "I" (_SFR_IO_ADDR(CCP)),        \
 164:/usr/lib/avr/include/avr/wdt.h ****       [ioreg_cen_mask]     "r" ((uint8_t)CCP_IOREG_gc),     \
 165:/usr/lib/avr/include/avr/wdt.h ****       [wdt_reg]            "n" (_SFR_MEM_ADDR(WDT_CTRL)),   \
 166:/usr/lib/avr/include/avr/wdt.h ****       [wdt_enable_timeout] "r" ((uint8_t)(WDT_CEN_bm | WDT_ENABLE_bm | timeout)), \
 167:/usr/lib/avr/include/avr/wdt.h ****       [wdt_status_reg]     "n" (_SFR_MEM_ADDR(WDT_STATUS)), \
 168:/usr/lib/avr/include/avr/wdt.h ****       [wdt_syncbusy_bit]   "I" (WDT_SYNCBUSY_bm)            \
 169:/usr/lib/avr/include/avr/wdt.h ****     : "r0" \
 170:/usr/lib/avr/include/avr/wdt.h **** ); \
 171:/usr/lib/avr/include/avr/wdt.h **** } while(0)
 172:/usr/lib/avr/include/avr/wdt.h **** 
 173:/usr/lib/avr/include/avr/wdt.h **** #define wdt_disable() \
 174:/usr/lib/avr/include/avr/wdt.h **** __asm__ __volatile__ (  \
 175:/usr/lib/avr/include/avr/wdt.h ****     "in __tmp_reg__, %[rampd]"          "\n\t" \
 176:/usr/lib/avr/include/avr/wdt.h ****     "out %[rampd], __zero_reg__"        "\n\t" \
 177:/usr/lib/avr/include/avr/wdt.h ****     "out %[ccp_reg], %[ioreg_cen_mask]" "\n\t" \
 178:/usr/lib/avr/include/avr/wdt.h ****     "sts %[wdt_reg], %[disable_mask]"   "\n\t" \
 179:/usr/lib/avr/include/avr/wdt.h ****     "out %[rampd], __tmp_reg__"         "\n\t" \
 180:/usr/lib/avr/include/avr/wdt.h ****     : \
 181:/usr/lib/avr/include/avr/wdt.h ****     : [rampd]             "I" (_SFR_IO_ADDR(RAMPD)),    \
 182:/usr/lib/avr/include/avr/wdt.h ****       [ccp_reg]           "I" (_SFR_IO_ADDR(CCP)),      \
 183:/usr/lib/avr/include/avr/wdt.h ****       [ioreg_cen_mask]    "r" ((uint8_t)CCP_IOREG_gc),   \
 184:/usr/lib/avr/include/avr/wdt.h ****       [wdt_reg]           "n" (_SFR_MEM_ADDR(WDT_CTRL)), \
 185:/usr/lib/avr/include/avr/wdt.h ****       [disable_mask]      "r" ((uint8_t)((~WDT_ENABLE_bm) | WDT_CEN_bm)) \
 186:/usr/lib/avr/include/avr/wdt.h ****     : "r0" \
 187:/usr/lib/avr/include/avr/wdt.h **** );
 188:/usr/lib/avr/include/avr/wdt.h **** 
 189:/usr/lib/avr/include/avr/wdt.h **** #elif defined(__AVR_TINY__)
 190:/usr/lib/avr/include/avr/wdt.h **** 
 191:/usr/lib/avr/include/avr/wdt.h **** #define wdt_enable(value) \
 192:/usr/lib/avr/include/avr/wdt.h **** __asm__ __volatile__ ( \
 193:/usr/lib/avr/include/avr/wdt.h ****     "in __tmp_reg__,__SREG__" "\n\t"  \
 194:/usr/lib/avr/include/avr/wdt.h ****     "cli" "\n\t"  \
 195:/usr/lib/avr/include/avr/wdt.h ****     "wdr" "\n\t"  \
 196:/usr/lib/avr/include/avr/wdt.h ****     "out %[CCPADDRESS],%[SIGNATURE]" "\n\t"  \
 197:/usr/lib/avr/include/avr/wdt.h ****     "out %[WDTREG],%[WDVALUE]" "\n\t"  \
 198:/usr/lib/avr/include/avr/wdt.h ****     "out __SREG__,__tmp_reg__" "\n\t"  \
 199:/usr/lib/avr/include/avr/wdt.h ****     : /* no outputs */  \
 200:/usr/lib/avr/include/avr/wdt.h ****     : [CCPADDRESS] "I" (_SFR_IO_ADDR(CCP)),  \
 201:/usr/lib/avr/include/avr/wdt.h ****       [SIGNATURE] "r" ((uint8_t)0xD8), \
 202:/usr/lib/avr/include/avr/wdt.h ****       [WDTREG] "I" (_SFR_IO_ADDR(_WD_CONTROL_REG)), \
 203:/usr/lib/avr/include/avr/wdt.h ****       [WDVALUE] "r" ((uint8_t)((value & 0x08 ? _WD_PS3_MASK : 0x00) \
 204:/usr/lib/avr/include/avr/wdt.h ****       | _BV(WDE) | (value & 0x07) )) \
 205:/usr/lib/avr/include/avr/wdt.h ****     : "r16" \
 206:/usr/lib/avr/include/avr/wdt.h **** )
 207:/usr/lib/avr/include/avr/wdt.h **** 
 208:/usr/lib/avr/include/avr/wdt.h **** #define wdt_disable() \
 209:/usr/lib/avr/include/avr/wdt.h **** do { \
 210:/usr/lib/avr/include/avr/wdt.h **** uint8_t temp_wd; \
 211:/usr/lib/avr/include/avr/wdt.h **** __asm__ __volatile__ ( \
 212:/usr/lib/avr/include/avr/wdt.h ****     "in __tmp_reg__,__SREG__" "\n\t"  \
 213:/usr/lib/avr/include/avr/wdt.h ****     "cli" "\n\t"  \
 214:/usr/lib/avr/include/avr/wdt.h ****     "wdr" "\n\t"  \
 215:/usr/lib/avr/include/avr/wdt.h ****     "out %[CCPADDRESS],%[SIGNATURE]" "\n\t"  \
 216:/usr/lib/avr/include/avr/wdt.h ****     "in  %[TEMP_WD],%[WDTREG]" "\n\t" \
 217:/usr/lib/avr/include/avr/wdt.h ****     "cbr %[TEMP_WD],%[WDVALUE]" "\n\t" \
 218:/usr/lib/avr/include/avr/wdt.h ****     "out %[WDTREG],%[TEMP_WD]" "\n\t" \
 219:/usr/lib/avr/include/avr/wdt.h ****     "out __SREG__,__tmp_reg__" "\n\t" \
 220:/usr/lib/avr/include/avr/wdt.h ****     : /*no output */ \
 221:/usr/lib/avr/include/avr/wdt.h ****     : [CCPADDRESS] "I" (_SFR_IO_ADDR(CCP)), \
 222:/usr/lib/avr/include/avr/wdt.h ****       [SIGNATURE] "r" ((uint8_t)0xD8), \
 223:/usr/lib/avr/include/avr/wdt.h ****       [WDTREG] "I" (_SFR_IO_ADDR(_WD_CONTROL_REG)), \
 224:/usr/lib/avr/include/avr/wdt.h ****       [TEMP_WD] "d" (temp_wd), \
 225:/usr/lib/avr/include/avr/wdt.h ****       [WDVALUE] "n" (1 << WDE) \
 226:/usr/lib/avr/include/avr/wdt.h ****     : "r16" \
 227:/usr/lib/avr/include/avr/wdt.h **** ); \
 228:/usr/lib/avr/include/avr/wdt.h **** }while(0)
 229:/usr/lib/avr/include/avr/wdt.h **** 
 230:/usr/lib/avr/include/avr/wdt.h **** #elif defined(CCP)
 231:/usr/lib/avr/include/avr/wdt.h **** 
 232:/usr/lib/avr/include/avr/wdt.h **** static __inline__
 233:/usr/lib/avr/include/avr/wdt.h **** __attribute__ ((__always_inline__))
 234:/usr/lib/avr/include/avr/wdt.h **** void wdt_enable (const uint8_t value)
 235:/usr/lib/avr/include/avr/wdt.h **** {
 236:/usr/lib/avr/include/avr/wdt.h **** 	if (!_SFR_IO_REG_P (CCP) && !_SFR_IO_REG_P (_WD_CONTROL_REG))
 237:/usr/lib/avr/include/avr/wdt.h **** 	{
 238:/usr/lib/avr/include/avr/wdt.h **** 		__asm__ __volatile__ (
 239:/usr/lib/avr/include/avr/wdt.h **** 			"in __tmp_reg__,__SREG__" "\n\t"
 240:/usr/lib/avr/include/avr/wdt.h **** 			"cli" "\n\t"
 241:/usr/lib/avr/include/avr/wdt.h **** 			"wdr" "\n\t"
 242:/usr/lib/avr/include/avr/wdt.h **** 			"sts %[CCPADDRESS],%[SIGNATURE]" "\n\t"
 243:/usr/lib/avr/include/avr/wdt.h **** 			"sts %[WDTREG],%[WDVALUE]" "\n\t"
 244:/usr/lib/avr/include/avr/wdt.h **** 			"out __SREG__,__tmp_reg__" "\n\t"
 245:/usr/lib/avr/include/avr/wdt.h **** 			: /* no outputs */
 246:/usr/lib/avr/include/avr/wdt.h **** 			: [CCPADDRESS] "n" (_SFR_MEM_ADDR(CCP)),
 247:/usr/lib/avr/include/avr/wdt.h **** 			[SIGNATURE] "r" ((uint8_t)0xD8),
 248:/usr/lib/avr/include/avr/wdt.h **** 			[WDTREG] "n" (_SFR_MEM_ADDR(_WD_CONTROL_REG)),
 249:/usr/lib/avr/include/avr/wdt.h **** 			[WDVALUE] "r" ((uint8_t)((value & 0x08 ? _WD_PS3_MASK : 0x00)
 250:/usr/lib/avr/include/avr/wdt.h **** 				| _BV(WDE) | (value & 0x07) ))
 251:/usr/lib/avr/include/avr/wdt.h **** 			: "r0"
 252:/usr/lib/avr/include/avr/wdt.h **** 			);
 253:/usr/lib/avr/include/avr/wdt.h **** 	}
 254:/usr/lib/avr/include/avr/wdt.h **** 	else if (!_SFR_IO_REG_P (CCP) && _SFR_IO_REG_P (_WD_CONTROL_REG))
 255:/usr/lib/avr/include/avr/wdt.h **** 	{
 256:/usr/lib/avr/include/avr/wdt.h **** 		__asm__ __volatile__ (
 257:/usr/lib/avr/include/avr/wdt.h **** 			"in __tmp_reg__,__SREG__" "\n\t"
 258:/usr/lib/avr/include/avr/wdt.h **** 			"cli" "\n\t"
 259:/usr/lib/avr/include/avr/wdt.h **** 			"wdr" "\n\t"
 260:/usr/lib/avr/include/avr/wdt.h **** 			"sts %[CCPADDRESS],%[SIGNATURE]" "\n\t"
 261:/usr/lib/avr/include/avr/wdt.h **** 			"out %[WDTREG],%[WDVALUE]" "\n\t"
 262:/usr/lib/avr/include/avr/wdt.h **** 			"out __SREG__,__tmp_reg__" "\n\t"
 263:/usr/lib/avr/include/avr/wdt.h **** 			: /* no outputs */
 264:/usr/lib/avr/include/avr/wdt.h **** 			: [CCPADDRESS] "n" (_SFR_MEM_ADDR(CCP)),
 265:/usr/lib/avr/include/avr/wdt.h **** 			[SIGNATURE] "r" ((uint8_t)0xD8),
 266:/usr/lib/avr/include/avr/wdt.h **** 			[WDTREG] "I" (_SFR_IO_ADDR(_WD_CONTROL_REG)),
 267:/usr/lib/avr/include/avr/wdt.h **** 			[WDVALUE] "r" ((uint8_t)((value & 0x08 ? _WD_PS3_MASK : 0x00)
 268:/usr/lib/avr/include/avr/wdt.h **** 				| _BV(WDE) | (value & 0x07) ))
 269:/usr/lib/avr/include/avr/wdt.h **** 			: "r0"
 270:/usr/lib/avr/include/avr/wdt.h **** 			);
 271:/usr/lib/avr/include/avr/wdt.h **** 	}
 272:/usr/lib/avr/include/avr/wdt.h **** 	else if (_SFR_IO_REG_P (CCP) && !_SFR_IO_REG_P (_WD_CONTROL_REG))
 273:/usr/lib/avr/include/avr/wdt.h **** 	{
 274:/usr/lib/avr/include/avr/wdt.h **** 		__asm__ __volatile__ (
 275:/usr/lib/avr/include/avr/wdt.h **** 			"in __tmp_reg__,__SREG__" "\n\t"
 276:/usr/lib/avr/include/avr/wdt.h **** 			"cli" "\n\t"
 277:/usr/lib/avr/include/avr/wdt.h **** 			"wdr" "\n\t"
 278:/usr/lib/avr/include/avr/wdt.h **** 			"out %[CCPADDRESS],%[SIGNATURE]" "\n\t"
 279:/usr/lib/avr/include/avr/wdt.h **** 			"sts %[WDTREG],%[WDVALUE]" "\n\t"
 280:/usr/lib/avr/include/avr/wdt.h **** 			"out __SREG__,__tmp_reg__" "\n\t"
 281:/usr/lib/avr/include/avr/wdt.h **** 			: /* no outputs */
 282:/usr/lib/avr/include/avr/wdt.h **** 			: [CCPADDRESS] "I" (_SFR_IO_ADDR(CCP)),
 283:/usr/lib/avr/include/avr/wdt.h **** 			[SIGNATURE] "r" ((uint8_t)0xD8),
 284:/usr/lib/avr/include/avr/wdt.h **** 			[WDTREG] "n" (_SFR_MEM_ADDR(_WD_CONTROL_REG)),
 285:/usr/lib/avr/include/avr/wdt.h **** 			[WDVALUE] "r" ((uint8_t)((value & 0x08 ? _WD_PS3_MASK : 0x00)
 286:/usr/lib/avr/include/avr/wdt.h **** 				| _BV(WDE) | (value & 0x07) ))
 287:/usr/lib/avr/include/avr/wdt.h **** 			: "r0"
 288:/usr/lib/avr/include/avr/wdt.h **** 			);
 289:/usr/lib/avr/include/avr/wdt.h **** 	}
 290:/usr/lib/avr/include/avr/wdt.h **** 	else
 291:/usr/lib/avr/include/avr/wdt.h ****  	{
 292:/usr/lib/avr/include/avr/wdt.h **** 		__asm__ __volatile__ (
 293:/usr/lib/avr/include/avr/wdt.h **** 			"in __tmp_reg__,__SREG__" "\n\t"
 294:/usr/lib/avr/include/avr/wdt.h **** 			"cli" "\n\t"
 295:/usr/lib/avr/include/avr/wdt.h **** 			"wdr" "\n\t"
 296:/usr/lib/avr/include/avr/wdt.h **** 			"out %[CCPADDRESS],%[SIGNATURE]" "\n\t"
 297:/usr/lib/avr/include/avr/wdt.h **** 			"out %[WDTREG],%[WDVALUE]" "\n\t"
 298:/usr/lib/avr/include/avr/wdt.h **** 			"out __SREG__,__tmp_reg__" "\n\t"
 299:/usr/lib/avr/include/avr/wdt.h **** 			: /* no outputs */
 300:/usr/lib/avr/include/avr/wdt.h **** 			: [CCPADDRESS] "I" (_SFR_IO_ADDR(CCP)),
 301:/usr/lib/avr/include/avr/wdt.h **** 			[SIGNATURE] "r" ((uint8_t)0xD8),
 302:/usr/lib/avr/include/avr/wdt.h **** 			[WDTREG] "I" (_SFR_IO_ADDR(_WD_CONTROL_REG)),
 303:/usr/lib/avr/include/avr/wdt.h **** 			[WDVALUE] "r" ((uint8_t)((value & 0x08 ? _WD_PS3_MASK : 0x00)
 304:/usr/lib/avr/include/avr/wdt.h **** 				| _BV(WDE) | (value & 0x07) ))
 305:/usr/lib/avr/include/avr/wdt.h **** 			: "r0"
 306:/usr/lib/avr/include/avr/wdt.h **** 			);
 307:/usr/lib/avr/include/avr/wdt.h **** 	}
 308:/usr/lib/avr/include/avr/wdt.h **** }
 309:/usr/lib/avr/include/avr/wdt.h **** 
 310:/usr/lib/avr/include/avr/wdt.h **** static __inline__
 311:/usr/lib/avr/include/avr/wdt.h **** __attribute__ ((__always_inline__))
 312:/usr/lib/avr/include/avr/wdt.h **** void wdt_disable (void)
 313:/usr/lib/avr/include/avr/wdt.h **** {
 314:/usr/lib/avr/include/avr/wdt.h **** 	if (!_SFR_IO_REG_P (CCP) && !_SFR_IO_REG_P(_WD_CONTROL_REG))
 315:/usr/lib/avr/include/avr/wdt.h **** 	{
 316:/usr/lib/avr/include/avr/wdt.h ****         uint8_t temp_wd;
 317:/usr/lib/avr/include/avr/wdt.h ****         __asm__ __volatile__ (
 318:/usr/lib/avr/include/avr/wdt.h **** 				"in __tmp_reg__,__SREG__" "\n\t"
 319:/usr/lib/avr/include/avr/wdt.h **** 				"cli" "\n\t"
 320:/usr/lib/avr/include/avr/wdt.h **** 				"wdr" "\n\t"
 321:/usr/lib/avr/include/avr/wdt.h **** 				"sts %[CCPADDRESS],%[SIGNATURE]" "\n\t"
 322:/usr/lib/avr/include/avr/wdt.h **** 				"lds %[TEMP_WD],%[WDTREG]" "\n\t"
 323:/usr/lib/avr/include/avr/wdt.h **** 				"cbr %[TEMP_WD],%[WDVALUE]" "\n\t"
 324:/usr/lib/avr/include/avr/wdt.h **** 				"sts %[WDTREG],%[TEMP_WD]" "\n\t"
 325:/usr/lib/avr/include/avr/wdt.h **** 				"out __SREG__,__tmp_reg__" "\n\t"
 326:/usr/lib/avr/include/avr/wdt.h **** 				: /*no output */
 327:/usr/lib/avr/include/avr/wdt.h **** 				: [CCPADDRESS] "n" (_SFR_MEM_ADDR(CCP)),
 328:/usr/lib/avr/include/avr/wdt.h **** 				[SIGNATURE] "r" ((uint8_t)0xD8),
 329:/usr/lib/avr/include/avr/wdt.h **** 				[WDTREG] "n" (_SFR_MEM_ADDR(_WD_CONTROL_REG)),
 330:/usr/lib/avr/include/avr/wdt.h **** 				[TEMP_WD] "d" (temp_wd),
 331:/usr/lib/avr/include/avr/wdt.h **** 				[WDVALUE] "n" (1 << WDE)
 332:/usr/lib/avr/include/avr/wdt.h **** 				: "r0"
 333:/usr/lib/avr/include/avr/wdt.h **** 				);
 334:/usr/lib/avr/include/avr/wdt.h **** 	}
 335:/usr/lib/avr/include/avr/wdt.h **** 	else if (!_SFR_IO_REG_P (CCP) && _SFR_IO_REG_P(_WD_CONTROL_REG))
 336:/usr/lib/avr/include/avr/wdt.h **** 	{
 337:/usr/lib/avr/include/avr/wdt.h ****         uint8_t temp_wd;
 338:/usr/lib/avr/include/avr/wdt.h ****         __asm__ __volatile__ (
 339:/usr/lib/avr/include/avr/wdt.h **** 				"in __tmp_reg__,__SREG__" "\n\t"
 340:/usr/lib/avr/include/avr/wdt.h **** 				"cli" "\n\t"
 341:/usr/lib/avr/include/avr/wdt.h **** 				"wdr" "\n\t"
 342:/usr/lib/avr/include/avr/wdt.h **** 				"sts %[CCPADDRESS],%[SIGNATURE]" "\n\t"
 343:/usr/lib/avr/include/avr/wdt.h **** 				"in %[TEMP_WD],%[WDTREG]" "\n\t"
 344:/usr/lib/avr/include/avr/wdt.h **** 				"cbr %[TEMP_WD],%[WDVALUE]" "\n\t"
 345:/usr/lib/avr/include/avr/wdt.h **** 				"out %[WDTREG],%[TEMP_WD]" "\n\t"
 346:/usr/lib/avr/include/avr/wdt.h **** 				"out __SREG__,__tmp_reg__" "\n\t"
 347:/usr/lib/avr/include/avr/wdt.h **** 				: /*no output */
 348:/usr/lib/avr/include/avr/wdt.h **** 				: [CCPADDRESS] "n" (_SFR_MEM_ADDR(CCP)),
 349:/usr/lib/avr/include/avr/wdt.h **** 				[SIGNATURE] "r" ((uint8_t)0xD8),
 350:/usr/lib/avr/include/avr/wdt.h **** 				[WDTREG] "I" (_SFR_IO_ADDR(_WD_CONTROL_REG)),
 351:/usr/lib/avr/include/avr/wdt.h **** 				[TEMP_WD] "d" (temp_wd),
 352:/usr/lib/avr/include/avr/wdt.h **** 				[WDVALUE] "n" (1 << WDE)
 353:/usr/lib/avr/include/avr/wdt.h **** 				: "r0"
 354:/usr/lib/avr/include/avr/wdt.h **** 				);
 355:/usr/lib/avr/include/avr/wdt.h **** 	}
 356:/usr/lib/avr/include/avr/wdt.h **** 	else if (_SFR_IO_REG_P (CCP) && !_SFR_IO_REG_P(_WD_CONTROL_REG))
 357:/usr/lib/avr/include/avr/wdt.h **** 	{
 358:/usr/lib/avr/include/avr/wdt.h ****         uint8_t temp_wd;
 359:/usr/lib/avr/include/avr/wdt.h ****         __asm__ __volatile__ (
 360:/usr/lib/avr/include/avr/wdt.h **** 				"in __tmp_reg__,__SREG__" "\n\t"
 361:/usr/lib/avr/include/avr/wdt.h **** 				"cli" "\n\t"
 362:/usr/lib/avr/include/avr/wdt.h **** 				"wdr" "\n\t"
 363:/usr/lib/avr/include/avr/wdt.h **** 				"out %[CCPADDRESS],%[SIGNATURE]" "\n\t"
 364:/usr/lib/avr/include/avr/wdt.h **** 				"lds %[TEMP_WD],%[WDTREG]" "\n\t"
 365:/usr/lib/avr/include/avr/wdt.h **** 				"cbr %[TEMP_WD],%[WDVALUE]" "\n\t"
 366:/usr/lib/avr/include/avr/wdt.h **** 				"sts %[WDTREG],%[TEMP_WD]" "\n\t"
 367:/usr/lib/avr/include/avr/wdt.h **** 				"out __SREG__,__tmp_reg__" "\n\t"
 368:/usr/lib/avr/include/avr/wdt.h **** 				: /*no output */
 369:/usr/lib/avr/include/avr/wdt.h **** 				: [CCPADDRESS] "I" (_SFR_IO_ADDR(CCP)),
 370:/usr/lib/avr/include/avr/wdt.h **** 				[SIGNATURE] "r" ((uint8_t)0xD8),
 371:/usr/lib/avr/include/avr/wdt.h **** 				[WDTREG] "n" (_SFR_MEM_ADDR(_WD_CONTROL_REG)),
 372:/usr/lib/avr/include/avr/wdt.h **** 				[TEMP_WD] "d" (temp_wd),
 373:/usr/lib/avr/include/avr/wdt.h **** 				[WDVALUE] "n" (1 << WDE)
 374:/usr/lib/avr/include/avr/wdt.h **** 				: "r0"
 375:/usr/lib/avr/include/avr/wdt.h **** 				);
 376:/usr/lib/avr/include/avr/wdt.h **** 	}
 377:/usr/lib/avr/include/avr/wdt.h **** 	else
 378:/usr/lib/avr/include/avr/wdt.h **** 	{
 379:/usr/lib/avr/include/avr/wdt.h ****         uint8_t temp_wd;
 380:/usr/lib/avr/include/avr/wdt.h ****         __asm__ __volatile__ (
 381:/usr/lib/avr/include/avr/wdt.h **** 				"in __tmp_reg__,__SREG__" "\n\t"
 382:/usr/lib/avr/include/avr/wdt.h **** 				"cli" "\n\t"
 383:/usr/lib/avr/include/avr/wdt.h **** 				"wdr" "\n\t"
 384:/usr/lib/avr/include/avr/wdt.h **** 				"out %[CCPADDRESS],%[SIGNATURE]" "\n\t"
 385:/usr/lib/avr/include/avr/wdt.h **** 				"in %[TEMP_WD],%[WDTREG]" "\n\t"
 386:/usr/lib/avr/include/avr/wdt.h **** 				"cbr %[TEMP_WD],%[WDVALUE]" "\n\t"
 387:/usr/lib/avr/include/avr/wdt.h **** 				"out %[WDTREG],%[TEMP_WD]" "\n\t"
 388:/usr/lib/avr/include/avr/wdt.h **** 				"out __SREG__,__tmp_reg__" "\n\t"
 389:/usr/lib/avr/include/avr/wdt.h **** 				: /*no output */
 390:/usr/lib/avr/include/avr/wdt.h **** 				: [CCPADDRESS] "I" (_SFR_IO_ADDR(CCP)),
 391:/usr/lib/avr/include/avr/wdt.h **** 				[SIGNATURE] "r" ((uint8_t)0xD8),
 392:/usr/lib/avr/include/avr/wdt.h **** 				[WDTREG] "I" (_SFR_IO_ADDR(_WD_CONTROL_REG)),
 393:/usr/lib/avr/include/avr/wdt.h **** 				[TEMP_WD] "d" (temp_wd),
 394:/usr/lib/avr/include/avr/wdt.h **** 				[WDVALUE] "n" (1 << WDE)
 395:/usr/lib/avr/include/avr/wdt.h **** 				: "r0"
 396:/usr/lib/avr/include/avr/wdt.h **** 				);
 397:/usr/lib/avr/include/avr/wdt.h **** 	}
 398:/usr/lib/avr/include/avr/wdt.h **** }
 399:/usr/lib/avr/include/avr/wdt.h **** 
 400:/usr/lib/avr/include/avr/wdt.h **** #else
 401:/usr/lib/avr/include/avr/wdt.h **** 
 402:/usr/lib/avr/include/avr/wdt.h **** static __inline__
 403:/usr/lib/avr/include/avr/wdt.h **** __attribute__ ((__always_inline__))
 404:/usr/lib/avr/include/avr/wdt.h **** void wdt_enable (const uint8_t value)
 405:/usr/lib/avr/include/avr/wdt.h **** {
 406:/usr/lib/avr/include/avr/wdt.h **** 	if (_SFR_IO_REG_P (_WD_CONTROL_REG))
 407:/usr/lib/avr/include/avr/wdt.h **** 	{
 408:/usr/lib/avr/include/avr/wdt.h **** 		__asm__ __volatile__ (
 409:/usr/lib/avr/include/avr/wdt.h **** 				"in __tmp_reg__,__SREG__" "\n\t"
 410:/usr/lib/avr/include/avr/wdt.h **** 				"cli" "\n\t"
 411:/usr/lib/avr/include/avr/wdt.h **** 				"wdr" "\n\t"
 412:/usr/lib/avr/include/avr/wdt.h **** 				"out %0, %1" "\n\t"
 413:/usr/lib/avr/include/avr/wdt.h **** 				"out __SREG__,__tmp_reg__" "\n\t"
 414:/usr/lib/avr/include/avr/wdt.h **** 				"out %0, %2" "\n \t"
 415:/usr/lib/avr/include/avr/wdt.h **** 				: /* no outputs */
 416:/usr/lib/avr/include/avr/wdt.h **** 				: "I" (_SFR_IO_ADDR(_WD_CONTROL_REG)),
 417:/usr/lib/avr/include/avr/wdt.h **** 				"r" ((uint8_t)(_BV(_WD_CHANGE_BIT) | _BV(WDE))),
 418:/usr/lib/avr/include/avr/wdt.h **** 				"r" ((uint8_t) ((value & 0x08 ? _WD_PS3_MASK : 0x00) |
 419:/usr/lib/avr/include/avr/wdt.h **** 						_BV(WDE) | (value & 0x07)) )
 420:/usr/lib/avr/include/avr/wdt.h **** 				: "r0"
 421:/usr/lib/avr/include/avr/wdt.h **** 		);
 422:/usr/lib/avr/include/avr/wdt.h **** 	}
 423:/usr/lib/avr/include/avr/wdt.h **** 	else
 424:/usr/lib/avr/include/avr/wdt.h **** 	{
 425:/usr/lib/avr/include/avr/wdt.h **** 		__asm__ __volatile__ (
 426:/usr/lib/avr/include/avr/wdt.h **** 				"in __tmp_reg__,__SREG__" "\n\t"
 427:/usr/lib/avr/include/avr/wdt.h **** 				"cli" "\n\t"
 428:/usr/lib/avr/include/avr/wdt.h **** 				"wdr" "\n\t"
 429:/usr/lib/avr/include/avr/wdt.h **** 				"sts %0, %1" "\n\t"
 430:/usr/lib/avr/include/avr/wdt.h **** 				"out __SREG__,__tmp_reg__" "\n\t"
 431:/usr/lib/avr/include/avr/wdt.h **** 				"sts %0, %2" "\n \t"
 432:/usr/lib/avr/include/avr/wdt.h **** 				: /* no outputs */
 433:/usr/lib/avr/include/avr/wdt.h **** 				: "n" (_SFR_MEM_ADDR(_WD_CONTROL_REG)),
 434:/usr/lib/avr/include/avr/wdt.h **** 				"r" ((uint8_t)(_BV(_WD_CHANGE_BIT) | _BV(WDE))),
 435:/usr/lib/avr/include/avr/wdt.h **** 				"r" ((uint8_t) ((value & 0x08 ? _WD_PS3_MASK : 0x00) |
 436:/usr/lib/avr/include/avr/wdt.h **** 						_BV(WDE) | (value & 0x07)) )
 437:/usr/lib/avr/include/avr/wdt.h **** 				: "r0"
 438:/usr/lib/avr/include/avr/wdt.h **** 		);
 439:/usr/lib/avr/include/avr/wdt.h **** 	}
 440:/usr/lib/avr/include/avr/wdt.h **** }
 441:/usr/lib/avr/include/avr/wdt.h **** 
 442:/usr/lib/avr/include/avr/wdt.h **** static __inline__
 443:/usr/lib/avr/include/avr/wdt.h **** __attribute__ ((__always_inline__))
 444:/usr/lib/avr/include/avr/wdt.h **** void wdt_disable (void)
 445:/usr/lib/avr/include/avr/wdt.h **** {
 446:/usr/lib/avr/include/avr/wdt.h **** 	if (_SFR_IO_REG_P (_WD_CONTROL_REG))
 447:/usr/lib/avr/include/avr/wdt.h **** 	{
 448:/usr/lib/avr/include/avr/wdt.h ****         uint8_t register temp_reg;
 449:/usr/lib/avr/include/avr/wdt.h **** 		__asm__ __volatile__ (
 450:/usr/lib/avr/include/avr/wdt.h **** 				"in __tmp_reg__,__SREG__"    "\n\t"
 451:/usr/lib/avr/include/avr/wdt.h **** 				"cli"                        "\n\t"
 452:/usr/lib/avr/include/avr/wdt.h **** 				"wdr"                        "\n\t"
 453:/usr/lib/avr/include/avr/wdt.h **** 				"in  %[TEMPREG],%[WDTREG]"   "\n\t"
 454:/usr/lib/avr/include/avr/wdt.h **** 				"ori %[TEMPREG],%[WDCE_WDE]" "\n\t"
 455:/usr/lib/avr/include/avr/wdt.h **** 				"out %[WDTREG],%[TEMPREG]"   "\n\t"
 456:/usr/lib/avr/include/avr/wdt.h **** 				"out %[WDTREG],__zero_reg__" "\n\t"
 457:/usr/lib/avr/include/avr/wdt.h **** 				"out __SREG__,__tmp_reg__"   "\n\t"
 458:/usr/lib/avr/include/avr/wdt.h **** 				: [TEMPREG] "=d" (temp_reg)
 459:/usr/lib/avr/include/avr/wdt.h **** 				: [WDTREG]  "I"  (_SFR_IO_ADDR(_WD_CONTROL_REG)),
 460:/usr/lib/avr/include/avr/wdt.h **** 				[WDCE_WDE]  "n"  ((uint8_t)(_BV(_WD_CHANGE_BIT) | _BV(WDE)))
 461:/usr/lib/avr/include/avr/wdt.h **** 				: "r0"
 462:/usr/lib/avr/include/avr/wdt.h **** 		);
 463:/usr/lib/avr/include/avr/wdt.h **** 	}
 464:/usr/lib/avr/include/avr/wdt.h **** 	else
 465:/usr/lib/avr/include/avr/wdt.h **** 	{
 466:/usr/lib/avr/include/avr/wdt.h ****         uint8_t register temp_reg;
 467:/usr/lib/avr/include/avr/wdt.h **** 		__asm__ __volatile__ (
 984               		.loc 5 467 0
 985               	/* #APP */
 986               	 ;  467 "/usr/lib/avr/include/avr/wdt.h" 1
 987 0006 0FB6      		in __tmp_reg__,__SREG__
 988 0008 F894      		cli
 989 000a A895      		wdr
 990 000c 8091 6000 		lds r24,96
 991 0010 8861      		ori r24,24
 992 0012 8093 6000 		sts 96,r24
 993 0016 1092 6000 		sts 96,__zero_reg__
 994 001a 0FBE      		out __SREG__,__tmp_reg__
 995               		
 996               	 ;  0 "" 2
 997               	.LVL78:
 998               	/* #NOAPP */
 999               	.LBE212:
 1000               	.LBE211:
 948:./tmk_core/protocol/lufa/lufa.c ****     CLKPR = (0 << CLKPS3) | (0 << CLKPS2) | (0 << CLKPS1) | (0 << CLKPS0);
 1001               		.loc 1 948 0
 1002 001c 80E8      		ldi r24,lo8(-128)
 1003 001e 8093 6100 		sts 97,r24
 949:./tmk_core/protocol/lufa/lufa.c **** }
 1004               		.loc 1 949 0
 1005 0022 1092 6100 		sts 97,__zero_reg__
 1006               	.LBE210:
 1007               	.LBE209:
 977:./tmk_core/protocol/lufa/lufa.c **** 
 978:./tmk_core/protocol/lufa/lufa.c **** #ifdef MIDI_ENABLE
 979:./tmk_core/protocol/lufa/lufa.c ****     midi_device_init(&midi_device);
 980:./tmk_core/protocol/lufa/lufa.c ****     midi_device_set_send_func(&midi_device, usb_send_func);
 981:./tmk_core/protocol/lufa/lufa.c ****     midi_device_set_pre_input_process_func(&midi_device, usb_get_midi);
 982:./tmk_core/protocol/lufa/lufa.c **** #endif
 983:./tmk_core/protocol/lufa/lufa.c **** 
 984:./tmk_core/protocol/lufa/lufa.c ****     setup_mcu();
 985:./tmk_core/protocol/lufa/lufa.c ****     keyboard_setup();
 1008               		.loc 1 985 0
 1009 0026 0E94 0000 		call keyboard_setup
 1010               	.LVL79:
 1011               	.LBB213:
 1012               	.LBB214:
 955:./tmk_core/protocol/lufa/lufa.c **** 
 1013               		.loc 1 955 0
 1014 002a 0E94 0000 		call USB_Disable
 1015               	.LVL80:
 957:./tmk_core/protocol/lufa/lufa.c **** 
 1016               		.loc 1 957 0
 1017 002e 0E94 0000 		call USB_Init
 1018               	.LVL81:
 1019               	.LBB215:
 1020               	.LBB216:
 1021               	.LBB217:
 1022               		.loc 4 113 0
 1023 0032 8091 E200 		lds r24,226
 1024 0036 8460      		ori r24,lo8(4)
 1025 0038 8093 E200 		sts 226,r24
 1026               	.LBE217:
 1027               	.LBE216:
 1028               	.LBE215:
 1029               	.LBE214:
 1030               	.LBE213:
 986:./tmk_core/protocol/lufa/lufa.c ****     setup_usb();
 987:./tmk_core/protocol/lufa/lufa.c ****     sei();
 1031               		.loc 1 987 0
 1032               	/* #APP */
 1033               	 ;  987 "./tmk_core/protocol/lufa/lufa.c" 1
 1034 003c 7894      		sei
 1035               	 ;  0 "" 2
 988:./tmk_core/protocol/lufa/lufa.c **** 
 989:./tmk_core/protocol/lufa/lufa.c **** #ifdef MIDI_ENABLE
 990:./tmk_core/protocol/lufa/lufa.c ****     midi_register_fallthrough_callback(&midi_device, fallthrough_callback);
 991:./tmk_core/protocol/lufa/lufa.c ****     midi_register_cc_callback(&midi_device, cc_callback);
 992:./tmk_core/protocol/lufa/lufa.c ****     midi_register_sysex_callback(&midi_device, sysex_callback);
 993:./tmk_core/protocol/lufa/lufa.c **** 
 994:./tmk_core/protocol/lufa/lufa.c ****     // init_notes();
 995:./tmk_core/protocol/lufa/lufa.c ****     // midi_send_cc(&midi_device, 0, 1, 2);
 996:./tmk_core/protocol/lufa/lufa.c ****     // midi_send_cc(&midi_device, 15, 1, 0);
 997:./tmk_core/protocol/lufa/lufa.c ****     // midi_send_noteon(&midi_device, 0, 64, 127);
 998:./tmk_core/protocol/lufa/lufa.c ****     // midi_send_noteoff(&midi_device, 0, 64, 127);
 999:./tmk_core/protocol/lufa/lufa.c **** #endif
1000:./tmk_core/protocol/lufa/lufa.c **** 
1001:./tmk_core/protocol/lufa/lufa.c **** #ifdef BLUETOOTH_ENABLE
1002:./tmk_core/protocol/lufa/lufa.c ****     serial_init();
1003:./tmk_core/protocol/lufa/lufa.c **** #endif
1004:./tmk_core/protocol/lufa/lufa.c **** 
1005:./tmk_core/protocol/lufa/lufa.c ****     /* wait for USB startup & debug output */
1006:./tmk_core/protocol/lufa/lufa.c **** 
1007:./tmk_core/protocol/lufa/lufa.c **** #ifdef WAIT_FOR_USB
1008:./tmk_core/protocol/lufa/lufa.c ****     while (USB_DeviceState != DEVICE_STATE_Configured) {
1009:./tmk_core/protocol/lufa/lufa.c ****     #if defined(INTERRUPT_CONTROL_ENDPOINT)
1010:./tmk_core/protocol/lufa/lufa.c ****             ;
1011:./tmk_core/protocol/lufa/lufa.c ****     #else
1012:./tmk_core/protocol/lufa/lufa.c ****             USB_USBTask();
1013:./tmk_core/protocol/lufa/lufa.c ****     #endif
1014:./tmk_core/protocol/lufa/lufa.c ****     }
1015:./tmk_core/protocol/lufa/lufa.c ****     print("USB configured.\n");
1016:./tmk_core/protocol/lufa/lufa.c **** #else
1017:./tmk_core/protocol/lufa/lufa.c ****     USB_USBTask();
 1036               		.loc 1 1017 0
 1037               	/* #NOAPP */
 1038 003e 0E94 0000 		call USB_USBTask
 1039               	.LVL82:
1018:./tmk_core/protocol/lufa/lufa.c **** #endif
1019:./tmk_core/protocol/lufa/lufa.c ****     /* init modules */
1020:./tmk_core/protocol/lufa/lufa.c ****     keyboard_init();
 1040               		.loc 1 1020 0
 1041 0042 0E94 0000 		call keyboard_init
 1042               	.LVL83:
1021:./tmk_core/protocol/lufa/lufa.c ****     host_set_driver(&lufa_driver);
 1043               		.loc 1 1021 0
 1044 0046 80E0      		ldi r24,lo8(lufa_driver)
 1045 0048 90E0      		ldi r25,hi8(lufa_driver)
 1046 004a 0E94 0000 		call host_set_driver
 1047               	.LVL84:
 1048               	.L117:
1022:./tmk_core/protocol/lufa/lufa.c **** #ifdef SLEEP_LED_ENABLE
1023:./tmk_core/protocol/lufa/lufa.c ****     sleep_led_init();
1024:./tmk_core/protocol/lufa/lufa.c **** #endif
1025:./tmk_core/protocol/lufa/lufa.c **** 
1026:./tmk_core/protocol/lufa/lufa.c **** #ifdef VIRTSER_ENABLE
1027:./tmk_core/protocol/lufa/lufa.c ****     virtser_init();
1028:./tmk_core/protocol/lufa/lufa.c **** #endif
1029:./tmk_core/protocol/lufa/lufa.c **** 
1030:./tmk_core/protocol/lufa/lufa.c ****     print("Keyboard start.\n");
1031:./tmk_core/protocol/lufa/lufa.c ****     while (1) {
1032:./tmk_core/protocol/lufa/lufa.c ****         #ifndef BLUETOOTH_ENABLE
1033:./tmk_core/protocol/lufa/lufa.c ****         while (USB_DeviceState == DEVICE_STATE_Suspended) {
 1049               		.loc 1 1033 0
 1050 004e 8091 0000 		lds r24,USB_DeviceState
 1051 0052 8530      		cpi r24,lo8(5)
 1052 0054 01F4      		brne .L125
1034:./tmk_core/protocol/lufa/lufa.c ****             print("[s]");
1035:./tmk_core/protocol/lufa/lufa.c ****             suspend_power_down();
 1053               		.loc 1 1035 0
 1054 0056 0E94 0000 		call suspend_power_down
 1055               	.LVL85:
1036:./tmk_core/protocol/lufa/lufa.c ****             if (USB_Device_RemoteWakeupEnabled && suspend_wakeup_condition()) {
 1056               		.loc 1 1036 0
 1057 005a 8091 0000 		lds r24,USB_Device_RemoteWakeupEnabled
 1058 005e 8823      		tst r24
 1059 0060 01F0      		breq .L117
 1060               		.loc 1 1036 0 is_stmt 0 discriminator 1
 1061 0062 0E94 0000 		call suspend_wakeup_condition
 1062               	.LVL86:
 1063 0066 8823      		tst r24
 1064 0068 01F0      		breq .L117
1037:./tmk_core/protocol/lufa/lufa.c ****                     USB_Device_SendRemoteWakeup();
 1065               		.loc 1 1037 0 is_stmt 1
 1066 006a 0E94 0000 		call USB_Device_SendRemoteWakeup
 1067               	.LVL87:
 1068 006e 00C0      		rjmp .L117
 1069               	.L125:
1038:./tmk_core/protocol/lufa/lufa.c ****             }
1039:./tmk_core/protocol/lufa/lufa.c ****         }
1040:./tmk_core/protocol/lufa/lufa.c ****         #endif
1041:./tmk_core/protocol/lufa/lufa.c **** 
1042:./tmk_core/protocol/lufa/lufa.c **** #ifdef MIDI_ENABLE
1043:./tmk_core/protocol/lufa/lufa.c ****         midi_device_process(&midi_device);
1044:./tmk_core/protocol/lufa/lufa.c ****         // MIDI_Task();
1045:./tmk_core/protocol/lufa/lufa.c **** #endif
1046:./tmk_core/protocol/lufa/lufa.c ****         keyboard_task();
 1070               		.loc 1 1046 0
 1071 0070 0E94 0000 		call keyboard_task
 1072               	.LVL88:
1047:./tmk_core/protocol/lufa/lufa.c **** 
1048:./tmk_core/protocol/lufa/lufa.c **** #ifdef VIRTSER_ENABLE
1049:./tmk_core/protocol/lufa/lufa.c ****         virtser_task();
1050:./tmk_core/protocol/lufa/lufa.c ****         CDC_Device_USBTask(&cdc_device);
1051:./tmk_core/protocol/lufa/lufa.c **** #endif
1052:./tmk_core/protocol/lufa/lufa.c **** 
1053:./tmk_core/protocol/lufa/lufa.c **** #if !defined(INTERRUPT_CONTROL_ENDPOINT)
1054:./tmk_core/protocol/lufa/lufa.c ****         USB_USBTask();
1055:./tmk_core/protocol/lufa/lufa.c **** #endif
1056:./tmk_core/protocol/lufa/lufa.c ****     }
 1073               		.loc 1 1056 0
 1074 0074 00C0      		rjmp .L117
 1075               		.cfi_endproc
 1076               	.LFE123:
 1078               	.global	lufa_driver
 1079               		.section	.data.lufa_driver,"aw",@progbits
 1082               	lufa_driver:
 1083 0000 0000      		.word	gs(keyboard_leds)
 1084 0002 0000      		.word	gs(send_keyboard)
 1085 0004 0000      		.word	gs(send_mouse)
 1086 0006 0000      		.word	gs(send_system)
 1087 0008 0000      		.word	gs(send_consumer)
 1088               		.section	.bss.keyboard_report_sent,"aw",@nobits
 1091               	keyboard_report_sent:
 1092 0000 0000 0000 		.zero	32
 1092      0000 0000 
 1092      0000 0000 
 1092      0000 0000 
 1092      0000 0000 
 1093               		.section	.bss.keyboard_led_stats,"aw",@nobits
 1096               	keyboard_led_stats:
 1097 0000 00        		.zero	1
 1098               	.global	keyboard_protocol
 1099               		.section	.data.keyboard_protocol,"aw",@progbits
 1102               	keyboard_protocol:
 1103 0000 01        		.byte	1
 1104               	.global	keyboard_idle
 1105               		.section	.bss.keyboard_idle,"aw",@nobits
 1108               	keyboard_idle:
 1109 0000 00        		.zero	1
 1110               		.text
 1111               	.Letext0:
 1112               		.file 6 "/usr/lib/avr/include/stdint.h"
 1113               		.file 7 "./tmk_core/protocol/lufa/LUFA-git/LUFA/Drivers/USB/Core/AVR8/../Device.h"
 1114               		.file 8 "./tmk_core/protocol/lufa/LUFA-git/LUFA/Drivers/USB/Core/AVR8/../StdRequestType.h"
 1115               		.file 9 "./tmk_core/protocol/lufa/LUFA-git/LUFA/Drivers/USB/Class/Device/../Common/HIDClassCommon.
 1116               		.file 10 "./tmk_core/common/report.h"
 1117               		.file 11 "./tmk_core/common/host_driver.h"
 1118               		.file 12 "./tmk_core/protocol/lufa/lufa.h"
 1119               		.file 13 "./quantum/keycode_config.h"
 1120               		.file 14 "./tmk_core/protocol/lufa/LUFA-git/LUFA/Drivers/USB/Core/AVR8/../AVR8/Device_AVR8.h"
 1121               		.file 15 "./tmk_core/protocol/lufa/LUFA-git/LUFA/Drivers/USB/Core/AVR8/../DeviceStandardReq.h"
 1122               		.file 16 "./tmk_core/protocol/lufa/LUFA-git/LUFA/Drivers/USB/Core/USBTask.h"
 1123               		.file 17 "./tmk_core/protocol/lufa/LUFA-git/LUFA/Drivers/USB/Core/AVR8/USBController_AVR8.h"
 1124               		.file 18 "./tmk_core/common/suspend.h"
 1125               		.file 19 "./tmk_core/protocol/lufa/LUFA-git/LUFA/Drivers/USB/Core/AVR8/../AVR8/EndpointStream_AVR8
 1126               		.file 20 "./tmk_core/common/action.h"
 1127               		.file 21 "./tmk_core/common/keyboard.h"
 1128               		.file 22 "./tmk_core/common/host.h"
DEFINED SYMBOLS
                            *ABS*:0000000000000000 lufa.c
     /tmp/ccEhGHxH.s:2      *ABS*:000000000000003e __SP_H__
     /tmp/ccEhGHxH.s:3      *ABS*:000000000000003d __SP_L__
     /tmp/ccEhGHxH.s:4      *ABS*:000000000000003f __SREG__
     /tmp/ccEhGHxH.s:5      *ABS*:0000000000000000 __tmp_reg__
     /tmp/ccEhGHxH.s:6      *ABS*:0000000000000001 __zero_reg__
     /tmp/ccEhGHxH.s:12     .text.keyboard_leds:0000000000000000 keyboard_leds
     /tmp/ccEhGHxH.s:1096   .bss.keyboard_led_stats:0000000000000000 keyboard_led_stats
     /tmp/ccEhGHxH.s:29     .text.send_consumer:0000000000000000 send_consumer
     /tmp/ccEhGHxH.s:147    .text.send_system:0000000000000000 send_system
     /tmp/ccEhGHxH.s:263    .text.send_mouse:0000000000000000 send_mouse
     /tmp/ccEhGHxH.s:347    .text.send_keyboard:0000000000000000 send_keyboard
     /tmp/ccEhGHxH.s:1102   .data.keyboard_protocol:0000000000000000 keyboard_protocol
     /tmp/ccEhGHxH.s:1091   .bss.keyboard_report_sent:0000000000000000 keyboard_report_sent
     /tmp/ccEhGHxH.s:523    .text.EVENT_USB_Device_Connect:0000000000000000 EVENT_USB_Device_Connect
     /tmp/ccEhGHxH.s:561    .text.EVENT_USB_Device_Disconnect:0000000000000000 EVENT_USB_Device_Disconnect
     /tmp/ccEhGHxH.s:578    .text.EVENT_USB_Device_Reset:0000000000000000 EVENT_USB_Device_Reset
     /tmp/ccEhGHxH.s:593    .text.EVENT_USB_Device_Suspend:0000000000000000 EVENT_USB_Device_Suspend
     /tmp/ccEhGHxH.s:608    .text.EVENT_USB_Device_WakeUp:0000000000000000 EVENT_USB_Device_WakeUp
     /tmp/ccEhGHxH.s:625    .text.EVENT_USB_Device_ConfigurationChanged:0000000000000000 EVENT_USB_Device_ConfigurationChanged
     /tmp/ccEhGHxH.s:677    .text.EVENT_USB_Device_ControlRequest:0000000000000000 EVENT_USB_Device_ControlRequest
     /tmp/ccEhGHxH.s:1108   .bss.keyboard_idle:0000000000000000 keyboard_idle
     /tmp/ccEhGHxH.s:948    .text.sendchar:0000000000000000 sendchar
     /tmp/ccEhGHxH.s:967    .text.startup.main:0000000000000000 main
     /tmp/ccEhGHxH.s:1082   .data.lufa_driver:0000000000000000 lufa_driver

UNDEFINED SYMBOLS
USB_DeviceState
Endpoint_Write_Stream_LE
keymap_config
USB_IsInitialized
USB_Disable
USB_Init
suspend_wakeup_init
Endpoint_ConfigureEndpoint_Prv
USB_ControlRequest
Endpoint_Write_Control_Stream_LE
Endpoint_ClearStatusStage
clear_keyboard
keyboard_setup
USB_USBTask
keyboard_init
host_set_driver
suspend_power_down
USB_Device_RemoteWakeupEnabled
suspend_wakeup_condition
USB_Device_SendRemoteWakeup
keyboard_task
__do_copy_data
__do_clear_bss
