   1               		.file	"action_tapping.c"
   2               	__SP_H__ = 0x3e
   3               	__SP_L__ = 0x3d
   4               	__SREG__ = 0x3f
   5               	__tmp_reg__ = 0
   6               	__zero_reg__ = 1
   7               		.text
   8               	.Ltext0:
   9               		.cfi_sections	.debug_frame
  10               		.section	.text.debug_waiting_buffer,"ax",@progbits
  12               	debug_waiting_buffer:
  13               	.LFB12:
  14               		.file 1 "./tmk_core/common/action_tapping.c"
   1:./tmk_core/common/action_tapping.c **** #include <stdint.h>
   2:./tmk_core/common/action_tapping.c **** #include <stdbool.h>
   3:./tmk_core/common/action_tapping.c **** #include "action.h"
   4:./tmk_core/common/action_tapping.c **** #include "action_layer.h"
   5:./tmk_core/common/action_tapping.c **** #include "action_tapping.h"
   6:./tmk_core/common/action_tapping.c **** #include "keycode.h"
   7:./tmk_core/common/action_tapping.c **** #include "timer.h"
   8:./tmk_core/common/action_tapping.c **** 
   9:./tmk_core/common/action_tapping.c **** #ifdef DEBUG_ACTION
  10:./tmk_core/common/action_tapping.c **** #include "debug.h"
  11:./tmk_core/common/action_tapping.c **** #else
  12:./tmk_core/common/action_tapping.c **** #include "nodebug.h"
  13:./tmk_core/common/action_tapping.c **** #endif
  14:./tmk_core/common/action_tapping.c **** 
  15:./tmk_core/common/action_tapping.c **** #ifndef NO_ACTION_TAPPING
  16:./tmk_core/common/action_tapping.c **** 
  17:./tmk_core/common/action_tapping.c **** #define IS_TAPPING()            !IS_NOEVENT(tapping_key.event)
  18:./tmk_core/common/action_tapping.c **** #define IS_TAPPING_PRESSED()    (IS_TAPPING() && tapping_key.event.pressed)
  19:./tmk_core/common/action_tapping.c **** #define IS_TAPPING_RELEASED()   (IS_TAPPING() && !tapping_key.event.pressed)
  20:./tmk_core/common/action_tapping.c **** #define IS_TAPPING_KEY(k)       (IS_TAPPING() && KEYEQ(tapping_key.event.key, (k)))
  21:./tmk_core/common/action_tapping.c **** #define WITHIN_TAPPING_TERM(e)  (TIMER_DIFF_16(e.time, tapping_key.event.time) < TAPPING_TERM)
  22:./tmk_core/common/action_tapping.c **** 
  23:./tmk_core/common/action_tapping.c **** 
  24:./tmk_core/common/action_tapping.c **** static keyrecord_t tapping_key = {};
  25:./tmk_core/common/action_tapping.c **** static keyrecord_t waiting_buffer[WAITING_BUFFER_SIZE] = {};
  26:./tmk_core/common/action_tapping.c **** static uint8_t waiting_buffer_head = 0;
  27:./tmk_core/common/action_tapping.c **** static uint8_t waiting_buffer_tail = 0;
  28:./tmk_core/common/action_tapping.c **** 
  29:./tmk_core/common/action_tapping.c **** static bool process_tapping(keyrecord_t *record);
  30:./tmk_core/common/action_tapping.c **** static bool waiting_buffer_enq(keyrecord_t record);
  31:./tmk_core/common/action_tapping.c **** static void waiting_buffer_clear(void);
  32:./tmk_core/common/action_tapping.c **** static bool waiting_buffer_typed(keyevent_t event);
  33:./tmk_core/common/action_tapping.c **** static bool waiting_buffer_has_anykey_pressed(void);
  34:./tmk_core/common/action_tapping.c **** static void waiting_buffer_scan_tap(void);
  35:./tmk_core/common/action_tapping.c **** static void debug_tapping_key(void);
  36:./tmk_core/common/action_tapping.c **** static void debug_waiting_buffer(void);
  37:./tmk_core/common/action_tapping.c **** 
  38:./tmk_core/common/action_tapping.c **** 
  39:./tmk_core/common/action_tapping.c **** void action_tapping_process(keyrecord_t record)
  40:./tmk_core/common/action_tapping.c **** {
  41:./tmk_core/common/action_tapping.c ****     if (process_tapping(&record)) {
  42:./tmk_core/common/action_tapping.c ****         if (!IS_NOEVENT(record.event)) {
  43:./tmk_core/common/action_tapping.c ****             debug("processed: "); debug_record(record); debug("\n");
  44:./tmk_core/common/action_tapping.c ****         }
  45:./tmk_core/common/action_tapping.c ****     } else {
  46:./tmk_core/common/action_tapping.c ****         if (!waiting_buffer_enq(record)) {
  47:./tmk_core/common/action_tapping.c ****             // clear all in case of overflow.
  48:./tmk_core/common/action_tapping.c ****             debug("OVERFLOW: CLEAR ALL STATES\n");
  49:./tmk_core/common/action_tapping.c ****             clear_keyboard();
  50:./tmk_core/common/action_tapping.c ****             waiting_buffer_clear();
  51:./tmk_core/common/action_tapping.c ****             tapping_key = (keyrecord_t){};
  52:./tmk_core/common/action_tapping.c ****         }
  53:./tmk_core/common/action_tapping.c ****     }
  54:./tmk_core/common/action_tapping.c **** 
  55:./tmk_core/common/action_tapping.c ****     // process waiting_buffer
  56:./tmk_core/common/action_tapping.c ****     if (!IS_NOEVENT(record.event) && waiting_buffer_head != waiting_buffer_tail) {
  57:./tmk_core/common/action_tapping.c ****         debug("---- action_exec: process waiting_buffer -----\n");
  58:./tmk_core/common/action_tapping.c ****     }
  59:./tmk_core/common/action_tapping.c ****     for (; waiting_buffer_tail != waiting_buffer_head; waiting_buffer_tail = (waiting_buffer_tail +
  60:./tmk_core/common/action_tapping.c ****         if (process_tapping(&waiting_buffer[waiting_buffer_tail])) {
  61:./tmk_core/common/action_tapping.c ****             debug("processed: waiting_buffer["); debug_dec(waiting_buffer_tail); debug("] = ");
  62:./tmk_core/common/action_tapping.c ****             debug_record(waiting_buffer[waiting_buffer_tail]); debug("\n\n");
  63:./tmk_core/common/action_tapping.c ****         } else {
  64:./tmk_core/common/action_tapping.c ****             break;
  65:./tmk_core/common/action_tapping.c ****         }
  66:./tmk_core/common/action_tapping.c ****     }
  67:./tmk_core/common/action_tapping.c ****     if (!IS_NOEVENT(record.event)) {
  68:./tmk_core/common/action_tapping.c ****         debug("\n");
  69:./tmk_core/common/action_tapping.c ****     }
  70:./tmk_core/common/action_tapping.c **** }
  71:./tmk_core/common/action_tapping.c **** 
  72:./tmk_core/common/action_tapping.c **** 
  73:./tmk_core/common/action_tapping.c **** /* Tapping
  74:./tmk_core/common/action_tapping.c ****  *
  75:./tmk_core/common/action_tapping.c ****  * Rule: Tap key is typed(pressed and released) within TAPPING_TERM.
  76:./tmk_core/common/action_tapping.c ****  *       (without interfering by typing other key)
  77:./tmk_core/common/action_tapping.c ****  */
  78:./tmk_core/common/action_tapping.c **** /* return true when key event is processed or consumed. */
  79:./tmk_core/common/action_tapping.c **** bool process_tapping(keyrecord_t *keyp)
  80:./tmk_core/common/action_tapping.c **** {
  81:./tmk_core/common/action_tapping.c ****     keyevent_t event = keyp->event;
  82:./tmk_core/common/action_tapping.c **** 
  83:./tmk_core/common/action_tapping.c ****     // if tapping
  84:./tmk_core/common/action_tapping.c ****     if (IS_TAPPING_PRESSED()) {
  85:./tmk_core/common/action_tapping.c ****         if (WITHIN_TAPPING_TERM(event)) {
  86:./tmk_core/common/action_tapping.c ****             if (tapping_key.tap.count == 0) {
  87:./tmk_core/common/action_tapping.c ****                 if (IS_TAPPING_KEY(event.key) && !event.pressed) {
  88:./tmk_core/common/action_tapping.c ****                     // first tap!
  89:./tmk_core/common/action_tapping.c ****                     debug("Tapping: First tap(0->1).\n");
  90:./tmk_core/common/action_tapping.c ****                     tapping_key.tap.count = 1;
  91:./tmk_core/common/action_tapping.c ****                     debug_tapping_key();
  92:./tmk_core/common/action_tapping.c ****                     process_record(&tapping_key);
  93:./tmk_core/common/action_tapping.c **** 
  94:./tmk_core/common/action_tapping.c ****                     // copy tapping state
  95:./tmk_core/common/action_tapping.c ****                     keyp->tap = tapping_key.tap;
  96:./tmk_core/common/action_tapping.c ****                     // enqueue
  97:./tmk_core/common/action_tapping.c ****                     return false;
  98:./tmk_core/common/action_tapping.c ****                 }
  99:./tmk_core/common/action_tapping.c **** #if TAPPING_TERM >= 500
 100:./tmk_core/common/action_tapping.c ****                 /* Process a key typed within TAPPING_TERM
 101:./tmk_core/common/action_tapping.c ****                  * This can register the key before settlement of tapping,
 102:./tmk_core/common/action_tapping.c ****                  * useful for long TAPPING_TERM but may prevent fast typing.
 103:./tmk_core/common/action_tapping.c ****                  */
 104:./tmk_core/common/action_tapping.c ****                 else if (IS_RELEASED(event) && waiting_buffer_typed(event)) {
 105:./tmk_core/common/action_tapping.c ****                     debug("Tapping: End. No tap. Interfered by typing key\n");
 106:./tmk_core/common/action_tapping.c ****                     process_record(&tapping_key);
 107:./tmk_core/common/action_tapping.c ****                     tapping_key = (keyrecord_t){};
 108:./tmk_core/common/action_tapping.c ****                     debug_tapping_key();
 109:./tmk_core/common/action_tapping.c ****                     // enqueue
 110:./tmk_core/common/action_tapping.c ****                     return false;
 111:./tmk_core/common/action_tapping.c ****                 }
 112:./tmk_core/common/action_tapping.c **** #endif
 113:./tmk_core/common/action_tapping.c ****                 /* Process release event of a key pressed before tapping starts
 114:./tmk_core/common/action_tapping.c ****                  * Without this unexpected repeating will occur with having fast repeating setting
 115:./tmk_core/common/action_tapping.c ****                  * https://github.com/tmk/tmk_keyboard/issues/60
 116:./tmk_core/common/action_tapping.c ****                  */
 117:./tmk_core/common/action_tapping.c ****                 else if (IS_RELEASED(event) && !waiting_buffer_typed(event)) {
 118:./tmk_core/common/action_tapping.c ****                     // Modifier should be retained till end of this tapping.
 119:./tmk_core/common/action_tapping.c ****                     action_t action = layer_switch_get_action(event.key);
 120:./tmk_core/common/action_tapping.c ****                     switch (action.kind.id) {
 121:./tmk_core/common/action_tapping.c ****                         case ACT_LMODS:
 122:./tmk_core/common/action_tapping.c ****                         case ACT_RMODS:
 123:./tmk_core/common/action_tapping.c ****                             if (action.key.mods && !action.key.code) return false;
 124:./tmk_core/common/action_tapping.c ****                             if (IS_MOD(action.key.code)) return false;
 125:./tmk_core/common/action_tapping.c ****                             break;
 126:./tmk_core/common/action_tapping.c ****                         case ACT_LMODS_TAP:
 127:./tmk_core/common/action_tapping.c ****                         case ACT_RMODS_TAP:
 128:./tmk_core/common/action_tapping.c ****                             if (action.key.mods && keyp->tap.count == 0) return false;
 129:./tmk_core/common/action_tapping.c ****                             if (IS_MOD(action.key.code)) return false;
 130:./tmk_core/common/action_tapping.c ****                             break;
 131:./tmk_core/common/action_tapping.c ****                     }
 132:./tmk_core/common/action_tapping.c ****                     // Release of key should be process immediately.
 133:./tmk_core/common/action_tapping.c ****                     debug("Tapping: release event of a key pressed before tapping\n");
 134:./tmk_core/common/action_tapping.c ****                     process_record(keyp);
 135:./tmk_core/common/action_tapping.c ****                     return true;
 136:./tmk_core/common/action_tapping.c ****                 }
 137:./tmk_core/common/action_tapping.c ****                 else {
 138:./tmk_core/common/action_tapping.c ****                     // set interrupted flag when other key preesed during tapping
 139:./tmk_core/common/action_tapping.c ****                     if (event.pressed) {
 140:./tmk_core/common/action_tapping.c ****                         tapping_key.tap.interrupted = true;
 141:./tmk_core/common/action_tapping.c ****                     }
 142:./tmk_core/common/action_tapping.c ****                     // enqueue
 143:./tmk_core/common/action_tapping.c ****                     return false;
 144:./tmk_core/common/action_tapping.c ****                 }
 145:./tmk_core/common/action_tapping.c ****             }
 146:./tmk_core/common/action_tapping.c ****             // tap_count > 0
 147:./tmk_core/common/action_tapping.c ****             else {
 148:./tmk_core/common/action_tapping.c ****                 if (IS_TAPPING_KEY(event.key) && !event.pressed) {
 149:./tmk_core/common/action_tapping.c ****                     debug("Tapping: Tap release("); debug_dec(tapping_key.tap.count); debug(")\n");
 150:./tmk_core/common/action_tapping.c ****                     keyp->tap = tapping_key.tap;
 151:./tmk_core/common/action_tapping.c ****                     process_record(keyp);
 152:./tmk_core/common/action_tapping.c ****                     tapping_key = *keyp;
 153:./tmk_core/common/action_tapping.c ****                     debug_tapping_key();
 154:./tmk_core/common/action_tapping.c ****                     return true;
 155:./tmk_core/common/action_tapping.c ****                 }
 156:./tmk_core/common/action_tapping.c ****                 else if (is_tap_key(event.key) && event.pressed) {
 157:./tmk_core/common/action_tapping.c ****                     if (tapping_key.tap.count > 1) {
 158:./tmk_core/common/action_tapping.c ****                         debug("Tapping: Start new tap with releasing last tap(>1).\n");
 159:./tmk_core/common/action_tapping.c ****                         // unregister key
 160:./tmk_core/common/action_tapping.c ****                         process_record(&(keyrecord_t){
 161:./tmk_core/common/action_tapping.c ****                                 .tap = tapping_key.tap,
 162:./tmk_core/common/action_tapping.c ****                                 .event.key = tapping_key.event.key,
 163:./tmk_core/common/action_tapping.c ****                                 .event.time = event.time,
 164:./tmk_core/common/action_tapping.c ****                                 .event.pressed = false
 165:./tmk_core/common/action_tapping.c ****                         });
 166:./tmk_core/common/action_tapping.c ****                     } else {
 167:./tmk_core/common/action_tapping.c ****                         debug("Tapping: Start while last tap(1).\n");
 168:./tmk_core/common/action_tapping.c ****                     }
 169:./tmk_core/common/action_tapping.c ****                     tapping_key = *keyp;
 170:./tmk_core/common/action_tapping.c ****                     waiting_buffer_scan_tap();
 171:./tmk_core/common/action_tapping.c ****                     debug_tapping_key();
 172:./tmk_core/common/action_tapping.c ****                     return true;
 173:./tmk_core/common/action_tapping.c ****                 }
 174:./tmk_core/common/action_tapping.c ****                 else {
 175:./tmk_core/common/action_tapping.c ****                     if (!IS_NOEVENT(event)) {
 176:./tmk_core/common/action_tapping.c ****                         debug("Tapping: key event while last tap(>0).\n");
 177:./tmk_core/common/action_tapping.c ****                     }
 178:./tmk_core/common/action_tapping.c ****                     process_record(keyp);
 179:./tmk_core/common/action_tapping.c ****                     return true;
 180:./tmk_core/common/action_tapping.c ****                 }
 181:./tmk_core/common/action_tapping.c ****             }
 182:./tmk_core/common/action_tapping.c ****         }
 183:./tmk_core/common/action_tapping.c ****         // after TAPPING_TERM
 184:./tmk_core/common/action_tapping.c ****         else {
 185:./tmk_core/common/action_tapping.c ****             if (tapping_key.tap.count == 0) {
 186:./tmk_core/common/action_tapping.c ****                 debug("Tapping: End. Timeout. Not tap(0): ");
 187:./tmk_core/common/action_tapping.c ****                 debug_event(event); debug("\n");
 188:./tmk_core/common/action_tapping.c ****                 process_record(&tapping_key);
 189:./tmk_core/common/action_tapping.c ****                 tapping_key = (keyrecord_t){};
 190:./tmk_core/common/action_tapping.c ****                 debug_tapping_key();
 191:./tmk_core/common/action_tapping.c ****                 return false;
 192:./tmk_core/common/action_tapping.c ****             }  else {
 193:./tmk_core/common/action_tapping.c ****                 if (IS_TAPPING_KEY(event.key) && !event.pressed) {
 194:./tmk_core/common/action_tapping.c ****                     debug("Tapping: End. last timeout tap release(>0).");
 195:./tmk_core/common/action_tapping.c ****                     keyp->tap = tapping_key.tap;
 196:./tmk_core/common/action_tapping.c ****                     process_record(keyp);
 197:./tmk_core/common/action_tapping.c ****                     tapping_key = (keyrecord_t){};
 198:./tmk_core/common/action_tapping.c ****                     return true;
 199:./tmk_core/common/action_tapping.c ****                 }
 200:./tmk_core/common/action_tapping.c ****                 else if (is_tap_key(event.key) && event.pressed) {
 201:./tmk_core/common/action_tapping.c ****                     if (tapping_key.tap.count > 1) {
 202:./tmk_core/common/action_tapping.c ****                         debug("Tapping: Start new tap with releasing last timeout tap(>1).\n");
 203:./tmk_core/common/action_tapping.c ****                         // unregister key
 204:./tmk_core/common/action_tapping.c ****                         process_record(&(keyrecord_t){
 205:./tmk_core/common/action_tapping.c ****                                 .tap = tapping_key.tap,
 206:./tmk_core/common/action_tapping.c ****                                 .event.key = tapping_key.event.key,
 207:./tmk_core/common/action_tapping.c ****                                 .event.time = event.time,
 208:./tmk_core/common/action_tapping.c ****                                 .event.pressed = false
 209:./tmk_core/common/action_tapping.c ****                         });
 210:./tmk_core/common/action_tapping.c ****                     } else {
 211:./tmk_core/common/action_tapping.c ****                         debug("Tapping: Start while last timeout tap(1).\n");
 212:./tmk_core/common/action_tapping.c ****                     }
 213:./tmk_core/common/action_tapping.c ****                     tapping_key = *keyp;
 214:./tmk_core/common/action_tapping.c ****                     waiting_buffer_scan_tap();
 215:./tmk_core/common/action_tapping.c ****                     debug_tapping_key();
 216:./tmk_core/common/action_tapping.c ****                     return true;
 217:./tmk_core/common/action_tapping.c ****                 }
 218:./tmk_core/common/action_tapping.c ****                 else {
 219:./tmk_core/common/action_tapping.c ****                     if (!IS_NOEVENT(event)) {
 220:./tmk_core/common/action_tapping.c ****                         debug("Tapping: key event while last timeout tap(>0).\n");
 221:./tmk_core/common/action_tapping.c ****                     }
 222:./tmk_core/common/action_tapping.c ****                     process_record(keyp);
 223:./tmk_core/common/action_tapping.c ****                     return true;
 224:./tmk_core/common/action_tapping.c ****                 }
 225:./tmk_core/common/action_tapping.c ****             }
 226:./tmk_core/common/action_tapping.c ****         }
 227:./tmk_core/common/action_tapping.c ****     } else if (IS_TAPPING_RELEASED()) {
 228:./tmk_core/common/action_tapping.c ****         if (WITHIN_TAPPING_TERM(event)) {
 229:./tmk_core/common/action_tapping.c ****             if (event.pressed) {
 230:./tmk_core/common/action_tapping.c ****                 if (IS_TAPPING_KEY(event.key)) {
 231:./tmk_core/common/action_tapping.c ****                     if (!tapping_key.tap.interrupted && tapping_key.tap.count > 0) {
 232:./tmk_core/common/action_tapping.c ****                         // sequential tap.
 233:./tmk_core/common/action_tapping.c ****                         keyp->tap = tapping_key.tap;
 234:./tmk_core/common/action_tapping.c ****                         if (keyp->tap.count < 15) keyp->tap.count += 1;
 235:./tmk_core/common/action_tapping.c ****                         debug("Tapping: Tap press("); debug_dec(keyp->tap.count); debug(")\n");
 236:./tmk_core/common/action_tapping.c ****                         process_record(keyp);
 237:./tmk_core/common/action_tapping.c ****                         tapping_key = *keyp;
 238:./tmk_core/common/action_tapping.c ****                         debug_tapping_key();
 239:./tmk_core/common/action_tapping.c ****                         return true;
 240:./tmk_core/common/action_tapping.c ****                     } else {
 241:./tmk_core/common/action_tapping.c ****                         // FIX: start new tap again
 242:./tmk_core/common/action_tapping.c ****                         tapping_key = *keyp;
 243:./tmk_core/common/action_tapping.c ****                         return true;
 244:./tmk_core/common/action_tapping.c ****                     }
 245:./tmk_core/common/action_tapping.c ****                 } else if (is_tap_key(event.key)) {
 246:./tmk_core/common/action_tapping.c ****                     // Sequential tap can be interfered with other tap key.
 247:./tmk_core/common/action_tapping.c ****                     debug("Tapping: Start with interfering other tap.\n");
 248:./tmk_core/common/action_tapping.c ****                     tapping_key = *keyp;
 249:./tmk_core/common/action_tapping.c ****                     waiting_buffer_scan_tap();
 250:./tmk_core/common/action_tapping.c ****                     debug_tapping_key();
 251:./tmk_core/common/action_tapping.c ****                     return true;
 252:./tmk_core/common/action_tapping.c ****                 } else {
 253:./tmk_core/common/action_tapping.c ****                     // should none in buffer
 254:./tmk_core/common/action_tapping.c ****                     // FIX: interrupted when other key is pressed
 255:./tmk_core/common/action_tapping.c ****                     tapping_key.tap.interrupted = true;
 256:./tmk_core/common/action_tapping.c ****                     process_record(keyp);
 257:./tmk_core/common/action_tapping.c ****                     return true;
 258:./tmk_core/common/action_tapping.c ****                 }
 259:./tmk_core/common/action_tapping.c ****             } else {
 260:./tmk_core/common/action_tapping.c ****                 if (!IS_NOEVENT(event)) debug("Tapping: other key just after tap.\n") {};
 261:./tmk_core/common/action_tapping.c ****                 process_record(keyp);
 262:./tmk_core/common/action_tapping.c ****                 return true;
 263:./tmk_core/common/action_tapping.c ****             }
 264:./tmk_core/common/action_tapping.c ****         } else {
 265:./tmk_core/common/action_tapping.c ****             // FIX: process_aciton here?
 266:./tmk_core/common/action_tapping.c ****             // timeout. no sequential tap.
 267:./tmk_core/common/action_tapping.c ****             debug("Tapping: End(Timeout after releasing last tap): ");
 268:./tmk_core/common/action_tapping.c ****             debug_event(event); debug("\n");
 269:./tmk_core/common/action_tapping.c ****             tapping_key = (keyrecord_t){};
 270:./tmk_core/common/action_tapping.c ****             debug_tapping_key();
 271:./tmk_core/common/action_tapping.c ****             return false;
 272:./tmk_core/common/action_tapping.c ****         }
 273:./tmk_core/common/action_tapping.c ****     }
 274:./tmk_core/common/action_tapping.c ****     // not tapping state
 275:./tmk_core/common/action_tapping.c ****     else {
 276:./tmk_core/common/action_tapping.c ****         if (event.pressed && is_tap_key(event.key)) {
 277:./tmk_core/common/action_tapping.c ****             debug("Tapping: Start(Press tap key).\n");
 278:./tmk_core/common/action_tapping.c ****             tapping_key = *keyp;
 279:./tmk_core/common/action_tapping.c ****             waiting_buffer_scan_tap();
 280:./tmk_core/common/action_tapping.c ****             debug_tapping_key();
 281:./tmk_core/common/action_tapping.c ****             return true;
 282:./tmk_core/common/action_tapping.c ****         } else {
 283:./tmk_core/common/action_tapping.c ****             process_record(keyp);
 284:./tmk_core/common/action_tapping.c ****             return true;
 285:./tmk_core/common/action_tapping.c ****         }
 286:./tmk_core/common/action_tapping.c ****     }
 287:./tmk_core/common/action_tapping.c **** }
 288:./tmk_core/common/action_tapping.c **** 
 289:./tmk_core/common/action_tapping.c **** 
 290:./tmk_core/common/action_tapping.c **** /*
 291:./tmk_core/common/action_tapping.c ****  * Waiting buffer
 292:./tmk_core/common/action_tapping.c ****  */
 293:./tmk_core/common/action_tapping.c **** bool waiting_buffer_enq(keyrecord_t record)
 294:./tmk_core/common/action_tapping.c **** {
 295:./tmk_core/common/action_tapping.c ****     if (IS_NOEVENT(record.event)) {
 296:./tmk_core/common/action_tapping.c ****         return true;
 297:./tmk_core/common/action_tapping.c ****     }
 298:./tmk_core/common/action_tapping.c **** 
 299:./tmk_core/common/action_tapping.c ****     if ((waiting_buffer_head + 1) % WAITING_BUFFER_SIZE == waiting_buffer_tail) {
 300:./tmk_core/common/action_tapping.c ****         debug("waiting_buffer_enq: Over flow.\n");
 301:./tmk_core/common/action_tapping.c ****         return false;
 302:./tmk_core/common/action_tapping.c ****     }
 303:./tmk_core/common/action_tapping.c **** 
 304:./tmk_core/common/action_tapping.c ****     waiting_buffer[waiting_buffer_head] = record;
 305:./tmk_core/common/action_tapping.c ****     waiting_buffer_head = (waiting_buffer_head + 1) % WAITING_BUFFER_SIZE;
 306:./tmk_core/common/action_tapping.c **** 
 307:./tmk_core/common/action_tapping.c ****     debug("waiting_buffer_enq: "); debug_waiting_buffer();
 308:./tmk_core/common/action_tapping.c ****     return true;
 309:./tmk_core/common/action_tapping.c **** }
 310:./tmk_core/common/action_tapping.c **** 
 311:./tmk_core/common/action_tapping.c **** void waiting_buffer_clear(void)
 312:./tmk_core/common/action_tapping.c **** {
 313:./tmk_core/common/action_tapping.c ****     waiting_buffer_head = 0;
 314:./tmk_core/common/action_tapping.c ****     waiting_buffer_tail = 0;
 315:./tmk_core/common/action_tapping.c **** }
 316:./tmk_core/common/action_tapping.c **** 
 317:./tmk_core/common/action_tapping.c **** bool waiting_buffer_typed(keyevent_t event)
 318:./tmk_core/common/action_tapping.c **** {
 319:./tmk_core/common/action_tapping.c ****     for (uint8_t i = waiting_buffer_tail; i != waiting_buffer_head; i = (i + 1) % WAITING_BUFFER_SI
 320:./tmk_core/common/action_tapping.c ****         if (KEYEQ(event.key, waiting_buffer[i].event.key) && event.pressed !=  waiting_buffer[i].ev
 321:./tmk_core/common/action_tapping.c ****             return true;
 322:./tmk_core/common/action_tapping.c ****         }
 323:./tmk_core/common/action_tapping.c ****     }
 324:./tmk_core/common/action_tapping.c ****     return false;
 325:./tmk_core/common/action_tapping.c **** }
 326:./tmk_core/common/action_tapping.c **** 
 327:./tmk_core/common/action_tapping.c **** __attribute__((unused))
 328:./tmk_core/common/action_tapping.c **** bool waiting_buffer_has_anykey_pressed(void)
 329:./tmk_core/common/action_tapping.c **** {
 330:./tmk_core/common/action_tapping.c ****     for (uint8_t i = waiting_buffer_tail; i != waiting_buffer_head; i = (i + 1) % WAITING_BUFFER_SI
 331:./tmk_core/common/action_tapping.c ****         if (waiting_buffer[i].event.pressed) return true;
 332:./tmk_core/common/action_tapping.c ****     }
 333:./tmk_core/common/action_tapping.c ****     return false;
 334:./tmk_core/common/action_tapping.c **** }
 335:./tmk_core/common/action_tapping.c **** 
 336:./tmk_core/common/action_tapping.c **** /* scan buffer for tapping */
 337:./tmk_core/common/action_tapping.c **** void waiting_buffer_scan_tap(void)
 338:./tmk_core/common/action_tapping.c **** {
 339:./tmk_core/common/action_tapping.c ****     // tapping already is settled
 340:./tmk_core/common/action_tapping.c ****     if (tapping_key.tap.count > 0) return;
 341:./tmk_core/common/action_tapping.c ****     // invalid state: tapping_key released && tap.count == 0
 342:./tmk_core/common/action_tapping.c ****     if (!tapping_key.event.pressed) return;
 343:./tmk_core/common/action_tapping.c **** 
 344:./tmk_core/common/action_tapping.c ****     for (uint8_t i = waiting_buffer_tail; i != waiting_buffer_head; i = (i + 1) % WAITING_BUFFER_SI
 345:./tmk_core/common/action_tapping.c ****         if (IS_TAPPING_KEY(waiting_buffer[i].event.key) &&
 346:./tmk_core/common/action_tapping.c ****                 !waiting_buffer[i].event.pressed &&
 347:./tmk_core/common/action_tapping.c ****                 WITHIN_TAPPING_TERM(waiting_buffer[i].event)) {
 348:./tmk_core/common/action_tapping.c ****             tapping_key.tap.count = 1;
 349:./tmk_core/common/action_tapping.c ****             waiting_buffer[i].tap.count = 1;
 350:./tmk_core/common/action_tapping.c ****             process_record(&tapping_key);
 351:./tmk_core/common/action_tapping.c **** 
 352:./tmk_core/common/action_tapping.c ****             debug("waiting_buffer_scan_tap: found at ["); debug_dec(i); debug("]\n");
 353:./tmk_core/common/action_tapping.c ****             debug_waiting_buffer();
 354:./tmk_core/common/action_tapping.c ****             return;
 355:./tmk_core/common/action_tapping.c ****         }
 356:./tmk_core/common/action_tapping.c ****     }
 357:./tmk_core/common/action_tapping.c **** }
 358:./tmk_core/common/action_tapping.c **** 
 359:./tmk_core/common/action_tapping.c **** 
 360:./tmk_core/common/action_tapping.c **** /*
 361:./tmk_core/common/action_tapping.c ****  * debug print
 362:./tmk_core/common/action_tapping.c ****  */
 363:./tmk_core/common/action_tapping.c **** static void debug_tapping_key(void)
 364:./tmk_core/common/action_tapping.c **** {
 365:./tmk_core/common/action_tapping.c ****     debug("TAPPING_KEY="); debug_record(tapping_key); debug("\n");
 366:./tmk_core/common/action_tapping.c **** }
 367:./tmk_core/common/action_tapping.c **** 
 368:./tmk_core/common/action_tapping.c **** static void debug_waiting_buffer(void)
 369:./tmk_core/common/action_tapping.c **** {
  15               		.loc 1 369 1 view -0
  16               		.cfi_startproc
  17 0000 1F93      		push r17
  18               	.LCFI0:
  19               		.cfi_def_cfa_offset 3
  20               		.cfi_offset 17, -2
  21 0002 CF93      		push r28
  22               	.LCFI1:
  23               		.cfi_def_cfa_offset 4
  24               		.cfi_offset 28, -3
  25 0004 DF93      		push r29
  26               	.LCFI2:
  27               		.cfi_def_cfa_offset 5
  28               		.cfi_offset 29, -4
  29               	/* prologue: function */
  30               	/* frame size = 0 */
  31               	/* stack size = 3 */
  32               	.L__stack_usage = 3
 370:./tmk_core/common/action_tapping.c ****     debug("{ ");
  33               		.loc 1 370 16 view .LVU1
 371:./tmk_core/common/action_tapping.c ****     for (uint8_t i = waiting_buffer_tail; i != waiting_buffer_head; i = (i + 1) % WAITING_BUFFER_SI
  34               		.loc 1 371 5 view .LVU2
  35               	.LBB3:
  36               		.loc 1 371 10 view .LVU3
  37               		.loc 1 371 18 is_stmt 0 view .LVU4
  38 0006 C091 0000 		lds r28,waiting_buffer_tail
  39               	.LVL0:
 372:./tmk_core/common/action_tapping.c ****         debug("["); debug_dec(i); debug("]="); debug_record(waiting_buffer[i]); debug(" ");
  40               		.loc 1 372 48 view .LVU5
  41 000a 16E0      		ldi r17,lo8(6)
  42               	.LVL1:
  43               	.L2:
 371:./tmk_core/common/action_tapping.c ****     for (uint8_t i = waiting_buffer_tail; i != waiting_buffer_head; i = (i + 1) % WAITING_BUFFER_SI
  44               		.loc 1 371 5 discriminator 1 view .LVU6
  45 000c 8091 0000 		lds r24,waiting_buffer_head
  46 0010 8C13      		cpse r24,r28
  47 0012 00C0      		rjmp .L3
  48               	/* epilogue start */
  49               	.LBE3:
 373:./tmk_core/common/action_tapping.c ****     }
 374:./tmk_core/common/action_tapping.c ****     debug("}\n");
 375:./tmk_core/common/action_tapping.c **** }
  50               		.loc 1 375 1 view .LVU7
  51 0014 DF91      		pop r29
  52 0016 CF91      		pop r28
  53               	.LVL2:
  54               		.loc 1 375 1 view .LVU8
  55 0018 1F91      		pop r17
  56 001a 0895      		ret
  57               	.LVL3:
  58               	.L3:
  59               	.LBB4:
 372:./tmk_core/common/action_tapping.c ****         debug("["); debug_dec(i); debug("]="); debug_record(waiting_buffer[i]); debug(" ");
  60               		.loc 1 372 19 is_stmt 1 discriminator 3 view .LVU9
 372:./tmk_core/common/action_tapping.c ****         debug("["); debug_dec(i); debug("]="); debug_record(waiting_buffer[i]); debug(" ");
  61               		.loc 1 372 33 discriminator 3 view .LVU10
 372:./tmk_core/common/action_tapping.c ****         debug("["); debug_dec(i); debug("]="); debug_record(waiting_buffer[i]); debug(" ");
  62               		.loc 1 372 46 discriminator 3 view .LVU11
 372:./tmk_core/common/action_tapping.c ****         debug("["); debug_dec(i); debug("]="); debug_record(waiting_buffer[i]); debug(" ");
  63               		.loc 1 372 48 discriminator 3 view .LVU12
  64 001c D0E0      		ldi r29,0
  65 001e 1C9F      		mul r17,r28
  66 0020 F001      		movw r30,r0
  67 0022 1D9F      		mul r17,r29
  68 0024 F00D      		add r31,r0
  69 0026 1124      		clr __zero_reg__
  70 0028 E050      		subi r30,lo8(-(waiting_buffer))
  71 002a F040      		sbci r31,hi8(-(waiting_buffer))
  72 002c 4081      		ld r20,Z
  73 002e 5181      		ldd r21,Z+1
  74 0030 6281      		ldd r22,Z+2
  75 0032 7381      		ldd r23,Z+3
  76 0034 8481      		ldd r24,Z+4
  77 0036 9581      		ldd r25,Z+5
  78 0038 0E94 0000 		call debug_record
  79               	.LVL4:
 372:./tmk_core/common/action_tapping.c ****         debug("["); debug_dec(i); debug("]="); debug_record(waiting_buffer[i]); debug(" ");
  80               		.loc 1 372 91 discriminator 3 view .LVU13
 371:./tmk_core/common/action_tapping.c ****         debug("["); debug_dec(i); debug("]="); debug_record(waiting_buffer[i]); debug(" ");
  81               		.loc 1 371 76 is_stmt 0 discriminator 3 view .LVU14
  82 003c 2196      		adiw r28,1
  83               	.LVL5:
 371:./tmk_core/common/action_tapping.c ****         debug("["); debug_dec(i); debug("]="); debug_record(waiting_buffer[i]); debug(" ");
  84               		.loc 1 371 71 discriminator 3 view .LVU15
  85 003e C770      		andi r28,lo8(7)
 371:./tmk_core/common/action_tapping.c ****         debug("["); debug_dec(i); debug("]="); debug_record(waiting_buffer[i]); debug(" ");
  86               		.loc 1 371 71 discriminator 3 view .LVU16
  87 0040 00C0      		rjmp .L2
  88               	.LBE4:
  89               		.cfi_endproc
  90               	.LFE12:
  92               		.section	.text.debug_tapping_key,"ax",@progbits
  94               	debug_tapping_key:
  95               	.LFB11:
 364:./tmk_core/common/action_tapping.c ****     debug("TAPPING_KEY="); debug_record(tapping_key); debug("\n");
  96               		.loc 1 364 1 is_stmt 1 view -0
  97               		.cfi_startproc
  98               	/* prologue: function */
  99               	/* frame size = 0 */
 100               	/* stack size = 0 */
 101               	.L__stack_usage = 0
 365:./tmk_core/common/action_tapping.c **** }
 102               		.loc 1 365 26 view .LVU18
 365:./tmk_core/common/action_tapping.c **** }
 103               		.loc 1 365 28 view .LVU19
 104 0000 4091 0000 		lds r20,tapping_key
 105 0004 5091 0000 		lds r21,tapping_key+1
 106 0008 6091 0000 		lds r22,tapping_key+2
 107 000c 7091 0000 		lds r23,tapping_key+3
 108 0010 8091 0000 		lds r24,tapping_key+4
 109 0014 9091 0000 		lds r25,tapping_key+5
 110 0018 0C94 0000 		jmp debug_record
 111               	.LVL6:
 112               		.cfi_endproc
 113               	.LFE11:
 115               		.section	.text.waiting_buffer_scan_tap,"ax",@progbits
 117               	waiting_buffer_scan_tap:
 118               	.LFB10:
 338:./tmk_core/common/action_tapping.c ****     // tapping already is settled
 119               		.loc 1 338 1 view -0
 120               		.cfi_startproc
 121 0000 1F93      		push r17
 122               	.LCFI3:
 123               		.cfi_def_cfa_offset 3
 124               		.cfi_offset 17, -2
 125 0002 CF93      		push r28
 126               	.LCFI4:
 127               		.cfi_def_cfa_offset 4
 128               		.cfi_offset 28, -3
 129 0004 DF93      		push r29
 130               	.LCFI5:
 131               		.cfi_def_cfa_offset 5
 132               		.cfi_offset 29, -4
 133               	/* prologue: function */
 134               	/* frame size = 0 */
 135               	/* stack size = 3 */
 136               	.L__stack_usage = 3
 340:./tmk_core/common/action_tapping.c ****     // invalid state: tapping_key released && tap.count == 0
 137               		.loc 1 340 5 view .LVU21
 340:./tmk_core/common/action_tapping.c ****     // invalid state: tapping_key released && tap.count == 0
 138               		.loc 1 340 31 is_stmt 0 view .LVU22
 139 0006 8091 0000 		lds r24,tapping_key+5
 140 000a 807F      		andi r24,lo8(-16)
 340:./tmk_core/common/action_tapping.c ****     // invalid state: tapping_key released && tap.count == 0
 141               		.loc 1 340 8 view .LVU23
 142 000c 01F4      		brne .L5
 342:./tmk_core/common/action_tapping.c **** 
 143               		.loc 1 342 5 is_stmt 1 view .LVU24
 342:./tmk_core/common/action_tapping.c **** 
 144               		.loc 1 342 8 is_stmt 0 view .LVU25
 145 000e 8091 0000 		lds r24,tapping_key+2
 146 0012 8823      		tst r24
 147 0014 01F0      		breq .L5
 344:./tmk_core/common/action_tapping.c ****         if (IS_TAPPING_KEY(waiting_buffer[i].event.key) &&
 148               		.loc 1 344 5 is_stmt 1 view .LVU26
 149               	.LBB8:
 344:./tmk_core/common/action_tapping.c ****         if (IS_TAPPING_KEY(waiting_buffer[i].event.key) &&
 150               		.loc 1 344 10 view .LVU27
 344:./tmk_core/common/action_tapping.c ****         if (IS_TAPPING_KEY(waiting_buffer[i].event.key) &&
 151               		.loc 1 344 18 is_stmt 0 view .LVU28
 152 0016 8091 0000 		lds r24,waiting_buffer_tail
 153               	.LVL7:
 344:./tmk_core/common/action_tapping.c ****         if (IS_TAPPING_KEY(waiting_buffer[i].event.key) &&
 154               		.loc 1 344 45 view .LVU29
 155 001a C091 0000 		lds r28,waiting_buffer_head
 345:./tmk_core/common/action_tapping.c ****                 !waiting_buffer[i].event.pressed &&
 156               		.loc 1 345 13 view .LVU30
 157 001e 6091 0000 		lds r22,tapping_key
 158 0022 7091 0000 		lds r23,tapping_key+1
 159 0026 4091 0000 		lds r20,tapping_key+3
 160 002a 5091 0000 		lds r21,tapping_key+3+1
 161 002e D62F      		mov r29,r22
 162 0030 D723      		and r29,r23
 163 0032 DA01      		movw r26,r20
 164 0034 A095      		com r26
 165 0036 B095      		com r27
 166 0038 16E0      		ldi r17,lo8(6)
 167               	.LVL8:
 168               	.L7:
 344:./tmk_core/common/action_tapping.c ****         if (IS_TAPPING_KEY(waiting_buffer[i].event.key) &&
 169               		.loc 1 344 5 discriminator 1 view .LVU31
 170 003a C813      		cpse r28,r24
 171 003c 00C0      		rjmp .L14
 172               	.LVL9:
 173               	.L5:
 174               	/* epilogue start */
 344:./tmk_core/common/action_tapping.c ****         if (IS_TAPPING_KEY(waiting_buffer[i].event.key) &&
 175               		.loc 1 344 5 discriminator 1 view .LVU32
 176               	.LBE8:
 357:./tmk_core/common/action_tapping.c **** 
 177               		.loc 1 357 1 view .LVU33
 178 003e DF91      		pop r29
 179 0040 CF91      		pop r28
 180 0042 1F91      		pop r17
 181 0044 0895      		ret
 182               	.LVL10:
 183               	.L14:
 184               	.LBB11:
 345:./tmk_core/common/action_tapping.c ****                 !waiting_buffer[i].event.pressed &&
 185               		.loc 1 345 9 is_stmt 1 view .LVU34
 186               	.LBB9:
 187               	.LBI9:
 188               		.file 2 "./tmk_core/common/keyboard.h"
   1:./tmk_core/common/keyboard.h **** /*
   2:./tmk_core/common/keyboard.h **** Copyright 2011,2012,2013 Jun Wako <wakojun@gmail.com>
   3:./tmk_core/common/keyboard.h **** 
   4:./tmk_core/common/keyboard.h **** This program is free software: you can redistribute it and/or modify
   5:./tmk_core/common/keyboard.h **** it under the terms of the GNU General Public License as published by
   6:./tmk_core/common/keyboard.h **** the Free Software Foundation, either version 2 of the License, or
   7:./tmk_core/common/keyboard.h **** (at your option) any later version.
   8:./tmk_core/common/keyboard.h **** 
   9:./tmk_core/common/keyboard.h **** This program is distributed in the hope that it will be useful,
  10:./tmk_core/common/keyboard.h **** but WITHOUT ANY WARRANTY; without even the implied warranty of
  11:./tmk_core/common/keyboard.h **** MERCHANTABILITY or FITNESS FOR A PARTICULAR PURPOSE.  See the
  12:./tmk_core/common/keyboard.h **** GNU General Public License for more details.
  13:./tmk_core/common/keyboard.h **** 
  14:./tmk_core/common/keyboard.h **** You should have received a copy of the GNU General Public License
  15:./tmk_core/common/keyboard.h **** along with this program.  If not, see <http://www.gnu.org/licenses/>.
  16:./tmk_core/common/keyboard.h **** */
  17:./tmk_core/common/keyboard.h **** 
  18:./tmk_core/common/keyboard.h **** #ifndef KEYBOARD_H
  19:./tmk_core/common/keyboard.h **** #define KEYBOARD_H
  20:./tmk_core/common/keyboard.h **** 
  21:./tmk_core/common/keyboard.h **** #include <stdbool.h>
  22:./tmk_core/common/keyboard.h **** #include <stdint.h>
  23:./tmk_core/common/keyboard.h **** 
  24:./tmk_core/common/keyboard.h **** 
  25:./tmk_core/common/keyboard.h **** #ifdef __cplusplus
  26:./tmk_core/common/keyboard.h **** extern "C" {
  27:./tmk_core/common/keyboard.h **** #endif
  28:./tmk_core/common/keyboard.h **** 
  29:./tmk_core/common/keyboard.h **** /* key matrix position */
  30:./tmk_core/common/keyboard.h **** typedef struct {
  31:./tmk_core/common/keyboard.h ****     uint8_t col;
  32:./tmk_core/common/keyboard.h ****     uint8_t row;
  33:./tmk_core/common/keyboard.h **** } keypos_t;
  34:./tmk_core/common/keyboard.h **** 
  35:./tmk_core/common/keyboard.h **** /* key event */
  36:./tmk_core/common/keyboard.h **** typedef struct {
  37:./tmk_core/common/keyboard.h ****     keypos_t key;
  38:./tmk_core/common/keyboard.h ****     bool     pressed;
  39:./tmk_core/common/keyboard.h ****     uint16_t time;
  40:./tmk_core/common/keyboard.h **** } keyevent_t;
  41:./tmk_core/common/keyboard.h **** 
  42:./tmk_core/common/keyboard.h **** /* equivalent test of keypos_t */
  43:./tmk_core/common/keyboard.h **** #define KEYEQ(keya, keyb)       ((keya).row == (keyb).row && (keya).col == (keyb).col)
  44:./tmk_core/common/keyboard.h **** 
  45:./tmk_core/common/keyboard.h **** /* Rules for No Event:
  46:./tmk_core/common/keyboard.h ****  * 1) (time == 0) to handle (keyevent_t){} as empty event
  47:./tmk_core/common/keyboard.h ****  * 2) Matrix(255, 255) to make TICK event available
  48:./tmk_core/common/keyboard.h ****  */
  49:./tmk_core/common/keyboard.h **** static inline bool IS_NOEVENT(keyevent_t event) { return event.time == 0 || (event.key.row == 255 &
 189               		.loc 2 49 20 view .LVU35
 190               	.LBB10:
 191               		.loc 2 49 51 view .LVU36
 192 0046 90E0      		ldi r25,0
 193               		.loc 2 49 74 is_stmt 0 view .LVU37
 194 0048 4115      		cp r20,__zero_reg__
 195 004a 5105      		cpc r21,__zero_reg__
 196 004c 01F0      		breq .L8
 197 004e DF3F      		cpi r29,lo8(-1)
 198 0050 01F4      		brne .L27
 199               	.L8:
 200               	.LBE10:
 201               	.LBE9:
 344:./tmk_core/common/action_tapping.c ****         if (IS_TAPPING_KEY(waiting_buffer[i].event.key) &&
 202               		.loc 1 344 76 discriminator 2 view .LVU38
 203 0052 0196      		adiw r24,1
 204               	.LVL11:
 344:./tmk_core/common/action_tapping.c ****         if (IS_TAPPING_KEY(waiting_buffer[i].event.key) &&
 205               		.loc 1 344 71 discriminator 2 view .LVU39
 206 0054 8770      		andi r24,lo8(7)
 344:./tmk_core/common/action_tapping.c ****         if (IS_TAPPING_KEY(waiting_buffer[i].event.key) &&
 207               		.loc 1 344 71 discriminator 2 view .LVU40
 208 0056 00C0      		rjmp .L7
 209               	.LVL12:
 210               	.L10:
 347:./tmk_core/common/action_tapping.c ****             tapping_key.tap.count = 1;
 211               		.loc 1 347 17 discriminator 2 view .LVU41
 212 0058 2A0F      		add r18,r26
 213 005a 3B1F      		adc r19,r27
 214 005c 00C0      		rjmp .L28
 215               	.L27:
 345:./tmk_core/common/action_tapping.c ****                 !waiting_buffer[i].event.pressed &&
 216               		.loc 1 345 13 view .LVU42
 217 005e 189F      		mul r17,r24
 218 0060 F001      		movw r30,r0
 219 0062 199F      		mul r17,r25
 220 0064 F00D      		add r31,r0
 221 0066 1124      		clr __zero_reg__
 222 0068 E050      		subi r30,lo8(-(waiting_buffer))
 223 006a F040      		sbci r31,hi8(-(waiting_buffer))
 224 006c 2181      		ldd r18,Z+1
 225 006e 2713      		cpse r18,r23
 226 0070 00C0      		rjmp .L8
 345:./tmk_core/common/action_tapping.c ****                 !waiting_buffer[i].event.pressed &&
 227               		.loc 1 345 13 discriminator 2 view .LVU43
 228 0072 2081      		ld r18,Z
 229 0074 2613      		cpse r18,r22
 230 0076 00C0      		rjmp .L8
 345:./tmk_core/common/action_tapping.c ****                 !waiting_buffer[i].event.pressed &&
 231               		.loc 1 345 57 discriminator 3 view .LVU44
 232 0078 2281      		ldd r18,Z+2
 233 007a 2111      		cpse r18,__zero_reg__
 234 007c 00C0      		rjmp .L8
 347:./tmk_core/common/action_tapping.c ****             tapping_key.tap.count = 1;
 235               		.loc 1 347 17 view .LVU45
 236 007e 2381      		ldd r18,Z+3
 237 0080 3481      		ldd r19,Z+4
 238 0082 2417      		cp r18,r20
 239 0084 3507      		cpc r19,r21
 240 0086 00F0      		brlo .L10
 347:./tmk_core/common/action_tapping.c ****             tapping_key.tap.count = 1;
 241               		.loc 1 347 17 discriminator 1 view .LVU46
 242 0088 241B      		sub r18,r20
 243 008a 350B      		sbc r19,r21
 244               	.L28:
 347:./tmk_core/common/action_tapping.c ****             tapping_key.tap.count = 1;
 245               		.loc 1 347 17 discriminator 2 view .LVU47
 246 008c 2639      		cpi r18,-106
 247 008e 3105      		cpc r19,__zero_reg__
 248 0090 00F4      		brsh .L8
 348:./tmk_core/common/action_tapping.c ****             waiting_buffer[i].tap.count = 1;
 249               		.loc 1 348 13 is_stmt 1 view .LVU48
 348:./tmk_core/common/action_tapping.c ****             waiting_buffer[i].tap.count = 1;
 250               		.loc 1 348 35 is_stmt 0 view .LVU49
 251 0092 2091 0000 		lds r18,tapping_key+5
 252 0096 2F70      		andi r18,lo8(15)
 253 0098 2061      		ori r18,lo8(16)
 254 009a 2093 0000 		sts tapping_key+5,r18
 349:./tmk_core/common/action_tapping.c ****             process_record(&tapping_key);
 255               		.loc 1 349 13 is_stmt 1 view .LVU50
 349:./tmk_core/common/action_tapping.c ****             process_record(&tapping_key);
 256               		.loc 1 349 41 is_stmt 0 view .LVU51
 257 009e 26E0      		ldi r18,lo8(6)
 258 00a0 289F      		mul r18,r24
 259 00a2 F001      		movw r30,r0
 260 00a4 299F      		mul r18,r25
 261 00a6 F00D      		add r31,r0
 262 00a8 1124      		clr __zero_reg__
 263 00aa E050      		subi r30,lo8(-(waiting_buffer+5))
 264 00ac F040      		sbci r31,hi8(-(waiting_buffer+5))
 265 00ae 8081      		ld r24,Z
 266               	.LVL13:
 349:./tmk_core/common/action_tapping.c ****             process_record(&tapping_key);
 267               		.loc 1 349 41 view .LVU52
 268 00b0 8F70      		andi r24,lo8(15)
 269 00b2 8061      		ori r24,lo8(16)
 270 00b4 8083      		st Z,r24
 350:./tmk_core/common/action_tapping.c **** 
 271               		.loc 1 350 13 is_stmt 1 view .LVU53
 272 00b6 80E0      		ldi r24,lo8(tapping_key)
 273 00b8 90E0      		ldi r25,hi8(tapping_key)
 274 00ba 0E94 0000 		call process_record
 275               	.LVL14:
 352:./tmk_core/common/action_tapping.c ****             debug_waiting_buffer();
 276               		.loc 1 352 57 view .LVU54
 352:./tmk_core/common/action_tapping.c ****             debug_waiting_buffer();
 277               		.loc 1 352 71 view .LVU55
 352:./tmk_core/common/action_tapping.c ****             debug_waiting_buffer();
 278               		.loc 1 352 85 view .LVU56
 353:./tmk_core/common/action_tapping.c ****             return;
 279               		.loc 1 353 13 view .LVU57
 280               	/* epilogue start */
 281               	.LBE11:
 357:./tmk_core/common/action_tapping.c **** 
 282               		.loc 1 357 1 is_stmt 0 view .LVU58
 283 00be DF91      		pop r29
 284 00c0 CF91      		pop r28
 285 00c2 1F91      		pop r17
 286               	.LBB12:
 353:./tmk_core/common/action_tapping.c ****             return;
 287               		.loc 1 353 13 view .LVU59
 288 00c4 0C94 0000 		jmp debug_waiting_buffer
 289               	.LVL15:
 290               	.LBE12:
 291               		.cfi_endproc
 292               	.LFE10:
 294               		.section	.text.process_tapping,"ax",@progbits
 296               	process_tapping:
 297               	.LVL16:
 298               	.LFB5:
  80:./tmk_core/common/action_tapping.c ****     keyevent_t event = keyp->event;
 299               		.loc 1 80 1 is_stmt 1 view -0
 300               		.cfi_startproc
  80:./tmk_core/common/action_tapping.c ****     keyevent_t event = keyp->event;
 301               		.loc 1 80 1 is_stmt 0 view .LVU61
 302 0000 BF92      		push r11
 303               	.LCFI6:
 304               		.cfi_def_cfa_offset 3
 305               		.cfi_offset 11, -2
 306 0002 CF92      		push r12
 307               	.LCFI7:
 308               		.cfi_def_cfa_offset 4
 309               		.cfi_offset 12, -3
 310 0004 DF92      		push r13
 311               	.LCFI8:
 312               		.cfi_def_cfa_offset 5
 313               		.cfi_offset 13, -4
 314 0006 EF92      		push r14
 315               	.LCFI9:
 316               		.cfi_def_cfa_offset 6
 317               		.cfi_offset 14, -5
 318 0008 FF92      		push r15
 319               	.LCFI10:
 320               		.cfi_def_cfa_offset 7
 321               		.cfi_offset 15, -6
 322 000a 0F93      		push r16
 323               	.LCFI11:
 324               		.cfi_def_cfa_offset 8
 325               		.cfi_offset 16, -7
 326 000c 1F93      		push r17
 327               	.LCFI12:
 328               		.cfi_def_cfa_offset 9
 329               		.cfi_offset 17, -8
 330 000e CF93      		push r28
 331               	.LCFI13:
 332               		.cfi_def_cfa_offset 10
 333               		.cfi_offset 28, -9
 334 0010 DF93      		push r29
 335               	.LCFI14:
 336               		.cfi_def_cfa_offset 11
 337               		.cfi_offset 29, -10
 338 0012 CDB7      		in r28,__SP_L__
 339 0014 DEB7      		in r29,__SP_H__
 340               	.LCFI15:
 341               		.cfi_def_cfa_register 28
 342 0016 6197      		sbiw r28,17
 343               	.LCFI16:
 344               		.cfi_def_cfa_offset 28
 345 0018 0FB6      		in __tmp_reg__,__SREG__
 346 001a F894      		cli
 347 001c DEBF      		out __SP_H__,r29
 348 001e 0FBE      		out __SREG__,__tmp_reg__
 349 0020 CDBF      		out __SP_L__,r28
 350               	/* prologue: function */
 351               	/* frame size = 17 */
 352               	/* stack size = 26 */
 353               	.L__stack_usage = 26
 354 0022 8C01      		movw r16,r24
  81:./tmk_core/common/action_tapping.c **** 
 355               		.loc 1 81 5 is_stmt 1 view .LVU62
  81:./tmk_core/common/action_tapping.c **** 
 356               		.loc 1 81 16 is_stmt 0 view .LVU63
 357 0024 85E0      		ldi r24,lo8(5)
 358               	.LVL17:
  81:./tmk_core/common/action_tapping.c **** 
 359               		.loc 1 81 16 view .LVU64
 360 0026 F801      		movw r30,r16
 361 0028 DE01      		movw r26,r28
 362 002a 1D96      		adiw r26,13
 363               		0:
 364 002c 0190      		ld r0,Z+
 365 002e 0D92      		st X+,r0
 366 0030 8A95      		dec r24
 367 0032 01F4      		brne 0b
 368 0034 D801      		movw r26,r16
 369 0036 4C91      		ld r20,X
 370               	.LVL18:
  81:./tmk_core/common/action_tapping.c **** 
 371               		.loc 1 81 16 view .LVU65
 372 0038 1196      		adiw r26,1
 373 003a 5C91      		ld r21,X
 374 003c 1197      		sbiw r26,1
 375               	.LVL19:
  81:./tmk_core/common/action_tapping.c **** 
 376               		.loc 1 81 16 view .LVU66
 377 003e 1296      		adiw r26,2
 378 0040 EC90      		ld r14,X
 379 0042 1297      		sbiw r26,2
 380               	.LVL20:
  84:./tmk_core/common/action_tapping.c ****         if (WITHIN_TAPPING_TERM(event)) {
 381               		.loc 1 84 5 is_stmt 1 view .LVU67
  84:./tmk_core/common/action_tapping.c ****         if (WITHIN_TAPPING_TERM(event)) {
 382               		.loc 1 84 9 is_stmt 0 view .LVU68
 383 0044 8091 0000 		lds r24,tapping_key+3
 384 0048 9091 0000 		lds r25,tapping_key+3+1
 385               	.LBB23:
 386               	.LBI23:
 387               		.loc 2 49 20 is_stmt 1 view .LVU69
 388               	.LBB24:
 389               		.loc 2 49 51 view .LVU70
 390               		.loc 2 49 74 is_stmt 0 view .LVU71
 391 004c 0097      		sbiw r24,0
 392 004e 01F4      		brne .+2
 393 0050 00C0      		rjmp .L30
 394               	.LBE24:
 395               	.LBE23:
  84:./tmk_core/common/action_tapping.c ****         if (WITHIN_TAPPING_TERM(event)) {
 396               		.loc 1 84 9 view .LVU72
 397 0052 2091 0000 		lds r18,tapping_key
 398 0056 3091 0000 		lds r19,tapping_key+1
 399               	.LBB26:
 400               	.LBB25:
 401               		.loc 2 49 74 view .LVU73
 402 005a 622F      		mov r22,r18
 403 005c 6323      		and r22,r19
 404 005e 6F3F      		cpi r22,lo8(-1)
 405 0060 01F4      		brne .+2
 406 0062 00C0      		rjmp .L30
 407               	.LBE25:
 408               	.LBE26:
  81:./tmk_core/common/action_tapping.c **** 
 409               		.loc 1 81 16 discriminator 1 view .LVU74
 410 0064 1396      		adiw r26,3
 411 0066 CD90      		ld r12,X+
 412 0068 DC90      		ld r13,X
  84:./tmk_core/common/action_tapping.c ****         if (WITHIN_TAPPING_TERM(event)) {
 413               		.loc 1 84 9 discriminator 1 view .LVU75
 414 006a B090 0000 		lds r11,tapping_key+2
 415 006e BB20      		tst r11
 416 0070 01F4      		brne .+2
 417 0072 00C0      		rjmp .L31
  85:./tmk_core/common/action_tapping.c ****             if (tapping_key.tap.count == 0) {
 418               		.loc 1 85 9 is_stmt 1 view .LVU76
  85:./tmk_core/common/action_tapping.c ****             if (tapping_key.tap.count == 0) {
 419               		.loc 1 85 13 is_stmt 0 view .LVU77
 420 0074 C816      		cp r12,r24
 421 0076 D906      		cpc r13,r25
 422 0078 00F0      		brlo .L32
  85:./tmk_core/common/action_tapping.c ****             if (tapping_key.tap.count == 0) {
 423               		.loc 1 85 13 discriminator 1 view .LVU78
 424 007a F601      		movw r30,r12
 425 007c E81B      		sub r30,r24
 426 007e F90B      		sbc r31,r25
 427 0080 CF01      		movw r24,r30
 428               	.L120:
  85:./tmk_core/common/action_tapping.c ****             if (tapping_key.tap.count == 0) {
 429               		.loc 1 85 13 discriminator 2 view .LVU79
 430 0082 FF24      		clr r15
 431 0084 F394      		inc r15
 432 0086 8639      		cpi r24,-106
 433 0088 9105      		cpc r25,__zero_reg__
 434 008a 00F0      		brlo .L34
 435 008c F12C      		mov r15,__zero_reg__
 436               	.L34:
 437 008e 8091 0000 		lds r24,tapping_key+5
 438 0092 982F      		mov r25,r24
 439 0094 907F      		andi r25,lo8(-16)
  85:./tmk_core/common/action_tapping.c ****             if (tapping_key.tap.count == 0) {
 440               		.loc 1 85 12 discriminator 4 view .LVU80
 441 0096 FF20      		tst r15
 442 0098 01F4      		brne .+2
 443 009a 00C0      		rjmp .L36
  86:./tmk_core/common/action_tapping.c ****                 if (IS_TAPPING_KEY(event.key) && !event.pressed) {
 444               		.loc 1 86 13 is_stmt 1 view .LVU81
  86:./tmk_core/common/action_tapping.c ****                 if (IS_TAPPING_KEY(event.key) && !event.pressed) {
 445               		.loc 1 86 16 is_stmt 0 view .LVU82
 446 009c 9111      		cpse r25,__zero_reg__
 447 009e 00C0      		rjmp .L37
  87:./tmk_core/common/action_tapping.c ****                     // first tap!
 448               		.loc 1 87 17 is_stmt 1 discriminator 1 view .LVU83
 449 00a0 FE2C      		mov r15,r14
  87:./tmk_core/common/action_tapping.c ****                     // first tap!
 450               		.loc 1 87 21 is_stmt 0 discriminator 1 view .LVU84
 451 00a2 3513      		cpse r19,r21
 452 00a4 00C0      		rjmp .L38
  87:./tmk_core/common/action_tapping.c ****                     // first tap!
 453               		.loc 1 87 21 discriminator 2 view .LVU85
 454 00a6 2413      		cpse r18,r20
 455 00a8 00C0      		rjmp .L38
  87:./tmk_core/common/action_tapping.c ****                     // first tap!
 456               		.loc 1 87 47 discriminator 3 view .LVU86
 457 00aa E110      		cpse r14,__zero_reg__
 458 00ac 00C0      		rjmp .L38
  89:./tmk_core/common/action_tapping.c ****                     tapping_key.tap.count = 1;
 459               		.loc 1 89 57 is_stmt 1 view .LVU87
  90:./tmk_core/common/action_tapping.c ****                     debug_tapping_key();
 460               		.loc 1 90 21 view .LVU88
  90:./tmk_core/common/action_tapping.c ****                     debug_tapping_key();
 461               		.loc 1 90 43 is_stmt 0 view .LVU89
 462 00ae 8F70      		andi r24,lo8(15)
 463 00b0 8061      		ori r24,lo8(16)
 464 00b2 8093 0000 		sts tapping_key+5,r24
 465               	.LVL21:
  91:./tmk_core/common/action_tapping.c ****                     process_record(&tapping_key);
 466               		.loc 1 91 21 is_stmt 1 view .LVU90
 467 00b6 0E94 0000 		call debug_tapping_key
 468               	.LVL22:
  92:./tmk_core/common/action_tapping.c **** 
 469               		.loc 1 92 21 view .LVU91
 470 00ba 80E0      		ldi r24,lo8(tapping_key)
 471 00bc 90E0      		ldi r25,hi8(tapping_key)
 472 00be 0E94 0000 		call process_record
 473               	.LVL23:
  95:./tmk_core/common/action_tapping.c ****                     // enqueue
 474               		.loc 1 95 21 view .LVU92
  95:./tmk_core/common/action_tapping.c ****                     // enqueue
 475               		.loc 1 95 31 is_stmt 0 view .LVU93
 476 00c2 8091 0000 		lds r24,tapping_key+5
 477 00c6 D801      		movw r26,r16
 478 00c8 1596      		adiw r26,5
 479 00ca 8C93      		st X,r24
  97:./tmk_core/common/action_tapping.c ****                 }
 480               		.loc 1 97 21 is_stmt 1 view .LVU94
 481               	.LVL24:
 482               	.L29:
 287:./tmk_core/common/action_tapping.c **** 
 483               		.loc 1 287 1 is_stmt 0 view .LVU95
 484 00cc 8F2D      		mov r24,r15
 485               	/* epilogue start */
 287:./tmk_core/common/action_tapping.c **** 
 486               		.loc 1 287 1 view .LVU96
 487 00ce 6196      		adiw r28,17
 488 00d0 0FB6      		in __tmp_reg__,__SREG__
 489 00d2 F894      		cli
 490 00d4 DEBF      		out __SP_H__,r29
 491 00d6 0FBE      		out __SREG__,__tmp_reg__
 492 00d8 CDBF      		out __SP_L__,r28
 493 00da DF91      		pop r29
 494 00dc CF91      		pop r28
 495 00de 1F91      		pop r17
 496 00e0 0F91      		pop r16
 497               	.LVL25:
 287:./tmk_core/common/action_tapping.c **** 
 498               		.loc 1 287 1 view .LVU97
 499 00e2 FF90      		pop r15
 500 00e4 EF90      		pop r14
 501               	.LVL26:
 287:./tmk_core/common/action_tapping.c **** 
 502               		.loc 1 287 1 view .LVU98
 503 00e6 DF90      		pop r13
 504 00e8 CF90      		pop r12
 505 00ea BF90      		pop r11
 506 00ec 0895      		ret
 507               	.LVL27:
 508               	.L32:
  85:./tmk_core/common/action_tapping.c ****             if (tapping_key.tap.count == 0) {
 509               		.loc 1 85 13 discriminator 2 view .LVU99
 510 00ee 8095      		com r24
 511 00f0 9095      		com r25
 512 00f2 8C0D      		add r24,r12
 513 00f4 9D1D      		adc r25,r13
 514 00f6 00C0      		rjmp .L120
 515               	.L38:
 117:./tmk_core/common/action_tapping.c ****                     // Modifier should be retained till end of this tapping.
 516               		.loc 1 117 22 is_stmt 1 view .LVU100
 517               	.LVL28:
 518               	.LBB27:
 519               	.LBI27:
  50:./tmk_core/common/keyboard.h **** static inline bool IS_PRESSED(keyevent_t event) { return (!IS_NOEVENT(event) && event.pressed); }
  51:./tmk_core/common/keyboard.h **** static inline bool IS_RELEASED(keyevent_t event) { return (!IS_NOEVENT(event) && !event.pressed); }
 520               		.loc 2 51 20 view .LVU101
 521               	.LBB28:
 522               		.loc 2 51 52 view .LVU102
 523               	.LBB29:
 524               	.LBI29:
  49:./tmk_core/common/keyboard.h **** static inline bool IS_PRESSED(keyevent_t event) { return (!IS_NOEVENT(event) && event.pressed); }
 525               		.loc 2 49 20 view .LVU103
 526               	.LBB30:
  49:./tmk_core/common/keyboard.h **** static inline bool IS_PRESSED(keyevent_t event) { return (!IS_NOEVENT(event) && event.pressed); }
 527               		.loc 2 49 51 view .LVU104
  49:./tmk_core/common/keyboard.h **** static inline bool IS_PRESSED(keyevent_t event) { return (!IS_NOEVENT(event) && event.pressed); }
 528               		.loc 2 49 74 is_stmt 0 view .LVU105
 529 00f8 CD28      		or r12,r13
 530 00fa 01F0      		breq .L69
 531 00fc 852F      		mov r24,r21
 532 00fe 8423      		and r24,r20
 533 0100 8F3F      		cpi r24,lo8(-1)
 534 0102 01F0      		breq .+2
 535 0104 00C0      		rjmp .L41
 536               	.L69:
  49:./tmk_core/common/keyboard.h **** static inline bool IS_PRESSED(keyevent_t event) { return (!IS_NOEVENT(event) && event.pressed); }
 537               		.loc 2 49 74 view .LVU106
 538               	.LBE30:
 539               	.LBE29:
 540               		.loc 2 51 79 view .LVU107
 541 0106 80E0      		ldi r24,0
 542               	.L40:
 543               	.LVL29:
 544               		.loc 2 51 79 view .LVU108
 545               	.LBE28:
 546               	.LBE27:
 117:./tmk_core/common/action_tapping.c ****                     // Modifier should be retained till end of this tapping.
 547               		.loc 1 117 25 view .LVU109
 548 0108 B82F      		mov r27,r24
 549 010a B170      		andi r27,lo8(1)
 550 010c DB2E      		mov r13,r27
 551 010e 80FF      		sbrs r24,0
 552 0110 00C0      		rjmp .L42
 553               	.LBB32:
 554               	.LBI32:
 317:./tmk_core/common/action_tapping.c **** {
 555               		.loc 1 317 6 is_stmt 1 discriminator 1 view .LVU110
 556               	.LBE32:
 319:./tmk_core/common/action_tapping.c ****         if (KEYEQ(event.key, waiting_buffer[i].event.key) && event.pressed !=  waiting_buffer[i].ev
 557               		.loc 1 319 5 discriminator 1 view .LVU111
 558               	.LBB35:
 559               	.LBB33:
 319:./tmk_core/common/action_tapping.c ****         if (KEYEQ(event.key, waiting_buffer[i].event.key) && event.pressed !=  waiting_buffer[i].ev
 560               		.loc 1 319 10 discriminator 1 view .LVU112
 319:./tmk_core/common/action_tapping.c ****         if (KEYEQ(event.key, waiting_buffer[i].event.key) && event.pressed !=  waiting_buffer[i].ev
 561               		.loc 1 319 18 is_stmt 0 discriminator 1 view .LVU113
 562 0112 8091 0000 		lds r24,waiting_buffer_tail
 563               	.LVL30:
 319:./tmk_core/common/action_tapping.c ****         if (KEYEQ(event.key, waiting_buffer[i].event.key) && event.pressed !=  waiting_buffer[i].ev
 564               		.loc 1 319 45 discriminator 1 view .LVU114
 565 0116 2091 0000 		lds r18,waiting_buffer_head
 320:./tmk_core/common/action_tapping.c ****             return true;
 566               		.loc 1 320 13 discriminator 1 view .LVU115
 567 011a 36E0      		ldi r19,lo8(6)
 568               	.LVL31:
 569               	.L43:
 319:./tmk_core/common/action_tapping.c ****         if (KEYEQ(event.key, waiting_buffer[i].event.key) && event.pressed !=  waiting_buffer[i].ev
 570               		.loc 1 319 5 view .LVU116
 571 011c 8213      		cpse r24,r18
 572 011e 00C0      		rjmp .L45
 573               	.LVL32:
 319:./tmk_core/common/action_tapping.c ****         if (KEYEQ(event.key, waiting_buffer[i].event.key) && event.pressed !=  waiting_buffer[i].ev
 574               		.loc 1 319 5 view .LVU117
 575               	.LBE33:
 576               	.LBE35:
 577               	.LBB36:
 119:./tmk_core/common/action_tapping.c ****                     switch (action.kind.id) {
 578               		.loc 1 119 21 is_stmt 1 view .LVU118
 119:./tmk_core/common/action_tapping.c ****                     switch (action.kind.id) {
 579               		.loc 1 119 39 is_stmt 0 view .LVU119
 580 0120 4D87      		std Y+13,r20
 581 0122 5E87      		std Y+14,r21
 582 0124 8D85      		ldd r24,Y+13
 583 0126 9E85      		ldd r25,Y+14
 584 0128 0E94 0000 		call layer_switch_get_action
 585               	.LVL33:
 120:./tmk_core/common/action_tapping.c ****                         case ACT_LMODS:
 586               		.loc 1 120 21 is_stmt 1 view .LVU120
 120:./tmk_core/common/action_tapping.c ****                         case ACT_LMODS:
 587               		.loc 1 120 40 is_stmt 0 view .LVU121
 588 012c 292F      		mov r18,r25
 589 012e 2295      		swap r18
 590 0130 2F70      		andi r18,lo8(15)
 591 0132 2230      		cpi r18,lo8(2)
 592 0134 00F0      		brlo .L67
 120:./tmk_core/common/action_tapping.c ****                         case ACT_LMODS:
 593               		.loc 1 120 40 view .LVU122
 594 0136 2430      		cpi r18,lo8(4)
 595 0138 00F4      		brsh .L49
 128:./tmk_core/common/action_tapping.c ****                             if (IS_MOD(action.key.code)) return false;
 596               		.loc 1 128 29 is_stmt 1 view .LVU123
 128:./tmk_core/common/action_tapping.c ****                             if (IS_MOD(action.key.code)) return false;
 597               		.loc 1 128 33 is_stmt 0 view .LVU124
 598 013a 9F70      		andi r25,lo8(15)
 599               	.LVL34:
 128:./tmk_core/common/action_tapping.c ****                             if (IS_MOD(action.key.code)) return false;
 600               		.loc 1 128 32 view .LVU125
 601 013c 01F0      		breq .L50
 128:./tmk_core/common/action_tapping.c ****                             if (IS_MOD(action.key.code)) return false;
 602               		.loc 1 128 68 discriminator 1 view .LVU126
 603 013e F801      		movw r30,r16
 604 0140 9581      		ldd r25,Z+5
 605 0142 907F      		andi r25,lo8(-16)
 128:./tmk_core/common/action_tapping.c ****                             if (IS_MOD(action.key.code)) return false;
 606               		.loc 1 128 49 discriminator 1 view .LVU127
 607 0144 01F4      		brne .L50
 608               	.LVL35:
 609               	.L73:
 123:./tmk_core/common/action_tapping.c ****                             if (IS_MOD(action.key.code)) return false;
 610               		.loc 1 123 77 view .LVU128
 611 0146 D12C      		mov r13,__zero_reg__
 612 0148 00C0      		rjmp .L48
 613               	.LVL36:
 614               	.L45:
 123:./tmk_core/common/action_tapping.c ****                             if (IS_MOD(action.key.code)) return false;
 615               		.loc 1 123 77 view .LVU129
 616               	.LBE36:
 617               	.LBB37:
 618               	.LBB34:
 320:./tmk_core/common/action_tapping.c ****             return true;
 619               		.loc 1 320 9 is_stmt 1 view .LVU130
 320:./tmk_core/common/action_tapping.c ****             return true;
 620               		.loc 1 320 13 is_stmt 0 view .LVU131
 621 014a 90E0      		ldi r25,0
 622 014c 389F      		mul r19,r24
 623 014e F001      		movw r30,r0
 624 0150 399F      		mul r19,r25
 625 0152 F00D      		add r31,r0
 626 0154 1124      		clr __zero_reg__
 627 0156 E050      		subi r30,lo8(-(waiting_buffer))
 628 0158 F040      		sbci r31,hi8(-(waiting_buffer))
 320:./tmk_core/common/action_tapping.c ****             return true;
 629               		.loc 1 320 12 view .LVU132
 630 015a 6181      		ldd r22,Z+1
 631 015c 6513      		cpse r22,r21
 632 015e 00C0      		rjmp .L44
 320:./tmk_core/common/action_tapping.c ****             return true;
 633               		.loc 1 320 13 view .LVU133
 634 0160 6081      		ld r22,Z
 635 0162 6413      		cpse r22,r20
 636 0164 00C0      		rjmp .L44
 320:./tmk_core/common/action_tapping.c ****             return true;
 637               		.loc 1 320 59 view .LVU134
 638 0166 6281      		ldd r22,Z+2
 639 0168 E612      		cpse r14,r22
 640 016a 00C0      		rjmp .L42
 641               	.L44:
 319:./tmk_core/common/action_tapping.c ****         if (KEYEQ(event.key, waiting_buffer[i].event.key) && event.pressed !=  waiting_buffer[i].ev
 642               		.loc 1 319 76 view .LVU135
 643 016c 0196      		adiw r24,1
 644               	.LVL37:
 319:./tmk_core/common/action_tapping.c ****         if (KEYEQ(event.key, waiting_buffer[i].event.key) && event.pressed !=  waiting_buffer[i].ev
 645               		.loc 1 319 71 view .LVU136
 646 016e 8770      		andi r24,lo8(7)
 319:./tmk_core/common/action_tapping.c ****         if (KEYEQ(event.key, waiting_buffer[i].event.key) && event.pressed !=  waiting_buffer[i].ev
 647               		.loc 1 319 71 view .LVU137
 648 0170 00C0      		rjmp .L43
 649               	.LVL38:
 650               	.L67:
 319:./tmk_core/common/action_tapping.c ****         if (KEYEQ(event.key, waiting_buffer[i].event.key) && event.pressed !=  waiting_buffer[i].ev
 651               		.loc 1 319 71 view .LVU138
 652               	.LBE34:
 653               	.LBE37:
 654               	.LBB38:
 123:./tmk_core/common/action_tapping.c ****                             if (IS_MOD(action.key.code)) return false;
 655               		.loc 1 123 29 is_stmt 1 view .LVU139
 123:./tmk_core/common/action_tapping.c ****                             if (IS_MOD(action.key.code)) return false;
 656               		.loc 1 123 33 is_stmt 0 view .LVU140
 657 0172 9F70      		andi r25,lo8(15)
 658               	.LVL39:
 123:./tmk_core/common/action_tapping.c ****                             if (IS_MOD(action.key.code)) return false;
 659               		.loc 1 123 32 view .LVU141
 660 0174 01F0      		breq .L50
 123:./tmk_core/common/action_tapping.c ****                             if (IS_MOD(action.key.code)) return false;
 661               		.loc 1 123 49 discriminator 1 view .LVU142
 662 0176 8823      		tst r24
 663 0178 01F0      		breq .L73
 664               	.L50:
 129:./tmk_core/common/action_tapping.c ****                             break;
 665               		.loc 1 129 29 is_stmt 1 view .LVU143
 129:./tmk_core/common/action_tapping.c ****                             break;
 666               		.loc 1 129 33 is_stmt 0 view .LVU144
 667 017a 805E      		subi r24,lo8(-(32))
 668               	.LVL40:
 129:./tmk_core/common/action_tapping.c ****                             break;
 669               		.loc 1 129 32 view .LVU145
 670 017c 8830      		cpi r24,lo8(8)
 671 017e 00F0      		brlo .L73
 672               	.LVL41:
 673               	.L49:
 133:./tmk_core/common/action_tapping.c ****                     process_record(keyp);
 674               		.loc 1 133 86 is_stmt 1 view .LVU146
 134:./tmk_core/common/action_tapping.c ****                     return true;
 675               		.loc 1 134 21 view .LVU147
 676 0180 C801      		movw r24,r16
 677               	.LVL42:
 134:./tmk_core/common/action_tapping.c ****                     return true;
 678               		.loc 1 134 21 is_stmt 0 view .LVU148
 679 0182 0E94 0000 		call process_record
 680               	.LVL43:
 135:./tmk_core/common/action_tapping.c ****                 }
 681               		.loc 1 135 21 is_stmt 1 view .LVU149
 682               	.L48:
 135:./tmk_core/common/action_tapping.c ****                 }
 683               		.loc 1 135 21 is_stmt 0 view .LVU150
 684 0186 FD2C      		mov r15,r13
 685 0188 00C0      		rjmp .L29
 686               	.LVL44:
 687               	.L42:
 135:./tmk_core/common/action_tapping.c ****                 }
 688               		.loc 1 135 21 view .LVU151
 689               	.LBE38:
 139:./tmk_core/common/action_tapping.c ****                         tapping_key.tap.interrupted = true;
 690               		.loc 1 139 21 is_stmt 1 view .LVU152
 139:./tmk_core/common/action_tapping.c ****                         tapping_key.tap.interrupted = true;
 691               		.loc 1 139 24 is_stmt 0 view .LVU153
 692 018a EE20      		tst r14
 693 018c 01F4      		brne .+2
 694 018e 00C0      		rjmp .L29
 140:./tmk_core/common/action_tapping.c ****                     }
 695               		.loc 1 140 25 is_stmt 1 view .LVU154
 140:./tmk_core/common/action_tapping.c ****                     }
 696               		.loc 1 140 53 is_stmt 0 view .LVU155
 697 0190 8091 0000 		lds r24,tapping_key+5
 698 0194 8160      		ori r24,lo8(1<<0)
 699 0196 8093 0000 		sts tapping_key+5,r24
 143:./tmk_core/common/action_tapping.c ****                 }
 700               		.loc 1 143 28 view .LVU156
 701 019a F12C      		mov r15,__zero_reg__
 702 019c 00C0      		rjmp .L29
 703               	.LVL45:
 704               	.L37:
 148:./tmk_core/common/action_tapping.c ****                     debug("Tapping: Tap release("); debug_dec(tapping_key.tap.count); debug(")\n");
 705               		.loc 1 148 17 is_stmt 1 discriminator 1 view .LVU157
 148:./tmk_core/common/action_tapping.c ****                     debug("Tapping: Tap release("); debug_dec(tapping_key.tap.count); debug(")\n");
 706               		.loc 1 148 21 is_stmt 0 discriminator 1 view .LVU158
 707 019e 3513      		cpse r19,r21
 708 01a0 00C0      		rjmp .L51
 148:./tmk_core/common/action_tapping.c ****                     debug("Tapping: Tap release("); debug_dec(tapping_key.tap.count); debug(")\n");
 709               		.loc 1 148 21 discriminator 2 view .LVU159
 710 01a2 2413      		cpse r18,r20
 711 01a4 00C0      		rjmp .L51
 150:./tmk_core/common/action_tapping.c ****                     process_record(keyp);
 712               		.loc 1 150 31 discriminator 3 view .LVU160
 713 01a6 D801      		movw r26,r16
 148:./tmk_core/common/action_tapping.c ****                     debug("Tapping: Tap release("); debug_dec(tapping_key.tap.count); debug(")\n");
 714               		.loc 1 148 47 discriminator 3 view .LVU161
 715 01a8 EE20      		tst r14
 716 01aa 01F4      		brne .+2
 717 01ac 00C0      		rjmp .L126
 718               	.L51:
 156:./tmk_core/common/action_tapping.c ****                     if (tapping_key.tap.count > 1) {
 719               		.loc 1 156 22 is_stmt 1 view .LVU162
 156:./tmk_core/common/action_tapping.c ****                     if (tapping_key.tap.count > 1) {
 720               		.loc 1 156 26 is_stmt 0 view .LVU163
 721 01ae 4D87      		std Y+13,r20
 722 01b0 5E87      		std Y+14,r21
 723 01b2 8D85      		ldd r24,Y+13
 724 01b4 9E85      		ldd r25,Y+14
 725 01b6 0E94 0000 		call is_tap_key
 726               	.LVL46:
 156:./tmk_core/common/action_tapping.c ****                     if (tapping_key.tap.count > 1) {
 727               		.loc 1 156 25 view .LVU164
 728 01ba 8823      		tst r24
 729 01bc 01F4      		brne .+2
 730 01be 00C0      		rjmp .L63
 156:./tmk_core/common/action_tapping.c ****                     if (tapping_key.tap.count > 1) {
 731               		.loc 1 156 48 discriminator 1 view .LVU165
 732 01c0 EE20      		tst r14
 733 01c2 01F4      		brne .+2
 734 01c4 00C0      		rjmp .L63
 157:./tmk_core/common/action_tapping.c ****                         debug("Tapping: Start new tap with releasing last tap(>1).\n");
 735               		.loc 1 157 21 is_stmt 1 view .LVU166
 157:./tmk_core/common/action_tapping.c ****                         debug("Tapping: Start new tap with releasing last tap(>1).\n");
 736               		.loc 1 157 40 is_stmt 0 view .LVU167
 737 01c6 8091 0000 		lds r24,tapping_key+5
 157:./tmk_core/common/action_tapping.c ****                         debug("Tapping: Start new tap with releasing last tap(>1).\n");
 738               		.loc 1 157 24 view .LVU168
 739 01ca 8032      		cpi r24,lo8(32)
 740 01cc 00F0      		brlo .L54
 158:./tmk_core/common/action_tapping.c ****                         // unregister key
 741               		.loc 1 158 87 is_stmt 1 view .LVU169
 160:./tmk_core/common/action_tapping.c ****                                 .tap = tapping_key.tap,
 742               		.loc 1 160 25 view .LVU170
 160:./tmk_core/common/action_tapping.c ****                                 .tap = tapping_key.tap,
 743               		.loc 1 160 54 is_stmt 0 view .LVU171
 744 01ce 2091 0000 		lds r18,tapping_key
 745 01d2 3091 0000 		lds r19,tapping_key+1
 746 01d6 3887      		std Y+8,r19
 747 01d8 2F83      		std Y+7,r18
 748 01da 1986      		std Y+9,__zero_reg__
 749 01dc DB86      		std Y+11,r13
 750 01de CA86      		std Y+10,r12
 751 01e0 8C87      		std Y+12,r24
 160:./tmk_core/common/action_tapping.c ****                                 .tap = tapping_key.tap,
 752               		.loc 1 160 25 view .LVU172
 753 01e2 CE01      		movw r24,r28
 754 01e4 0796      		adiw r24,7
 755               	.L121:
 160:./tmk_core/common/action_tapping.c ****                                 .tap = tapping_key.tap,
 756               		.loc 1 160 25 view .LVU173
 757 01e6 0E94 0000 		call process_record
 758               	.LVL47:
 759               	.L54:
 167:./tmk_core/common/action_tapping.c ****                     }
 760               		.loc 1 167 69 is_stmt 1 view .LVU174
 169:./tmk_core/common/action_tapping.c ****                     waiting_buffer_scan_tap();
 761               		.loc 1 169 21 view .LVU175
 169:./tmk_core/common/action_tapping.c ****                     waiting_buffer_scan_tap();
 762               		.loc 1 169 33 is_stmt 0 view .LVU176
 763 01ea 86E0      		ldi r24,lo8(6)
 764 01ec F801      		movw r30,r16
 765 01ee A0E0      		ldi r26,lo8(tapping_key)
 766 01f0 B0E0      		ldi r27,hi8(tapping_key)
 767               		0:
 768 01f2 0190      		ld r0,Z+
 769 01f4 0D92      		st X+,r0
 770 01f6 8A95      		dec r24
 771 01f8 01F4      		brne 0b
 170:./tmk_core/common/action_tapping.c ****                     debug_tapping_key();
 772               		.loc 1 170 21 is_stmt 1 view .LVU177
 773 01fa 0E94 0000 		call waiting_buffer_scan_tap
 774               	.LVL48:
 171:./tmk_core/common/action_tapping.c ****                     return true;
 775               		.loc 1 171 21 view .LVU178
 776 01fe 0E94 0000 		call debug_tapping_key
 777               	.LVL49:
 172:./tmk_core/common/action_tapping.c ****                 }
 778               		.loc 1 172 21 view .LVU179
 779               	.L125:
 179:./tmk_core/common/action_tapping.c ****                 }
 780               		.loc 1 179 21 view .LVU180
 179:./tmk_core/common/action_tapping.c ****                 }
 781               		.loc 1 179 28 is_stmt 0 view .LVU181
 782 0202 FF24      		clr r15
 783 0204 F394      		inc r15
 784 0206 00C0      		rjmp .L29
 785               	.LVL50:
 786               	.L36:
 185:./tmk_core/common/action_tapping.c ****                 debug("Tapping: End. Timeout. Not tap(0): ");
 787               		.loc 1 185 13 is_stmt 1 view .LVU182
 185:./tmk_core/common/action_tapping.c ****                 debug("Tapping: End. Timeout. Not tap(0): ");
 788               		.loc 1 185 16 is_stmt 0 view .LVU183
 789 0208 9111      		cpse r25,__zero_reg__
 790 020a 00C0      		rjmp .L55
 186:./tmk_core/common/action_tapping.c ****                 debug_event(event); debug("\n");
 791               		.loc 1 186 61 is_stmt 1 view .LVU184
 187:./tmk_core/common/action_tapping.c ****                 process_record(&tapping_key);
 792               		.loc 1 187 17 view .LVU185
 187:./tmk_core/common/action_tapping.c ****                 process_record(&tapping_key);
 793               		.loc 1 187 17 is_stmt 0 view .LVU186
 794 020c 7C2D      		mov r23,r12
 795 020e D98A      		std Y+17,r13
 796 0210 C88A      		std Y+16,r12
 797 0212 6E2D      		mov r22,r14
 798 0214 8989      		ldd r24,Y+17
 799 0216 0E94 0000 		call debug_event
 800               	.LVL51:
 187:./tmk_core/common/action_tapping.c ****                 process_record(&tapping_key);
 801               		.loc 1 187 48 is_stmt 1 view .LVU187
 188:./tmk_core/common/action_tapping.c ****                 tapping_key = (keyrecord_t){};
 802               		.loc 1 188 17 view .LVU188
 803 021a 80E0      		ldi r24,lo8(tapping_key)
 804 021c 90E0      		ldi r25,hi8(tapping_key)
 805 021e 0E94 0000 		call process_record
 806               	.LVL52:
 807               	.L124:
 189:./tmk_core/common/action_tapping.c ****                 debug_tapping_key();
 808               		.loc 1 189 17 view .LVU189
 189:./tmk_core/common/action_tapping.c ****                 debug_tapping_key();
 809               		.loc 1 189 29 is_stmt 0 view .LVU190
 810 0222 86E0      		ldi r24,lo8(6)
 811 0224 E0E0      		ldi r30,lo8(tapping_key)
 812 0226 F0E0      		ldi r31,hi8(tapping_key)
 813 0228 DF01      		movw r26,r30
 814               		0:
 815 022a 1D92      		st X+,__zero_reg__
 816 022c 8A95      		dec r24
 817 022e 01F4      		brne 0b
 818               	.L123:
 190:./tmk_core/common/action_tapping.c ****                 return false;
 819               		.loc 1 190 17 is_stmt 1 view .LVU191
 820 0230 0E94 0000 		call debug_tapping_key
 821               	.LVL53:
 191:./tmk_core/common/action_tapping.c ****             }  else {
 822               		.loc 1 191 17 view .LVU192
 191:./tmk_core/common/action_tapping.c ****             }  else {
 823               		.loc 1 191 24 is_stmt 0 view .LVU193
 824 0234 00C0      		rjmp .L29
 825               	.LVL54:
 826               	.L55:
 193:./tmk_core/common/action_tapping.c ****                     debug("Tapping: End. last timeout tap release(>0).");
 827               		.loc 1 193 17 is_stmt 1 discriminator 1 view .LVU194
 193:./tmk_core/common/action_tapping.c ****                     debug("Tapping: End. last timeout tap release(>0).");
 828               		.loc 1 193 21 is_stmt 0 discriminator 1 view .LVU195
 829 0236 3513      		cpse r19,r21
 830 0238 00C0      		rjmp .L56
 193:./tmk_core/common/action_tapping.c ****                     debug("Tapping: End. last timeout tap release(>0).");
 831               		.loc 1 193 21 discriminator 2 view .LVU196
 832 023a 2413      		cpse r18,r20
 833 023c 00C0      		rjmp .L56
 193:./tmk_core/common/action_tapping.c ****                     debug("Tapping: End. last timeout tap release(>0).");
 834               		.loc 1 193 47 discriminator 3 view .LVU197
 835 023e E110      		cpse r14,__zero_reg__
 836 0240 00C0      		rjmp .L56
 194:./tmk_core/common/action_tapping.c ****                     keyp->tap = tapping_key.tap;
 837               		.loc 1 194 73 is_stmt 1 view .LVU198
 195:./tmk_core/common/action_tapping.c ****                     process_record(keyp);
 838               		.loc 1 195 21 view .LVU199
 195:./tmk_core/common/action_tapping.c ****                     process_record(keyp);
 839               		.loc 1 195 31 is_stmt 0 view .LVU200
 840 0242 F801      		movw r30,r16
 841 0244 8583      		std Z+5,r24
 196:./tmk_core/common/action_tapping.c ****                     tapping_key = (keyrecord_t){};
 842               		.loc 1 196 21 is_stmt 1 view .LVU201
 843 0246 C801      		movw r24,r16
 844 0248 0E94 0000 		call process_record
 845               	.LVL55:
 197:./tmk_core/common/action_tapping.c ****                     return true;
 846               		.loc 1 197 21 view .LVU202
 197:./tmk_core/common/action_tapping.c ****                     return true;
 847               		.loc 1 197 33 is_stmt 0 view .LVU203
 848 024c E0E0      		ldi r30,lo8(tapping_key)
 849 024e F0E0      		ldi r31,hi8(tapping_key)
 850 0250 86E0      		ldi r24,lo8(6)
 851 0252 DF01      		movw r26,r30
 852               		0:
 853 0254 1D92      		st X+,__zero_reg__
 854 0256 8A95      		dec r24
 855 0258 01F4      		brne 0b
 198:./tmk_core/common/action_tapping.c ****                 }
 856               		.loc 1 198 21 is_stmt 1 view .LVU204
 198:./tmk_core/common/action_tapping.c ****                 }
 857               		.loc 1 198 28 is_stmt 0 view .LVU205
 858 025a FB2C      		mov r15,r11
 859 025c 00C0      		rjmp .L29
 860               	.LVL56:
 861               	.L56:
 200:./tmk_core/common/action_tapping.c ****                     if (tapping_key.tap.count > 1) {
 862               		.loc 1 200 22 is_stmt 1 view .LVU206
 200:./tmk_core/common/action_tapping.c ****                     if (tapping_key.tap.count > 1) {
 863               		.loc 1 200 26 is_stmt 0 view .LVU207
 864 025e 4D87      		std Y+13,r20
 865 0260 5E87      		std Y+14,r21
 866 0262 8D85      		ldd r24,Y+13
 867 0264 9E85      		ldd r25,Y+14
 868 0266 0E94 0000 		call is_tap_key
 869               	.LVL57:
 200:./tmk_core/common/action_tapping.c ****                     if (tapping_key.tap.count > 1) {
 870               		.loc 1 200 25 view .LVU208
 871 026a 8823      		tst r24
 872 026c 01F4      		brne .+2
 873 026e 00C0      		rjmp .L63
 200:./tmk_core/common/action_tapping.c ****                     if (tapping_key.tap.count > 1) {
 874               		.loc 1 200 48 discriminator 1 view .LVU209
 875 0270 EE20      		tst r14
 876 0272 01F4      		brne .+2
 877 0274 00C0      		rjmp .L63
 201:./tmk_core/common/action_tapping.c ****                         debug("Tapping: Start new tap with releasing last timeout tap(>1).\n");
 878               		.loc 1 201 21 is_stmt 1 view .LVU210
 201:./tmk_core/common/action_tapping.c ****                         debug("Tapping: Start new tap with releasing last timeout tap(>1).\n");
 879               		.loc 1 201 40 is_stmt 0 view .LVU211
 880 0276 8091 0000 		lds r24,tapping_key+5
 201:./tmk_core/common/action_tapping.c ****                         debug("Tapping: Start new tap with releasing last timeout tap(>1).\n");
 881               		.loc 1 201 24 view .LVU212
 882 027a 8032      		cpi r24,lo8(32)
 883 027c 00F4      		brsh .+2
 884 027e 00C0      		rjmp .L54
 202:./tmk_core/common/action_tapping.c ****                         // unregister key
 885               		.loc 1 202 95 is_stmt 1 view .LVU213
 204:./tmk_core/common/action_tapping.c ****                                 .tap = tapping_key.tap,
 886               		.loc 1 204 25 view .LVU214
 204:./tmk_core/common/action_tapping.c ****                                 .tap = tapping_key.tap,
 887               		.loc 1 204 54 is_stmt 0 view .LVU215
 888 0280 2091 0000 		lds r18,tapping_key
 889 0284 3091 0000 		lds r19,tapping_key+1
 890 0288 3A83      		std Y+2,r19
 891 028a 2983      		std Y+1,r18
 892 028c 1B82      		std Y+3,__zero_reg__
 893 028e DD82      		std Y+5,r13
 894 0290 CC82      		std Y+4,r12
 895 0292 8E83      		std Y+6,r24
 204:./tmk_core/common/action_tapping.c ****                                 .tap = tapping_key.tap,
 896               		.loc 1 204 25 view .LVU216
 897 0294 CE01      		movw r24,r28
 898 0296 0196      		adiw r24,1
 899 0298 00C0      		rjmp .L121
 900               	.LVL58:
 901               	.L31:
 227:./tmk_core/common/action_tapping.c ****         if (WITHIN_TAPPING_TERM(event)) {
 902               		.loc 1 227 12 is_stmt 1 discriminator 1 view .LVU217
 228:./tmk_core/common/action_tapping.c ****             if (event.pressed) {
 903               		.loc 1 228 9 discriminator 1 view .LVU218
 228:./tmk_core/common/action_tapping.c ****             if (event.pressed) {
 904               		.loc 1 228 13 is_stmt 0 discriminator 1 view .LVU219
 905 029a C816      		cp r12,r24
 906 029c D906      		cpc r13,r25
 907 029e 00F0      		brlo .L58
 908 02a0 F601      		movw r30,r12
 909 02a2 E81B      		sub r30,r24
 910 02a4 F90B      		sbc r31,r25
 911 02a6 CF01      		movw r24,r30
 912               	.L128:
 228:./tmk_core/common/action_tapping.c ****             if (event.pressed) {
 913               		.loc 1 228 13 discriminator 2 view .LVU220
 914 02a8 F12C      		mov r15,__zero_reg__
 915 02aa 8639      		cpi r24,-106
 916 02ac 9105      		cpc r25,__zero_reg__
 917 02ae 00F0      		brlo .+2
 918 02b0 00C0      		rjmp .L62
 229:./tmk_core/common/action_tapping.c ****                 if (IS_TAPPING_KEY(event.key)) {
 919               		.loc 1 229 13 is_stmt 1 view .LVU221
 229:./tmk_core/common/action_tapping.c ****                 if (IS_TAPPING_KEY(event.key)) {
 920               		.loc 1 229 22 is_stmt 0 view .LVU222
 921 02b2 FE2C      		mov r15,r14
 229:./tmk_core/common/action_tapping.c ****                 if (IS_TAPPING_KEY(event.key)) {
 922               		.loc 1 229 16 view .LVU223
 923 02b4 EE20      		tst r14
 924 02b6 01F4      		brne .+2
 925 02b8 00C0      		rjmp .L63
 230:./tmk_core/common/action_tapping.c ****                     if (!tapping_key.tap.interrupted && tapping_key.tap.count > 0) {
 926               		.loc 1 230 17 is_stmt 1 discriminator 1 view .LVU224
 230:./tmk_core/common/action_tapping.c ****                     if (!tapping_key.tap.interrupted && tapping_key.tap.count > 0) {
 927               		.loc 1 230 21 is_stmt 0 discriminator 1 view .LVU225
 928 02ba 3513      		cpse r19,r21
 929 02bc 00C0      		rjmp .L64
 230:./tmk_core/common/action_tapping.c ****                     if (!tapping_key.tap.interrupted && tapping_key.tap.count > 0) {
 930               		.loc 1 230 21 discriminator 2 view .LVU226
 931 02be 2413      		cpse r18,r20
 932 02c0 00C0      		rjmp .L64
 231:./tmk_core/common/action_tapping.c ****                         // sequential tap.
 933               		.loc 1 231 21 is_stmt 1 view .LVU227
 231:./tmk_core/common/action_tapping.c ****                         // sequential tap.
 934               		.loc 1 231 41 is_stmt 0 view .LVU228
 935 02c2 8091 0000 		lds r24,tapping_key+5
 231:./tmk_core/common/action_tapping.c ****                         // sequential tap.
 936               		.loc 1 231 24 view .LVU229
 937 02c6 80FD      		sbrc r24,0
 938 02c8 00C0      		rjmp .L65
 231:./tmk_core/common/action_tapping.c ****                         // sequential tap.
 939               		.loc 1 231 79 discriminator 1 view .LVU230
 940 02ca 982F      		mov r25,r24
 941 02cc 907F      		andi r25,lo8(-16)
 231:./tmk_core/common/action_tapping.c ****                         // sequential tap.
 942               		.loc 1 231 54 discriminator 1 view .LVU231
 943 02ce 01F0      		breq .L65
 233:./tmk_core/common/action_tapping.c ****                         if (keyp->tap.count < 15) keyp->tap.count += 1;
 944               		.loc 1 233 25 is_stmt 1 view .LVU232
 233:./tmk_core/common/action_tapping.c ****                         if (keyp->tap.count < 15) keyp->tap.count += 1;
 945               		.loc 1 233 35 is_stmt 0 view .LVU233
 946 02d0 D801      		movw r26,r16
 947 02d2 1596      		adiw r26,5
 948 02d4 8C93      		st X,r24
 949 02d6 1597      		sbiw r26,5
 234:./tmk_core/common/action_tapping.c ****                         debug("Tapping: Tap press("); debug_dec(keyp->tap.count); debug(")\n");
 950               		.loc 1 234 25 is_stmt 1 view .LVU234
 234:./tmk_core/common/action_tapping.c ****                         debug("Tapping: Tap press("); debug_dec(keyp->tap.count); debug(")\n");
 951               		.loc 1 234 28 is_stmt 0 view .LVU235
 952 02d8 903F      		cpi r25,lo8(-16)
 953 02da 01F0      		breq .L66
 234:./tmk_core/common/action_tapping.c ****                         debug("Tapping: Tap press("); debug_dec(keyp->tap.count); debug(")\n");
 954               		.loc 1 234 51 is_stmt 1 discriminator 1 view .LVU236
 234:./tmk_core/common/action_tapping.c ****                         debug("Tapping: Tap press("); debug_dec(keyp->tap.count); debug(")\n");
 955               		.loc 1 234 67 is_stmt 0 discriminator 1 view .LVU237
 956 02dc 982F      		mov r25,r24
 957 02de 907F      		andi r25,lo8(-16)
 958 02e0 905F      		subi r25,lo8(-(16))
 959 02e2 8F70      		andi r24,lo8(15)
 960 02e4 892B      		or r24,r25
 961               	.L126:
 234:./tmk_core/common/action_tapping.c ****                         debug("Tapping: Tap press("); debug_dec(keyp->tap.count); debug(")\n");
 962               		.loc 1 234 67 discriminator 1 view .LVU238
 963 02e6 1596      		adiw r26,5
 964 02e8 8C93      		st X,r24
 965               	.L66:
 235:./tmk_core/common/action_tapping.c ****                         process_record(keyp);
 966               		.loc 1 235 53 is_stmt 1 view .LVU239
 235:./tmk_core/common/action_tapping.c ****                         process_record(keyp);
 967               		.loc 1 235 81 view .LVU240
 235:./tmk_core/common/action_tapping.c ****                         process_record(keyp);
 968               		.loc 1 235 95 view .LVU241
 236:./tmk_core/common/action_tapping.c ****                         tapping_key = *keyp;
 969               		.loc 1 236 25 view .LVU242
 970 02ea C801      		movw r24,r16
 971 02ec 0E94 0000 		call process_record
 972               	.LVL59:
 237:./tmk_core/common/action_tapping.c ****                         debug_tapping_key();
 973               		.loc 1 237 25 view .LVU243
 237:./tmk_core/common/action_tapping.c ****                         debug_tapping_key();
 974               		.loc 1 237 37 is_stmt 0 view .LVU244
 975 02f0 86E0      		ldi r24,lo8(6)
 976 02f2 F801      		movw r30,r16
 977 02f4 A0E0      		ldi r26,lo8(tapping_key)
 978 02f6 B0E0      		ldi r27,hi8(tapping_key)
 979               		0:
 980 02f8 0190      		ld r0,Z+
 981 02fa 0D92      		st X+,r0
 982 02fc 8A95      		dec r24
 983 02fe 01F4      		brne 0b
 238:./tmk_core/common/action_tapping.c ****                         return true;
 984               		.loc 1 238 25 is_stmt 1 view .LVU245
 985 0300 00C0      		rjmp .L123
 986               	.LVL60:
 987               	.L58:
 228:./tmk_core/common/action_tapping.c ****             if (event.pressed) {
 988               		.loc 1 228 13 is_stmt 0 discriminator 2 view .LVU246
 989 0302 8095      		com r24
 990 0304 9095      		com r25
 991 0306 8C0D      		add r24,r12
 992 0308 9D1D      		adc r25,r13
 993 030a 00C0      		rjmp .L128
 994               	.L65:
 242:./tmk_core/common/action_tapping.c ****                         return true;
 995               		.loc 1 242 25 is_stmt 1 view .LVU247
 242:./tmk_core/common/action_tapping.c ****                         return true;
 996               		.loc 1 242 37 is_stmt 0 view .LVU248
 997 030c 86E0      		ldi r24,lo8(6)
 998 030e F801      		movw r30,r16
 999 0310 A0E0      		ldi r26,lo8(tapping_key)
 1000 0312 B0E0      		ldi r27,hi8(tapping_key)
 1001               		0:
 1002 0314 0190      		ld r0,Z+
 1003 0316 0D92      		st X+,r0
 1004 0318 8A95      		dec r24
 1005 031a 01F4      		brne 0b
 243:./tmk_core/common/action_tapping.c ****                     }
 1006               		.loc 1 243 25 is_stmt 1 view .LVU249
 243:./tmk_core/common/action_tapping.c ****                     }
 1007               		.loc 1 243 32 is_stmt 0 view .LVU250
 1008 031c 00C0      		rjmp .L29
 1009               	.L64:
 245:./tmk_core/common/action_tapping.c ****                     // Sequential tap can be interfered with other tap key.
 1010               		.loc 1 245 24 is_stmt 1 view .LVU251
 245:./tmk_core/common/action_tapping.c ****                     // Sequential tap can be interfered with other tap key.
 1011               		.loc 1 245 28 is_stmt 0 view .LVU252
 1012 031e 4D87      		std Y+13,r20
 1013 0320 5E87      		std Y+14,r21
 1014 0322 8D85      		ldd r24,Y+13
 1015 0324 9E85      		ldd r25,Y+14
 1016 0326 0E94 0000 		call is_tap_key
 1017               	.LVL61:
 245:./tmk_core/common/action_tapping.c ****                     // Sequential tap can be interfered with other tap key.
 1018               		.loc 1 245 27 view .LVU253
 1019 032a 8111      		cpse r24,__zero_reg__
 1020 032c 00C0      		rjmp .L54
 255:./tmk_core/common/action_tapping.c ****                     process_record(keyp);
 1021               		.loc 1 255 21 is_stmt 1 view .LVU254
 255:./tmk_core/common/action_tapping.c ****                     process_record(keyp);
 1022               		.loc 1 255 49 is_stmt 0 view .LVU255
 1023 032e 8091 0000 		lds r24,tapping_key+5
 1024 0332 8160      		ori r24,lo8(1<<0)
 1025 0334 8093 0000 		sts tapping_key+5,r24
 256:./tmk_core/common/action_tapping.c ****                     return true;
 1026               		.loc 1 256 21 is_stmt 1 view .LVU256
 1027 0338 C801      		movw r24,r16
 1028 033a 0E94 0000 		call process_record
 1029               	.LVL62:
 257:./tmk_core/common/action_tapping.c ****                 }
 1030               		.loc 1 257 21 view .LVU257
 257:./tmk_core/common/action_tapping.c ****                 }
 1031               		.loc 1 257 28 is_stmt 0 view .LVU258
 1032 033e 00C0      		rjmp .L29
 1033               	.LVL63:
 1034               	.L62:
 267:./tmk_core/common/action_tapping.c ****             debug_event(event); debug("\n");
 1035               		.loc 1 267 70 is_stmt 1 view .LVU259
 268:./tmk_core/common/action_tapping.c ****             tapping_key = (keyrecord_t){};
 1036               		.loc 1 268 13 view .LVU260
 268:./tmk_core/common/action_tapping.c ****             tapping_key = (keyrecord_t){};
 1037               		.loc 1 268 13 is_stmt 0 view .LVU261
 1038 0340 7C2D      		mov r23,r12
 1039 0342 D98A      		std Y+17,r13
 1040 0344 C88A      		std Y+16,r12
 1041 0346 6E2D      		mov r22,r14
 1042 0348 8989      		ldd r24,Y+17
 1043 034a 0E94 0000 		call debug_event
 1044               	.LVL64:
 268:./tmk_core/common/action_tapping.c ****             tapping_key = (keyrecord_t){};
 1045               		.loc 1 268 44 is_stmt 1 view .LVU262
 269:./tmk_core/common/action_tapping.c ****             debug_tapping_key();
 1046               		.loc 1 269 13 view .LVU263
 1047 034e 00C0      		rjmp .L124
 1048               	.LVL65:
 1049               	.L30:
 276:./tmk_core/common/action_tapping.c ****             debug("Tapping: Start(Press tap key).\n");
 1050               		.loc 1 276 9 view .LVU264
 276:./tmk_core/common/action_tapping.c ****             debug("Tapping: Start(Press tap key).\n");
 1051               		.loc 1 276 12 is_stmt 0 view .LVU265
 1052 0350 EE20      		tst r14
 1053 0352 01F0      		breq .L63
 276:./tmk_core/common/action_tapping.c ****             debug("Tapping: Start(Press tap key).\n");
 1054               		.loc 1 276 30 discriminator 1 view .LVU266
 1055 0354 4D87      		std Y+13,r20
 1056 0356 5E87      		std Y+14,r21
 1057 0358 8D85      		ldd r24,Y+13
 1058 035a 9E85      		ldd r25,Y+14
 1059 035c 0E94 0000 		call is_tap_key
 1060               	.LVL66:
 276:./tmk_core/common/action_tapping.c ****             debug("Tapping: Start(Press tap key).\n");
 1061               		.loc 1 276 27 discriminator 1 view .LVU267
 1062 0360 8111      		cpse r24,__zero_reg__
 1063 0362 00C0      		rjmp .L54
 1064               	.LVL67:
 1065               	.L63:
 175:./tmk_core/common/action_tapping.c ****                         debug("Tapping: key event while last tap(>0).\n");
 1066               		.loc 1 175 21 is_stmt 1 view .LVU268
 176:./tmk_core/common/action_tapping.c ****                     }
 1067               		.loc 1 176 74 view .LVU269
 178:./tmk_core/common/action_tapping.c ****                     return true;
 1068               		.loc 1 178 21 view .LVU270
 1069 0364 C801      		movw r24,r16
 1070 0366 0E94 0000 		call process_record
 1071               	.LVL68:
 1072 036a 00C0      		rjmp .L125
 1073               	.LVL69:
 1074               	.L41:
 1075               	.LBB39:
 1076               	.LBB31:
 1077               		.loc 2 51 79 is_stmt 0 view .LVU271
 1078 036c 81E0      		ldi r24,lo8(1)
 1079 036e 8E25      		eor r24,r14
 1080 0370 00C0      		rjmp .L40
 1081               	.LBE31:
 1082               	.LBE39:
 1083               		.cfi_endproc
 1084               	.LFE5:
 1086               		.section	.text.action_tapping_process,"ax",@progbits
 1087               	.global	action_tapping_process
 1089               	action_tapping_process:
 1090               	.LFB4:
  40:./tmk_core/common/action_tapping.c ****     if (process_tapping(&record)) {
 1091               		.loc 1 40 1 is_stmt 1 view -0
 1092               		.cfi_startproc
 1093 0000 1F93      		push r17
 1094               	.LCFI17:
 1095               		.cfi_def_cfa_offset 3
 1096               		.cfi_offset 17, -2
 1097 0002 CF93      		push r28
 1098               	.LCFI18:
 1099               		.cfi_def_cfa_offset 4
 1100               		.cfi_offset 28, -3
 1101 0004 DF93      		push r29
 1102               	.LCFI19:
 1103               		.cfi_def_cfa_offset 5
 1104               		.cfi_offset 29, -4
 1105 0006 CDB7      		in r28,__SP_L__
 1106 0008 DEB7      		in r29,__SP_H__
 1107               	.LCFI20:
 1108               		.cfi_def_cfa_register 28
 1109 000a 2C97      		sbiw r28,12
 1110               	.LCFI21:
 1111               		.cfi_def_cfa_offset 17
 1112 000c 0FB6      		in __tmp_reg__,__SREG__
 1113 000e F894      		cli
 1114 0010 DEBF      		out __SP_H__,r29
 1115 0012 0FBE      		out __SREG__,__tmp_reg__
 1116 0014 CDBF      		out __SP_L__,r28
 1117               	/* prologue: function */
 1118               	/* frame size = 12 */
 1119               	/* stack size = 15 */
 1120               	.L__stack_usage = 15
 1121 0016 4F83      		std Y+7,r20
 1122 0018 5887      		std Y+8,r21
 1123 001a 6987      		std Y+9,r22
 1124 001c 7A87      		std Y+10,r23
 1125 001e 8B87      		std Y+11,r24
 1126 0020 9C87      		std Y+12,r25
  41:./tmk_core/common/action_tapping.c ****         if (!IS_NOEVENT(record.event)) {
 1127               		.loc 1 41 5 view .LVU273
  41:./tmk_core/common/action_tapping.c ****         if (!IS_NOEVENT(record.event)) {
 1128               		.loc 1 41 9 is_stmt 0 view .LVU274
 1129 0022 CE01      		movw r24,r28
 1130 0024 0796      		adiw r24,7
 1131 0026 0E94 0000 		call process_tapping
 1132               	.LVL70:
  41:./tmk_core/common/action_tapping.c ****         if (!IS_NOEVENT(record.event)) {
 1133               		.loc 1 41 8 view .LVU275
 1134 002a 8823      		tst r24
 1135 002c 01F0      		breq .L130
  42:./tmk_core/common/action_tapping.c ****             debug("processed: "); debug_record(record); debug("\n");
 1136               		.loc 1 42 9 is_stmt 1 view .LVU276
 1137               	.LBB48:
 1138               	.LBI48:
  49:./tmk_core/common/keyboard.h **** static inline bool IS_PRESSED(keyevent_t event) { return (!IS_NOEVENT(event) && event.pressed); }
 1139               		.loc 2 49 20 view .LVU277
 1140               	.LBB49:
  49:./tmk_core/common/keyboard.h **** static inline bool IS_PRESSED(keyevent_t event) { return (!IS_NOEVENT(event) && event.pressed); }
 1141               		.loc 2 49 51 view .LVU278
  49:./tmk_core/common/keyboard.h **** static inline bool IS_PRESSED(keyevent_t event) { return (!IS_NOEVENT(event) && event.pressed); }
 1142               		.loc 2 49 74 is_stmt 0 view .LVU279
 1143 002e 8A85      		ldd r24,Y+10
 1144 0030 9B85      		ldd r25,Y+11
 1145 0032 892B      		or r24,r25
 1146 0034 01F0      		breq .L131
 1147 0036 4F81      		ldd r20,Y+7
 1148 0038 5885      		ldd r21,Y+8
 1149 003a 842F      		mov r24,r20
 1150 003c 8523      		and r24,r21
 1151 003e 8F3F      		cpi r24,lo8(-1)
 1152 0040 01F0      		breq .+2
 1153 0042 00C0      		rjmp .L153
 1154               	.L131:
 1155               	.LBE49:
 1156               	.LBE48:
  60:./tmk_core/common/action_tapping.c ****             debug("processed: waiting_buffer["); debug_dec(waiting_buffer_tail); debug("] = ");
 1157               		.loc 1 60 13 discriminator 1 view .LVU280
 1158 0044 16E0      		ldi r17,lo8(6)
 1159 0046 00C0      		rjmp .L138
 1160               	.L130:
  46:./tmk_core/common/action_tapping.c ****             // clear all in case of overflow.
 1161               		.loc 1 46 9 is_stmt 1 view .LVU281
 1162 0048 86E0      		ldi r24,lo8(6)
 1163 004a FE01      		movw r30,r28
 1164 004c 3796      		adiw r30,7
 1165 004e DE01      		movw r26,r28
 1166 0050 1196      		adiw r26,1
 1167               		0:
 1168 0052 0190      		ld r0,Z+
 1169 0054 0D92      		st X+,r0
 1170 0056 8A95      		dec r24
 1171 0058 01F4      		brne 0b
 1172               	.LVL71:
 1173               	.LBB50:
 1174               	.LBI50:
 293:./tmk_core/common/action_tapping.c **** {
 1175               		.loc 1 293 6 view .LVU282
 1176               	.LBB51:
 295:./tmk_core/common/action_tapping.c ****         return true;
 1177               		.loc 1 295 5 view .LVU283
 1178               	.LBB52:
 1179               	.LBI52:
  49:./tmk_core/common/keyboard.h **** static inline bool IS_PRESSED(keyevent_t event) { return (!IS_NOEVENT(event) && event.pressed); }
 1180               		.loc 2 49 20 view .LVU284
 1181               	.LBB53:
  49:./tmk_core/common/keyboard.h **** static inline bool IS_PRESSED(keyevent_t event) { return (!IS_NOEVENT(event) && event.pressed); }
 1182               		.loc 2 49 51 view .LVU285
  49:./tmk_core/common/keyboard.h **** static inline bool IS_PRESSED(keyevent_t event) { return (!IS_NOEVENT(event) && event.pressed); }
 1183               		.loc 2 49 74 is_stmt 0 view .LVU286
 1184 005a 8A85      		ldd r24,Y+10
 1185 005c 9B85      		ldd r25,Y+11
 1186 005e 892B      		or r24,r25
 1187 0060 01F0      		breq .L131
 1188 0062 8885      		ldd r24,Y+8
 1189 0064 9F81      		ldd r25,Y+7
 1190 0066 8923      		and r24,r25
 1191 0068 8F3F      		cpi r24,lo8(-1)
 1192 006a 01F0      		breq .L131
 1193               	.LBE53:
 1194               	.LBE52:
 299:./tmk_core/common/action_tapping.c ****         debug("waiting_buffer_enq: Over flow.\n");
 1195               		.loc 1 299 5 is_stmt 1 view .LVU287
 299:./tmk_core/common/action_tapping.c ****         debug("waiting_buffer_enq: Over flow.\n");
 1196               		.loc 1 299 30 is_stmt 0 view .LVU288
 1197 006c 2091 0000 		lds r18,waiting_buffer_head
 1198 0070 30E0      		ldi r19,0
 1199 0072 C901      		movw r24,r18
 1200 0074 0196      		adiw r24,1
 299:./tmk_core/common/action_tapping.c ****         debug("waiting_buffer_enq: Over flow.\n");
 1201               		.loc 1 299 35 view .LVU289
 1202 0076 8770      		andi r24,7
 1203 0078 9927      		clr r25
 299:./tmk_core/common/action_tapping.c ****         debug("waiting_buffer_enq: Over flow.\n");
 1204               		.loc 1 299 57 view .LVU290
 1205 007a 4091 0000 		lds r20,waiting_buffer_tail
 299:./tmk_core/common/action_tapping.c ****         debug("waiting_buffer_enq: Over flow.\n");
 1206               		.loc 1 299 8 view .LVU291
 1207 007e 4817      		cp r20,r24
 1208 0080 1906      		cpc __zero_reg__,r25
 1209 0082 01F4      		brne .L155
 1210               	.LVL72:
 299:./tmk_core/common/action_tapping.c ****         debug("waiting_buffer_enq: Over flow.\n");
 1211               		.loc 1 299 8 view .LVU292
 1212               	.LBE51:
 1213               	.LBE50:
  48:./tmk_core/common/action_tapping.c ****             clear_keyboard();
 1214               		.loc 1 48 50 is_stmt 1 view .LVU293
  49:./tmk_core/common/action_tapping.c ****             waiting_buffer_clear();
 1215               		.loc 1 49 13 view .LVU294
 1216 0084 0E94 0000 		call clear_keyboard
 1217               	.LVL73:
  50:./tmk_core/common/action_tapping.c ****             tapping_key = (keyrecord_t){};
 1218               		.loc 1 50 13 view .LVU295
 1219               	.LBB55:
 1220               	.LBI55:
 311:./tmk_core/common/action_tapping.c **** {
 1221               		.loc 1 311 6 view .LVU296
 1222               	.LBB56:
 313:./tmk_core/common/action_tapping.c ****     waiting_buffer_tail = 0;
 1223               		.loc 1 313 5 view .LVU297
 313:./tmk_core/common/action_tapping.c ****     waiting_buffer_tail = 0;
 1224               		.loc 1 313 25 is_stmt 0 view .LVU298
 1225 0088 1092 0000 		sts waiting_buffer_head,__zero_reg__
 314:./tmk_core/common/action_tapping.c **** }
 1226               		.loc 1 314 5 is_stmt 1 view .LVU299
 314:./tmk_core/common/action_tapping.c **** }
 1227               		.loc 1 314 25 is_stmt 0 view .LVU300
 1228 008c 1092 0000 		sts waiting_buffer_tail,__zero_reg__
 1229               	.LBE56:
 1230               	.LBE55:
  51:./tmk_core/common/action_tapping.c ****         }
 1231               		.loc 1 51 13 is_stmt 1 view .LVU301
  51:./tmk_core/common/action_tapping.c ****         }
 1232               		.loc 1 51 25 is_stmt 0 view .LVU302
 1233 0090 86E0      		ldi r24,lo8(6)
 1234 0092 E0E0      		ldi r30,lo8(tapping_key)
 1235 0094 F0E0      		ldi r31,hi8(tapping_key)
 1236 0096 DF01      		movw r26,r30
 1237               		0:
 1238 0098 1D92      		st X+,__zero_reg__
 1239 009a 8A95      		dec r24
 1240 009c 01F4      		brne 0b
 1241 009e 00C0      		rjmp .L131
 1242               	.LVL74:
 1243               	.L155:
 1244               	.LBB57:
 1245               	.LBB54:
 304:./tmk_core/common/action_tapping.c ****     waiting_buffer_head = (waiting_buffer_head + 1) % WAITING_BUFFER_SIZE;
 1246               		.loc 1 304 5 is_stmt 1 view .LVU303
 304:./tmk_core/common/action_tapping.c ****     waiting_buffer_head = (waiting_buffer_head + 1) % WAITING_BUFFER_SIZE;
 1247               		.loc 1 304 41 is_stmt 0 view .LVU304
 1248 00a0 96E0      		ldi r25,lo8(6)
 1249               	.LVL75:
 304:./tmk_core/common/action_tapping.c ****     waiting_buffer_head = (waiting_buffer_head + 1) % WAITING_BUFFER_SIZE;
 1250               		.loc 1 304 41 view .LVU305
 1251 00a2 929F      		mul r25,r18
 1252 00a4 D001      		movw r26,r0
 1253 00a6 939F      		mul r25,r19
 1254 00a8 B00D      		add r27,r0
 1255 00aa 1124      		clr __zero_reg__
 1256 00ac A050      		subi r26,lo8(-(waiting_buffer))
 1257 00ae B040      		sbci r27,hi8(-(waiting_buffer))
 1258 00b0 FE01      		movw r30,r28
 1259 00b2 3196      		adiw r30,1
 1260               		0:
 1261 00b4 0190      		ld r0,Z+
 1262 00b6 0D92      		st X+,r0
 1263 00b8 9A95      		dec r25
 1264 00ba 01F4      		brne 0b
 305:./tmk_core/common/action_tapping.c **** 
 1265               		.loc 1 305 5 is_stmt 1 view .LVU306
 305:./tmk_core/common/action_tapping.c **** 
 1266               		.loc 1 305 25 is_stmt 0 view .LVU307
 1267 00bc 8093 0000 		sts waiting_buffer_head,r24
 307:./tmk_core/common/action_tapping.c ****     return true;
 1268               		.loc 1 307 34 is_stmt 1 view .LVU308
 307:./tmk_core/common/action_tapping.c ****     return true;
 1269               		.loc 1 307 36 view .LVU309
 1270 00c0 0E94 0000 		call debug_waiting_buffer
 1271               	.LVL76:
 308:./tmk_core/common/action_tapping.c **** }
 1272               		.loc 1 308 5 view .LVU310
 308:./tmk_core/common/action_tapping.c **** }
 1273               		.loc 1 308 5 is_stmt 0 view .LVU311
 1274 00c4 00C0      		rjmp .L131
 1275               	.L136:
 308:./tmk_core/common/action_tapping.c **** }
 1276               		.loc 1 308 5 view .LVU312
 1277               	.LBE54:
 1278               	.LBE57:
  60:./tmk_core/common/action_tapping.c ****             debug("processed: waiting_buffer["); debug_dec(waiting_buffer_tail); debug("] = ");
 1279               		.loc 1 60 9 is_stmt 1 view .LVU313
  60:./tmk_core/common/action_tapping.c ****             debug("processed: waiting_buffer["); debug_dec(waiting_buffer_tail); debug("] = ");
 1280               		.loc 1 60 13 is_stmt 0 view .LVU314
 1281 00c6 819F      		mul r24,r17
 1282 00c8 C001      		movw r24,r0
 1283 00ca 1124      		clr __zero_reg__
 1284 00cc 8050      		subi r24,lo8(-(waiting_buffer))
 1285 00ce 9040      		sbci r25,hi8(-(waiting_buffer))
 1286 00d0 0E94 0000 		call process_tapping
 1287               	.LVL77:
  60:./tmk_core/common/action_tapping.c ****             debug("processed: waiting_buffer["); debug_dec(waiting_buffer_tail); debug("] = ");
 1288               		.loc 1 60 12 view .LVU315
 1289 00d4 8823      		tst r24
 1290 00d6 01F0      		breq .L129
  61:./tmk_core/common/action_tapping.c ****             debug_record(waiting_buffer[waiting_buffer_tail]); debug("\n\n");
 1291               		.loc 1 61 48 is_stmt 1 view .LVU316
  61:./tmk_core/common/action_tapping.c ****             debug_record(waiting_buffer[waiting_buffer_tail]); debug("\n\n");
 1292               		.loc 1 61 80 view .LVU317
  61:./tmk_core/common/action_tapping.c ****             debug_record(waiting_buffer[waiting_buffer_tail]); debug("\n\n");
 1293               		.loc 1 61 95 view .LVU318
  62:./tmk_core/common/action_tapping.c ****         } else {
 1294               		.loc 1 62 13 view .LVU319
 1295 00d8 E091 0000 		lds r30,waiting_buffer_tail
 1296 00dc 1E9F      		mul r17,r30
 1297 00de F001      		movw r30,r0
 1298 00e0 1124      		clr __zero_reg__
 1299 00e2 E050      		subi r30,lo8(-(waiting_buffer))
 1300 00e4 F040      		sbci r31,hi8(-(waiting_buffer))
 1301 00e6 4081      		ld r20,Z
 1302 00e8 5181      		ldd r21,Z+1
 1303 00ea 6281      		ldd r22,Z+2
 1304 00ec 7381      		ldd r23,Z+3
 1305 00ee 8481      		ldd r24,Z+4
 1306 00f0 9581      		ldd r25,Z+5
 1307 00f2 0E94 0000 		call debug_record
 1308               	.LVL78:
  62:./tmk_core/common/action_tapping.c ****         } else {
 1309               		.loc 1 62 77 view .LVU320
  59:./tmk_core/common/action_tapping.c ****         if (process_tapping(&waiting_buffer[waiting_buffer_tail])) {
 1310               		.loc 1 59 99 is_stmt 0 view .LVU321
 1311 00f6 8091 0000 		lds r24,waiting_buffer_tail
 1312 00fa 90E0      		ldi r25,0
 1313 00fc 0196      		adiw r24,1
  59:./tmk_core/common/action_tapping.c ****         if (process_tapping(&waiting_buffer[waiting_buffer_tail])) {
 1314               		.loc 1 59 104 view .LVU322
 1315 00fe 8770      		andi r24,7
 1316 0100 9927      		clr r25
  59:./tmk_core/common/action_tapping.c ****         if (process_tapping(&waiting_buffer[waiting_buffer_tail])) {
 1317               		.loc 1 59 76 view .LVU323
 1318 0102 8093 0000 		sts waiting_buffer_tail,r24
 1319               	.L138:
  59:./tmk_core/common/action_tapping.c ****         if (process_tapping(&waiting_buffer[waiting_buffer_tail])) {
 1320               		.loc 1 59 32 discriminator 1 view .LVU324
 1321 0106 8091 0000 		lds r24,waiting_buffer_tail
  59:./tmk_core/common/action_tapping.c ****         if (process_tapping(&waiting_buffer[waiting_buffer_tail])) {
 1322               		.loc 1 59 5 discriminator 1 view .LVU325
 1323 010a 9091 0000 		lds r25,waiting_buffer_head
 1324 010e 8913      		cpse r24,r25
 1325 0110 00C0      		rjmp .L136
 1326               	.L129:
 1327               	/* epilogue start */
  70:./tmk_core/common/action_tapping.c **** 
 1328               		.loc 1 70 1 view .LVU326
 1329 0112 2C96      		adiw r28,12
 1330 0114 0FB6      		in __tmp_reg__,__SREG__
 1331 0116 F894      		cli
 1332 0118 DEBF      		out __SP_H__,r29
 1333 011a 0FBE      		out __SREG__,__tmp_reg__
 1334 011c CDBF      		out __SP_L__,r28
 1335 011e DF91      		pop r29
 1336 0120 CF91      		pop r28
 1337 0122 1F91      		pop r17
 1338 0124 0895      		ret
 1339               	.L153:
  43:./tmk_core/common/action_tapping.c ****         }
 1340               		.loc 1 43 33 is_stmt 1 view .LVU327
  43:./tmk_core/common/action_tapping.c ****         }
 1341               		.loc 1 43 35 view .LVU328
 1342 0126 6985      		ldd r22,Y+9
 1343 0128 7A85      		ldd r23,Y+10
 1344 012a 8B85      		ldd r24,Y+11
 1345 012c 9C85      		ldd r25,Y+12
 1346 012e 0E94 0000 		call debug_record
 1347               	.LVL79:
 1348 0132 00C0      		rjmp .L131
 1349               		.cfi_endproc
 1350               	.LFE4:
 1352               		.section	.bss.waiting_buffer_tail,"aw",@nobits
 1355               	waiting_buffer_tail:
 1356 0000 00        		.zero	1
 1357               		.section	.bss.waiting_buffer_head,"aw",@nobits
 1360               	waiting_buffer_head:
 1361 0000 00        		.zero	1
 1362               		.section	.bss.waiting_buffer,"aw",@nobits
 1365               	waiting_buffer:
 1366 0000 0000 0000 		.zero	48
 1366      0000 0000 
 1366      0000 0000 
 1366      0000 0000 
 1366      0000 0000 
 1367               		.section	.bss.tapping_key,"aw",@nobits
 1370               	tapping_key:
 1371 0000 0000 0000 		.zero	6
 1371      0000 
 1372               		.text
 1373               	.Letext0:
 1374               		.file 3 "/usr/local/Cellar/avr-gcc/8.1.0/avr/include/stdint.h"
 1375               		.file 4 "./tmk_core/common/keycode.h"
 1376               		.file 5 "./tmk_core/common/action_code.h"
 1377               		.file 6 "./tmk_core/common/action.h"
 1378               		.file 7 "./tmk_core/common/action_layer.h"
 1379               		.file 8 "./tmk_core/common/timer.h"
 1380               		.file 9 "./tmk_core/common/debug.h"