   1               		.file	"lufa.c"
   2               	__SP_H__ = 0x3e
   3               	__SP_L__ = 0x3d
   4               	__SREG__ = 0x3f
   5               	__tmp_reg__ = 0
   6               	__zero_reg__ = 1
   7               		.text
   8               	.Ltext0:
   9               		.cfi_sections	.debug_frame
  10               		.section	.text.keyboard_leds,"ax",@progbits
  12               	keyboard_leds:
  13               	.LFB115:
  14               		.file 1 "./tmk_core/protocol/lufa/lufa.c"
   1:./tmk_core/protocol/lufa/lufa.c **** /*
   2:./tmk_core/protocol/lufa/lufa.c ****  * Copyright 2012 Jun Wako <wakojun@gmail.com>
   3:./tmk_core/protocol/lufa/lufa.c ****  * This file is based on:
   4:./tmk_core/protocol/lufa/lufa.c ****  *     LUFA-120219/Demos/Device/Lowlevel/KeyboardMouse
   5:./tmk_core/protocol/lufa/lufa.c ****  *     LUFA-120219/Demos/Device/Lowlevel/GenericHID
   6:./tmk_core/protocol/lufa/lufa.c ****  */
   7:./tmk_core/protocol/lufa/lufa.c **** 
   8:./tmk_core/protocol/lufa/lufa.c **** /*
   9:./tmk_core/protocol/lufa/lufa.c ****              LUFA Library
  10:./tmk_core/protocol/lufa/lufa.c ****      Copyright (C) Dean Camera, 2012.
  11:./tmk_core/protocol/lufa/lufa.c **** 
  12:./tmk_core/protocol/lufa/lufa.c ****   dean [at] fourwalledcubicle [dot] com
  13:./tmk_core/protocol/lufa/lufa.c ****            www.lufa-lib.org
  14:./tmk_core/protocol/lufa/lufa.c **** */
  15:./tmk_core/protocol/lufa/lufa.c **** 
  16:./tmk_core/protocol/lufa/lufa.c **** /*
  17:./tmk_core/protocol/lufa/lufa.c ****   Copyright 2012  Dean Camera (dean [at] fourwalledcubicle [dot] com)
  18:./tmk_core/protocol/lufa/lufa.c ****   Copyright 2010  Denver Gingerich (denver [at] ossguy [dot] com)
  19:./tmk_core/protocol/lufa/lufa.c **** 
  20:./tmk_core/protocol/lufa/lufa.c ****   Permission to use, copy, modify, distribute, and sell this
  21:./tmk_core/protocol/lufa/lufa.c ****   software and its documentation for any purpose is hereby granted
  22:./tmk_core/protocol/lufa/lufa.c ****   without fee, provided that the above copyright notice appear in
  23:./tmk_core/protocol/lufa/lufa.c ****   all copies and that both that the copyright notice and this
  24:./tmk_core/protocol/lufa/lufa.c ****   permission notice and warranty disclaimer appear in supporting
  25:./tmk_core/protocol/lufa/lufa.c ****   documentation, and that the name of the author not be used in
  26:./tmk_core/protocol/lufa/lufa.c ****   advertising or publicity pertaining to distribution of the
  27:./tmk_core/protocol/lufa/lufa.c ****   software without specific, written prior permission.
  28:./tmk_core/protocol/lufa/lufa.c **** 
  29:./tmk_core/protocol/lufa/lufa.c ****   The author disclaim all warranties with regard to this
  30:./tmk_core/protocol/lufa/lufa.c ****   software, including all implied warranties of merchantability
  31:./tmk_core/protocol/lufa/lufa.c ****   and fitness.  In no event shall the author be liable for any
  32:./tmk_core/protocol/lufa/lufa.c ****   special, indirect or consequential damages or any damages
  33:./tmk_core/protocol/lufa/lufa.c ****   whatsoever resulting from loss of use, data or profits, whether
  34:./tmk_core/protocol/lufa/lufa.c ****   in an action of contract, negligence or other tortious action,
  35:./tmk_core/protocol/lufa/lufa.c ****   arising out of or in connection with the use or performance of
  36:./tmk_core/protocol/lufa/lufa.c ****   this software.
  37:./tmk_core/protocol/lufa/lufa.c **** */
  38:./tmk_core/protocol/lufa/lufa.c **** 
  39:./tmk_core/protocol/lufa/lufa.c **** #include "report.h"
  40:./tmk_core/protocol/lufa/lufa.c **** #include "host.h"
  41:./tmk_core/protocol/lufa/lufa.c **** #include "host_driver.h"
  42:./tmk_core/protocol/lufa/lufa.c **** #include "keyboard.h"
  43:./tmk_core/protocol/lufa/lufa.c **** #include "action.h"
  44:./tmk_core/protocol/lufa/lufa.c **** #include "led.h"
  45:./tmk_core/protocol/lufa/lufa.c **** #include "sendchar.h"
  46:./tmk_core/protocol/lufa/lufa.c **** #include "debug.h"
  47:./tmk_core/protocol/lufa/lufa.c **** #ifdef SLEEP_LED_ENABLE
  48:./tmk_core/protocol/lufa/lufa.c **** #include "sleep_led.h"
  49:./tmk_core/protocol/lufa/lufa.c **** #endif
  50:./tmk_core/protocol/lufa/lufa.c **** #include "suspend.h"
  51:./tmk_core/protocol/lufa/lufa.c **** 
  52:./tmk_core/protocol/lufa/lufa.c **** #include "descriptor.h"
  53:./tmk_core/protocol/lufa/lufa.c **** #include "lufa.h"
  54:./tmk_core/protocol/lufa/lufa.c **** 
  55:./tmk_core/protocol/lufa/lufa.c **** #ifdef NKRO_ENABLE
  56:./tmk_core/protocol/lufa/lufa.c ****   #include "keycode_config.h"
  57:./tmk_core/protocol/lufa/lufa.c **** 
  58:./tmk_core/protocol/lufa/lufa.c ****   extern keymap_config_t keymap_config;
  59:./tmk_core/protocol/lufa/lufa.c **** #endif
  60:./tmk_core/protocol/lufa/lufa.c **** 
  61:./tmk_core/protocol/lufa/lufa.c **** 
  62:./tmk_core/protocol/lufa/lufa.c **** #ifdef AUDIO_ENABLE
  63:./tmk_core/protocol/lufa/lufa.c ****     #include <audio.h>
  64:./tmk_core/protocol/lufa/lufa.c **** #endif
  65:./tmk_core/protocol/lufa/lufa.c **** 
  66:./tmk_core/protocol/lufa/lufa.c **** #ifdef BLUETOOTH_ENABLE
  67:./tmk_core/protocol/lufa/lufa.c ****     #include "bluetooth.h"
  68:./tmk_core/protocol/lufa/lufa.c **** #endif
  69:./tmk_core/protocol/lufa/lufa.c **** 
  70:./tmk_core/protocol/lufa/lufa.c **** #ifdef VIRTSER_ENABLE
  71:./tmk_core/protocol/lufa/lufa.c ****     #include "virtser.h"
  72:./tmk_core/protocol/lufa/lufa.c **** #endif
  73:./tmk_core/protocol/lufa/lufa.c **** 
  74:./tmk_core/protocol/lufa/lufa.c **** uint8_t keyboard_idle = 0;
  75:./tmk_core/protocol/lufa/lufa.c **** /* 0: Boot Protocol, 1: Report Protocol(default) */
  76:./tmk_core/protocol/lufa/lufa.c **** uint8_t keyboard_protocol = 1;
  77:./tmk_core/protocol/lufa/lufa.c **** static uint8_t keyboard_led_stats = 0;
  78:./tmk_core/protocol/lufa/lufa.c **** 
  79:./tmk_core/protocol/lufa/lufa.c **** static report_keyboard_t keyboard_report_sent;
  80:./tmk_core/protocol/lufa/lufa.c **** 
  81:./tmk_core/protocol/lufa/lufa.c **** #ifdef MIDI_ENABLE
  82:./tmk_core/protocol/lufa/lufa.c **** void usb_send_func(MidiDevice * device, uint16_t cnt, uint8_t byte0, uint8_t byte1, uint8_t byte2);
  83:./tmk_core/protocol/lufa/lufa.c **** void usb_get_midi(MidiDevice * device);
  84:./tmk_core/protocol/lufa/lufa.c **** void midi_usb_init(MidiDevice * device);
  85:./tmk_core/protocol/lufa/lufa.c **** #endif
  86:./tmk_core/protocol/lufa/lufa.c **** 
  87:./tmk_core/protocol/lufa/lufa.c **** /* Host driver */
  88:./tmk_core/protocol/lufa/lufa.c **** static uint8_t keyboard_leds(void);
  89:./tmk_core/protocol/lufa/lufa.c **** static void send_keyboard(report_keyboard_t *report);
  90:./tmk_core/protocol/lufa/lufa.c **** static void send_mouse(report_mouse_t *report);
  91:./tmk_core/protocol/lufa/lufa.c **** static void send_system(uint16_t data);
  92:./tmk_core/protocol/lufa/lufa.c **** static void send_consumer(uint16_t data);
  93:./tmk_core/protocol/lufa/lufa.c **** host_driver_t lufa_driver = {
  94:./tmk_core/protocol/lufa/lufa.c ****     keyboard_leds,
  95:./tmk_core/protocol/lufa/lufa.c ****     send_keyboard,
  96:./tmk_core/protocol/lufa/lufa.c ****     send_mouse,
  97:./tmk_core/protocol/lufa/lufa.c ****     send_system,
  98:./tmk_core/protocol/lufa/lufa.c ****     send_consumer,
  99:./tmk_core/protocol/lufa/lufa.c **** #ifdef MIDI_ENABLE
 100:./tmk_core/protocol/lufa/lufa.c ****     usb_send_func,
 101:./tmk_core/protocol/lufa/lufa.c ****     usb_get_midi,
 102:./tmk_core/protocol/lufa/lufa.c ****     midi_usb_init
 103:./tmk_core/protocol/lufa/lufa.c **** #endif
 104:./tmk_core/protocol/lufa/lufa.c **** };
 105:./tmk_core/protocol/lufa/lufa.c **** 
 106:./tmk_core/protocol/lufa/lufa.c **** /*******************************************************************************
 107:./tmk_core/protocol/lufa/lufa.c ****  * MIDI
 108:./tmk_core/protocol/lufa/lufa.c ****  ******************************************************************************/
 109:./tmk_core/protocol/lufa/lufa.c **** 
 110:./tmk_core/protocol/lufa/lufa.c **** #ifdef MIDI_ENABLE
 111:./tmk_core/protocol/lufa/lufa.c **** USB_ClassInfo_MIDI_Device_t USB_MIDI_Interface =
 112:./tmk_core/protocol/lufa/lufa.c **** {
 113:./tmk_core/protocol/lufa/lufa.c ****   .Config =
 114:./tmk_core/protocol/lufa/lufa.c ****   {
 115:./tmk_core/protocol/lufa/lufa.c ****     .StreamingInterfaceNumber = AS_INTERFACE,
 116:./tmk_core/protocol/lufa/lufa.c ****     .DataINEndpoint           =
 117:./tmk_core/protocol/lufa/lufa.c ****     {
 118:./tmk_core/protocol/lufa/lufa.c ****       .Address          = MIDI_STREAM_IN_EPADDR,
 119:./tmk_core/protocol/lufa/lufa.c ****       .Size             = MIDI_STREAM_EPSIZE,
 120:./tmk_core/protocol/lufa/lufa.c ****       .Banks            = 1,
 121:./tmk_core/protocol/lufa/lufa.c ****     },
 122:./tmk_core/protocol/lufa/lufa.c ****     .DataOUTEndpoint          =
 123:./tmk_core/protocol/lufa/lufa.c ****     {
 124:./tmk_core/protocol/lufa/lufa.c ****       .Address          = MIDI_STREAM_OUT_EPADDR,
 125:./tmk_core/protocol/lufa/lufa.c ****       .Size             = MIDI_STREAM_EPSIZE,
 126:./tmk_core/protocol/lufa/lufa.c ****       .Banks            = 1,
 127:./tmk_core/protocol/lufa/lufa.c ****     },
 128:./tmk_core/protocol/lufa/lufa.c ****   },
 129:./tmk_core/protocol/lufa/lufa.c **** };
 130:./tmk_core/protocol/lufa/lufa.c **** 
 131:./tmk_core/protocol/lufa/lufa.c **** #define SYSEX_START_OR_CONT 0x40
 132:./tmk_core/protocol/lufa/lufa.c **** #define SYSEX_ENDS_IN_1 0x50
 133:./tmk_core/protocol/lufa/lufa.c **** #define SYSEX_ENDS_IN_2 0x60
 134:./tmk_core/protocol/lufa/lufa.c **** #define SYSEX_ENDS_IN_3 0x70
 135:./tmk_core/protocol/lufa/lufa.c **** 
 136:./tmk_core/protocol/lufa/lufa.c **** #define SYS_COMMON_1 0x50
 137:./tmk_core/protocol/lufa/lufa.c **** #define SYS_COMMON_2 0x20
 138:./tmk_core/protocol/lufa/lufa.c **** #define SYS_COMMON_3 0x30
 139:./tmk_core/protocol/lufa/lufa.c **** #endif
 140:./tmk_core/protocol/lufa/lufa.c **** 
 141:./tmk_core/protocol/lufa/lufa.c **** #ifdef VIRTSER_ENABLE
 142:./tmk_core/protocol/lufa/lufa.c **** USB_ClassInfo_CDC_Device_t cdc_device =
 143:./tmk_core/protocol/lufa/lufa.c **** {
 144:./tmk_core/protocol/lufa/lufa.c ****   .Config =
 145:./tmk_core/protocol/lufa/lufa.c ****   {
 146:./tmk_core/protocol/lufa/lufa.c ****     .ControlInterfaceNumber = CCI_INTERFACE,
 147:./tmk_core/protocol/lufa/lufa.c ****     .DataINEndpoint         =
 148:./tmk_core/protocol/lufa/lufa.c ****     {
 149:./tmk_core/protocol/lufa/lufa.c ****       .Address		= CDC_IN_EPADDR,
 150:./tmk_core/protocol/lufa/lufa.c ****       .Size		= CDC_EPSIZE,
 151:./tmk_core/protocol/lufa/lufa.c ****       .Banks		= 1,
 152:./tmk_core/protocol/lufa/lufa.c ****     },
 153:./tmk_core/protocol/lufa/lufa.c ****     .DataOUTEndpoint	    =
 154:./tmk_core/protocol/lufa/lufa.c ****     {
 155:./tmk_core/protocol/lufa/lufa.c ****       .Address		= CDC_OUT_EPADDR,
 156:./tmk_core/protocol/lufa/lufa.c ****       .Size		= CDC_EPSIZE,
 157:./tmk_core/protocol/lufa/lufa.c ****       .Banks		= 1,
 158:./tmk_core/protocol/lufa/lufa.c ****     },
 159:./tmk_core/protocol/lufa/lufa.c ****     .NotificationEndpoint   =
 160:./tmk_core/protocol/lufa/lufa.c ****     {
 161:./tmk_core/protocol/lufa/lufa.c ****       .Address		= CDC_NOTIFICATION_EPADDR,
 162:./tmk_core/protocol/lufa/lufa.c ****       .Size		= CDC_NOTIFICATION_EPSIZE,
 163:./tmk_core/protocol/lufa/lufa.c ****       .Banks		= 1,
 164:./tmk_core/protocol/lufa/lufa.c ****     },
 165:./tmk_core/protocol/lufa/lufa.c ****   },
 166:./tmk_core/protocol/lufa/lufa.c **** };
 167:./tmk_core/protocol/lufa/lufa.c **** #endif
 168:./tmk_core/protocol/lufa/lufa.c **** 
 169:./tmk_core/protocol/lufa/lufa.c **** 
 170:./tmk_core/protocol/lufa/lufa.c **** /*******************************************************************************
 171:./tmk_core/protocol/lufa/lufa.c ****  * Console
 172:./tmk_core/protocol/lufa/lufa.c ****  ******************************************************************************/
 173:./tmk_core/protocol/lufa/lufa.c **** #ifdef CONSOLE_ENABLE
 174:./tmk_core/protocol/lufa/lufa.c **** static void Console_Task(void)
 175:./tmk_core/protocol/lufa/lufa.c **** {
 176:./tmk_core/protocol/lufa/lufa.c ****     /* Device must be connected and configured for the task to run */
 177:./tmk_core/protocol/lufa/lufa.c ****     if (USB_DeviceState != DEVICE_STATE_Configured)
 178:./tmk_core/protocol/lufa/lufa.c ****         return;
 179:./tmk_core/protocol/lufa/lufa.c **** 
 180:./tmk_core/protocol/lufa/lufa.c ****     uint8_t ep = Endpoint_GetCurrentEndpoint();
 181:./tmk_core/protocol/lufa/lufa.c **** 
 182:./tmk_core/protocol/lufa/lufa.c **** #if 0
 183:./tmk_core/protocol/lufa/lufa.c ****     // TODO: impl receivechar()/recvchar()
 184:./tmk_core/protocol/lufa/lufa.c ****     Endpoint_SelectEndpoint(CONSOLE_OUT_EPNUM);
 185:./tmk_core/protocol/lufa/lufa.c **** 
 186:./tmk_core/protocol/lufa/lufa.c ****     /* Check to see if a packet has been sent from the host */
 187:./tmk_core/protocol/lufa/lufa.c ****     if (Endpoint_IsOUTReceived())
 188:./tmk_core/protocol/lufa/lufa.c ****     {
 189:./tmk_core/protocol/lufa/lufa.c ****         /* Check to see if the packet contains data */
 190:./tmk_core/protocol/lufa/lufa.c ****         if (Endpoint_IsReadWriteAllowed())
 191:./tmk_core/protocol/lufa/lufa.c ****         {
 192:./tmk_core/protocol/lufa/lufa.c ****             /* Create a temporary buffer to hold the read in report from the host */
 193:./tmk_core/protocol/lufa/lufa.c ****             uint8_t ConsoleData[CONSOLE_EPSIZE];
 194:./tmk_core/protocol/lufa/lufa.c **** 
 195:./tmk_core/protocol/lufa/lufa.c ****             /* Read Console Report Data */
 196:./tmk_core/protocol/lufa/lufa.c ****             Endpoint_Read_Stream_LE(&ConsoleData, sizeof(ConsoleData), NULL);
 197:./tmk_core/protocol/lufa/lufa.c **** 
 198:./tmk_core/protocol/lufa/lufa.c ****             /* Process Console Report Data */
 199:./tmk_core/protocol/lufa/lufa.c ****             //ProcessConsoleHIDReport(ConsoleData);
 200:./tmk_core/protocol/lufa/lufa.c ****         }
 201:./tmk_core/protocol/lufa/lufa.c **** 
 202:./tmk_core/protocol/lufa/lufa.c ****         /* Finalize the stream transfer to send the last packet */
 203:./tmk_core/protocol/lufa/lufa.c ****         Endpoint_ClearOUT();
 204:./tmk_core/protocol/lufa/lufa.c ****     }
 205:./tmk_core/protocol/lufa/lufa.c **** #endif
 206:./tmk_core/protocol/lufa/lufa.c **** 
 207:./tmk_core/protocol/lufa/lufa.c ****     /* IN packet */
 208:./tmk_core/protocol/lufa/lufa.c ****     Endpoint_SelectEndpoint(CONSOLE_IN_EPNUM);
 209:./tmk_core/protocol/lufa/lufa.c ****     if (!Endpoint_IsEnabled() || !Endpoint_IsConfigured()) {
 210:./tmk_core/protocol/lufa/lufa.c ****         Endpoint_SelectEndpoint(ep);
 211:./tmk_core/protocol/lufa/lufa.c ****         return;
 212:./tmk_core/protocol/lufa/lufa.c ****     }
 213:./tmk_core/protocol/lufa/lufa.c **** 
 214:./tmk_core/protocol/lufa/lufa.c ****     // fill empty bank
 215:./tmk_core/protocol/lufa/lufa.c ****     while (Endpoint_IsReadWriteAllowed())
 216:./tmk_core/protocol/lufa/lufa.c ****         Endpoint_Write_8(0);
 217:./tmk_core/protocol/lufa/lufa.c **** 
 218:./tmk_core/protocol/lufa/lufa.c ****     // flash senchar packet
 219:./tmk_core/protocol/lufa/lufa.c ****     if (Endpoint_IsINReady()) {
 220:./tmk_core/protocol/lufa/lufa.c ****         Endpoint_ClearIN();
 221:./tmk_core/protocol/lufa/lufa.c ****     }
 222:./tmk_core/protocol/lufa/lufa.c **** 
 223:./tmk_core/protocol/lufa/lufa.c ****     Endpoint_SelectEndpoint(ep);
 224:./tmk_core/protocol/lufa/lufa.c **** }
 225:./tmk_core/protocol/lufa/lufa.c **** #endif
 226:./tmk_core/protocol/lufa/lufa.c **** 
 227:./tmk_core/protocol/lufa/lufa.c **** 
 228:./tmk_core/protocol/lufa/lufa.c **** /*******************************************************************************
 229:./tmk_core/protocol/lufa/lufa.c ****  * USB Events
 230:./tmk_core/protocol/lufa/lufa.c ****  ******************************************************************************/
 231:./tmk_core/protocol/lufa/lufa.c **** /*
 232:./tmk_core/protocol/lufa/lufa.c ****  * Event Order of Plug in:
 233:./tmk_core/protocol/lufa/lufa.c ****  * 0) EVENT_USB_Device_Connect
 234:./tmk_core/protocol/lufa/lufa.c ****  * 1) EVENT_USB_Device_Suspend
 235:./tmk_core/protocol/lufa/lufa.c ****  * 2) EVENT_USB_Device_Reset
 236:./tmk_core/protocol/lufa/lufa.c ****  * 3) EVENT_USB_Device_Wake
 237:./tmk_core/protocol/lufa/lufa.c **** */
 238:./tmk_core/protocol/lufa/lufa.c **** void EVENT_USB_Device_Connect(void)
 239:./tmk_core/protocol/lufa/lufa.c **** {
 240:./tmk_core/protocol/lufa/lufa.c ****     print("[C]");
 241:./tmk_core/protocol/lufa/lufa.c ****     /* For battery powered device */
 242:./tmk_core/protocol/lufa/lufa.c ****     if (!USB_IsInitialized) {
 243:./tmk_core/protocol/lufa/lufa.c ****         USB_Disable();
 244:./tmk_core/protocol/lufa/lufa.c ****         USB_Init();
 245:./tmk_core/protocol/lufa/lufa.c ****         USB_Device_EnableSOFEvents();
 246:./tmk_core/protocol/lufa/lufa.c ****     }
 247:./tmk_core/protocol/lufa/lufa.c **** }
 248:./tmk_core/protocol/lufa/lufa.c **** 
 249:./tmk_core/protocol/lufa/lufa.c **** void EVENT_USB_Device_Disconnect(void)
 250:./tmk_core/protocol/lufa/lufa.c **** {
 251:./tmk_core/protocol/lufa/lufa.c ****     print("[D]");
 252:./tmk_core/protocol/lufa/lufa.c ****     /* For battery powered device */
 253:./tmk_core/protocol/lufa/lufa.c ****     USB_IsInitialized = false;
 254:./tmk_core/protocol/lufa/lufa.c **** /* TODO: This doesn't work. After several plug in/outs can not be enumerated.
 255:./tmk_core/protocol/lufa/lufa.c ****     if (USB_IsInitialized) {
 256:./tmk_core/protocol/lufa/lufa.c ****         USB_Disable();  // Disable all interrupts
 257:./tmk_core/protocol/lufa/lufa.c **** 	USB_Controller_Enable();
 258:./tmk_core/protocol/lufa/lufa.c ****         USB_INT_Enable(USB_INT_VBUSTI);
 259:./tmk_core/protocol/lufa/lufa.c ****     }
 260:./tmk_core/protocol/lufa/lufa.c **** */
 261:./tmk_core/protocol/lufa/lufa.c **** }
 262:./tmk_core/protocol/lufa/lufa.c **** 
 263:./tmk_core/protocol/lufa/lufa.c **** void EVENT_USB_Device_Reset(void)
 264:./tmk_core/protocol/lufa/lufa.c **** {
 265:./tmk_core/protocol/lufa/lufa.c ****     print("[R]");
 266:./tmk_core/protocol/lufa/lufa.c **** }
 267:./tmk_core/protocol/lufa/lufa.c **** 
 268:./tmk_core/protocol/lufa/lufa.c **** void EVENT_USB_Device_Suspend()
 269:./tmk_core/protocol/lufa/lufa.c **** {
 270:./tmk_core/protocol/lufa/lufa.c ****     print("[S]");
 271:./tmk_core/protocol/lufa/lufa.c **** #ifdef SLEEP_LED_ENABLE
 272:./tmk_core/protocol/lufa/lufa.c ****     sleep_led_enable();
 273:./tmk_core/protocol/lufa/lufa.c **** #endif
 274:./tmk_core/protocol/lufa/lufa.c **** }
 275:./tmk_core/protocol/lufa/lufa.c **** 
 276:./tmk_core/protocol/lufa/lufa.c **** void EVENT_USB_Device_WakeUp()
 277:./tmk_core/protocol/lufa/lufa.c **** {
 278:./tmk_core/protocol/lufa/lufa.c ****     print("[W]");
 279:./tmk_core/protocol/lufa/lufa.c ****     suspend_wakeup_init();
 280:./tmk_core/protocol/lufa/lufa.c **** 
 281:./tmk_core/protocol/lufa/lufa.c **** #ifdef SLEEP_LED_ENABLE
 282:./tmk_core/protocol/lufa/lufa.c ****     sleep_led_disable();
 283:./tmk_core/protocol/lufa/lufa.c ****     // NOTE: converters may not accept this
 284:./tmk_core/protocol/lufa/lufa.c ****     led_set(host_keyboard_leds());
 285:./tmk_core/protocol/lufa/lufa.c **** #endif
 286:./tmk_core/protocol/lufa/lufa.c **** }
 287:./tmk_core/protocol/lufa/lufa.c **** 
 288:./tmk_core/protocol/lufa/lufa.c **** #ifdef CONSOLE_ENABLE
 289:./tmk_core/protocol/lufa/lufa.c **** static bool console_flush = false;
 290:./tmk_core/protocol/lufa/lufa.c **** #define CONSOLE_FLUSH_SET(b)   do { \
 291:./tmk_core/protocol/lufa/lufa.c ****     uint8_t sreg = SREG; cli(); console_flush = b; SREG = sreg; \
 292:./tmk_core/protocol/lufa/lufa.c **** } while (0)
 293:./tmk_core/protocol/lufa/lufa.c **** 
 294:./tmk_core/protocol/lufa/lufa.c **** // called every 1ms
 295:./tmk_core/protocol/lufa/lufa.c **** void EVENT_USB_Device_StartOfFrame(void)
 296:./tmk_core/protocol/lufa/lufa.c **** {
 297:./tmk_core/protocol/lufa/lufa.c ****     static uint8_t count;
 298:./tmk_core/protocol/lufa/lufa.c ****     if (++count % 50) return;
 299:./tmk_core/protocol/lufa/lufa.c ****     count = 0;
 300:./tmk_core/protocol/lufa/lufa.c **** 
 301:./tmk_core/protocol/lufa/lufa.c ****     if (!console_flush) return;
 302:./tmk_core/protocol/lufa/lufa.c ****     Console_Task();
 303:./tmk_core/protocol/lufa/lufa.c ****     console_flush = false;
 304:./tmk_core/protocol/lufa/lufa.c **** }
 305:./tmk_core/protocol/lufa/lufa.c **** #endif
 306:./tmk_core/protocol/lufa/lufa.c **** 
 307:./tmk_core/protocol/lufa/lufa.c **** /** Event handler for the USB_ConfigurationChanged event.
 308:./tmk_core/protocol/lufa/lufa.c ****  * This is fired when the host sets the current configuration of the USB device after enumeration.
 309:./tmk_core/protocol/lufa/lufa.c ****  *
 310:./tmk_core/protocol/lufa/lufa.c ****  * ATMega32u2 supports dual bank(ping-pong mode) only on endpoint 3 and 4,
 311:./tmk_core/protocol/lufa/lufa.c ****  * it is safe to use singl bank for all endpoints.
 312:./tmk_core/protocol/lufa/lufa.c ****  */
 313:./tmk_core/protocol/lufa/lufa.c **** void EVENT_USB_Device_ConfigurationChanged(void)
 314:./tmk_core/protocol/lufa/lufa.c **** {
 315:./tmk_core/protocol/lufa/lufa.c ****     bool ConfigSuccess = true;
 316:./tmk_core/protocol/lufa/lufa.c **** 
 317:./tmk_core/protocol/lufa/lufa.c ****     /* Setup Keyboard HID Report Endpoints */
 318:./tmk_core/protocol/lufa/lufa.c ****     ConfigSuccess &= ENDPOINT_CONFIG(KEYBOARD_IN_EPNUM, EP_TYPE_INTERRUPT, ENDPOINT_DIR_IN,
 319:./tmk_core/protocol/lufa/lufa.c ****                                      KEYBOARD_EPSIZE, ENDPOINT_BANK_SINGLE);
 320:./tmk_core/protocol/lufa/lufa.c **** 
 321:./tmk_core/protocol/lufa/lufa.c **** #ifdef MOUSE_ENABLE
 322:./tmk_core/protocol/lufa/lufa.c ****     /* Setup Mouse HID Report Endpoint */
 323:./tmk_core/protocol/lufa/lufa.c ****     ConfigSuccess &= ENDPOINT_CONFIG(MOUSE_IN_EPNUM, EP_TYPE_INTERRUPT, ENDPOINT_DIR_IN,
 324:./tmk_core/protocol/lufa/lufa.c ****                                      MOUSE_EPSIZE, ENDPOINT_BANK_SINGLE);
 325:./tmk_core/protocol/lufa/lufa.c **** #endif
 326:./tmk_core/protocol/lufa/lufa.c **** 
 327:./tmk_core/protocol/lufa/lufa.c **** #ifdef EXTRAKEY_ENABLE
 328:./tmk_core/protocol/lufa/lufa.c ****     /* Setup Extra HID Report Endpoint */
 329:./tmk_core/protocol/lufa/lufa.c ****     ConfigSuccess &= ENDPOINT_CONFIG(EXTRAKEY_IN_EPNUM, EP_TYPE_INTERRUPT, ENDPOINT_DIR_IN,
 330:./tmk_core/protocol/lufa/lufa.c ****                                      EXTRAKEY_EPSIZE, ENDPOINT_BANK_SINGLE);
 331:./tmk_core/protocol/lufa/lufa.c **** #endif
 332:./tmk_core/protocol/lufa/lufa.c **** 
 333:./tmk_core/protocol/lufa/lufa.c **** #ifdef CONSOLE_ENABLE
 334:./tmk_core/protocol/lufa/lufa.c ****     /* Setup Console HID Report Endpoints */
 335:./tmk_core/protocol/lufa/lufa.c ****     ConfigSuccess &= ENDPOINT_CONFIG(CONSOLE_IN_EPNUM, EP_TYPE_INTERRUPT, ENDPOINT_DIR_IN,
 336:./tmk_core/protocol/lufa/lufa.c ****                                      CONSOLE_EPSIZE, ENDPOINT_BANK_SINGLE);
 337:./tmk_core/protocol/lufa/lufa.c **** #if 0
 338:./tmk_core/protocol/lufa/lufa.c ****     ConfigSuccess &= ENDPOINT_CONFIG(CONSOLE_OUT_EPNUM, EP_TYPE_INTERRUPT, ENDPOINT_DIR_OUT,
 339:./tmk_core/protocol/lufa/lufa.c ****                                      CONSOLE_EPSIZE, ENDPOINT_BANK_SINGLE);
 340:./tmk_core/protocol/lufa/lufa.c **** #endif
 341:./tmk_core/protocol/lufa/lufa.c **** #endif
 342:./tmk_core/protocol/lufa/lufa.c **** 
 343:./tmk_core/protocol/lufa/lufa.c **** #ifdef NKRO_ENABLE
 344:./tmk_core/protocol/lufa/lufa.c ****     /* Setup NKRO HID Report Endpoints */
 345:./tmk_core/protocol/lufa/lufa.c ****     ConfigSuccess &= ENDPOINT_CONFIG(NKRO_IN_EPNUM, EP_TYPE_INTERRUPT, ENDPOINT_DIR_IN,
 346:./tmk_core/protocol/lufa/lufa.c ****                                      NKRO_EPSIZE, ENDPOINT_BANK_SINGLE);
 347:./tmk_core/protocol/lufa/lufa.c **** #endif
 348:./tmk_core/protocol/lufa/lufa.c **** 
 349:./tmk_core/protocol/lufa/lufa.c **** #ifdef MIDI_ENABLE
 350:./tmk_core/protocol/lufa/lufa.c ****     ConfigSuccess &= Endpoint_ConfigureEndpoint(MIDI_STREAM_IN_EPADDR, EP_TYPE_BULK, MIDI_STREAM_EP
 351:./tmk_core/protocol/lufa/lufa.c ****     ConfigSuccess &= Endpoint_ConfigureEndpoint(MIDI_STREAM_OUT_EPADDR, EP_TYPE_BULK, MIDI_STREAM_E
 352:./tmk_core/protocol/lufa/lufa.c **** #endif
 353:./tmk_core/protocol/lufa/lufa.c **** 
 354:./tmk_core/protocol/lufa/lufa.c **** #ifdef VIRTSER_ENABLE
 355:./tmk_core/protocol/lufa/lufa.c ****     ConfigSuccess &= Endpoint_ConfigureEndpoint(CDC_NOTIFICATION_EPADDR, EP_TYPE_INTERRUPT, CDC_NOT
 356:./tmk_core/protocol/lufa/lufa.c ****     ConfigSuccess &= Endpoint_ConfigureEndpoint(CDC_OUT_EPADDR, EP_TYPE_BULK, CDC_EPSIZE, ENDPOINT_
 357:./tmk_core/protocol/lufa/lufa.c ****     ConfigSuccess &= Endpoint_ConfigureEndpoint(CDC_IN_EPADDR, EP_TYPE_BULK, CDC_EPSIZE, ENDPOINT_B
 358:./tmk_core/protocol/lufa/lufa.c **** #endif
 359:./tmk_core/protocol/lufa/lufa.c **** }
 360:./tmk_core/protocol/lufa/lufa.c **** 
 361:./tmk_core/protocol/lufa/lufa.c **** /*
 362:./tmk_core/protocol/lufa/lufa.c **** Appendix G: HID Request Support Requirements
 363:./tmk_core/protocol/lufa/lufa.c **** 
 364:./tmk_core/protocol/lufa/lufa.c **** The following table enumerates the requests that need to be supported by various types of HID class
 365:./tmk_core/protocol/lufa/lufa.c **** 
 366:./tmk_core/protocol/lufa/lufa.c **** Device type     GetReport   SetReport   GetIdle     SetIdle     GetProtocol SetProtocol
 367:./tmk_core/protocol/lufa/lufa.c **** ------------------------------------------------------------------------------------------
 368:./tmk_core/protocol/lufa/lufa.c **** Boot Mouse      Required    Optional    Optional    Optional    Required    Required
 369:./tmk_core/protocol/lufa/lufa.c **** Non-Boot Mouse  Required    Optional    Optional    Optional    Optional    Optional
 370:./tmk_core/protocol/lufa/lufa.c **** Boot Keyboard   Required    Optional    Required    Required    Required    Required
 371:./tmk_core/protocol/lufa/lufa.c **** Non-Boot Keybrd Required    Optional    Required    Required    Optional    Optional
 372:./tmk_core/protocol/lufa/lufa.c **** Other Device    Required    Optional    Optional    Optional    Optional    Optional
 373:./tmk_core/protocol/lufa/lufa.c **** */
 374:./tmk_core/protocol/lufa/lufa.c **** /** Event handler for the USB_ControlRequest event.
 375:./tmk_core/protocol/lufa/lufa.c ****  *  This is fired before passing along unhandled control requests to the library for processing int
 376:./tmk_core/protocol/lufa/lufa.c ****  */
 377:./tmk_core/protocol/lufa/lufa.c **** void EVENT_USB_Device_ControlRequest(void)
 378:./tmk_core/protocol/lufa/lufa.c **** {
 379:./tmk_core/protocol/lufa/lufa.c ****     uint8_t* ReportData = NULL;
 380:./tmk_core/protocol/lufa/lufa.c ****     uint8_t  ReportSize = 0;
 381:./tmk_core/protocol/lufa/lufa.c **** 
 382:./tmk_core/protocol/lufa/lufa.c ****     /* Handle HID Class specific requests */
 383:./tmk_core/protocol/lufa/lufa.c ****     switch (USB_ControlRequest.bRequest)
 384:./tmk_core/protocol/lufa/lufa.c ****     {
 385:./tmk_core/protocol/lufa/lufa.c ****         case HID_REQ_GetReport:
 386:./tmk_core/protocol/lufa/lufa.c ****             if (USB_ControlRequest.bmRequestType == (REQDIR_DEVICETOHOST | REQTYPE_CLASS | REQREC_I
 387:./tmk_core/protocol/lufa/lufa.c ****             {
 388:./tmk_core/protocol/lufa/lufa.c ****                 Endpoint_ClearSETUP();
 389:./tmk_core/protocol/lufa/lufa.c **** 
 390:./tmk_core/protocol/lufa/lufa.c ****                 // Interface
 391:./tmk_core/protocol/lufa/lufa.c ****                 switch (USB_ControlRequest.wIndex) {
 392:./tmk_core/protocol/lufa/lufa.c ****                 case KEYBOARD_INTERFACE:
 393:./tmk_core/protocol/lufa/lufa.c ****                     // TODO: test/check
 394:./tmk_core/protocol/lufa/lufa.c ****                     ReportData = (uint8_t*)&keyboard_report_sent;
 395:./tmk_core/protocol/lufa/lufa.c ****                     ReportSize = sizeof(keyboard_report_sent);
 396:./tmk_core/protocol/lufa/lufa.c ****                     break;
 397:./tmk_core/protocol/lufa/lufa.c ****                 }
 398:./tmk_core/protocol/lufa/lufa.c **** 
 399:./tmk_core/protocol/lufa/lufa.c ****                 /* Write the report data to the control endpoint */
 400:./tmk_core/protocol/lufa/lufa.c ****                 Endpoint_Write_Control_Stream_LE(ReportData, ReportSize);
 401:./tmk_core/protocol/lufa/lufa.c ****                 Endpoint_ClearOUT();
 402:./tmk_core/protocol/lufa/lufa.c ****             }
 403:./tmk_core/protocol/lufa/lufa.c **** 
 404:./tmk_core/protocol/lufa/lufa.c ****             break;
 405:./tmk_core/protocol/lufa/lufa.c ****         case HID_REQ_SetReport:
 406:./tmk_core/protocol/lufa/lufa.c ****             if (USB_ControlRequest.bmRequestType == (REQDIR_HOSTTODEVICE | REQTYPE_CLASS | REQREC_I
 407:./tmk_core/protocol/lufa/lufa.c ****             {
 408:./tmk_core/protocol/lufa/lufa.c **** 
 409:./tmk_core/protocol/lufa/lufa.c ****                 // Interface
 410:./tmk_core/protocol/lufa/lufa.c ****                 switch (USB_ControlRequest.wIndex) {
 411:./tmk_core/protocol/lufa/lufa.c ****                 case KEYBOARD_INTERFACE:
 412:./tmk_core/protocol/lufa/lufa.c **** #ifdef NKRO_ENABLE
 413:./tmk_core/protocol/lufa/lufa.c ****                 case NKRO_INTERFACE:
 414:./tmk_core/protocol/lufa/lufa.c **** #endif
 415:./tmk_core/protocol/lufa/lufa.c ****                     Endpoint_ClearSETUP();
 416:./tmk_core/protocol/lufa/lufa.c **** 
 417:./tmk_core/protocol/lufa/lufa.c ****                     while (!(Endpoint_IsOUTReceived())) {
 418:./tmk_core/protocol/lufa/lufa.c ****                         if (USB_DeviceState == DEVICE_STATE_Unattached)
 419:./tmk_core/protocol/lufa/lufa.c ****                           return;
 420:./tmk_core/protocol/lufa/lufa.c ****                     }
 421:./tmk_core/protocol/lufa/lufa.c ****                     keyboard_led_stats = Endpoint_Read_8();
 422:./tmk_core/protocol/lufa/lufa.c **** 
 423:./tmk_core/protocol/lufa/lufa.c ****                     Endpoint_ClearOUT();
 424:./tmk_core/protocol/lufa/lufa.c ****                     Endpoint_ClearStatusStage();
 425:./tmk_core/protocol/lufa/lufa.c ****                     break;
 426:./tmk_core/protocol/lufa/lufa.c ****                 }
 427:./tmk_core/protocol/lufa/lufa.c **** 
 428:./tmk_core/protocol/lufa/lufa.c ****             }
 429:./tmk_core/protocol/lufa/lufa.c **** 
 430:./tmk_core/protocol/lufa/lufa.c ****             break;
 431:./tmk_core/protocol/lufa/lufa.c **** 
 432:./tmk_core/protocol/lufa/lufa.c ****         case HID_REQ_GetProtocol:
 433:./tmk_core/protocol/lufa/lufa.c ****             if (USB_ControlRequest.bmRequestType == (REQDIR_DEVICETOHOST | REQTYPE_CLASS | REQREC_I
 434:./tmk_core/protocol/lufa/lufa.c ****             {
 435:./tmk_core/protocol/lufa/lufa.c ****                 if (USB_ControlRequest.wIndex == KEYBOARD_INTERFACE) {
 436:./tmk_core/protocol/lufa/lufa.c ****                     Endpoint_ClearSETUP();
 437:./tmk_core/protocol/lufa/lufa.c ****                     while (!(Endpoint_IsINReady()));
 438:./tmk_core/protocol/lufa/lufa.c ****                     Endpoint_Write_8(keyboard_protocol);
 439:./tmk_core/protocol/lufa/lufa.c ****                     Endpoint_ClearIN();
 440:./tmk_core/protocol/lufa/lufa.c ****                     Endpoint_ClearStatusStage();
 441:./tmk_core/protocol/lufa/lufa.c ****                 }
 442:./tmk_core/protocol/lufa/lufa.c ****             }
 443:./tmk_core/protocol/lufa/lufa.c **** 
 444:./tmk_core/protocol/lufa/lufa.c ****             break;
 445:./tmk_core/protocol/lufa/lufa.c ****         case HID_REQ_SetProtocol:
 446:./tmk_core/protocol/lufa/lufa.c ****             if (USB_ControlRequest.bmRequestType == (REQDIR_HOSTTODEVICE | REQTYPE_CLASS | REQREC_I
 447:./tmk_core/protocol/lufa/lufa.c ****             {
 448:./tmk_core/protocol/lufa/lufa.c ****                 if (USB_ControlRequest.wIndex == KEYBOARD_INTERFACE) {
 449:./tmk_core/protocol/lufa/lufa.c ****                     Endpoint_ClearSETUP();
 450:./tmk_core/protocol/lufa/lufa.c ****                     Endpoint_ClearStatusStage();
 451:./tmk_core/protocol/lufa/lufa.c **** 
 452:./tmk_core/protocol/lufa/lufa.c ****                     keyboard_protocol = (USB_ControlRequest.wValue & 0xFF);
 453:./tmk_core/protocol/lufa/lufa.c ****                     clear_keyboard();
 454:./tmk_core/protocol/lufa/lufa.c ****                 }
 455:./tmk_core/protocol/lufa/lufa.c ****             }
 456:./tmk_core/protocol/lufa/lufa.c **** 
 457:./tmk_core/protocol/lufa/lufa.c ****             break;
 458:./tmk_core/protocol/lufa/lufa.c ****         case HID_REQ_SetIdle:
 459:./tmk_core/protocol/lufa/lufa.c ****             if (USB_ControlRequest.bmRequestType == (REQDIR_HOSTTODEVICE | REQTYPE_CLASS | REQREC_I
 460:./tmk_core/protocol/lufa/lufa.c ****             {
 461:./tmk_core/protocol/lufa/lufa.c ****                 Endpoint_ClearSETUP();
 462:./tmk_core/protocol/lufa/lufa.c ****                 Endpoint_ClearStatusStage();
 463:./tmk_core/protocol/lufa/lufa.c **** 
 464:./tmk_core/protocol/lufa/lufa.c ****                 keyboard_idle = ((USB_ControlRequest.wValue & 0xFF00) >> 8);
 465:./tmk_core/protocol/lufa/lufa.c ****             }
 466:./tmk_core/protocol/lufa/lufa.c **** 
 467:./tmk_core/protocol/lufa/lufa.c ****             break;
 468:./tmk_core/protocol/lufa/lufa.c ****         case HID_REQ_GetIdle:
 469:./tmk_core/protocol/lufa/lufa.c ****             if (USB_ControlRequest.bmRequestType == (REQDIR_DEVICETOHOST | REQTYPE_CLASS | REQREC_I
 470:./tmk_core/protocol/lufa/lufa.c ****             {
 471:./tmk_core/protocol/lufa/lufa.c ****                 Endpoint_ClearSETUP();
 472:./tmk_core/protocol/lufa/lufa.c ****                 while (!(Endpoint_IsINReady()));
 473:./tmk_core/protocol/lufa/lufa.c ****                 Endpoint_Write_8(keyboard_idle);
 474:./tmk_core/protocol/lufa/lufa.c ****                 Endpoint_ClearIN();
 475:./tmk_core/protocol/lufa/lufa.c ****                 Endpoint_ClearStatusStage();
 476:./tmk_core/protocol/lufa/lufa.c ****             }
 477:./tmk_core/protocol/lufa/lufa.c **** 
 478:./tmk_core/protocol/lufa/lufa.c ****             break;
 479:./tmk_core/protocol/lufa/lufa.c ****     }
 480:./tmk_core/protocol/lufa/lufa.c **** 
 481:./tmk_core/protocol/lufa/lufa.c **** #ifdef VIRTSER_ENABLE
 482:./tmk_core/protocol/lufa/lufa.c ****     CDC_Device_ProcessControlRequest(&cdc_device);
 483:./tmk_core/protocol/lufa/lufa.c **** #endif
 484:./tmk_core/protocol/lufa/lufa.c **** }
 485:./tmk_core/protocol/lufa/lufa.c **** 
 486:./tmk_core/protocol/lufa/lufa.c **** /*******************************************************************************
 487:./tmk_core/protocol/lufa/lufa.c ****  * Host driver
 488:./tmk_core/protocol/lufa/lufa.c **** p
 489:./tmk_core/protocol/lufa/lufa.c ****  ******************************************************************************/
 490:./tmk_core/protocol/lufa/lufa.c **** static uint8_t keyboard_leds(void)
 491:./tmk_core/protocol/lufa/lufa.c **** {
  15               		.loc 1 491 1 view -0
  16               		.cfi_startproc
  17               	/* prologue: function */
  18               	/* frame size = 0 */
  19               	/* stack size = 0 */
  20               	.L__stack_usage = 0
 492:./tmk_core/protocol/lufa/lufa.c ****     return keyboard_led_stats;
  21               		.loc 1 492 5 view .LVU1
 493:./tmk_core/protocol/lufa/lufa.c **** }
  22               		.loc 1 493 1 is_stmt 0 view .LVU2
  23 0000 8091 0000 		lds r24,keyboard_led_stats
  24               	/* epilogue start */
  25 0004 0895      		ret
  26               		.cfi_endproc
  27               	.LFE115:
  29               		.section	.text.send_consumer,"ax",@progbits
  31               	send_consumer:
  32               	.LVL0:
  33               	.LFB119:
 494:./tmk_core/protocol/lufa/lufa.c **** 
 495:./tmk_core/protocol/lufa/lufa.c **** static void send_keyboard(report_keyboard_t *report)
 496:./tmk_core/protocol/lufa/lufa.c **** {
 497:./tmk_core/protocol/lufa/lufa.c **** 
 498:./tmk_core/protocol/lufa/lufa.c **** #ifdef BLUETOOTH_ENABLE
 499:./tmk_core/protocol/lufa/lufa.c ****     bluefruit_serial_send(0xFD);
 500:./tmk_core/protocol/lufa/lufa.c ****     for (uint8_t i = 0; i < KEYBOARD_EPSIZE; i++) {
 501:./tmk_core/protocol/lufa/lufa.c ****         bluefruit_serial_send(report->raw[i]);
 502:./tmk_core/protocol/lufa/lufa.c ****     }
 503:./tmk_core/protocol/lufa/lufa.c **** #endif
 504:./tmk_core/protocol/lufa/lufa.c **** 
 505:./tmk_core/protocol/lufa/lufa.c ****     uint8_t timeout = 255;
 506:./tmk_core/protocol/lufa/lufa.c **** 
 507:./tmk_core/protocol/lufa/lufa.c ****     if (USB_DeviceState != DEVICE_STATE_Configured)
 508:./tmk_core/protocol/lufa/lufa.c ****         return;
 509:./tmk_core/protocol/lufa/lufa.c **** 
 510:./tmk_core/protocol/lufa/lufa.c ****     /* Select the Keyboard Report Endpoint */
 511:./tmk_core/protocol/lufa/lufa.c **** #ifdef NKRO_ENABLE
 512:./tmk_core/protocol/lufa/lufa.c ****     if (keyboard_protocol && keymap_config.nkro) {
 513:./tmk_core/protocol/lufa/lufa.c ****         /* Report protocol - NKRO */
 514:./tmk_core/protocol/lufa/lufa.c ****         Endpoint_SelectEndpoint(NKRO_IN_EPNUM);
 515:./tmk_core/protocol/lufa/lufa.c **** 
 516:./tmk_core/protocol/lufa/lufa.c ****         /* Check if write ready for a polling interval around 1ms */
 517:./tmk_core/protocol/lufa/lufa.c ****         while (timeout-- && !Endpoint_IsReadWriteAllowed()) _delay_us(4);
 518:./tmk_core/protocol/lufa/lufa.c ****         if (!Endpoint_IsReadWriteAllowed()) return;
 519:./tmk_core/protocol/lufa/lufa.c **** 
 520:./tmk_core/protocol/lufa/lufa.c ****         /* Write Keyboard Report Data */
 521:./tmk_core/protocol/lufa/lufa.c ****         Endpoint_Write_Stream_LE(report, NKRO_EPSIZE, NULL);
 522:./tmk_core/protocol/lufa/lufa.c ****     }
 523:./tmk_core/protocol/lufa/lufa.c ****     else
 524:./tmk_core/protocol/lufa/lufa.c **** #endif
 525:./tmk_core/protocol/lufa/lufa.c ****     {
 526:./tmk_core/protocol/lufa/lufa.c ****         /* Boot protocol */
 527:./tmk_core/protocol/lufa/lufa.c ****         Endpoint_SelectEndpoint(KEYBOARD_IN_EPNUM);
 528:./tmk_core/protocol/lufa/lufa.c **** 
 529:./tmk_core/protocol/lufa/lufa.c ****         /* Check if write ready for a polling interval around 10ms */
 530:./tmk_core/protocol/lufa/lufa.c ****         while (timeout-- && !Endpoint_IsReadWriteAllowed()) _delay_us(40);
 531:./tmk_core/protocol/lufa/lufa.c ****         if (!Endpoint_IsReadWriteAllowed()) return;
 532:./tmk_core/protocol/lufa/lufa.c **** 
 533:./tmk_core/protocol/lufa/lufa.c ****         /* Write Keyboard Report Data */
 534:./tmk_core/protocol/lufa/lufa.c ****         Endpoint_Write_Stream_LE(report, KEYBOARD_EPSIZE, NULL);
 535:./tmk_core/protocol/lufa/lufa.c ****     }
 536:./tmk_core/protocol/lufa/lufa.c **** 
 537:./tmk_core/protocol/lufa/lufa.c ****     /* Finalize the stream transfer to send the last packet */
 538:./tmk_core/protocol/lufa/lufa.c ****     Endpoint_ClearIN();
 539:./tmk_core/protocol/lufa/lufa.c **** 
 540:./tmk_core/protocol/lufa/lufa.c ****     keyboard_report_sent = *report;
 541:./tmk_core/protocol/lufa/lufa.c **** }
 542:./tmk_core/protocol/lufa/lufa.c **** 
 543:./tmk_core/protocol/lufa/lufa.c **** static void send_mouse(report_mouse_t *report)
 544:./tmk_core/protocol/lufa/lufa.c **** {
 545:./tmk_core/protocol/lufa/lufa.c **** #ifdef MOUSE_ENABLE
 546:./tmk_core/protocol/lufa/lufa.c **** 
 547:./tmk_core/protocol/lufa/lufa.c **** #ifdef BLUETOOTH_ENABLE
 548:./tmk_core/protocol/lufa/lufa.c ****     bluefruit_serial_send(0xFD);
 549:./tmk_core/protocol/lufa/lufa.c ****     bluefruit_serial_send(0x00);
 550:./tmk_core/protocol/lufa/lufa.c ****     bluefruit_serial_send(0x03);
 551:./tmk_core/protocol/lufa/lufa.c ****     bluefruit_serial_send(report->buttons);
 552:./tmk_core/protocol/lufa/lufa.c ****     bluefruit_serial_send(report->x);
 553:./tmk_core/protocol/lufa/lufa.c ****     bluefruit_serial_send(report->y);
 554:./tmk_core/protocol/lufa/lufa.c ****     bluefruit_serial_send(report->v); // should try sending the wheel v here
 555:./tmk_core/protocol/lufa/lufa.c ****     bluefruit_serial_send(report->h); // should try sending the wheel h here
 556:./tmk_core/protocol/lufa/lufa.c ****     bluefruit_serial_send(0x00);
 557:./tmk_core/protocol/lufa/lufa.c **** #endif
 558:./tmk_core/protocol/lufa/lufa.c **** 
 559:./tmk_core/protocol/lufa/lufa.c ****     uint8_t timeout = 255;
 560:./tmk_core/protocol/lufa/lufa.c **** 
 561:./tmk_core/protocol/lufa/lufa.c ****     if (USB_DeviceState != DEVICE_STATE_Configured)
 562:./tmk_core/protocol/lufa/lufa.c ****         return;
 563:./tmk_core/protocol/lufa/lufa.c **** 
 564:./tmk_core/protocol/lufa/lufa.c ****     /* Select the Mouse Report Endpoint */
 565:./tmk_core/protocol/lufa/lufa.c ****     Endpoint_SelectEndpoint(MOUSE_IN_EPNUM);
 566:./tmk_core/protocol/lufa/lufa.c **** 
 567:./tmk_core/protocol/lufa/lufa.c ****     /* Check if write ready for a polling interval around 10ms */
 568:./tmk_core/protocol/lufa/lufa.c ****     while (timeout-- && !Endpoint_IsReadWriteAllowed()) _delay_us(40);
 569:./tmk_core/protocol/lufa/lufa.c ****     if (!Endpoint_IsReadWriteAllowed()) return;
 570:./tmk_core/protocol/lufa/lufa.c **** 
 571:./tmk_core/protocol/lufa/lufa.c ****     /* Write Mouse Report Data */
 572:./tmk_core/protocol/lufa/lufa.c ****     Endpoint_Write_Stream_LE(report, sizeof(report_mouse_t), NULL);
 573:./tmk_core/protocol/lufa/lufa.c **** 
 574:./tmk_core/protocol/lufa/lufa.c ****     /* Finalize the stream transfer to send the last packet */
 575:./tmk_core/protocol/lufa/lufa.c ****     Endpoint_ClearIN();
 576:./tmk_core/protocol/lufa/lufa.c **** #endif
 577:./tmk_core/protocol/lufa/lufa.c **** }
 578:./tmk_core/protocol/lufa/lufa.c **** 
 579:./tmk_core/protocol/lufa/lufa.c **** static void send_system(uint16_t data)
 580:./tmk_core/protocol/lufa/lufa.c **** {
 581:./tmk_core/protocol/lufa/lufa.c ****     uint8_t timeout = 255;
 582:./tmk_core/protocol/lufa/lufa.c **** 
 583:./tmk_core/protocol/lufa/lufa.c ****     if (USB_DeviceState != DEVICE_STATE_Configured)
 584:./tmk_core/protocol/lufa/lufa.c ****         return;
 585:./tmk_core/protocol/lufa/lufa.c **** 
 586:./tmk_core/protocol/lufa/lufa.c ****     report_extra_t r = {
 587:./tmk_core/protocol/lufa/lufa.c ****         .report_id = REPORT_ID_SYSTEM,
 588:./tmk_core/protocol/lufa/lufa.c ****         .usage = data
 589:./tmk_core/protocol/lufa/lufa.c ****     };
 590:./tmk_core/protocol/lufa/lufa.c ****     Endpoint_SelectEndpoint(EXTRAKEY_IN_EPNUM);
 591:./tmk_core/protocol/lufa/lufa.c **** 
 592:./tmk_core/protocol/lufa/lufa.c ****     /* Check if write ready for a polling interval around 10ms */
 593:./tmk_core/protocol/lufa/lufa.c ****     while (timeout-- && !Endpoint_IsReadWriteAllowed()) _delay_us(40);
 594:./tmk_core/protocol/lufa/lufa.c ****     if (!Endpoint_IsReadWriteAllowed()) return;
 595:./tmk_core/protocol/lufa/lufa.c **** 
 596:./tmk_core/protocol/lufa/lufa.c ****     Endpoint_Write_Stream_LE(&r, sizeof(report_extra_t), NULL);
 597:./tmk_core/protocol/lufa/lufa.c ****     Endpoint_ClearIN();
 598:./tmk_core/protocol/lufa/lufa.c **** }
 599:./tmk_core/protocol/lufa/lufa.c **** 
 600:./tmk_core/protocol/lufa/lufa.c **** static void send_consumer(uint16_t data)
 601:./tmk_core/protocol/lufa/lufa.c **** {
  34               		.loc 1 601 1 is_stmt 1 view -0
  35               		.cfi_startproc
  36               		.loc 1 601 1 is_stmt 0 view .LVU4
  37 0000 CF93      		push r28
  38               	.LCFI0:
  39               		.cfi_def_cfa_offset 3
  40               		.cfi_offset 28, -2
  41 0002 DF93      		push r29
  42               	.LCFI1:
  43               		.cfi_def_cfa_offset 4
  44               		.cfi_offset 29, -3
  45 0004 00D0      		rcall .
  46 0006 0F92      		push __tmp_reg__
  47               	.LCFI2:
  48               		.cfi_def_cfa_offset 7
  49 0008 CDB7      		in r28,__SP_L__
  50 000a DEB7      		in r29,__SP_H__
  51               	.LCFI3:
  52               		.cfi_def_cfa_register 28
  53               	/* prologue: function */
  54               	/* frame size = 3 */
  55               	/* stack size = 5 */
  56               	.L__stack_usage = 5
  57 000c 9C01      		movw r18,r24
 602:./tmk_core/protocol/lufa/lufa.c **** 
 603:./tmk_core/protocol/lufa/lufa.c **** #ifdef BLUETOOTH_ENABLE
 604:./tmk_core/protocol/lufa/lufa.c ****     static uint16_t last_data = 0;
 605:./tmk_core/protocol/lufa/lufa.c ****     if (data == last_data) return;
 606:./tmk_core/protocol/lufa/lufa.c ****     last_data = data;
 607:./tmk_core/protocol/lufa/lufa.c ****     uint16_t bitmap = CONSUMER2BLUEFRUIT(data);
 608:./tmk_core/protocol/lufa/lufa.c ****     bluefruit_serial_send(0xFD);
 609:./tmk_core/protocol/lufa/lufa.c ****     bluefruit_serial_send(0x00);
 610:./tmk_core/protocol/lufa/lufa.c ****     bluefruit_serial_send(0x02);
 611:./tmk_core/protocol/lufa/lufa.c ****     bluefruit_serial_send((bitmap>>8)&0xFF);
 612:./tmk_core/protocol/lufa/lufa.c ****     bluefruit_serial_send(bitmap&0xFF);
 613:./tmk_core/protocol/lufa/lufa.c ****     bluefruit_serial_send(0x00);
 614:./tmk_core/protocol/lufa/lufa.c ****     bluefruit_serial_send(0x00);
 615:./tmk_core/protocol/lufa/lufa.c ****     bluefruit_serial_send(0x00);
 616:./tmk_core/protocol/lufa/lufa.c ****     bluefruit_serial_send(0x00);
 617:./tmk_core/protocol/lufa/lufa.c **** #endif
 618:./tmk_core/protocol/lufa/lufa.c **** 
 619:./tmk_core/protocol/lufa/lufa.c ****     uint8_t timeout = 255;
  58               		.loc 1 619 5 is_stmt 1 view .LVU5
  59               	.LVL1:
 620:./tmk_core/protocol/lufa/lufa.c **** 
 621:./tmk_core/protocol/lufa/lufa.c ****     if (USB_DeviceState != DEVICE_STATE_Configured)
  60               		.loc 1 621 5 view .LVU6
  61               		.loc 1 621 25 is_stmt 0 view .LVU7
  62 000e 8091 0000 		lds r24,USB_DeviceState
  63               	.LVL2:
  64               		.loc 1 621 8 view .LVU8
  65 0012 8430      		cpi r24,lo8(4)
  66 0014 01F4      		brne .L2
 622:./tmk_core/protocol/lufa/lufa.c ****         return;
 623:./tmk_core/protocol/lufa/lufa.c **** 
 624:./tmk_core/protocol/lufa/lufa.c ****     report_extra_t r = {
  67               		.loc 1 624 5 is_stmt 1 view .LVU9
  68               		.loc 1 624 20 is_stmt 0 view .LVU10
  69 0016 93E0      		ldi r25,lo8(3)
  70 0018 9983      		std Y+1,r25
  71 001a 3B83      		std Y+3,r19
  72 001c 2A83      		std Y+2,r18
 625:./tmk_core/protocol/lufa/lufa.c ****         .report_id = REPORT_ID_CONSUMER,
 626:./tmk_core/protocol/lufa/lufa.c ****         .usage = data
 627:./tmk_core/protocol/lufa/lufa.c ****     };
 628:./tmk_core/protocol/lufa/lufa.c ****     Endpoint_SelectEndpoint(EXTRAKEY_IN_EPNUM);
  73               		.loc 1 628 5 is_stmt 1 view .LVU11
  74               	.LVL3:
  75               	.LBB113:
  76               	.LBI113:
  77               		.file 2 "./tmk_core/protocol/lufa/LUFA-git/LUFA/Drivers/USB/Core/AVR8/../AVR8/Endpoint_AVR8.h"
   1:./tmk_core/protocol/lufa/LUFA-git/LUFA/Drivers/USB/Core/AVR8/../AVR8/Endpoint_AVR8.h **** /*
   2:./tmk_core/protocol/lufa/LUFA-git/LUFA/Drivers/USB/Core/AVR8/../AVR8/Endpoint_AVR8.h ****              LUFA Library
   3:./tmk_core/protocol/lufa/LUFA-git/LUFA/Drivers/USB/Core/AVR8/../AVR8/Endpoint_AVR8.h ****      Copyright (C) Dean Camera, 2014.
   4:./tmk_core/protocol/lufa/LUFA-git/LUFA/Drivers/USB/Core/AVR8/../AVR8/Endpoint_AVR8.h **** 
   5:./tmk_core/protocol/lufa/LUFA-git/LUFA/Drivers/USB/Core/AVR8/../AVR8/Endpoint_AVR8.h ****   dean [at] fourwalledcubicle [dot] com
   6:./tmk_core/protocol/lufa/LUFA-git/LUFA/Drivers/USB/Core/AVR8/../AVR8/Endpoint_AVR8.h ****            www.lufa-lib.org
   7:./tmk_core/protocol/lufa/LUFA-git/LUFA/Drivers/USB/Core/AVR8/../AVR8/Endpoint_AVR8.h **** */
   8:./tmk_core/protocol/lufa/LUFA-git/LUFA/Drivers/USB/Core/AVR8/../AVR8/Endpoint_AVR8.h **** 
   9:./tmk_core/protocol/lufa/LUFA-git/LUFA/Drivers/USB/Core/AVR8/../AVR8/Endpoint_AVR8.h **** /*
  10:./tmk_core/protocol/lufa/LUFA-git/LUFA/Drivers/USB/Core/AVR8/../AVR8/Endpoint_AVR8.h ****   Copyright 2014  Dean Camera (dean [at] fourwalledcubicle [dot] com)
  11:./tmk_core/protocol/lufa/LUFA-git/LUFA/Drivers/USB/Core/AVR8/../AVR8/Endpoint_AVR8.h **** 
  12:./tmk_core/protocol/lufa/LUFA-git/LUFA/Drivers/USB/Core/AVR8/../AVR8/Endpoint_AVR8.h ****   Permission to use, copy, modify, distribute, and sell this
  13:./tmk_core/protocol/lufa/LUFA-git/LUFA/Drivers/USB/Core/AVR8/../AVR8/Endpoint_AVR8.h ****   software and its documentation for any purpose is hereby granted
  14:./tmk_core/protocol/lufa/LUFA-git/LUFA/Drivers/USB/Core/AVR8/../AVR8/Endpoint_AVR8.h ****   without fee, provided that the above copyright notice appear in
  15:./tmk_core/protocol/lufa/LUFA-git/LUFA/Drivers/USB/Core/AVR8/../AVR8/Endpoint_AVR8.h ****   all copies and that both that the copyright notice and this
  16:./tmk_core/protocol/lufa/LUFA-git/LUFA/Drivers/USB/Core/AVR8/../AVR8/Endpoint_AVR8.h ****   permission notice and warranty disclaimer appear in supporting
  17:./tmk_core/protocol/lufa/LUFA-git/LUFA/Drivers/USB/Core/AVR8/../AVR8/Endpoint_AVR8.h ****   documentation, and that the name of the author not be used in
  18:./tmk_core/protocol/lufa/LUFA-git/LUFA/Drivers/USB/Core/AVR8/../AVR8/Endpoint_AVR8.h ****   advertising or publicity pertaining to distribution of the
  19:./tmk_core/protocol/lufa/LUFA-git/LUFA/Drivers/USB/Core/AVR8/../AVR8/Endpoint_AVR8.h ****   software without specific, written prior permission.
  20:./tmk_core/protocol/lufa/LUFA-git/LUFA/Drivers/USB/Core/AVR8/../AVR8/Endpoint_AVR8.h **** 
  21:./tmk_core/protocol/lufa/LUFA-git/LUFA/Drivers/USB/Core/AVR8/../AVR8/Endpoint_AVR8.h ****   The author disclaims all warranties with regard to this
  22:./tmk_core/protocol/lufa/LUFA-git/LUFA/Drivers/USB/Core/AVR8/../AVR8/Endpoint_AVR8.h ****   software, including all implied warranties of merchantability
  23:./tmk_core/protocol/lufa/LUFA-git/LUFA/Drivers/USB/Core/AVR8/../AVR8/Endpoint_AVR8.h ****   and fitness.  In no event shall the author be liable for any
  24:./tmk_core/protocol/lufa/LUFA-git/LUFA/Drivers/USB/Core/AVR8/../AVR8/Endpoint_AVR8.h ****   special, indirect or consequential damages or any damages
  25:./tmk_core/protocol/lufa/LUFA-git/LUFA/Drivers/USB/Core/AVR8/../AVR8/Endpoint_AVR8.h ****   whatsoever resulting from loss of use, data or profits, whether
  26:./tmk_core/protocol/lufa/LUFA-git/LUFA/Drivers/USB/Core/AVR8/../AVR8/Endpoint_AVR8.h ****   in an action of contract, negligence or other tortious action,
  27:./tmk_core/protocol/lufa/LUFA-git/LUFA/Drivers/USB/Core/AVR8/../AVR8/Endpoint_AVR8.h ****   arising out of or in connection with the use or performance of
  28:./tmk_core/protocol/lufa/LUFA-git/LUFA/Drivers/USB/Core/AVR8/../AVR8/Endpoint_AVR8.h ****   this software.
  29:./tmk_core/protocol/lufa/LUFA-git/LUFA/Drivers/USB/Core/AVR8/../AVR8/Endpoint_AVR8.h **** */
  30:./tmk_core/protocol/lufa/LUFA-git/LUFA/Drivers/USB/Core/AVR8/../AVR8/Endpoint_AVR8.h **** 
  31:./tmk_core/protocol/lufa/LUFA-git/LUFA/Drivers/USB/Core/AVR8/../AVR8/Endpoint_AVR8.h **** /** \file
  32:./tmk_core/protocol/lufa/LUFA-git/LUFA/Drivers/USB/Core/AVR8/../AVR8/Endpoint_AVR8.h ****  *  \brief USB Endpoint definitions for the AVR8 microcontrollers.
  33:./tmk_core/protocol/lufa/LUFA-git/LUFA/Drivers/USB/Core/AVR8/../AVR8/Endpoint_AVR8.h ****  *  \copydetails Group_EndpointManagement_AVR8
  34:./tmk_core/protocol/lufa/LUFA-git/LUFA/Drivers/USB/Core/AVR8/../AVR8/Endpoint_AVR8.h ****  *
  35:./tmk_core/protocol/lufa/LUFA-git/LUFA/Drivers/USB/Core/AVR8/../AVR8/Endpoint_AVR8.h ****  *  \note This file should not be included directly. It is automatically included as needed by the 
  36:./tmk_core/protocol/lufa/LUFA-git/LUFA/Drivers/USB/Core/AVR8/../AVR8/Endpoint_AVR8.h ****  *        dispatch header located in LUFA/Drivers/USB/USB.h.
  37:./tmk_core/protocol/lufa/LUFA-git/LUFA/Drivers/USB/Core/AVR8/../AVR8/Endpoint_AVR8.h ****  */
  38:./tmk_core/protocol/lufa/LUFA-git/LUFA/Drivers/USB/Core/AVR8/../AVR8/Endpoint_AVR8.h **** 
  39:./tmk_core/protocol/lufa/LUFA-git/LUFA/Drivers/USB/Core/AVR8/../AVR8/Endpoint_AVR8.h **** /** \ingroup Group_EndpointRW
  40:./tmk_core/protocol/lufa/LUFA-git/LUFA/Drivers/USB/Core/AVR8/../AVR8/Endpoint_AVR8.h ****  *  \defgroup Group_EndpointRW_AVR8 Endpoint Data Reading and Writing (AVR8)
  41:./tmk_core/protocol/lufa/LUFA-git/LUFA/Drivers/USB/Core/AVR8/../AVR8/Endpoint_AVR8.h ****  *  \brief Endpoint data read/write definitions for the Atmel AVR8 architecture.
  42:./tmk_core/protocol/lufa/LUFA-git/LUFA/Drivers/USB/Core/AVR8/../AVR8/Endpoint_AVR8.h ****  *
  43:./tmk_core/protocol/lufa/LUFA-git/LUFA/Drivers/USB/Core/AVR8/../AVR8/Endpoint_AVR8.h ****  *  Functions, macros, variables, enums and types related to data reading and writing from and to e
  44:./tmk_core/protocol/lufa/LUFA-git/LUFA/Drivers/USB/Core/AVR8/../AVR8/Endpoint_AVR8.h ****  */
  45:./tmk_core/protocol/lufa/LUFA-git/LUFA/Drivers/USB/Core/AVR8/../AVR8/Endpoint_AVR8.h **** 
  46:./tmk_core/protocol/lufa/LUFA-git/LUFA/Drivers/USB/Core/AVR8/../AVR8/Endpoint_AVR8.h **** /** \ingroup Group_EndpointPrimitiveRW
  47:./tmk_core/protocol/lufa/LUFA-git/LUFA/Drivers/USB/Core/AVR8/../AVR8/Endpoint_AVR8.h ****  *  \defgroup Group_EndpointPrimitiveRW_AVR8 Read/Write of Primitive Data Types (AVR8)
  48:./tmk_core/protocol/lufa/LUFA-git/LUFA/Drivers/USB/Core/AVR8/../AVR8/Endpoint_AVR8.h ****  *  \brief Endpoint primitive read/write definitions for the Atmel AVR8 architecture.
  49:./tmk_core/protocol/lufa/LUFA-git/LUFA/Drivers/USB/Core/AVR8/../AVR8/Endpoint_AVR8.h ****  *
  50:./tmk_core/protocol/lufa/LUFA-git/LUFA/Drivers/USB/Core/AVR8/../AVR8/Endpoint_AVR8.h ****  *  Functions, macros, variables, enums and types related to data reading and writing of primitive 
  51:./tmk_core/protocol/lufa/LUFA-git/LUFA/Drivers/USB/Core/AVR8/../AVR8/Endpoint_AVR8.h ****  *  from and to endpoints.
  52:./tmk_core/protocol/lufa/LUFA-git/LUFA/Drivers/USB/Core/AVR8/../AVR8/Endpoint_AVR8.h ****  */
  53:./tmk_core/protocol/lufa/LUFA-git/LUFA/Drivers/USB/Core/AVR8/../AVR8/Endpoint_AVR8.h **** 
  54:./tmk_core/protocol/lufa/LUFA-git/LUFA/Drivers/USB/Core/AVR8/../AVR8/Endpoint_AVR8.h **** /** \ingroup Group_EndpointPacketManagement
  55:./tmk_core/protocol/lufa/LUFA-git/LUFA/Drivers/USB/Core/AVR8/../AVR8/Endpoint_AVR8.h ****  *  \defgroup Group_EndpointPacketManagement_AVR8 Endpoint Packet Management (AVR8)
  56:./tmk_core/protocol/lufa/LUFA-git/LUFA/Drivers/USB/Core/AVR8/../AVR8/Endpoint_AVR8.h ****  *  \brief Endpoint packet management definitions for the Atmel AVR8 architecture.
  57:./tmk_core/protocol/lufa/LUFA-git/LUFA/Drivers/USB/Core/AVR8/../AVR8/Endpoint_AVR8.h ****  *
  58:./tmk_core/protocol/lufa/LUFA-git/LUFA/Drivers/USB/Core/AVR8/../AVR8/Endpoint_AVR8.h ****  *  Functions, macros, variables, enums and types related to packet management of endpoints.
  59:./tmk_core/protocol/lufa/LUFA-git/LUFA/Drivers/USB/Core/AVR8/../AVR8/Endpoint_AVR8.h ****  */
  60:./tmk_core/protocol/lufa/LUFA-git/LUFA/Drivers/USB/Core/AVR8/../AVR8/Endpoint_AVR8.h **** 
  61:./tmk_core/protocol/lufa/LUFA-git/LUFA/Drivers/USB/Core/AVR8/../AVR8/Endpoint_AVR8.h **** /** \ingroup Group_EndpointManagement
  62:./tmk_core/protocol/lufa/LUFA-git/LUFA/Drivers/USB/Core/AVR8/../AVR8/Endpoint_AVR8.h ****  *  \defgroup Group_EndpointManagement_AVR8 Endpoint Management (AVR8)
  63:./tmk_core/protocol/lufa/LUFA-git/LUFA/Drivers/USB/Core/AVR8/../AVR8/Endpoint_AVR8.h ****  *  \brief Endpoint management definitions for the Atmel AVR8 architecture.
  64:./tmk_core/protocol/lufa/LUFA-git/LUFA/Drivers/USB/Core/AVR8/../AVR8/Endpoint_AVR8.h ****  *
  65:./tmk_core/protocol/lufa/LUFA-git/LUFA/Drivers/USB/Core/AVR8/../AVR8/Endpoint_AVR8.h ****  *  Functions, macros and enums related to endpoint management when in USB Device mode. This
  66:./tmk_core/protocol/lufa/LUFA-git/LUFA/Drivers/USB/Core/AVR8/../AVR8/Endpoint_AVR8.h ****  *  module contains the endpoint management macros, as well as endpoint interrupt and data
  67:./tmk_core/protocol/lufa/LUFA-git/LUFA/Drivers/USB/Core/AVR8/../AVR8/Endpoint_AVR8.h ****  *  send/receive functions for various data types.
  68:./tmk_core/protocol/lufa/LUFA-git/LUFA/Drivers/USB/Core/AVR8/../AVR8/Endpoint_AVR8.h ****  *
  69:./tmk_core/protocol/lufa/LUFA-git/LUFA/Drivers/USB/Core/AVR8/../AVR8/Endpoint_AVR8.h ****  *  @{
  70:./tmk_core/protocol/lufa/LUFA-git/LUFA/Drivers/USB/Core/AVR8/../AVR8/Endpoint_AVR8.h ****  */
  71:./tmk_core/protocol/lufa/LUFA-git/LUFA/Drivers/USB/Core/AVR8/../AVR8/Endpoint_AVR8.h **** 
  72:./tmk_core/protocol/lufa/LUFA-git/LUFA/Drivers/USB/Core/AVR8/../AVR8/Endpoint_AVR8.h **** #ifndef __ENDPOINT_AVR8_H__
  73:./tmk_core/protocol/lufa/LUFA-git/LUFA/Drivers/USB/Core/AVR8/../AVR8/Endpoint_AVR8.h **** #define __ENDPOINT_AVR8_H__
  74:./tmk_core/protocol/lufa/LUFA-git/LUFA/Drivers/USB/Core/AVR8/../AVR8/Endpoint_AVR8.h **** 
  75:./tmk_core/protocol/lufa/LUFA-git/LUFA/Drivers/USB/Core/AVR8/../AVR8/Endpoint_AVR8.h **** 	/* Includes: */
  76:./tmk_core/protocol/lufa/LUFA-git/LUFA/Drivers/USB/Core/AVR8/../AVR8/Endpoint_AVR8.h **** 		#include "../../../../Common/Common.h"
  77:./tmk_core/protocol/lufa/LUFA-git/LUFA/Drivers/USB/Core/AVR8/../AVR8/Endpoint_AVR8.h **** 		#include "../USBTask.h"
  78:./tmk_core/protocol/lufa/LUFA-git/LUFA/Drivers/USB/Core/AVR8/../AVR8/Endpoint_AVR8.h **** 		#include "../USBInterrupt.h"
  79:./tmk_core/protocol/lufa/LUFA-git/LUFA/Drivers/USB/Core/AVR8/../AVR8/Endpoint_AVR8.h **** 
  80:./tmk_core/protocol/lufa/LUFA-git/LUFA/Drivers/USB/Core/AVR8/../AVR8/Endpoint_AVR8.h **** 	/* Enable C linkage for C++ Compilers: */
  81:./tmk_core/protocol/lufa/LUFA-git/LUFA/Drivers/USB/Core/AVR8/../AVR8/Endpoint_AVR8.h **** 		#if defined(__cplusplus)
  82:./tmk_core/protocol/lufa/LUFA-git/LUFA/Drivers/USB/Core/AVR8/../AVR8/Endpoint_AVR8.h **** 			extern "C" {
  83:./tmk_core/protocol/lufa/LUFA-git/LUFA/Drivers/USB/Core/AVR8/../AVR8/Endpoint_AVR8.h **** 		#endif
  84:./tmk_core/protocol/lufa/LUFA-git/LUFA/Drivers/USB/Core/AVR8/../AVR8/Endpoint_AVR8.h **** 
  85:./tmk_core/protocol/lufa/LUFA-git/LUFA/Drivers/USB/Core/AVR8/../AVR8/Endpoint_AVR8.h **** 	/* Preprocessor Checks: */
  86:./tmk_core/protocol/lufa/LUFA-git/LUFA/Drivers/USB/Core/AVR8/../AVR8/Endpoint_AVR8.h **** 		#if !defined(__INCLUDE_FROM_USB_DRIVER)
  87:./tmk_core/protocol/lufa/LUFA-git/LUFA/Drivers/USB/Core/AVR8/../AVR8/Endpoint_AVR8.h **** 			#error Do not include this file directly. Include LUFA/Drivers/USB/USB.h instead.
  88:./tmk_core/protocol/lufa/LUFA-git/LUFA/Drivers/USB/Core/AVR8/../AVR8/Endpoint_AVR8.h **** 		#endif
  89:./tmk_core/protocol/lufa/LUFA-git/LUFA/Drivers/USB/Core/AVR8/../AVR8/Endpoint_AVR8.h **** 
  90:./tmk_core/protocol/lufa/LUFA-git/LUFA/Drivers/USB/Core/AVR8/../AVR8/Endpoint_AVR8.h **** 	/* Private Interface - For use in library only: */
  91:./tmk_core/protocol/lufa/LUFA-git/LUFA/Drivers/USB/Core/AVR8/../AVR8/Endpoint_AVR8.h **** 	#if !defined(__DOXYGEN__)
  92:./tmk_core/protocol/lufa/LUFA-git/LUFA/Drivers/USB/Core/AVR8/../AVR8/Endpoint_AVR8.h **** 		/* Inline Functions: */
  93:./tmk_core/protocol/lufa/LUFA-git/LUFA/Drivers/USB/Core/AVR8/../AVR8/Endpoint_AVR8.h **** 			static inline uint8_t Endpoint_BytesToEPSizeMask(const uint16_t Bytes) ATTR_WARN_UNUSED_RESULT A
  94:./tmk_core/protocol/lufa/LUFA-git/LUFA/Drivers/USB/Core/AVR8/../AVR8/Endpoint_AVR8.h **** 			                                                                       ATTR_ALWAYS_INLINE;
  95:./tmk_core/protocol/lufa/LUFA-git/LUFA/Drivers/USB/Core/AVR8/../AVR8/Endpoint_AVR8.h **** 			static inline uint8_t Endpoint_BytesToEPSizeMask(const uint16_t Bytes)
  96:./tmk_core/protocol/lufa/LUFA-git/LUFA/Drivers/USB/Core/AVR8/../AVR8/Endpoint_AVR8.h **** 			{
  97:./tmk_core/protocol/lufa/LUFA-git/LUFA/Drivers/USB/Core/AVR8/../AVR8/Endpoint_AVR8.h **** 				uint8_t  MaskVal    = 0;
  98:./tmk_core/protocol/lufa/LUFA-git/LUFA/Drivers/USB/Core/AVR8/../AVR8/Endpoint_AVR8.h **** 				uint16_t CheckBytes = 8;
  99:./tmk_core/protocol/lufa/LUFA-git/LUFA/Drivers/USB/Core/AVR8/../AVR8/Endpoint_AVR8.h **** 
 100:./tmk_core/protocol/lufa/LUFA-git/LUFA/Drivers/USB/Core/AVR8/../AVR8/Endpoint_AVR8.h **** 				while (CheckBytes < Bytes)
 101:./tmk_core/protocol/lufa/LUFA-git/LUFA/Drivers/USB/Core/AVR8/../AVR8/Endpoint_AVR8.h **** 				{
 102:./tmk_core/protocol/lufa/LUFA-git/LUFA/Drivers/USB/Core/AVR8/../AVR8/Endpoint_AVR8.h **** 					MaskVal++;
 103:./tmk_core/protocol/lufa/LUFA-git/LUFA/Drivers/USB/Core/AVR8/../AVR8/Endpoint_AVR8.h **** 					CheckBytes <<= 1;
 104:./tmk_core/protocol/lufa/LUFA-git/LUFA/Drivers/USB/Core/AVR8/../AVR8/Endpoint_AVR8.h **** 				}
 105:./tmk_core/protocol/lufa/LUFA-git/LUFA/Drivers/USB/Core/AVR8/../AVR8/Endpoint_AVR8.h **** 
 106:./tmk_core/protocol/lufa/LUFA-git/LUFA/Drivers/USB/Core/AVR8/../AVR8/Endpoint_AVR8.h **** 				return (MaskVal << EPSIZE0);
 107:./tmk_core/protocol/lufa/LUFA-git/LUFA/Drivers/USB/Core/AVR8/../AVR8/Endpoint_AVR8.h **** 			}
 108:./tmk_core/protocol/lufa/LUFA-git/LUFA/Drivers/USB/Core/AVR8/../AVR8/Endpoint_AVR8.h **** 
 109:./tmk_core/protocol/lufa/LUFA-git/LUFA/Drivers/USB/Core/AVR8/../AVR8/Endpoint_AVR8.h **** 		/* Function Prototypes: */
 110:./tmk_core/protocol/lufa/LUFA-git/LUFA/Drivers/USB/Core/AVR8/../AVR8/Endpoint_AVR8.h **** 			void Endpoint_ClearEndpoints(void);
 111:./tmk_core/protocol/lufa/LUFA-git/LUFA/Drivers/USB/Core/AVR8/../AVR8/Endpoint_AVR8.h **** 			bool Endpoint_ConfigureEndpoint_Prv(const uint8_t Number,
 112:./tmk_core/protocol/lufa/LUFA-git/LUFA/Drivers/USB/Core/AVR8/../AVR8/Endpoint_AVR8.h **** 			                                    const uint8_t UECFG0XData,
 113:./tmk_core/protocol/lufa/LUFA-git/LUFA/Drivers/USB/Core/AVR8/../AVR8/Endpoint_AVR8.h **** 			                                    const uint8_t UECFG1XData);
 114:./tmk_core/protocol/lufa/LUFA-git/LUFA/Drivers/USB/Core/AVR8/../AVR8/Endpoint_AVR8.h **** 
 115:./tmk_core/protocol/lufa/LUFA-git/LUFA/Drivers/USB/Core/AVR8/../AVR8/Endpoint_AVR8.h **** 	#endif
 116:./tmk_core/protocol/lufa/LUFA-git/LUFA/Drivers/USB/Core/AVR8/../AVR8/Endpoint_AVR8.h **** 
 117:./tmk_core/protocol/lufa/LUFA-git/LUFA/Drivers/USB/Core/AVR8/../AVR8/Endpoint_AVR8.h **** 	/* Public Interface - May be used in end-application: */
 118:./tmk_core/protocol/lufa/LUFA-git/LUFA/Drivers/USB/Core/AVR8/../AVR8/Endpoint_AVR8.h **** 		/* Macros: */
 119:./tmk_core/protocol/lufa/LUFA-git/LUFA/Drivers/USB/Core/AVR8/../AVR8/Endpoint_AVR8.h **** 			#if (!defined(FIXED_CONTROL_ENDPOINT_SIZE) || defined(__DOXYGEN__))
 120:./tmk_core/protocol/lufa/LUFA-git/LUFA/Drivers/USB/Core/AVR8/../AVR8/Endpoint_AVR8.h **** 				/** Default size of the default control endpoint's bank, until altered by the control endpoint 
 121:./tmk_core/protocol/lufa/LUFA-git/LUFA/Drivers/USB/Core/AVR8/../AVR8/Endpoint_AVR8.h **** 				 *  value in the device descriptor. Not available if the \c FIXED_CONTROL_ENDPOINT_SIZE token i
 122:./tmk_core/protocol/lufa/LUFA-git/LUFA/Drivers/USB/Core/AVR8/../AVR8/Endpoint_AVR8.h **** 				 */
 123:./tmk_core/protocol/lufa/LUFA-git/LUFA/Drivers/USB/Core/AVR8/../AVR8/Endpoint_AVR8.h **** 				#define ENDPOINT_CONTROLEP_DEFAULT_SIZE     8
 124:./tmk_core/protocol/lufa/LUFA-git/LUFA/Drivers/USB/Core/AVR8/../AVR8/Endpoint_AVR8.h **** 			#endif
 125:./tmk_core/protocol/lufa/LUFA-git/LUFA/Drivers/USB/Core/AVR8/../AVR8/Endpoint_AVR8.h **** 
 126:./tmk_core/protocol/lufa/LUFA-git/LUFA/Drivers/USB/Core/AVR8/../AVR8/Endpoint_AVR8.h **** 			#if !defined(CONTROL_ONLY_DEVICE) || defined(__DOXYGEN__)
 127:./tmk_core/protocol/lufa/LUFA-git/LUFA/Drivers/USB/Core/AVR8/../AVR8/Endpoint_AVR8.h **** 				#if defined(USB_SERIES_4_AVR) || defined(USB_SERIES_6_AVR) || defined(USB_SERIES_7_AVR) || defi
 128:./tmk_core/protocol/lufa/LUFA-git/LUFA/Drivers/USB/Core/AVR8/../AVR8/Endpoint_AVR8.h **** 					/** Total number of endpoints (including the default control endpoint at address 0) which may
 129:./tmk_core/protocol/lufa/LUFA-git/LUFA/Drivers/USB/Core/AVR8/../AVR8/Endpoint_AVR8.h **** 					 *  be used in the device. Different USB AVR models support different amounts of endpoints,
 130:./tmk_core/protocol/lufa/LUFA-git/LUFA/Drivers/USB/Core/AVR8/../AVR8/Endpoint_AVR8.h **** 					 *  this value reflects the maximum number of endpoints for the currently selected AVR model.
 131:./tmk_core/protocol/lufa/LUFA-git/LUFA/Drivers/USB/Core/AVR8/../AVR8/Endpoint_AVR8.h **** 					 */
 132:./tmk_core/protocol/lufa/LUFA-git/LUFA/Drivers/USB/Core/AVR8/../AVR8/Endpoint_AVR8.h **** 					#define ENDPOINT_TOTAL_ENDPOINTS        7
 133:./tmk_core/protocol/lufa/LUFA-git/LUFA/Drivers/USB/Core/AVR8/../AVR8/Endpoint_AVR8.h **** 				#else
 134:./tmk_core/protocol/lufa/LUFA-git/LUFA/Drivers/USB/Core/AVR8/../AVR8/Endpoint_AVR8.h **** 					#define ENDPOINT_TOTAL_ENDPOINTS        5
 135:./tmk_core/protocol/lufa/LUFA-git/LUFA/Drivers/USB/Core/AVR8/../AVR8/Endpoint_AVR8.h **** 				#endif
 136:./tmk_core/protocol/lufa/LUFA-git/LUFA/Drivers/USB/Core/AVR8/../AVR8/Endpoint_AVR8.h **** 			#else
 137:./tmk_core/protocol/lufa/LUFA-git/LUFA/Drivers/USB/Core/AVR8/../AVR8/Endpoint_AVR8.h **** 				#define ENDPOINT_TOTAL_ENDPOINTS            1
 138:./tmk_core/protocol/lufa/LUFA-git/LUFA/Drivers/USB/Core/AVR8/../AVR8/Endpoint_AVR8.h **** 			#endif
 139:./tmk_core/protocol/lufa/LUFA-git/LUFA/Drivers/USB/Core/AVR8/../AVR8/Endpoint_AVR8.h **** 
 140:./tmk_core/protocol/lufa/LUFA-git/LUFA/Drivers/USB/Core/AVR8/../AVR8/Endpoint_AVR8.h **** 		/* Enums: */
 141:./tmk_core/protocol/lufa/LUFA-git/LUFA/Drivers/USB/Core/AVR8/../AVR8/Endpoint_AVR8.h **** 			/** Enum for the possible error return codes of the \ref Endpoint_WaitUntilReady() function.
 142:./tmk_core/protocol/lufa/LUFA-git/LUFA/Drivers/USB/Core/AVR8/../AVR8/Endpoint_AVR8.h **** 			 *
 143:./tmk_core/protocol/lufa/LUFA-git/LUFA/Drivers/USB/Core/AVR8/../AVR8/Endpoint_AVR8.h **** 			 *  \ingroup Group_EndpointRW_AVR8
 144:./tmk_core/protocol/lufa/LUFA-git/LUFA/Drivers/USB/Core/AVR8/../AVR8/Endpoint_AVR8.h **** 			 */
 145:./tmk_core/protocol/lufa/LUFA-git/LUFA/Drivers/USB/Core/AVR8/../AVR8/Endpoint_AVR8.h **** 			enum Endpoint_WaitUntilReady_ErrorCodes_t
 146:./tmk_core/protocol/lufa/LUFA-git/LUFA/Drivers/USB/Core/AVR8/../AVR8/Endpoint_AVR8.h **** 			{
 147:./tmk_core/protocol/lufa/LUFA-git/LUFA/Drivers/USB/Core/AVR8/../AVR8/Endpoint_AVR8.h **** 				ENDPOINT_READYWAIT_NoError                 = 0, /**< Endpoint is ready for next packet, no erro
 148:./tmk_core/protocol/lufa/LUFA-git/LUFA/Drivers/USB/Core/AVR8/../AVR8/Endpoint_AVR8.h **** 				ENDPOINT_READYWAIT_EndpointStalled         = 1, /**< The endpoint was stalled during the stream
 149:./tmk_core/protocol/lufa/LUFA-git/LUFA/Drivers/USB/Core/AVR8/../AVR8/Endpoint_AVR8.h **** 				                                                 *   transfer by the host or device.
 150:./tmk_core/protocol/lufa/LUFA-git/LUFA/Drivers/USB/Core/AVR8/../AVR8/Endpoint_AVR8.h **** 				                                                 */
 151:./tmk_core/protocol/lufa/LUFA-git/LUFA/Drivers/USB/Core/AVR8/../AVR8/Endpoint_AVR8.h **** 				ENDPOINT_READYWAIT_DeviceDisconnected      = 2,	/**< Device was disconnected from the host whil
 152:./tmk_core/protocol/lufa/LUFA-git/LUFA/Drivers/USB/Core/AVR8/../AVR8/Endpoint_AVR8.h **** 				                                                 *   waiting for the endpoint to become ready.
 153:./tmk_core/protocol/lufa/LUFA-git/LUFA/Drivers/USB/Core/AVR8/../AVR8/Endpoint_AVR8.h **** 				                                                 */
 154:./tmk_core/protocol/lufa/LUFA-git/LUFA/Drivers/USB/Core/AVR8/../AVR8/Endpoint_AVR8.h **** 				ENDPOINT_READYWAIT_BusSuspended            = 3, /**< The USB bus has been suspended by the host
 155:./tmk_core/protocol/lufa/LUFA-git/LUFA/Drivers/USB/Core/AVR8/../AVR8/Endpoint_AVR8.h **** 				                                                 *   no USB endpoint traffic can occur until th
 156:./tmk_core/protocol/lufa/LUFA-git/LUFA/Drivers/USB/Core/AVR8/../AVR8/Endpoint_AVR8.h **** 				                                                 *   has resumed.
 157:./tmk_core/protocol/lufa/LUFA-git/LUFA/Drivers/USB/Core/AVR8/../AVR8/Endpoint_AVR8.h **** 				                                                 */
 158:./tmk_core/protocol/lufa/LUFA-git/LUFA/Drivers/USB/Core/AVR8/../AVR8/Endpoint_AVR8.h **** 				ENDPOINT_READYWAIT_Timeout                 = 4, /**< The host failed to accept or send the next
 159:./tmk_core/protocol/lufa/LUFA-git/LUFA/Drivers/USB/Core/AVR8/../AVR8/Endpoint_AVR8.h **** 				                                                 *   within the software timeout period set by 
 160:./tmk_core/protocol/lufa/LUFA-git/LUFA/Drivers/USB/Core/AVR8/../AVR8/Endpoint_AVR8.h **** 				                                                 *   \ref USB_STREAM_TIMEOUT_MS macro.
 161:./tmk_core/protocol/lufa/LUFA-git/LUFA/Drivers/USB/Core/AVR8/../AVR8/Endpoint_AVR8.h **** 				                                                 */
 162:./tmk_core/protocol/lufa/LUFA-git/LUFA/Drivers/USB/Core/AVR8/../AVR8/Endpoint_AVR8.h **** 			};
 163:./tmk_core/protocol/lufa/LUFA-git/LUFA/Drivers/USB/Core/AVR8/../AVR8/Endpoint_AVR8.h **** 
 164:./tmk_core/protocol/lufa/LUFA-git/LUFA/Drivers/USB/Core/AVR8/../AVR8/Endpoint_AVR8.h **** 		/* Inline Functions: */
 165:./tmk_core/protocol/lufa/LUFA-git/LUFA/Drivers/USB/Core/AVR8/../AVR8/Endpoint_AVR8.h **** 			/** Configures the specified endpoint address with the given endpoint type, bank size and number
 166:./tmk_core/protocol/lufa/LUFA-git/LUFA/Drivers/USB/Core/AVR8/../AVR8/Endpoint_AVR8.h **** 			 *  banks. Once configured, the endpoint may be read from or written to, depending on its direct
 167:./tmk_core/protocol/lufa/LUFA-git/LUFA/Drivers/USB/Core/AVR8/../AVR8/Endpoint_AVR8.h **** 			 *
 168:./tmk_core/protocol/lufa/LUFA-git/LUFA/Drivers/USB/Core/AVR8/../AVR8/Endpoint_AVR8.h **** 			 *  \param[in] Address    Endpoint address to configure.
 169:./tmk_core/protocol/lufa/LUFA-git/LUFA/Drivers/USB/Core/AVR8/../AVR8/Endpoint_AVR8.h **** 			 *
 170:./tmk_core/protocol/lufa/LUFA-git/LUFA/Drivers/USB/Core/AVR8/../AVR8/Endpoint_AVR8.h **** 			 *  \param[in] Type       Type of endpoint to configure, a \c EP_TYPE_* mask. Not all endpoint t
 171:./tmk_core/protocol/lufa/LUFA-git/LUFA/Drivers/USB/Core/AVR8/../AVR8/Endpoint_AVR8.h **** 			 *                        are available on Low Speed USB devices - refer to the USB 2.0 specific
 172:./tmk_core/protocol/lufa/LUFA-git/LUFA/Drivers/USB/Core/AVR8/../AVR8/Endpoint_AVR8.h **** 			 *
 173:./tmk_core/protocol/lufa/LUFA-git/LUFA/Drivers/USB/Core/AVR8/../AVR8/Endpoint_AVR8.h **** 			 *  \param[in] Size       Size of the endpoint's bank, where packets are stored before they are 
 174:./tmk_core/protocol/lufa/LUFA-git/LUFA/Drivers/USB/Core/AVR8/../AVR8/Endpoint_AVR8.h **** 			 *                        to the USB host, or after they have been received from the USB host (d
 175:./tmk_core/protocol/lufa/LUFA-git/LUFA/Drivers/USB/Core/AVR8/../AVR8/Endpoint_AVR8.h **** 			 *                        the endpoint's data direction). The bank size must indicate the maximu
 176:./tmk_core/protocol/lufa/LUFA-git/LUFA/Drivers/USB/Core/AVR8/../AVR8/Endpoint_AVR8.h **** 			 *                        that the endpoint can handle.
 177:./tmk_core/protocol/lufa/LUFA-git/LUFA/Drivers/USB/Core/AVR8/../AVR8/Endpoint_AVR8.h **** 			 *
 178:./tmk_core/protocol/lufa/LUFA-git/LUFA/Drivers/USB/Core/AVR8/../AVR8/Endpoint_AVR8.h **** 			 *  \param[in] Banks      Number of banks to use for the endpoint being configured.
 179:./tmk_core/protocol/lufa/LUFA-git/LUFA/Drivers/USB/Core/AVR8/../AVR8/Endpoint_AVR8.h **** 			 *
 180:./tmk_core/protocol/lufa/LUFA-git/LUFA/Drivers/USB/Core/AVR8/../AVR8/Endpoint_AVR8.h **** 			 *  \attention When the \c ORDERED_EP_CONFIG compile time option is used, Endpoints <b>must</b> 
 181:./tmk_core/protocol/lufa/LUFA-git/LUFA/Drivers/USB/Core/AVR8/../AVR8/Endpoint_AVR8.h **** 			 *             ascending order, or bank corruption will occur.
 182:./tmk_core/protocol/lufa/LUFA-git/LUFA/Drivers/USB/Core/AVR8/../AVR8/Endpoint_AVR8.h **** 			 *
 183:./tmk_core/protocol/lufa/LUFA-git/LUFA/Drivers/USB/Core/AVR8/../AVR8/Endpoint_AVR8.h **** 			 *  \note Different endpoints may have different maximum packet sizes based on the endpoint's in
 184:./tmk_core/protocol/lufa/LUFA-git/LUFA/Drivers/USB/Core/AVR8/../AVR8/Endpoint_AVR8.h **** 			 *        refer to the chosen microcontroller model's datasheet to determine the maximum bank si
 185:./tmk_core/protocol/lufa/LUFA-git/LUFA/Drivers/USB/Core/AVR8/../AVR8/Endpoint_AVR8.h **** 			 *        \n\n
 186:./tmk_core/protocol/lufa/LUFA-git/LUFA/Drivers/USB/Core/AVR8/../AVR8/Endpoint_AVR8.h **** 			 *
 187:./tmk_core/protocol/lufa/LUFA-git/LUFA/Drivers/USB/Core/AVR8/../AVR8/Endpoint_AVR8.h **** 			 *  \note The default control endpoint should not be manually configured by the user application
 188:./tmk_core/protocol/lufa/LUFA-git/LUFA/Drivers/USB/Core/AVR8/../AVR8/Endpoint_AVR8.h **** 			 *        it is automatically configured by the library internally.
 189:./tmk_core/protocol/lufa/LUFA-git/LUFA/Drivers/USB/Core/AVR8/../AVR8/Endpoint_AVR8.h **** 			 *        \n\n
 190:./tmk_core/protocol/lufa/LUFA-git/LUFA/Drivers/USB/Core/AVR8/../AVR8/Endpoint_AVR8.h **** 			 *
 191:./tmk_core/protocol/lufa/LUFA-git/LUFA/Drivers/USB/Core/AVR8/../AVR8/Endpoint_AVR8.h **** 			 *  \note This routine will automatically select the specified endpoint upon success. Upon failu
 192:./tmk_core/protocol/lufa/LUFA-git/LUFA/Drivers/USB/Core/AVR8/../AVR8/Endpoint_AVR8.h **** 			 *        which failed to reconfigure correctly will be selected.
 193:./tmk_core/protocol/lufa/LUFA-git/LUFA/Drivers/USB/Core/AVR8/../AVR8/Endpoint_AVR8.h **** 			 *
 194:./tmk_core/protocol/lufa/LUFA-git/LUFA/Drivers/USB/Core/AVR8/../AVR8/Endpoint_AVR8.h **** 			 *  \return Boolean \c true if the configuration succeeded, \c false otherwise.
 195:./tmk_core/protocol/lufa/LUFA-git/LUFA/Drivers/USB/Core/AVR8/../AVR8/Endpoint_AVR8.h **** 			 */
 196:./tmk_core/protocol/lufa/LUFA-git/LUFA/Drivers/USB/Core/AVR8/../AVR8/Endpoint_AVR8.h **** 			static inline bool Endpoint_ConfigureEndpoint(const uint8_t Address,
 197:./tmk_core/protocol/lufa/LUFA-git/LUFA/Drivers/USB/Core/AVR8/../AVR8/Endpoint_AVR8.h **** 			                                              const uint8_t Type,
 198:./tmk_core/protocol/lufa/LUFA-git/LUFA/Drivers/USB/Core/AVR8/../AVR8/Endpoint_AVR8.h **** 			                                              const uint16_t Size,
 199:./tmk_core/protocol/lufa/LUFA-git/LUFA/Drivers/USB/Core/AVR8/../AVR8/Endpoint_AVR8.h **** 			                                              const uint8_t Banks) ATTR_ALWAYS_INLINE;
 200:./tmk_core/protocol/lufa/LUFA-git/LUFA/Drivers/USB/Core/AVR8/../AVR8/Endpoint_AVR8.h **** 			static inline bool Endpoint_ConfigureEndpoint(const uint8_t Address,
 201:./tmk_core/protocol/lufa/LUFA-git/LUFA/Drivers/USB/Core/AVR8/../AVR8/Endpoint_AVR8.h **** 			                                              const uint8_t Type,
 202:./tmk_core/protocol/lufa/LUFA-git/LUFA/Drivers/USB/Core/AVR8/../AVR8/Endpoint_AVR8.h **** 			                                              const uint16_t Size,
 203:./tmk_core/protocol/lufa/LUFA-git/LUFA/Drivers/USB/Core/AVR8/../AVR8/Endpoint_AVR8.h **** 			                                              const uint8_t Banks)
 204:./tmk_core/protocol/lufa/LUFA-git/LUFA/Drivers/USB/Core/AVR8/../AVR8/Endpoint_AVR8.h **** 			{
 205:./tmk_core/protocol/lufa/LUFA-git/LUFA/Drivers/USB/Core/AVR8/../AVR8/Endpoint_AVR8.h **** 				uint8_t Number = (Address & ENDPOINT_EPNUM_MASK);
 206:./tmk_core/protocol/lufa/LUFA-git/LUFA/Drivers/USB/Core/AVR8/../AVR8/Endpoint_AVR8.h **** 
 207:./tmk_core/protocol/lufa/LUFA-git/LUFA/Drivers/USB/Core/AVR8/../AVR8/Endpoint_AVR8.h **** 				if (Number >= ENDPOINT_TOTAL_ENDPOINTS)
 208:./tmk_core/protocol/lufa/LUFA-git/LUFA/Drivers/USB/Core/AVR8/../AVR8/Endpoint_AVR8.h **** 				  return false;
 209:./tmk_core/protocol/lufa/LUFA-git/LUFA/Drivers/USB/Core/AVR8/../AVR8/Endpoint_AVR8.h **** 
 210:./tmk_core/protocol/lufa/LUFA-git/LUFA/Drivers/USB/Core/AVR8/../AVR8/Endpoint_AVR8.h **** 				return Endpoint_ConfigureEndpoint_Prv(Number,
 211:./tmk_core/protocol/lufa/LUFA-git/LUFA/Drivers/USB/Core/AVR8/../AVR8/Endpoint_AVR8.h **** 				                                      ((Type << EPTYPE0) | ((Address & ENDPOINT_DIR_IN) ? (1 <<
 212:./tmk_core/protocol/lufa/LUFA-git/LUFA/Drivers/USB/Core/AVR8/../AVR8/Endpoint_AVR8.h **** 				                                      ((1 << ALLOC) | ((Banks > 1) ? (1 << EPBK0) : 0) | Endpoi
 213:./tmk_core/protocol/lufa/LUFA-git/LUFA/Drivers/USB/Core/AVR8/../AVR8/Endpoint_AVR8.h **** 			}
 214:./tmk_core/protocol/lufa/LUFA-git/LUFA/Drivers/USB/Core/AVR8/../AVR8/Endpoint_AVR8.h **** 
 215:./tmk_core/protocol/lufa/LUFA-git/LUFA/Drivers/USB/Core/AVR8/../AVR8/Endpoint_AVR8.h **** 			/** Indicates the number of bytes currently stored in the current endpoint's selected bank.
 216:./tmk_core/protocol/lufa/LUFA-git/LUFA/Drivers/USB/Core/AVR8/../AVR8/Endpoint_AVR8.h **** 			 *
 217:./tmk_core/protocol/lufa/LUFA-git/LUFA/Drivers/USB/Core/AVR8/../AVR8/Endpoint_AVR8.h **** 			 *  \ingroup Group_EndpointRW_AVR8
 218:./tmk_core/protocol/lufa/LUFA-git/LUFA/Drivers/USB/Core/AVR8/../AVR8/Endpoint_AVR8.h **** 			 *
 219:./tmk_core/protocol/lufa/LUFA-git/LUFA/Drivers/USB/Core/AVR8/../AVR8/Endpoint_AVR8.h **** 			 *  \return Total number of bytes in the currently selected Endpoint's FIFO buffer.
 220:./tmk_core/protocol/lufa/LUFA-git/LUFA/Drivers/USB/Core/AVR8/../AVR8/Endpoint_AVR8.h **** 			 */
 221:./tmk_core/protocol/lufa/LUFA-git/LUFA/Drivers/USB/Core/AVR8/../AVR8/Endpoint_AVR8.h **** 			static inline uint16_t Endpoint_BytesInEndpoint(void) ATTR_WARN_UNUSED_RESULT ATTR_ALWAYS_INLINE
 222:./tmk_core/protocol/lufa/LUFA-git/LUFA/Drivers/USB/Core/AVR8/../AVR8/Endpoint_AVR8.h **** 			static inline uint16_t Endpoint_BytesInEndpoint(void)
 223:./tmk_core/protocol/lufa/LUFA-git/LUFA/Drivers/USB/Core/AVR8/../AVR8/Endpoint_AVR8.h **** 			{
 224:./tmk_core/protocol/lufa/LUFA-git/LUFA/Drivers/USB/Core/AVR8/../AVR8/Endpoint_AVR8.h **** 				#if (defined(USB_SERIES_6_AVR) || defined(USB_SERIES_7_AVR))
 225:./tmk_core/protocol/lufa/LUFA-git/LUFA/Drivers/USB/Core/AVR8/../AVR8/Endpoint_AVR8.h **** 					return UEBCX;
 226:./tmk_core/protocol/lufa/LUFA-git/LUFA/Drivers/USB/Core/AVR8/../AVR8/Endpoint_AVR8.h **** 				#elif defined(USB_SERIES_4_AVR)
 227:./tmk_core/protocol/lufa/LUFA-git/LUFA/Drivers/USB/Core/AVR8/../AVR8/Endpoint_AVR8.h **** 					return (((uint16_t)UEBCHX << 8) | UEBCLX);
 228:./tmk_core/protocol/lufa/LUFA-git/LUFA/Drivers/USB/Core/AVR8/../AVR8/Endpoint_AVR8.h **** 				#elif defined(USB_SERIES_2_AVR)
 229:./tmk_core/protocol/lufa/LUFA-git/LUFA/Drivers/USB/Core/AVR8/../AVR8/Endpoint_AVR8.h **** 					return UEBCLX;
 230:./tmk_core/protocol/lufa/LUFA-git/LUFA/Drivers/USB/Core/AVR8/../AVR8/Endpoint_AVR8.h **** 				#endif
 231:./tmk_core/protocol/lufa/LUFA-git/LUFA/Drivers/USB/Core/AVR8/../AVR8/Endpoint_AVR8.h **** 			}
 232:./tmk_core/protocol/lufa/LUFA-git/LUFA/Drivers/USB/Core/AVR8/../AVR8/Endpoint_AVR8.h **** 
 233:./tmk_core/protocol/lufa/LUFA-git/LUFA/Drivers/USB/Core/AVR8/../AVR8/Endpoint_AVR8.h **** 			/** Determines the currently selected endpoint's direction.
 234:./tmk_core/protocol/lufa/LUFA-git/LUFA/Drivers/USB/Core/AVR8/../AVR8/Endpoint_AVR8.h **** 			 *
 235:./tmk_core/protocol/lufa/LUFA-git/LUFA/Drivers/USB/Core/AVR8/../AVR8/Endpoint_AVR8.h **** 			 *  \return The currently selected endpoint's direction, as a \c ENDPOINT_DIR_* mask.
 236:./tmk_core/protocol/lufa/LUFA-git/LUFA/Drivers/USB/Core/AVR8/../AVR8/Endpoint_AVR8.h **** 			 */
 237:./tmk_core/protocol/lufa/LUFA-git/LUFA/Drivers/USB/Core/AVR8/../AVR8/Endpoint_AVR8.h **** 			static inline uint8_t Endpoint_GetEndpointDirection(void) ATTR_WARN_UNUSED_RESULT ATTR_ALWAYS_IN
 238:./tmk_core/protocol/lufa/LUFA-git/LUFA/Drivers/USB/Core/AVR8/../AVR8/Endpoint_AVR8.h **** 			static inline uint8_t Endpoint_GetEndpointDirection(void)
 239:./tmk_core/protocol/lufa/LUFA-git/LUFA/Drivers/USB/Core/AVR8/../AVR8/Endpoint_AVR8.h **** 			{
 240:./tmk_core/protocol/lufa/LUFA-git/LUFA/Drivers/USB/Core/AVR8/../AVR8/Endpoint_AVR8.h **** 				return (UECFG0X & (1 << EPDIR)) ? ENDPOINT_DIR_IN : ENDPOINT_DIR_OUT;
 241:./tmk_core/protocol/lufa/LUFA-git/LUFA/Drivers/USB/Core/AVR8/../AVR8/Endpoint_AVR8.h **** 			}
 242:./tmk_core/protocol/lufa/LUFA-git/LUFA/Drivers/USB/Core/AVR8/../AVR8/Endpoint_AVR8.h **** 
 243:./tmk_core/protocol/lufa/LUFA-git/LUFA/Drivers/USB/Core/AVR8/../AVR8/Endpoint_AVR8.h **** 			/** Get the endpoint address of the currently selected endpoint. This is typically used to save
 244:./tmk_core/protocol/lufa/LUFA-git/LUFA/Drivers/USB/Core/AVR8/../AVR8/Endpoint_AVR8.h **** 			 *  the currently selected endpoint so that it can be restored after another endpoint has been
 245:./tmk_core/protocol/lufa/LUFA-git/LUFA/Drivers/USB/Core/AVR8/../AVR8/Endpoint_AVR8.h **** 			 *  manipulated.
 246:./tmk_core/protocol/lufa/LUFA-git/LUFA/Drivers/USB/Core/AVR8/../AVR8/Endpoint_AVR8.h **** 			 *
 247:./tmk_core/protocol/lufa/LUFA-git/LUFA/Drivers/USB/Core/AVR8/../AVR8/Endpoint_AVR8.h **** 			 *  \return Index of the currently selected endpoint.
 248:./tmk_core/protocol/lufa/LUFA-git/LUFA/Drivers/USB/Core/AVR8/../AVR8/Endpoint_AVR8.h **** 			 */
 249:./tmk_core/protocol/lufa/LUFA-git/LUFA/Drivers/USB/Core/AVR8/../AVR8/Endpoint_AVR8.h **** 			static inline uint8_t Endpoint_GetCurrentEndpoint(void) ATTR_WARN_UNUSED_RESULT ATTR_ALWAYS_INLI
 250:./tmk_core/protocol/lufa/LUFA-git/LUFA/Drivers/USB/Core/AVR8/../AVR8/Endpoint_AVR8.h **** 			static inline uint8_t Endpoint_GetCurrentEndpoint(void)
 251:./tmk_core/protocol/lufa/LUFA-git/LUFA/Drivers/USB/Core/AVR8/../AVR8/Endpoint_AVR8.h **** 			{
 252:./tmk_core/protocol/lufa/LUFA-git/LUFA/Drivers/USB/Core/AVR8/../AVR8/Endpoint_AVR8.h **** 				#if !defined(CONTROL_ONLY_DEVICE)
 253:./tmk_core/protocol/lufa/LUFA-git/LUFA/Drivers/USB/Core/AVR8/../AVR8/Endpoint_AVR8.h **** 					return ((UENUM & ENDPOINT_EPNUM_MASK) | Endpoint_GetEndpointDirection());
 254:./tmk_core/protocol/lufa/LUFA-git/LUFA/Drivers/USB/Core/AVR8/../AVR8/Endpoint_AVR8.h **** 				#else
 255:./tmk_core/protocol/lufa/LUFA-git/LUFA/Drivers/USB/Core/AVR8/../AVR8/Endpoint_AVR8.h **** 					return ENDPOINT_CONTROLEP;
 256:./tmk_core/protocol/lufa/LUFA-git/LUFA/Drivers/USB/Core/AVR8/../AVR8/Endpoint_AVR8.h **** 				#endif
 257:./tmk_core/protocol/lufa/LUFA-git/LUFA/Drivers/USB/Core/AVR8/../AVR8/Endpoint_AVR8.h **** 			}
 258:./tmk_core/protocol/lufa/LUFA-git/LUFA/Drivers/USB/Core/AVR8/../AVR8/Endpoint_AVR8.h **** 
 259:./tmk_core/protocol/lufa/LUFA-git/LUFA/Drivers/USB/Core/AVR8/../AVR8/Endpoint_AVR8.h **** 			/** Selects the given endpoint address.
 260:./tmk_core/protocol/lufa/LUFA-git/LUFA/Drivers/USB/Core/AVR8/../AVR8/Endpoint_AVR8.h **** 			 *
 261:./tmk_core/protocol/lufa/LUFA-git/LUFA/Drivers/USB/Core/AVR8/../AVR8/Endpoint_AVR8.h **** 			 *  Any endpoint operations which do not require the endpoint address to be indicated will opera
 262:./tmk_core/protocol/lufa/LUFA-git/LUFA/Drivers/USB/Core/AVR8/../AVR8/Endpoint_AVR8.h **** 			 *  the currently selected endpoint.
 263:./tmk_core/protocol/lufa/LUFA-git/LUFA/Drivers/USB/Core/AVR8/../AVR8/Endpoint_AVR8.h **** 			 *
 264:./tmk_core/protocol/lufa/LUFA-git/LUFA/Drivers/USB/Core/AVR8/../AVR8/Endpoint_AVR8.h **** 			 *  \param[in] Address Endpoint address to select.
 265:./tmk_core/protocol/lufa/LUFA-git/LUFA/Drivers/USB/Core/AVR8/../AVR8/Endpoint_AVR8.h **** 			 */
 266:./tmk_core/protocol/lufa/LUFA-git/LUFA/Drivers/USB/Core/AVR8/../AVR8/Endpoint_AVR8.h **** 			static inline void Endpoint_SelectEndpoint(const uint8_t Address) ATTR_ALWAYS_INLINE;
 267:./tmk_core/protocol/lufa/LUFA-git/LUFA/Drivers/USB/Core/AVR8/../AVR8/Endpoint_AVR8.h **** 			static inline void Endpoint_SelectEndpoint(const uint8_t Address)
  78               		.loc 2 267 23 view .LVU12
  79               	.LBB114:
 268:./tmk_core/protocol/lufa/LUFA-git/LUFA/Drivers/USB/Core/AVR8/../AVR8/Endpoint_AVR8.h **** 			{
 269:./tmk_core/protocol/lufa/LUFA-git/LUFA/Drivers/USB/Core/AVR8/../AVR8/Endpoint_AVR8.h **** 				#if !defined(CONTROL_ONLY_DEVICE)
 270:./tmk_core/protocol/lufa/LUFA-git/LUFA/Drivers/USB/Core/AVR8/../AVR8/Endpoint_AVR8.h **** 					UENUM = (Address & ENDPOINT_EPNUM_MASK);
  80               		.loc 2 270 6 view .LVU13
  81               		.loc 2 270 12 is_stmt 0 view .LVU14
  82 001e 9093 E900 		sts 233,r25
  83               	.LVL4:
  84               		.loc 2 270 12 view .LVU15
  85 0022 8FEF      		ldi r24,lo8(-1)
  86               	.LVL5:
  87               	.L4:
  88               		.loc 2 270 12 view .LVU16
  89               	.LBE114:
  90               	.LBE113:
  91               	.LBB115:
  92               	.LBI115:
 271:./tmk_core/protocol/lufa/LUFA-git/LUFA/Drivers/USB/Core/AVR8/../AVR8/Endpoint_AVR8.h **** 				#endif
 272:./tmk_core/protocol/lufa/LUFA-git/LUFA/Drivers/USB/Core/AVR8/../AVR8/Endpoint_AVR8.h **** 			}
 273:./tmk_core/protocol/lufa/LUFA-git/LUFA/Drivers/USB/Core/AVR8/../AVR8/Endpoint_AVR8.h **** 
 274:./tmk_core/protocol/lufa/LUFA-git/LUFA/Drivers/USB/Core/AVR8/../AVR8/Endpoint_AVR8.h **** 			/** Resets the endpoint bank FIFO. This clears all the endpoint banks and resets the USB control
 275:./tmk_core/protocol/lufa/LUFA-git/LUFA/Drivers/USB/Core/AVR8/../AVR8/Endpoint_AVR8.h **** 			 *  data In and Out pointers to the bank's contents.
 276:./tmk_core/protocol/lufa/LUFA-git/LUFA/Drivers/USB/Core/AVR8/../AVR8/Endpoint_AVR8.h **** 			 *
 277:./tmk_core/protocol/lufa/LUFA-git/LUFA/Drivers/USB/Core/AVR8/../AVR8/Endpoint_AVR8.h **** 			 *  \param[in] Address  Endpoint address whose FIFO buffers are to be reset.
 278:./tmk_core/protocol/lufa/LUFA-git/LUFA/Drivers/USB/Core/AVR8/../AVR8/Endpoint_AVR8.h **** 			 */
 279:./tmk_core/protocol/lufa/LUFA-git/LUFA/Drivers/USB/Core/AVR8/../AVR8/Endpoint_AVR8.h **** 			static inline void Endpoint_ResetEndpoint(const uint8_t Address) ATTR_ALWAYS_INLINE;
 280:./tmk_core/protocol/lufa/LUFA-git/LUFA/Drivers/USB/Core/AVR8/../AVR8/Endpoint_AVR8.h **** 			static inline void Endpoint_ResetEndpoint(const uint8_t Address)
 281:./tmk_core/protocol/lufa/LUFA-git/LUFA/Drivers/USB/Core/AVR8/../AVR8/Endpoint_AVR8.h **** 			{
 282:./tmk_core/protocol/lufa/LUFA-git/LUFA/Drivers/USB/Core/AVR8/../AVR8/Endpoint_AVR8.h **** 				UERST = (1 << (Address & ENDPOINT_EPNUM_MASK));
 283:./tmk_core/protocol/lufa/LUFA-git/LUFA/Drivers/USB/Core/AVR8/../AVR8/Endpoint_AVR8.h **** 				UERST = 0;
 284:./tmk_core/protocol/lufa/LUFA-git/LUFA/Drivers/USB/Core/AVR8/../AVR8/Endpoint_AVR8.h **** 			}
 285:./tmk_core/protocol/lufa/LUFA-git/LUFA/Drivers/USB/Core/AVR8/../AVR8/Endpoint_AVR8.h **** 
 286:./tmk_core/protocol/lufa/LUFA-git/LUFA/Drivers/USB/Core/AVR8/../AVR8/Endpoint_AVR8.h **** 			/** Enables the currently selected endpoint so that data can be sent and received through it to
 287:./tmk_core/protocol/lufa/LUFA-git/LUFA/Drivers/USB/Core/AVR8/../AVR8/Endpoint_AVR8.h **** 			 *  and from a host.
 288:./tmk_core/protocol/lufa/LUFA-git/LUFA/Drivers/USB/Core/AVR8/../AVR8/Endpoint_AVR8.h **** 			 *
 289:./tmk_core/protocol/lufa/LUFA-git/LUFA/Drivers/USB/Core/AVR8/../AVR8/Endpoint_AVR8.h **** 			 *  \note Endpoints must first be configured properly via \ref Endpoint_ConfigureEndpoint().
 290:./tmk_core/protocol/lufa/LUFA-git/LUFA/Drivers/USB/Core/AVR8/../AVR8/Endpoint_AVR8.h **** 			 */
 291:./tmk_core/protocol/lufa/LUFA-git/LUFA/Drivers/USB/Core/AVR8/../AVR8/Endpoint_AVR8.h **** 			static inline void Endpoint_EnableEndpoint(void) ATTR_ALWAYS_INLINE;
 292:./tmk_core/protocol/lufa/LUFA-git/LUFA/Drivers/USB/Core/AVR8/../AVR8/Endpoint_AVR8.h **** 			static inline void Endpoint_EnableEndpoint(void)
 293:./tmk_core/protocol/lufa/LUFA-git/LUFA/Drivers/USB/Core/AVR8/../AVR8/Endpoint_AVR8.h **** 			{
 294:./tmk_core/protocol/lufa/LUFA-git/LUFA/Drivers/USB/Core/AVR8/../AVR8/Endpoint_AVR8.h **** 				UECONX |= (1 << EPEN);
 295:./tmk_core/protocol/lufa/LUFA-git/LUFA/Drivers/USB/Core/AVR8/../AVR8/Endpoint_AVR8.h **** 			}
 296:./tmk_core/protocol/lufa/LUFA-git/LUFA/Drivers/USB/Core/AVR8/../AVR8/Endpoint_AVR8.h **** 
 297:./tmk_core/protocol/lufa/LUFA-git/LUFA/Drivers/USB/Core/AVR8/../AVR8/Endpoint_AVR8.h **** 			/** Disables the currently selected endpoint so that data cannot be sent and received through it
 298:./tmk_core/protocol/lufa/LUFA-git/LUFA/Drivers/USB/Core/AVR8/../AVR8/Endpoint_AVR8.h **** 			 *  to and from a host.
 299:./tmk_core/protocol/lufa/LUFA-git/LUFA/Drivers/USB/Core/AVR8/../AVR8/Endpoint_AVR8.h **** 			 */
 300:./tmk_core/protocol/lufa/LUFA-git/LUFA/Drivers/USB/Core/AVR8/../AVR8/Endpoint_AVR8.h **** 			static inline void Endpoint_DisableEndpoint(void) ATTR_ALWAYS_INLINE;
 301:./tmk_core/protocol/lufa/LUFA-git/LUFA/Drivers/USB/Core/AVR8/../AVR8/Endpoint_AVR8.h **** 			static inline void Endpoint_DisableEndpoint(void)
 302:./tmk_core/protocol/lufa/LUFA-git/LUFA/Drivers/USB/Core/AVR8/../AVR8/Endpoint_AVR8.h **** 			{
 303:./tmk_core/protocol/lufa/LUFA-git/LUFA/Drivers/USB/Core/AVR8/../AVR8/Endpoint_AVR8.h **** 				UECONX &= ~(1 << EPEN);
 304:./tmk_core/protocol/lufa/LUFA-git/LUFA/Drivers/USB/Core/AVR8/../AVR8/Endpoint_AVR8.h **** 			}
 305:./tmk_core/protocol/lufa/LUFA-git/LUFA/Drivers/USB/Core/AVR8/../AVR8/Endpoint_AVR8.h **** 
 306:./tmk_core/protocol/lufa/LUFA-git/LUFA/Drivers/USB/Core/AVR8/../AVR8/Endpoint_AVR8.h **** 			/** Determines if the currently selected endpoint is enabled, but not necessarily configured.
 307:./tmk_core/protocol/lufa/LUFA-git/LUFA/Drivers/USB/Core/AVR8/../AVR8/Endpoint_AVR8.h **** 			 *
 308:./tmk_core/protocol/lufa/LUFA-git/LUFA/Drivers/USB/Core/AVR8/../AVR8/Endpoint_AVR8.h **** 			 * \return Boolean \c true if the currently selected endpoint is enabled, \c false otherwise.
 309:./tmk_core/protocol/lufa/LUFA-git/LUFA/Drivers/USB/Core/AVR8/../AVR8/Endpoint_AVR8.h **** 			 */
 310:./tmk_core/protocol/lufa/LUFA-git/LUFA/Drivers/USB/Core/AVR8/../AVR8/Endpoint_AVR8.h **** 			static inline bool Endpoint_IsEnabled(void) ATTR_WARN_UNUSED_RESULT ATTR_ALWAYS_INLINE;
 311:./tmk_core/protocol/lufa/LUFA-git/LUFA/Drivers/USB/Core/AVR8/../AVR8/Endpoint_AVR8.h **** 			static inline bool Endpoint_IsEnabled(void)
 312:./tmk_core/protocol/lufa/LUFA-git/LUFA/Drivers/USB/Core/AVR8/../AVR8/Endpoint_AVR8.h **** 			{
 313:./tmk_core/protocol/lufa/LUFA-git/LUFA/Drivers/USB/Core/AVR8/../AVR8/Endpoint_AVR8.h **** 				return ((UECONX & (1 << EPEN)) ? true : false);
 314:./tmk_core/protocol/lufa/LUFA-git/LUFA/Drivers/USB/Core/AVR8/../AVR8/Endpoint_AVR8.h **** 			}
 315:./tmk_core/protocol/lufa/LUFA-git/LUFA/Drivers/USB/Core/AVR8/../AVR8/Endpoint_AVR8.h **** 
 316:./tmk_core/protocol/lufa/LUFA-git/LUFA/Drivers/USB/Core/AVR8/../AVR8/Endpoint_AVR8.h **** 			/** Retrieves the number of busy banks in the currently selected endpoint, which have been queue
 317:./tmk_core/protocol/lufa/LUFA-git/LUFA/Drivers/USB/Core/AVR8/../AVR8/Endpoint_AVR8.h **** 			 *  transmission via the \ref Endpoint_ClearIN() command, or are awaiting acknowledgment via the
 318:./tmk_core/protocol/lufa/LUFA-git/LUFA/Drivers/USB/Core/AVR8/../AVR8/Endpoint_AVR8.h **** 			 *  \ref Endpoint_ClearOUT() command.
 319:./tmk_core/protocol/lufa/LUFA-git/LUFA/Drivers/USB/Core/AVR8/../AVR8/Endpoint_AVR8.h **** 			 *
 320:./tmk_core/protocol/lufa/LUFA-git/LUFA/Drivers/USB/Core/AVR8/../AVR8/Endpoint_AVR8.h **** 			 *  \ingroup Group_EndpointPacketManagement_AVR8
 321:./tmk_core/protocol/lufa/LUFA-git/LUFA/Drivers/USB/Core/AVR8/../AVR8/Endpoint_AVR8.h **** 			 *
 322:./tmk_core/protocol/lufa/LUFA-git/LUFA/Drivers/USB/Core/AVR8/../AVR8/Endpoint_AVR8.h **** 			 *  \return Total number of busy banks in the selected endpoint.
 323:./tmk_core/protocol/lufa/LUFA-git/LUFA/Drivers/USB/Core/AVR8/../AVR8/Endpoint_AVR8.h **** 			 */
 324:./tmk_core/protocol/lufa/LUFA-git/LUFA/Drivers/USB/Core/AVR8/../AVR8/Endpoint_AVR8.h **** 			static inline uint8_t Endpoint_GetBusyBanks(void) ATTR_ALWAYS_INLINE ATTR_WARN_UNUSED_RESULT;
 325:./tmk_core/protocol/lufa/LUFA-git/LUFA/Drivers/USB/Core/AVR8/../AVR8/Endpoint_AVR8.h **** 			static inline uint8_t Endpoint_GetBusyBanks(void)
 326:./tmk_core/protocol/lufa/LUFA-git/LUFA/Drivers/USB/Core/AVR8/../AVR8/Endpoint_AVR8.h **** 			{
 327:./tmk_core/protocol/lufa/LUFA-git/LUFA/Drivers/USB/Core/AVR8/../AVR8/Endpoint_AVR8.h **** 				return (UESTA0X & (0x03 << NBUSYBK0));
 328:./tmk_core/protocol/lufa/LUFA-git/LUFA/Drivers/USB/Core/AVR8/../AVR8/Endpoint_AVR8.h **** 			}
 329:./tmk_core/protocol/lufa/LUFA-git/LUFA/Drivers/USB/Core/AVR8/../AVR8/Endpoint_AVR8.h **** 
 330:./tmk_core/protocol/lufa/LUFA-git/LUFA/Drivers/USB/Core/AVR8/../AVR8/Endpoint_AVR8.h **** 			/** Aborts all pending IN transactions on the currently selected endpoint, once the bank
 331:./tmk_core/protocol/lufa/LUFA-git/LUFA/Drivers/USB/Core/AVR8/../AVR8/Endpoint_AVR8.h **** 			 *  has been queued for transmission to the host via \ref Endpoint_ClearIN(). This function
 332:./tmk_core/protocol/lufa/LUFA-git/LUFA/Drivers/USB/Core/AVR8/../AVR8/Endpoint_AVR8.h **** 			 *  will terminate all queued transactions, resetting the endpoint banks ready for a new
 333:./tmk_core/protocol/lufa/LUFA-git/LUFA/Drivers/USB/Core/AVR8/../AVR8/Endpoint_AVR8.h **** 			 *  packet.
 334:./tmk_core/protocol/lufa/LUFA-git/LUFA/Drivers/USB/Core/AVR8/../AVR8/Endpoint_AVR8.h **** 			 *
 335:./tmk_core/protocol/lufa/LUFA-git/LUFA/Drivers/USB/Core/AVR8/../AVR8/Endpoint_AVR8.h **** 			 *  \ingroup Group_EndpointPacketManagement_AVR8
 336:./tmk_core/protocol/lufa/LUFA-git/LUFA/Drivers/USB/Core/AVR8/../AVR8/Endpoint_AVR8.h **** 			 */
 337:./tmk_core/protocol/lufa/LUFA-git/LUFA/Drivers/USB/Core/AVR8/../AVR8/Endpoint_AVR8.h **** 			static inline void Endpoint_AbortPendingIN(void)
 338:./tmk_core/protocol/lufa/LUFA-git/LUFA/Drivers/USB/Core/AVR8/../AVR8/Endpoint_AVR8.h **** 			{
 339:./tmk_core/protocol/lufa/LUFA-git/LUFA/Drivers/USB/Core/AVR8/../AVR8/Endpoint_AVR8.h **** 				while (Endpoint_GetBusyBanks() != 0)
 340:./tmk_core/protocol/lufa/LUFA-git/LUFA/Drivers/USB/Core/AVR8/../AVR8/Endpoint_AVR8.h **** 				{
 341:./tmk_core/protocol/lufa/LUFA-git/LUFA/Drivers/USB/Core/AVR8/../AVR8/Endpoint_AVR8.h **** 					UEINTX |= (1 << RXOUTI);
 342:./tmk_core/protocol/lufa/LUFA-git/LUFA/Drivers/USB/Core/AVR8/../AVR8/Endpoint_AVR8.h **** 					while (UEINTX & (1 << RXOUTI));
 343:./tmk_core/protocol/lufa/LUFA-git/LUFA/Drivers/USB/Core/AVR8/../AVR8/Endpoint_AVR8.h **** 				}
 344:./tmk_core/protocol/lufa/LUFA-git/LUFA/Drivers/USB/Core/AVR8/../AVR8/Endpoint_AVR8.h **** 			}
 345:./tmk_core/protocol/lufa/LUFA-git/LUFA/Drivers/USB/Core/AVR8/../AVR8/Endpoint_AVR8.h **** 
 346:./tmk_core/protocol/lufa/LUFA-git/LUFA/Drivers/USB/Core/AVR8/../AVR8/Endpoint_AVR8.h **** 			/** Determines if the currently selected endpoint may be read from (if data is waiting in the en
 347:./tmk_core/protocol/lufa/LUFA-git/LUFA/Drivers/USB/Core/AVR8/../AVR8/Endpoint_AVR8.h **** 			 *  bank and the endpoint is an OUT direction, or if the bank is not yet full if the endpoint is
 348:./tmk_core/protocol/lufa/LUFA-git/LUFA/Drivers/USB/Core/AVR8/../AVR8/Endpoint_AVR8.h **** 			 *  direction). This function will return false if an error has occurred in the endpoint, if the
 349:./tmk_core/protocol/lufa/LUFA-git/LUFA/Drivers/USB/Core/AVR8/../AVR8/Endpoint_AVR8.h **** 			 *  is an OUT direction and no packet (or an empty packet) has been received, or if the endpoint
 350:./tmk_core/protocol/lufa/LUFA-git/LUFA/Drivers/USB/Core/AVR8/../AVR8/Endpoint_AVR8.h **** 			 *  direction and the endpoint bank is full.
 351:./tmk_core/protocol/lufa/LUFA-git/LUFA/Drivers/USB/Core/AVR8/../AVR8/Endpoint_AVR8.h **** 			 *
 352:./tmk_core/protocol/lufa/LUFA-git/LUFA/Drivers/USB/Core/AVR8/../AVR8/Endpoint_AVR8.h **** 			 *  \ingroup Group_EndpointPacketManagement_AVR8
 353:./tmk_core/protocol/lufa/LUFA-git/LUFA/Drivers/USB/Core/AVR8/../AVR8/Endpoint_AVR8.h **** 			 *
 354:./tmk_core/protocol/lufa/LUFA-git/LUFA/Drivers/USB/Core/AVR8/../AVR8/Endpoint_AVR8.h **** 			 *  \return Boolean \c true if the currently selected endpoint may be read from or written to, d
 355:./tmk_core/protocol/lufa/LUFA-git/LUFA/Drivers/USB/Core/AVR8/../AVR8/Endpoint_AVR8.h **** 			 *          on its direction.
 356:./tmk_core/protocol/lufa/LUFA-git/LUFA/Drivers/USB/Core/AVR8/../AVR8/Endpoint_AVR8.h **** 			 */
 357:./tmk_core/protocol/lufa/LUFA-git/LUFA/Drivers/USB/Core/AVR8/../AVR8/Endpoint_AVR8.h **** 			static inline bool Endpoint_IsReadWriteAllowed(void) ATTR_WARN_UNUSED_RESULT ATTR_ALWAYS_INLINE;
 358:./tmk_core/protocol/lufa/LUFA-git/LUFA/Drivers/USB/Core/AVR8/../AVR8/Endpoint_AVR8.h **** 			static inline bool Endpoint_IsReadWriteAllowed(void)
  93               		.loc 2 358 23 is_stmt 1 view .LVU17
  94               	.LBB116:
 359:./tmk_core/protocol/lufa/LUFA-git/LUFA/Drivers/USB/Core/AVR8/../AVR8/Endpoint_AVR8.h **** 			{
 360:./tmk_core/protocol/lufa/LUFA-git/LUFA/Drivers/USB/Core/AVR8/../AVR8/Endpoint_AVR8.h **** 				return ((UEINTX & (1 << RWAL)) ? true : false);
  95               		.loc 2 360 5 view .LVU18
  96               		.loc 2 360 14 is_stmt 0 view .LVU19
  97 0024 9091 E800 		lds r25,232
  98 0028 8150      		subi r24,lo8(-(-1))
  99               	.LVL6:
 100               		.loc 2 360 14 view .LVU20
 101               	.LBE116:
 102               	.LBE115:
 629:./tmk_core/protocol/lufa/lufa.c **** 
 630:./tmk_core/protocol/lufa/lufa.c ****     /* Check if write ready for a polling interval around 10ms */
 631:./tmk_core/protocol/lufa/lufa.c ****     while (timeout-- && !Endpoint_IsReadWriteAllowed()) _delay_us(40);
 103               		.loc 1 631 22 view .LVU21
 104 002a 95FD      		sbrc r25,5
 105 002c 00C0      		rjmp .L5
 106               		.loc 1 631 57 is_stmt 1 view .LVU22
 107               	.LVL7:
 108               	.LBB117:
 109               	.LBI117:
 110               		.file 3 "/usr/local/Cellar/avr-gcc/8.1.0/avr/include/util/delay.h"
   1:/usr/local/Cellar/avr-gcc/8.1.0/avr/include/util/delay.h **** /* Copyright (c) 2002, Marek Michalkiewicz
   2:/usr/local/Cellar/avr-gcc/8.1.0/avr/include/util/delay.h ****    Copyright (c) 2004,2005,2007 Joerg Wunsch
   3:/usr/local/Cellar/avr-gcc/8.1.0/avr/include/util/delay.h ****    Copyright (c) 2007  Florin-Viorel Petrov
   4:/usr/local/Cellar/avr-gcc/8.1.0/avr/include/util/delay.h ****    All rights reserved.
   5:/usr/local/Cellar/avr-gcc/8.1.0/avr/include/util/delay.h **** 
   6:/usr/local/Cellar/avr-gcc/8.1.0/avr/include/util/delay.h ****    Redistribution and use in source and binary forms, with or without
   7:/usr/local/Cellar/avr-gcc/8.1.0/avr/include/util/delay.h ****    modification, are permitted provided that the following conditions are met:
   8:/usr/local/Cellar/avr-gcc/8.1.0/avr/include/util/delay.h **** 
   9:/usr/local/Cellar/avr-gcc/8.1.0/avr/include/util/delay.h ****    * Redistributions of source code must retain the above copyright
  10:/usr/local/Cellar/avr-gcc/8.1.0/avr/include/util/delay.h ****      notice, this list of conditions and the following disclaimer.
  11:/usr/local/Cellar/avr-gcc/8.1.0/avr/include/util/delay.h **** 
  12:/usr/local/Cellar/avr-gcc/8.1.0/avr/include/util/delay.h ****    * Redistributions in binary form must reproduce the above copyright
  13:/usr/local/Cellar/avr-gcc/8.1.0/avr/include/util/delay.h ****      notice, this list of conditions and the following disclaimer in
  14:/usr/local/Cellar/avr-gcc/8.1.0/avr/include/util/delay.h ****      the documentation and/or other materials provided with the
  15:/usr/local/Cellar/avr-gcc/8.1.0/avr/include/util/delay.h ****      distribution.
  16:/usr/local/Cellar/avr-gcc/8.1.0/avr/include/util/delay.h **** 
  17:/usr/local/Cellar/avr-gcc/8.1.0/avr/include/util/delay.h ****    * Neither the name of the copyright holders nor the names of
  18:/usr/local/Cellar/avr-gcc/8.1.0/avr/include/util/delay.h ****      contributors may be used to endorse or promote products derived
  19:/usr/local/Cellar/avr-gcc/8.1.0/avr/include/util/delay.h ****      from this software without specific prior written permission.
  20:/usr/local/Cellar/avr-gcc/8.1.0/avr/include/util/delay.h **** 
  21:/usr/local/Cellar/avr-gcc/8.1.0/avr/include/util/delay.h ****   THIS SOFTWARE IS PROVIDED BY THE COPYRIGHT HOLDERS AND CONTRIBUTORS "AS IS"
  22:/usr/local/Cellar/avr-gcc/8.1.0/avr/include/util/delay.h ****   AND ANY EXPRESS OR IMPLIED WARRANTIES, INCLUDING, BUT NOT LIMITED TO, THE
  23:/usr/local/Cellar/avr-gcc/8.1.0/avr/include/util/delay.h ****   IMPLIED WARRANTIES OF MERCHANTABILITY AND FITNESS FOR A PARTICULAR PURPOSE
  24:/usr/local/Cellar/avr-gcc/8.1.0/avr/include/util/delay.h ****   ARE DISCLAIMED. IN NO EVENT SHALL THE COPYRIGHT OWNER OR CONTRIBUTORS BE
  25:/usr/local/Cellar/avr-gcc/8.1.0/avr/include/util/delay.h ****   LIABLE FOR ANY DIRECT, INDIRECT, INCIDENTAL, SPECIAL, EXEMPLARY, OR
  26:/usr/local/Cellar/avr-gcc/8.1.0/avr/include/util/delay.h ****   CONSEQUENTIAL DAMAGES (INCLUDING, BUT NOT LIMITED TO, PROCUREMENT OF
  27:/usr/local/Cellar/avr-gcc/8.1.0/avr/include/util/delay.h ****   SUBSTITUTE GOODS OR SERVICES; LOSS OF USE, DATA, OR PROFITS; OR BUSINESS
  28:/usr/local/Cellar/avr-gcc/8.1.0/avr/include/util/delay.h ****   INTERRUPTION) HOWEVER CAUSED AND ON ANY THEORY OF LIABILITY, WHETHER IN
  29:/usr/local/Cellar/avr-gcc/8.1.0/avr/include/util/delay.h ****   CONTRACT, STRICT LIABILITY, OR TORT (INCLUDING NEGLIGENCE OR OTHERWISE)
  30:/usr/local/Cellar/avr-gcc/8.1.0/avr/include/util/delay.h ****   ARISING IN ANY WAY OUT OF THE USE OF THIS SOFTWARE, EVEN IF ADVISED OF THE
  31:/usr/local/Cellar/avr-gcc/8.1.0/avr/include/util/delay.h ****   POSSIBILITY OF SUCH DAMAGE. */
  32:/usr/local/Cellar/avr-gcc/8.1.0/avr/include/util/delay.h **** 
  33:/usr/local/Cellar/avr-gcc/8.1.0/avr/include/util/delay.h **** /* $Id: delay.h.in 2506 2016-02-08 10:05:45Z joerg_wunsch $ */
  34:/usr/local/Cellar/avr-gcc/8.1.0/avr/include/util/delay.h **** 
  35:/usr/local/Cellar/avr-gcc/8.1.0/avr/include/util/delay.h **** #ifndef _UTIL_DELAY_H_
  36:/usr/local/Cellar/avr-gcc/8.1.0/avr/include/util/delay.h **** #define _UTIL_DELAY_H_ 1
  37:/usr/local/Cellar/avr-gcc/8.1.0/avr/include/util/delay.h **** 
  38:/usr/local/Cellar/avr-gcc/8.1.0/avr/include/util/delay.h **** #ifndef __DOXYGEN__
  39:/usr/local/Cellar/avr-gcc/8.1.0/avr/include/util/delay.h **** #  ifndef __HAS_DELAY_CYCLES
  40:/usr/local/Cellar/avr-gcc/8.1.0/avr/include/util/delay.h **** #    define __HAS_DELAY_CYCLES 1
  41:/usr/local/Cellar/avr-gcc/8.1.0/avr/include/util/delay.h **** #  endif
  42:/usr/local/Cellar/avr-gcc/8.1.0/avr/include/util/delay.h **** #endif  /* __DOXYGEN__ */
  43:/usr/local/Cellar/avr-gcc/8.1.0/avr/include/util/delay.h **** 
  44:/usr/local/Cellar/avr-gcc/8.1.0/avr/include/util/delay.h **** #include <inttypes.h>
  45:/usr/local/Cellar/avr-gcc/8.1.0/avr/include/util/delay.h **** #include <util/delay_basic.h>
  46:/usr/local/Cellar/avr-gcc/8.1.0/avr/include/util/delay.h **** #include <math.h>
  47:/usr/local/Cellar/avr-gcc/8.1.0/avr/include/util/delay.h **** 
  48:/usr/local/Cellar/avr-gcc/8.1.0/avr/include/util/delay.h **** /** \file */
  49:/usr/local/Cellar/avr-gcc/8.1.0/avr/include/util/delay.h **** /** \defgroup util_delay <util/delay.h>: Convenience functions for busy-wait delay loops
  50:/usr/local/Cellar/avr-gcc/8.1.0/avr/include/util/delay.h ****     \code
  51:/usr/local/Cellar/avr-gcc/8.1.0/avr/include/util/delay.h ****     #define F_CPU 1000000UL  // 1 MHz
  52:/usr/local/Cellar/avr-gcc/8.1.0/avr/include/util/delay.h ****     //#define F_CPU 14.7456E6
  53:/usr/local/Cellar/avr-gcc/8.1.0/avr/include/util/delay.h ****     #include <util/delay.h>
  54:/usr/local/Cellar/avr-gcc/8.1.0/avr/include/util/delay.h ****     \endcode
  55:/usr/local/Cellar/avr-gcc/8.1.0/avr/include/util/delay.h **** 
  56:/usr/local/Cellar/avr-gcc/8.1.0/avr/include/util/delay.h ****     \note As an alternative method, it is possible to pass the
  57:/usr/local/Cellar/avr-gcc/8.1.0/avr/include/util/delay.h ****     F_CPU macro down to the compiler from the Makefile.
  58:/usr/local/Cellar/avr-gcc/8.1.0/avr/include/util/delay.h ****     Obviously, in that case, no \c \#define statement should be
  59:/usr/local/Cellar/avr-gcc/8.1.0/avr/include/util/delay.h ****     used.
  60:/usr/local/Cellar/avr-gcc/8.1.0/avr/include/util/delay.h **** 
  61:/usr/local/Cellar/avr-gcc/8.1.0/avr/include/util/delay.h ****     The functions in this header file are wrappers around the basic
  62:/usr/local/Cellar/avr-gcc/8.1.0/avr/include/util/delay.h ****     busy-wait functions from <util/delay_basic.h>.  They are meant as
  63:/usr/local/Cellar/avr-gcc/8.1.0/avr/include/util/delay.h ****     convenience functions where actual time values can be specified
  64:/usr/local/Cellar/avr-gcc/8.1.0/avr/include/util/delay.h ****     rather than a number of cycles to wait for.  The idea behind is
  65:/usr/local/Cellar/avr-gcc/8.1.0/avr/include/util/delay.h ****     that compile-time constant expressions will be eliminated by
  66:/usr/local/Cellar/avr-gcc/8.1.0/avr/include/util/delay.h ****     compiler optimization so floating-point expressions can be used
  67:/usr/local/Cellar/avr-gcc/8.1.0/avr/include/util/delay.h ****     to calculate the number of delay cycles needed based on the CPU
  68:/usr/local/Cellar/avr-gcc/8.1.0/avr/include/util/delay.h ****     frequency passed by the macro F_CPU.
  69:/usr/local/Cellar/avr-gcc/8.1.0/avr/include/util/delay.h **** 
  70:/usr/local/Cellar/avr-gcc/8.1.0/avr/include/util/delay.h ****     \note In order for these functions to work as intended, compiler
  71:/usr/local/Cellar/avr-gcc/8.1.0/avr/include/util/delay.h ****     optimizations <em>must</em> be enabled, and the delay time
  72:/usr/local/Cellar/avr-gcc/8.1.0/avr/include/util/delay.h ****     <em>must</em> be an expression that is a known constant at
  73:/usr/local/Cellar/avr-gcc/8.1.0/avr/include/util/delay.h ****     compile-time.  If these requirements are not met, the resulting
  74:/usr/local/Cellar/avr-gcc/8.1.0/avr/include/util/delay.h ****     delay will be much longer (and basically unpredictable), and
  75:/usr/local/Cellar/avr-gcc/8.1.0/avr/include/util/delay.h ****     applications that otherwise do not use floating-point calculations
  76:/usr/local/Cellar/avr-gcc/8.1.0/avr/include/util/delay.h ****     will experience severe code bloat by the floating-point library
  77:/usr/local/Cellar/avr-gcc/8.1.0/avr/include/util/delay.h ****     routines linked into the application.
  78:/usr/local/Cellar/avr-gcc/8.1.0/avr/include/util/delay.h **** 
  79:/usr/local/Cellar/avr-gcc/8.1.0/avr/include/util/delay.h ****     The functions available allow the specification of microsecond, and
  80:/usr/local/Cellar/avr-gcc/8.1.0/avr/include/util/delay.h ****     millisecond delays directly, using the application-supplied macro
  81:/usr/local/Cellar/avr-gcc/8.1.0/avr/include/util/delay.h ****     F_CPU as the CPU clock frequency (in Hertz).
  82:/usr/local/Cellar/avr-gcc/8.1.0/avr/include/util/delay.h **** 
  83:/usr/local/Cellar/avr-gcc/8.1.0/avr/include/util/delay.h **** */
  84:/usr/local/Cellar/avr-gcc/8.1.0/avr/include/util/delay.h **** 
  85:/usr/local/Cellar/avr-gcc/8.1.0/avr/include/util/delay.h **** #if !defined(__DOXYGEN__)
  86:/usr/local/Cellar/avr-gcc/8.1.0/avr/include/util/delay.h **** static __inline__ void _delay_us(double __us) __attribute__((__always_inline__));
  87:/usr/local/Cellar/avr-gcc/8.1.0/avr/include/util/delay.h **** static __inline__ void _delay_ms(double __ms) __attribute__((__always_inline__));
  88:/usr/local/Cellar/avr-gcc/8.1.0/avr/include/util/delay.h **** #endif
  89:/usr/local/Cellar/avr-gcc/8.1.0/avr/include/util/delay.h **** 
  90:/usr/local/Cellar/avr-gcc/8.1.0/avr/include/util/delay.h **** #ifndef F_CPU
  91:/usr/local/Cellar/avr-gcc/8.1.0/avr/include/util/delay.h **** /* prevent compiler error by supplying a default */
  92:/usr/local/Cellar/avr-gcc/8.1.0/avr/include/util/delay.h **** # warning "F_CPU not defined for <util/delay.h>"
  93:/usr/local/Cellar/avr-gcc/8.1.0/avr/include/util/delay.h **** /** \ingroup util_delay
  94:/usr/local/Cellar/avr-gcc/8.1.0/avr/include/util/delay.h ****     \def F_CPU
  95:/usr/local/Cellar/avr-gcc/8.1.0/avr/include/util/delay.h ****     \brief CPU frequency in Hz
  96:/usr/local/Cellar/avr-gcc/8.1.0/avr/include/util/delay.h **** 
  97:/usr/local/Cellar/avr-gcc/8.1.0/avr/include/util/delay.h ****     The macro F_CPU specifies the CPU frequency to be considered by
  98:/usr/local/Cellar/avr-gcc/8.1.0/avr/include/util/delay.h ****     the delay macros.  This macro is normally supplied by the
  99:/usr/local/Cellar/avr-gcc/8.1.0/avr/include/util/delay.h ****     environment (e.g. from within a project header, or the project's
 100:/usr/local/Cellar/avr-gcc/8.1.0/avr/include/util/delay.h ****     Makefile).  The value 1 MHz here is only provided as a "vanilla"
 101:/usr/local/Cellar/avr-gcc/8.1.0/avr/include/util/delay.h ****     fallback if no such user-provided definition could be found.
 102:/usr/local/Cellar/avr-gcc/8.1.0/avr/include/util/delay.h **** 
 103:/usr/local/Cellar/avr-gcc/8.1.0/avr/include/util/delay.h ****     In terms of the delay functions, the CPU frequency can be given as
 104:/usr/local/Cellar/avr-gcc/8.1.0/avr/include/util/delay.h ****     a floating-point constant (e.g. 3.6864E6 for 3.6864 MHz).
 105:/usr/local/Cellar/avr-gcc/8.1.0/avr/include/util/delay.h ****     However, the macros in <util/setbaud.h> require it to be an
 106:/usr/local/Cellar/avr-gcc/8.1.0/avr/include/util/delay.h ****     integer value.
 107:/usr/local/Cellar/avr-gcc/8.1.0/avr/include/util/delay.h ****  */
 108:/usr/local/Cellar/avr-gcc/8.1.0/avr/include/util/delay.h **** # define F_CPU 1000000UL
 109:/usr/local/Cellar/avr-gcc/8.1.0/avr/include/util/delay.h **** #endif
 110:/usr/local/Cellar/avr-gcc/8.1.0/avr/include/util/delay.h **** 
 111:/usr/local/Cellar/avr-gcc/8.1.0/avr/include/util/delay.h **** #ifndef __OPTIMIZE__
 112:/usr/local/Cellar/avr-gcc/8.1.0/avr/include/util/delay.h **** # warning "Compiler optimizations disabled; functions from <util/delay.h> won't work as designed"
 113:/usr/local/Cellar/avr-gcc/8.1.0/avr/include/util/delay.h **** #endif
 114:/usr/local/Cellar/avr-gcc/8.1.0/avr/include/util/delay.h **** 
 115:/usr/local/Cellar/avr-gcc/8.1.0/avr/include/util/delay.h **** #if __HAS_DELAY_CYCLES && defined(__OPTIMIZE__) && \
 116:/usr/local/Cellar/avr-gcc/8.1.0/avr/include/util/delay.h ****   !defined(__DELAY_BACKWARD_COMPATIBLE__) &&	   \
 117:/usr/local/Cellar/avr-gcc/8.1.0/avr/include/util/delay.h ****   __STDC_HOSTED__
 118:/usr/local/Cellar/avr-gcc/8.1.0/avr/include/util/delay.h **** #  include <math.h>
 119:/usr/local/Cellar/avr-gcc/8.1.0/avr/include/util/delay.h **** #endif
 120:/usr/local/Cellar/avr-gcc/8.1.0/avr/include/util/delay.h **** 
 121:/usr/local/Cellar/avr-gcc/8.1.0/avr/include/util/delay.h **** /**
 122:/usr/local/Cellar/avr-gcc/8.1.0/avr/include/util/delay.h ****    \ingroup util_delay
 123:/usr/local/Cellar/avr-gcc/8.1.0/avr/include/util/delay.h **** 
 124:/usr/local/Cellar/avr-gcc/8.1.0/avr/include/util/delay.h ****    Perform a delay of \c __ms milliseconds, using _delay_loop_2().
 125:/usr/local/Cellar/avr-gcc/8.1.0/avr/include/util/delay.h **** 
 126:/usr/local/Cellar/avr-gcc/8.1.0/avr/include/util/delay.h ****    The macro F_CPU is supposed to be defined to a
 127:/usr/local/Cellar/avr-gcc/8.1.0/avr/include/util/delay.h ****    constant defining the CPU clock frequency (in Hertz).
 128:/usr/local/Cellar/avr-gcc/8.1.0/avr/include/util/delay.h **** 
 129:/usr/local/Cellar/avr-gcc/8.1.0/avr/include/util/delay.h ****    The maximal possible delay is 262.14 ms / F_CPU in MHz.
 130:/usr/local/Cellar/avr-gcc/8.1.0/avr/include/util/delay.h **** 
 131:/usr/local/Cellar/avr-gcc/8.1.0/avr/include/util/delay.h ****    When the user request delay which exceed the maximum possible one,
 132:/usr/local/Cellar/avr-gcc/8.1.0/avr/include/util/delay.h ****    _delay_ms() provides a decreased resolution functionality. In this
 133:/usr/local/Cellar/avr-gcc/8.1.0/avr/include/util/delay.h ****    mode _delay_ms() will work with a resolution of 1/10 ms, providing
 134:/usr/local/Cellar/avr-gcc/8.1.0/avr/include/util/delay.h ****    delays up to 6.5535 seconds (independent from CPU frequency).  The
 135:/usr/local/Cellar/avr-gcc/8.1.0/avr/include/util/delay.h ****    user will not be informed about decreased resolution.
 136:/usr/local/Cellar/avr-gcc/8.1.0/avr/include/util/delay.h **** 
 137:/usr/local/Cellar/avr-gcc/8.1.0/avr/include/util/delay.h ****    If the avr-gcc toolchain has __builtin_avr_delay_cycles()
 138:/usr/local/Cellar/avr-gcc/8.1.0/avr/include/util/delay.h ****    support, maximal possible delay is 4294967.295 ms/ F_CPU in MHz. For
 139:/usr/local/Cellar/avr-gcc/8.1.0/avr/include/util/delay.h ****    values greater than the maximal possible delay, overflows results in
 140:/usr/local/Cellar/avr-gcc/8.1.0/avr/include/util/delay.h ****    no delay i.e., 0ms.
 141:/usr/local/Cellar/avr-gcc/8.1.0/avr/include/util/delay.h **** 
 142:/usr/local/Cellar/avr-gcc/8.1.0/avr/include/util/delay.h ****    Conversion of \c __ms into clock cycles may not always result in
 143:/usr/local/Cellar/avr-gcc/8.1.0/avr/include/util/delay.h ****    integer.  By default, the clock cycles rounded up to next
 144:/usr/local/Cellar/avr-gcc/8.1.0/avr/include/util/delay.h ****    integer. This ensures that the user gets at least \c __ms
 145:/usr/local/Cellar/avr-gcc/8.1.0/avr/include/util/delay.h ****    microseconds of delay.
 146:/usr/local/Cellar/avr-gcc/8.1.0/avr/include/util/delay.h **** 
 147:/usr/local/Cellar/avr-gcc/8.1.0/avr/include/util/delay.h ****    Alternatively, by defining the macro \c __DELAY_ROUND_DOWN__, or
 148:/usr/local/Cellar/avr-gcc/8.1.0/avr/include/util/delay.h ****    \c __DELAY_ROUND_CLOSEST__, before including this header file, the
 149:/usr/local/Cellar/avr-gcc/8.1.0/avr/include/util/delay.h ****    algorithm can be made to round down, or round to closest integer,
 150:/usr/local/Cellar/avr-gcc/8.1.0/avr/include/util/delay.h ****    respectively.
 151:/usr/local/Cellar/avr-gcc/8.1.0/avr/include/util/delay.h **** 
 152:/usr/local/Cellar/avr-gcc/8.1.0/avr/include/util/delay.h ****    \note
 153:/usr/local/Cellar/avr-gcc/8.1.0/avr/include/util/delay.h **** 
 154:/usr/local/Cellar/avr-gcc/8.1.0/avr/include/util/delay.h ****    The implementation of _delay_ms() based on
 155:/usr/local/Cellar/avr-gcc/8.1.0/avr/include/util/delay.h ****    __builtin_avr_delay_cycles() is not backward compatible with older
 156:/usr/local/Cellar/avr-gcc/8.1.0/avr/include/util/delay.h ****    implementations.  In order to get functionality backward compatible
 157:/usr/local/Cellar/avr-gcc/8.1.0/avr/include/util/delay.h ****    with previous versions, the macro \c "__DELAY_BACKWARD_COMPATIBLE__"
 158:/usr/local/Cellar/avr-gcc/8.1.0/avr/include/util/delay.h ****    must be defined before including this header file. Also, the
 159:/usr/local/Cellar/avr-gcc/8.1.0/avr/include/util/delay.h ****    backward compatible algorithm will be chosen if the code is
 160:/usr/local/Cellar/avr-gcc/8.1.0/avr/include/util/delay.h ****    compiled in a <em>freestanding environment</em> (GCC option
 161:/usr/local/Cellar/avr-gcc/8.1.0/avr/include/util/delay.h ****    \c -ffreestanding), as the math functions required for rounding are
 162:/usr/local/Cellar/avr-gcc/8.1.0/avr/include/util/delay.h ****    not available to the compiler then.
 163:/usr/local/Cellar/avr-gcc/8.1.0/avr/include/util/delay.h **** 
 164:/usr/local/Cellar/avr-gcc/8.1.0/avr/include/util/delay.h ****  */
 165:/usr/local/Cellar/avr-gcc/8.1.0/avr/include/util/delay.h **** void
 166:/usr/local/Cellar/avr-gcc/8.1.0/avr/include/util/delay.h **** _delay_ms(double __ms)
 167:/usr/local/Cellar/avr-gcc/8.1.0/avr/include/util/delay.h **** {
 168:/usr/local/Cellar/avr-gcc/8.1.0/avr/include/util/delay.h **** 	double __tmp ;
 169:/usr/local/Cellar/avr-gcc/8.1.0/avr/include/util/delay.h **** #if __HAS_DELAY_CYCLES && defined(__OPTIMIZE__) && \
 170:/usr/local/Cellar/avr-gcc/8.1.0/avr/include/util/delay.h ****   !defined(__DELAY_BACKWARD_COMPATIBLE__) &&	   \
 171:/usr/local/Cellar/avr-gcc/8.1.0/avr/include/util/delay.h ****   __STDC_HOSTED__
 172:/usr/local/Cellar/avr-gcc/8.1.0/avr/include/util/delay.h **** 	uint32_t __ticks_dc;
 173:/usr/local/Cellar/avr-gcc/8.1.0/avr/include/util/delay.h **** 	extern void __builtin_avr_delay_cycles(unsigned long);
 174:/usr/local/Cellar/avr-gcc/8.1.0/avr/include/util/delay.h **** 	__tmp = ((F_CPU) / 1e3) * __ms;
 175:/usr/local/Cellar/avr-gcc/8.1.0/avr/include/util/delay.h **** 
 176:/usr/local/Cellar/avr-gcc/8.1.0/avr/include/util/delay.h **** 	#if defined(__DELAY_ROUND_DOWN__)
 177:/usr/local/Cellar/avr-gcc/8.1.0/avr/include/util/delay.h **** 		__ticks_dc = (uint32_t)fabs(__tmp);
 178:/usr/local/Cellar/avr-gcc/8.1.0/avr/include/util/delay.h **** 
 179:/usr/local/Cellar/avr-gcc/8.1.0/avr/include/util/delay.h **** 	#elif defined(__DELAY_ROUND_CLOSEST__)
 180:/usr/local/Cellar/avr-gcc/8.1.0/avr/include/util/delay.h **** 		__ticks_dc = (uint32_t)(fabs(__tmp)+0.5);
 181:/usr/local/Cellar/avr-gcc/8.1.0/avr/include/util/delay.h **** 
 182:/usr/local/Cellar/avr-gcc/8.1.0/avr/include/util/delay.h **** 	#else
 183:/usr/local/Cellar/avr-gcc/8.1.0/avr/include/util/delay.h **** 		//round up by default
 184:/usr/local/Cellar/avr-gcc/8.1.0/avr/include/util/delay.h **** 		__ticks_dc = (uint32_t)(ceil(fabs(__tmp)));
 185:/usr/local/Cellar/avr-gcc/8.1.0/avr/include/util/delay.h **** 	#endif
 186:/usr/local/Cellar/avr-gcc/8.1.0/avr/include/util/delay.h **** 
 187:/usr/local/Cellar/avr-gcc/8.1.0/avr/include/util/delay.h **** 	__builtin_avr_delay_cycles(__ticks_dc);
 188:/usr/local/Cellar/avr-gcc/8.1.0/avr/include/util/delay.h **** 
 189:/usr/local/Cellar/avr-gcc/8.1.0/avr/include/util/delay.h **** #else
 190:/usr/local/Cellar/avr-gcc/8.1.0/avr/include/util/delay.h **** 	uint16_t __ticks;
 191:/usr/local/Cellar/avr-gcc/8.1.0/avr/include/util/delay.h **** 	__tmp = ((F_CPU) / 4e3) * __ms;
 192:/usr/local/Cellar/avr-gcc/8.1.0/avr/include/util/delay.h **** 	if (__tmp < 1.0)
 193:/usr/local/Cellar/avr-gcc/8.1.0/avr/include/util/delay.h **** 		__ticks = 1;
 194:/usr/local/Cellar/avr-gcc/8.1.0/avr/include/util/delay.h **** 	else if (__tmp > 65535)
 195:/usr/local/Cellar/avr-gcc/8.1.0/avr/include/util/delay.h **** 	{
 196:/usr/local/Cellar/avr-gcc/8.1.0/avr/include/util/delay.h **** 		//	__ticks = requested delay in 1/10 ms
 197:/usr/local/Cellar/avr-gcc/8.1.0/avr/include/util/delay.h **** 		__ticks = (uint16_t) (__ms * 10.0);
 198:/usr/local/Cellar/avr-gcc/8.1.0/avr/include/util/delay.h **** 		while(__ticks)
 199:/usr/local/Cellar/avr-gcc/8.1.0/avr/include/util/delay.h **** 		{
 200:/usr/local/Cellar/avr-gcc/8.1.0/avr/include/util/delay.h **** 			// wait 1/10 ms
 201:/usr/local/Cellar/avr-gcc/8.1.0/avr/include/util/delay.h **** 			_delay_loop_2(((F_CPU) / 4e3) / 10);
 202:/usr/local/Cellar/avr-gcc/8.1.0/avr/include/util/delay.h **** 			__ticks --;
 203:/usr/local/Cellar/avr-gcc/8.1.0/avr/include/util/delay.h **** 		}
 204:/usr/local/Cellar/avr-gcc/8.1.0/avr/include/util/delay.h **** 		return;
 205:/usr/local/Cellar/avr-gcc/8.1.0/avr/include/util/delay.h **** 	}
 206:/usr/local/Cellar/avr-gcc/8.1.0/avr/include/util/delay.h **** 	else
 207:/usr/local/Cellar/avr-gcc/8.1.0/avr/include/util/delay.h **** 		__ticks = (uint16_t)__tmp;
 208:/usr/local/Cellar/avr-gcc/8.1.0/avr/include/util/delay.h **** 	_delay_loop_2(__ticks);
 209:/usr/local/Cellar/avr-gcc/8.1.0/avr/include/util/delay.h **** #endif
 210:/usr/local/Cellar/avr-gcc/8.1.0/avr/include/util/delay.h **** }
 211:/usr/local/Cellar/avr-gcc/8.1.0/avr/include/util/delay.h **** 
 212:/usr/local/Cellar/avr-gcc/8.1.0/avr/include/util/delay.h **** /**
 213:/usr/local/Cellar/avr-gcc/8.1.0/avr/include/util/delay.h ****    \ingroup util_delay
 214:/usr/local/Cellar/avr-gcc/8.1.0/avr/include/util/delay.h **** 
 215:/usr/local/Cellar/avr-gcc/8.1.0/avr/include/util/delay.h ****    Perform a delay of \c __us microseconds, using _delay_loop_1().
 216:/usr/local/Cellar/avr-gcc/8.1.0/avr/include/util/delay.h **** 
 217:/usr/local/Cellar/avr-gcc/8.1.0/avr/include/util/delay.h ****    The macro F_CPU is supposed to be defined to a
 218:/usr/local/Cellar/avr-gcc/8.1.0/avr/include/util/delay.h ****    constant defining the CPU clock frequency (in Hertz).
 219:/usr/local/Cellar/avr-gcc/8.1.0/avr/include/util/delay.h **** 
 220:/usr/local/Cellar/avr-gcc/8.1.0/avr/include/util/delay.h ****    The maximal possible delay is 768 us / F_CPU in MHz.
 221:/usr/local/Cellar/avr-gcc/8.1.0/avr/include/util/delay.h **** 
 222:/usr/local/Cellar/avr-gcc/8.1.0/avr/include/util/delay.h ****    If the user requests a delay greater than the maximal possible one,
 223:/usr/local/Cellar/avr-gcc/8.1.0/avr/include/util/delay.h ****    _delay_us() will automatically call _delay_ms() instead.  The user
 224:/usr/local/Cellar/avr-gcc/8.1.0/avr/include/util/delay.h ****    will not be informed about this case.
 225:/usr/local/Cellar/avr-gcc/8.1.0/avr/include/util/delay.h **** 
 226:/usr/local/Cellar/avr-gcc/8.1.0/avr/include/util/delay.h ****    If the avr-gcc toolchain has __builtin_avr_delay_cycles()
 227:/usr/local/Cellar/avr-gcc/8.1.0/avr/include/util/delay.h ****    support, maximal possible delay is 4294967.295 us/ F_CPU in MHz. For
 228:/usr/local/Cellar/avr-gcc/8.1.0/avr/include/util/delay.h ****    values greater than the maximal possible delay, overflow results in
 229:/usr/local/Cellar/avr-gcc/8.1.0/avr/include/util/delay.h ****    no delay i.e., 0us.
 230:/usr/local/Cellar/avr-gcc/8.1.0/avr/include/util/delay.h **** 
 231:/usr/local/Cellar/avr-gcc/8.1.0/avr/include/util/delay.h ****    Conversion of \c __us into clock cycles may not always result in
 232:/usr/local/Cellar/avr-gcc/8.1.0/avr/include/util/delay.h ****    integer.  By default, the clock cycles rounded up to next
 233:/usr/local/Cellar/avr-gcc/8.1.0/avr/include/util/delay.h ****    integer. This ensures that the user gets at least \c __us
 234:/usr/local/Cellar/avr-gcc/8.1.0/avr/include/util/delay.h ****    microseconds of delay.
 235:/usr/local/Cellar/avr-gcc/8.1.0/avr/include/util/delay.h **** 
 236:/usr/local/Cellar/avr-gcc/8.1.0/avr/include/util/delay.h ****    Alternatively, by defining the macro \c __DELAY_ROUND_DOWN__, or
 237:/usr/local/Cellar/avr-gcc/8.1.0/avr/include/util/delay.h ****    \c __DELAY_ROUND_CLOSEST__, before including this header file, the
 238:/usr/local/Cellar/avr-gcc/8.1.0/avr/include/util/delay.h ****    algorithm can be made to round down, or round to closest integer,
 239:/usr/local/Cellar/avr-gcc/8.1.0/avr/include/util/delay.h ****    respectively.
 240:/usr/local/Cellar/avr-gcc/8.1.0/avr/include/util/delay.h **** 
 241:/usr/local/Cellar/avr-gcc/8.1.0/avr/include/util/delay.h ****    \note
 242:/usr/local/Cellar/avr-gcc/8.1.0/avr/include/util/delay.h **** 
 243:/usr/local/Cellar/avr-gcc/8.1.0/avr/include/util/delay.h ****    The implementation of _delay_ms() based on
 244:/usr/local/Cellar/avr-gcc/8.1.0/avr/include/util/delay.h ****    __builtin_avr_delay_cycles() is not backward compatible with older
 245:/usr/local/Cellar/avr-gcc/8.1.0/avr/include/util/delay.h ****    implementations.  In order to get functionality backward compatible
 246:/usr/local/Cellar/avr-gcc/8.1.0/avr/include/util/delay.h ****    with previous versions, the macro \c __DELAY_BACKWARD_COMPATIBLE__
 247:/usr/local/Cellar/avr-gcc/8.1.0/avr/include/util/delay.h ****    must be defined before including this header file. Also, the
 248:/usr/local/Cellar/avr-gcc/8.1.0/avr/include/util/delay.h ****    backward compatible algorithm will be chosen if the code is
 249:/usr/local/Cellar/avr-gcc/8.1.0/avr/include/util/delay.h ****    compiled in a <em>freestanding environment</em> (GCC option
 250:/usr/local/Cellar/avr-gcc/8.1.0/avr/include/util/delay.h ****    \c -ffreestanding), as the math functions required for rounding are
 251:/usr/local/Cellar/avr-gcc/8.1.0/avr/include/util/delay.h ****    not available to the compiler then.
 252:/usr/local/Cellar/avr-gcc/8.1.0/avr/include/util/delay.h **** 
 253:/usr/local/Cellar/avr-gcc/8.1.0/avr/include/util/delay.h ****  */
 254:/usr/local/Cellar/avr-gcc/8.1.0/avr/include/util/delay.h **** void
 255:/usr/local/Cellar/avr-gcc/8.1.0/avr/include/util/delay.h **** _delay_us(double __us)
 111               		.loc 3 255 1 view .LVU23
 112               	.LBB118:
 256:/usr/local/Cellar/avr-gcc/8.1.0/avr/include/util/delay.h **** {
 257:/usr/local/Cellar/avr-gcc/8.1.0/avr/include/util/delay.h **** 	double __tmp ;
 113               		.loc 3 257 2 view .LVU24
 258:/usr/local/Cellar/avr-gcc/8.1.0/avr/include/util/delay.h **** #if __HAS_DELAY_CYCLES && defined(__OPTIMIZE__) && \
 259:/usr/local/Cellar/avr-gcc/8.1.0/avr/include/util/delay.h ****   !defined(__DELAY_BACKWARD_COMPATIBLE__) &&	   \
 260:/usr/local/Cellar/avr-gcc/8.1.0/avr/include/util/delay.h ****   __STDC_HOSTED__
 261:/usr/local/Cellar/avr-gcc/8.1.0/avr/include/util/delay.h **** 	uint32_t __ticks_dc;
 114               		.loc 3 261 2 view .LVU25
 262:/usr/local/Cellar/avr-gcc/8.1.0/avr/include/util/delay.h **** 	extern void __builtin_avr_delay_cycles(unsigned long);
 115               		.loc 3 262 2 view .LVU26
 263:/usr/local/Cellar/avr-gcc/8.1.0/avr/include/util/delay.h **** 	__tmp = ((F_CPU) / 1e6) * __us;
 116               		.loc 3 263 2 view .LVU27
 264:/usr/local/Cellar/avr-gcc/8.1.0/avr/include/util/delay.h **** 
 265:/usr/local/Cellar/avr-gcc/8.1.0/avr/include/util/delay.h **** 	#if defined(__DELAY_ROUND_DOWN__)
 266:/usr/local/Cellar/avr-gcc/8.1.0/avr/include/util/delay.h **** 		__ticks_dc = (uint32_t)fabs(__tmp);
 267:/usr/local/Cellar/avr-gcc/8.1.0/avr/include/util/delay.h **** 
 268:/usr/local/Cellar/avr-gcc/8.1.0/avr/include/util/delay.h **** 	#elif defined(__DELAY_ROUND_CLOSEST__)
 269:/usr/local/Cellar/avr-gcc/8.1.0/avr/include/util/delay.h **** 		__ticks_dc = (uint32_t)(fabs(__tmp)+0.5);
 270:/usr/local/Cellar/avr-gcc/8.1.0/avr/include/util/delay.h **** 
 271:/usr/local/Cellar/avr-gcc/8.1.0/avr/include/util/delay.h **** 	#else
 272:/usr/local/Cellar/avr-gcc/8.1.0/avr/include/util/delay.h **** 		//round up by default
 273:/usr/local/Cellar/avr-gcc/8.1.0/avr/include/util/delay.h **** 		__ticks_dc = (uint32_t)(ceil(fabs(__tmp)));
 117               		.loc 3 273 3 view .LVU28
 274:/usr/local/Cellar/avr-gcc/8.1.0/avr/include/util/delay.h **** 	#endif
 275:/usr/local/Cellar/avr-gcc/8.1.0/avr/include/util/delay.h **** 
 276:/usr/local/Cellar/avr-gcc/8.1.0/avr/include/util/delay.h **** 	__builtin_avr_delay_cycles(__ticks_dc);
 118               		.loc 3 276 2 view .LVU29
 119 002e 95ED      		ldi r25,lo8(-43)
 120 0030 9A95      	1:	dec r25
 121 0032 01F4      		brne 1b
 122 0034 0000      		nop
 123               	.LVL8:
 124               		.loc 3 276 2 is_stmt 0 view .LVU30
 125               	.LBE118:
 126               	.LBE117:
 127               		.loc 1 631 11 view .LVU31
 128 0036 8111      		cpse r24,__zero_reg__
 129 0038 00C0      		rjmp .L4
 130               	.LVL9:
 131               	.L5:
 632:./tmk_core/protocol/lufa/lufa.c ****     if (!Endpoint_IsReadWriteAllowed()) return;
 132               		.loc 1 632 5 is_stmt 1 view .LVU32
 133               	.LBB119:
 134               	.LBI119:
 358:./tmk_core/protocol/lufa/LUFA-git/LUFA/Drivers/USB/Core/AVR8/../AVR8/Endpoint_AVR8.h **** 			{
 135               		.loc 2 358 23 view .LVU33
 136               	.LBB120:
 137               		.loc 2 360 5 view .LVU34
 138               		.loc 2 360 14 is_stmt 0 view .LVU35
 139 003a 8091 E800 		lds r24,232
 140               	.LBE120:
 141               	.LBE119:
 142               		.loc 1 632 8 view .LVU36
 143 003e 85FF      		sbrs r24,5
 144 0040 00C0      		rjmp .L2
 633:./tmk_core/protocol/lufa/lufa.c **** 
 634:./tmk_core/protocol/lufa/lufa.c ****     Endpoint_Write_Stream_LE(&r, sizeof(report_extra_t), NULL);
 145               		.loc 1 634 5 is_stmt 1 view .LVU37
 146 0042 50E0      		ldi r21,0
 147 0044 40E0      		ldi r20,0
 148 0046 63E0      		ldi r22,lo8(3)
 149 0048 70E0      		ldi r23,0
 150 004a CE01      		movw r24,r28
 151 004c 0196      		adiw r24,1
 152 004e 0E94 0000 		call Endpoint_Write_Stream_LE
 153               	.LVL10:
 635:./tmk_core/protocol/lufa/lufa.c ****     Endpoint_ClearIN();
 154               		.loc 1 635 5 view .LVU38
 155               	.LBB121:
 156               	.LBI121:
 361:./tmk_core/protocol/lufa/LUFA-git/LUFA/Drivers/USB/Core/AVR8/../AVR8/Endpoint_AVR8.h **** 			}
 362:./tmk_core/protocol/lufa/LUFA-git/LUFA/Drivers/USB/Core/AVR8/../AVR8/Endpoint_AVR8.h **** 
 363:./tmk_core/protocol/lufa/LUFA-git/LUFA/Drivers/USB/Core/AVR8/../AVR8/Endpoint_AVR8.h **** 			/** Determines if the currently selected endpoint is configured.
 364:./tmk_core/protocol/lufa/LUFA-git/LUFA/Drivers/USB/Core/AVR8/../AVR8/Endpoint_AVR8.h **** 			 *
 365:./tmk_core/protocol/lufa/LUFA-git/LUFA/Drivers/USB/Core/AVR8/../AVR8/Endpoint_AVR8.h **** 			 *  \return Boolean \c true if the currently selected endpoint has been configured, \c false oth
 366:./tmk_core/protocol/lufa/LUFA-git/LUFA/Drivers/USB/Core/AVR8/../AVR8/Endpoint_AVR8.h **** 			 */
 367:./tmk_core/protocol/lufa/LUFA-git/LUFA/Drivers/USB/Core/AVR8/../AVR8/Endpoint_AVR8.h **** 			static inline bool Endpoint_IsConfigured(void) ATTR_WARN_UNUSED_RESULT ATTR_ALWAYS_INLINE;
 368:./tmk_core/protocol/lufa/LUFA-git/LUFA/Drivers/USB/Core/AVR8/../AVR8/Endpoint_AVR8.h **** 			static inline bool Endpoint_IsConfigured(void)
 369:./tmk_core/protocol/lufa/LUFA-git/LUFA/Drivers/USB/Core/AVR8/../AVR8/Endpoint_AVR8.h **** 			{
 370:./tmk_core/protocol/lufa/LUFA-git/LUFA/Drivers/USB/Core/AVR8/../AVR8/Endpoint_AVR8.h **** 				return ((UESTA0X & (1 << CFGOK)) ? true : false);
 371:./tmk_core/protocol/lufa/LUFA-git/LUFA/Drivers/USB/Core/AVR8/../AVR8/Endpoint_AVR8.h **** 			}
 372:./tmk_core/protocol/lufa/LUFA-git/LUFA/Drivers/USB/Core/AVR8/../AVR8/Endpoint_AVR8.h **** 
 373:./tmk_core/protocol/lufa/LUFA-git/LUFA/Drivers/USB/Core/AVR8/../AVR8/Endpoint_AVR8.h **** 			/** Returns a mask indicating which INTERRUPT type endpoints have interrupted - i.e. their
 374:./tmk_core/protocol/lufa/LUFA-git/LUFA/Drivers/USB/Core/AVR8/../AVR8/Endpoint_AVR8.h **** 			 *  interrupt duration has elapsed. Which endpoints have interrupted can be determined by
 375:./tmk_core/protocol/lufa/LUFA-git/LUFA/Drivers/USB/Core/AVR8/../AVR8/Endpoint_AVR8.h **** 			 *  masking the return value against <tt>(1 << <i>{Endpoint Number}</i>)</tt>.
 376:./tmk_core/protocol/lufa/LUFA-git/LUFA/Drivers/USB/Core/AVR8/../AVR8/Endpoint_AVR8.h **** 			 *
 377:./tmk_core/protocol/lufa/LUFA-git/LUFA/Drivers/USB/Core/AVR8/../AVR8/Endpoint_AVR8.h **** 			 *  \return Mask whose bits indicate which endpoints have interrupted.
 378:./tmk_core/protocol/lufa/LUFA-git/LUFA/Drivers/USB/Core/AVR8/../AVR8/Endpoint_AVR8.h **** 			 */
 379:./tmk_core/protocol/lufa/LUFA-git/LUFA/Drivers/USB/Core/AVR8/../AVR8/Endpoint_AVR8.h **** 			static inline uint8_t Endpoint_GetEndpointInterrupts(void) ATTR_WARN_UNUSED_RESULT ATTR_ALWAYS_I
 380:./tmk_core/protocol/lufa/LUFA-git/LUFA/Drivers/USB/Core/AVR8/../AVR8/Endpoint_AVR8.h **** 			static inline uint8_t Endpoint_GetEndpointInterrupts(void)
 381:./tmk_core/protocol/lufa/LUFA-git/LUFA/Drivers/USB/Core/AVR8/../AVR8/Endpoint_AVR8.h **** 			{
 382:./tmk_core/protocol/lufa/LUFA-git/LUFA/Drivers/USB/Core/AVR8/../AVR8/Endpoint_AVR8.h **** 				return UEINT;
 383:./tmk_core/protocol/lufa/LUFA-git/LUFA/Drivers/USB/Core/AVR8/../AVR8/Endpoint_AVR8.h **** 			}
 384:./tmk_core/protocol/lufa/LUFA-git/LUFA/Drivers/USB/Core/AVR8/../AVR8/Endpoint_AVR8.h **** 
 385:./tmk_core/protocol/lufa/LUFA-git/LUFA/Drivers/USB/Core/AVR8/../AVR8/Endpoint_AVR8.h **** 			/** Determines if the specified endpoint number has interrupted (valid only for INTERRUPT type
 386:./tmk_core/protocol/lufa/LUFA-git/LUFA/Drivers/USB/Core/AVR8/../AVR8/Endpoint_AVR8.h **** 			 *  endpoints).
 387:./tmk_core/protocol/lufa/LUFA-git/LUFA/Drivers/USB/Core/AVR8/../AVR8/Endpoint_AVR8.h **** 			 *
 388:./tmk_core/protocol/lufa/LUFA-git/LUFA/Drivers/USB/Core/AVR8/../AVR8/Endpoint_AVR8.h **** 			 *  \param[in] Address  Address of the endpoint whose interrupt flag should be tested.
 389:./tmk_core/protocol/lufa/LUFA-git/LUFA/Drivers/USB/Core/AVR8/../AVR8/Endpoint_AVR8.h **** 			 *
 390:./tmk_core/protocol/lufa/LUFA-git/LUFA/Drivers/USB/Core/AVR8/../AVR8/Endpoint_AVR8.h **** 			 *  \return Boolean \c true if the specified endpoint has interrupted, \c false otherwise.
 391:./tmk_core/protocol/lufa/LUFA-git/LUFA/Drivers/USB/Core/AVR8/../AVR8/Endpoint_AVR8.h **** 			 */
 392:./tmk_core/protocol/lufa/LUFA-git/LUFA/Drivers/USB/Core/AVR8/../AVR8/Endpoint_AVR8.h **** 			static inline bool Endpoint_HasEndpointInterrupted(const uint8_t Address) ATTR_WARN_UNUSED_RESUL
 393:./tmk_core/protocol/lufa/LUFA-git/LUFA/Drivers/USB/Core/AVR8/../AVR8/Endpoint_AVR8.h **** 			static inline bool Endpoint_HasEndpointInterrupted(const uint8_t Address)
 394:./tmk_core/protocol/lufa/LUFA-git/LUFA/Drivers/USB/Core/AVR8/../AVR8/Endpoint_AVR8.h **** 			{
 395:./tmk_core/protocol/lufa/LUFA-git/LUFA/Drivers/USB/Core/AVR8/../AVR8/Endpoint_AVR8.h **** 				return ((Endpoint_GetEndpointInterrupts() & (1 << (Address & ENDPOINT_EPNUM_MASK))) ? true : fa
 396:./tmk_core/protocol/lufa/LUFA-git/LUFA/Drivers/USB/Core/AVR8/../AVR8/Endpoint_AVR8.h **** 			}
 397:./tmk_core/protocol/lufa/LUFA-git/LUFA/Drivers/USB/Core/AVR8/../AVR8/Endpoint_AVR8.h **** 
 398:./tmk_core/protocol/lufa/LUFA-git/LUFA/Drivers/USB/Core/AVR8/../AVR8/Endpoint_AVR8.h **** 			/** Determines if the selected IN endpoint is ready for a new packet to be sent to the host.
 399:./tmk_core/protocol/lufa/LUFA-git/LUFA/Drivers/USB/Core/AVR8/../AVR8/Endpoint_AVR8.h **** 			 *
 400:./tmk_core/protocol/lufa/LUFA-git/LUFA/Drivers/USB/Core/AVR8/../AVR8/Endpoint_AVR8.h **** 			 *  \ingroup Group_EndpointPacketManagement_AVR8
 401:./tmk_core/protocol/lufa/LUFA-git/LUFA/Drivers/USB/Core/AVR8/../AVR8/Endpoint_AVR8.h **** 			 *
 402:./tmk_core/protocol/lufa/LUFA-git/LUFA/Drivers/USB/Core/AVR8/../AVR8/Endpoint_AVR8.h **** 			 *  \return Boolean \c true if the current endpoint is ready for an IN packet, \c false otherwis
 403:./tmk_core/protocol/lufa/LUFA-git/LUFA/Drivers/USB/Core/AVR8/../AVR8/Endpoint_AVR8.h **** 			 */
 404:./tmk_core/protocol/lufa/LUFA-git/LUFA/Drivers/USB/Core/AVR8/../AVR8/Endpoint_AVR8.h **** 			static inline bool Endpoint_IsINReady(void) ATTR_WARN_UNUSED_RESULT ATTR_ALWAYS_INLINE;
 405:./tmk_core/protocol/lufa/LUFA-git/LUFA/Drivers/USB/Core/AVR8/../AVR8/Endpoint_AVR8.h **** 			static inline bool Endpoint_IsINReady(void)
 406:./tmk_core/protocol/lufa/LUFA-git/LUFA/Drivers/USB/Core/AVR8/../AVR8/Endpoint_AVR8.h **** 			{
 407:./tmk_core/protocol/lufa/LUFA-git/LUFA/Drivers/USB/Core/AVR8/../AVR8/Endpoint_AVR8.h **** 				return ((UEINTX & (1 << TXINI)) ? true : false);
 408:./tmk_core/protocol/lufa/LUFA-git/LUFA/Drivers/USB/Core/AVR8/../AVR8/Endpoint_AVR8.h **** 			}
 409:./tmk_core/protocol/lufa/LUFA-git/LUFA/Drivers/USB/Core/AVR8/../AVR8/Endpoint_AVR8.h **** 
 410:./tmk_core/protocol/lufa/LUFA-git/LUFA/Drivers/USB/Core/AVR8/../AVR8/Endpoint_AVR8.h **** 			/** Determines if the selected OUT endpoint has received new packet from the host.
 411:./tmk_core/protocol/lufa/LUFA-git/LUFA/Drivers/USB/Core/AVR8/../AVR8/Endpoint_AVR8.h **** 			 *
 412:./tmk_core/protocol/lufa/LUFA-git/LUFA/Drivers/USB/Core/AVR8/../AVR8/Endpoint_AVR8.h **** 			 *  \ingroup Group_EndpointPacketManagement_AVR8
 413:./tmk_core/protocol/lufa/LUFA-git/LUFA/Drivers/USB/Core/AVR8/../AVR8/Endpoint_AVR8.h **** 			 *
 414:./tmk_core/protocol/lufa/LUFA-git/LUFA/Drivers/USB/Core/AVR8/../AVR8/Endpoint_AVR8.h **** 			 *  \return Boolean \c true if current endpoint is has received an OUT packet, \c false otherwis
 415:./tmk_core/protocol/lufa/LUFA-git/LUFA/Drivers/USB/Core/AVR8/../AVR8/Endpoint_AVR8.h **** 			 */
 416:./tmk_core/protocol/lufa/LUFA-git/LUFA/Drivers/USB/Core/AVR8/../AVR8/Endpoint_AVR8.h **** 			static inline bool Endpoint_IsOUTReceived(void) ATTR_WARN_UNUSED_RESULT ATTR_ALWAYS_INLINE;
 417:./tmk_core/protocol/lufa/LUFA-git/LUFA/Drivers/USB/Core/AVR8/../AVR8/Endpoint_AVR8.h **** 			static inline bool Endpoint_IsOUTReceived(void)
 418:./tmk_core/protocol/lufa/LUFA-git/LUFA/Drivers/USB/Core/AVR8/../AVR8/Endpoint_AVR8.h **** 			{
 419:./tmk_core/protocol/lufa/LUFA-git/LUFA/Drivers/USB/Core/AVR8/../AVR8/Endpoint_AVR8.h **** 				return ((UEINTX & (1 << RXOUTI)) ? true : false);
 420:./tmk_core/protocol/lufa/LUFA-git/LUFA/Drivers/USB/Core/AVR8/../AVR8/Endpoint_AVR8.h **** 			}
 421:./tmk_core/protocol/lufa/LUFA-git/LUFA/Drivers/USB/Core/AVR8/../AVR8/Endpoint_AVR8.h **** 
 422:./tmk_core/protocol/lufa/LUFA-git/LUFA/Drivers/USB/Core/AVR8/../AVR8/Endpoint_AVR8.h **** 			/** Determines if the current CONTROL type endpoint has received a SETUP packet.
 423:./tmk_core/protocol/lufa/LUFA-git/LUFA/Drivers/USB/Core/AVR8/../AVR8/Endpoint_AVR8.h **** 			 *
 424:./tmk_core/protocol/lufa/LUFA-git/LUFA/Drivers/USB/Core/AVR8/../AVR8/Endpoint_AVR8.h **** 			 *  \ingroup Group_EndpointPacketManagement_AVR8
 425:./tmk_core/protocol/lufa/LUFA-git/LUFA/Drivers/USB/Core/AVR8/../AVR8/Endpoint_AVR8.h **** 			 *
 426:./tmk_core/protocol/lufa/LUFA-git/LUFA/Drivers/USB/Core/AVR8/../AVR8/Endpoint_AVR8.h **** 			 *  \return Boolean \c true if the selected endpoint has received a SETUP packet, \c false other
 427:./tmk_core/protocol/lufa/LUFA-git/LUFA/Drivers/USB/Core/AVR8/../AVR8/Endpoint_AVR8.h **** 			 */
 428:./tmk_core/protocol/lufa/LUFA-git/LUFA/Drivers/USB/Core/AVR8/../AVR8/Endpoint_AVR8.h **** 			static inline bool Endpoint_IsSETUPReceived(void) ATTR_WARN_UNUSED_RESULT ATTR_ALWAYS_INLINE;
 429:./tmk_core/protocol/lufa/LUFA-git/LUFA/Drivers/USB/Core/AVR8/../AVR8/Endpoint_AVR8.h **** 			static inline bool Endpoint_IsSETUPReceived(void)
 430:./tmk_core/protocol/lufa/LUFA-git/LUFA/Drivers/USB/Core/AVR8/../AVR8/Endpoint_AVR8.h **** 			{
 431:./tmk_core/protocol/lufa/LUFA-git/LUFA/Drivers/USB/Core/AVR8/../AVR8/Endpoint_AVR8.h **** 				return ((UEINTX & (1 << RXSTPI)) ? true : false);
 432:./tmk_core/protocol/lufa/LUFA-git/LUFA/Drivers/USB/Core/AVR8/../AVR8/Endpoint_AVR8.h **** 			}
 433:./tmk_core/protocol/lufa/LUFA-git/LUFA/Drivers/USB/Core/AVR8/../AVR8/Endpoint_AVR8.h **** 
 434:./tmk_core/protocol/lufa/LUFA-git/LUFA/Drivers/USB/Core/AVR8/../AVR8/Endpoint_AVR8.h **** 			/** Clears a received SETUP packet on the currently selected CONTROL type endpoint, freeing up t
 435:./tmk_core/protocol/lufa/LUFA-git/LUFA/Drivers/USB/Core/AVR8/../AVR8/Endpoint_AVR8.h **** 			 *  endpoint for the next packet.
 436:./tmk_core/protocol/lufa/LUFA-git/LUFA/Drivers/USB/Core/AVR8/../AVR8/Endpoint_AVR8.h **** 			 *
 437:./tmk_core/protocol/lufa/LUFA-git/LUFA/Drivers/USB/Core/AVR8/../AVR8/Endpoint_AVR8.h **** 			 *  \ingroup Group_EndpointPacketManagement_AVR8
 438:./tmk_core/protocol/lufa/LUFA-git/LUFA/Drivers/USB/Core/AVR8/../AVR8/Endpoint_AVR8.h **** 			 *
 439:./tmk_core/protocol/lufa/LUFA-git/LUFA/Drivers/USB/Core/AVR8/../AVR8/Endpoint_AVR8.h **** 			 *  \note This is not applicable for non CONTROL type endpoints.
 440:./tmk_core/protocol/lufa/LUFA-git/LUFA/Drivers/USB/Core/AVR8/../AVR8/Endpoint_AVR8.h **** 			 */
 441:./tmk_core/protocol/lufa/LUFA-git/LUFA/Drivers/USB/Core/AVR8/../AVR8/Endpoint_AVR8.h **** 			static inline void Endpoint_ClearSETUP(void) ATTR_ALWAYS_INLINE;
 442:./tmk_core/protocol/lufa/LUFA-git/LUFA/Drivers/USB/Core/AVR8/../AVR8/Endpoint_AVR8.h **** 			static inline void Endpoint_ClearSETUP(void)
 443:./tmk_core/protocol/lufa/LUFA-git/LUFA/Drivers/USB/Core/AVR8/../AVR8/Endpoint_AVR8.h **** 			{
 444:./tmk_core/protocol/lufa/LUFA-git/LUFA/Drivers/USB/Core/AVR8/../AVR8/Endpoint_AVR8.h **** 				UEINTX &= ~(1 << RXSTPI);
 445:./tmk_core/protocol/lufa/LUFA-git/LUFA/Drivers/USB/Core/AVR8/../AVR8/Endpoint_AVR8.h **** 			}
 446:./tmk_core/protocol/lufa/LUFA-git/LUFA/Drivers/USB/Core/AVR8/../AVR8/Endpoint_AVR8.h **** 
 447:./tmk_core/protocol/lufa/LUFA-git/LUFA/Drivers/USB/Core/AVR8/../AVR8/Endpoint_AVR8.h **** 			/** Sends an IN packet to the host on the currently selected endpoint, freeing up the endpoint f
 448:./tmk_core/protocol/lufa/LUFA-git/LUFA/Drivers/USB/Core/AVR8/../AVR8/Endpoint_AVR8.h **** 			 *  next packet and switching to the alternative endpoint bank if double banked.
 449:./tmk_core/protocol/lufa/LUFA-git/LUFA/Drivers/USB/Core/AVR8/../AVR8/Endpoint_AVR8.h **** 			 *
 450:./tmk_core/protocol/lufa/LUFA-git/LUFA/Drivers/USB/Core/AVR8/../AVR8/Endpoint_AVR8.h **** 			 *  \ingroup Group_EndpointPacketManagement_AVR8
 451:./tmk_core/protocol/lufa/LUFA-git/LUFA/Drivers/USB/Core/AVR8/../AVR8/Endpoint_AVR8.h **** 			 */
 452:./tmk_core/protocol/lufa/LUFA-git/LUFA/Drivers/USB/Core/AVR8/../AVR8/Endpoint_AVR8.h **** 			static inline void Endpoint_ClearIN(void) ATTR_ALWAYS_INLINE;
 453:./tmk_core/protocol/lufa/LUFA-git/LUFA/Drivers/USB/Core/AVR8/../AVR8/Endpoint_AVR8.h **** 			static inline void Endpoint_ClearIN(void)
 157               		.loc 2 453 23 view .LVU39
 158               	.LBB122:
 454:./tmk_core/protocol/lufa/LUFA-git/LUFA/Drivers/USB/Core/AVR8/../AVR8/Endpoint_AVR8.h **** 			{
 455:./tmk_core/protocol/lufa/LUFA-git/LUFA/Drivers/USB/Core/AVR8/../AVR8/Endpoint_AVR8.h **** 				#if !defined(CONTROL_ONLY_DEVICE)
 456:./tmk_core/protocol/lufa/LUFA-git/LUFA/Drivers/USB/Core/AVR8/../AVR8/Endpoint_AVR8.h **** 					UEINTX &= ~((1 << TXINI) | (1 << FIFOCON));
 159               		.loc 2 456 6 view .LVU40
 160               		.loc 2 456 13 is_stmt 0 view .LVU41
 161 0052 8091 E800 		lds r24,232
 162 0056 8E77      		andi r24,lo8(126)
 163 0058 8093 E800 		sts 232,r24
 164               	.LVL11:
 165               	.L2:
 166               	/* epilogue start */
 167               		.loc 2 456 13 view .LVU42
 168               	.LBE122:
 169               	.LBE121:
 636:./tmk_core/protocol/lufa/lufa.c **** }
 170               		.loc 1 636 1 view .LVU43
 171 005c 0F90      		pop __tmp_reg__
 172 005e 0F90      		pop __tmp_reg__
 173 0060 0F90      		pop __tmp_reg__
 174 0062 DF91      		pop r29
 175 0064 CF91      		pop r28
 176 0066 0895      		ret
 177               		.cfi_endproc
 178               	.LFE119:
 180               		.section	.text.send_system,"ax",@progbits
 182               	send_system:
 183               	.LVL12:
 184               	.LFB118:
 580:./tmk_core/protocol/lufa/lufa.c ****     uint8_t timeout = 255;
 185               		.loc 1 580 1 is_stmt 1 view -0
 186               		.cfi_startproc
 580:./tmk_core/protocol/lufa/lufa.c ****     uint8_t timeout = 255;
 187               		.loc 1 580 1 is_stmt 0 view .LVU45
 188 0000 CF93      		push r28
 189               	.LCFI4:
 190               		.cfi_def_cfa_offset 3
 191               		.cfi_offset 28, -2
 192 0002 DF93      		push r29
 193               	.LCFI5:
 194               		.cfi_def_cfa_offset 4
 195               		.cfi_offset 29, -3
 196 0004 00D0      		rcall .
 197 0006 0F92      		push __tmp_reg__
 198               	.LCFI6:
 199               		.cfi_def_cfa_offset 7
 200 0008 CDB7      		in r28,__SP_L__
 201 000a DEB7      		in r29,__SP_H__
 202               	.LCFI7:
 203               		.cfi_def_cfa_register 28
 204               	/* prologue: function */
 205               	/* frame size = 3 */
 206               	/* stack size = 5 */
 207               	.L__stack_usage = 5
 581:./tmk_core/protocol/lufa/lufa.c **** 
 208               		.loc 1 581 5 is_stmt 1 view .LVU46
 209               	.LVL13:
 583:./tmk_core/protocol/lufa/lufa.c ****         return;
 210               		.loc 1 583 5 view .LVU47
 583:./tmk_core/protocol/lufa/lufa.c ****         return;
 211               		.loc 1 583 25 is_stmt 0 view .LVU48
 212 000c 2091 0000 		lds r18,USB_DeviceState
 583:./tmk_core/protocol/lufa/lufa.c ****         return;
 213               		.loc 1 583 8 view .LVU49
 214 0010 2430      		cpi r18,lo8(4)
 215 0012 01F4      		brne .L14
 586:./tmk_core/protocol/lufa/lufa.c ****         .report_id = REPORT_ID_SYSTEM,
 216               		.loc 1 586 5 is_stmt 1 view .LVU50
 586:./tmk_core/protocol/lufa/lufa.c ****         .report_id = REPORT_ID_SYSTEM,
 217               		.loc 1 586 20 is_stmt 0 view .LVU51
 218 0014 22E0      		ldi r18,lo8(2)
 219 0016 2983      		std Y+1,r18
 220 0018 9B83      		std Y+3,r25
 221 001a 8A83      		std Y+2,r24
 590:./tmk_core/protocol/lufa/lufa.c **** 
 222               		.loc 1 590 5 is_stmt 1 view .LVU52
 223               	.LVL14:
 224               	.LBB123:
 225               	.LBI123:
 267:./tmk_core/protocol/lufa/LUFA-git/LUFA/Drivers/USB/Core/AVR8/../AVR8/Endpoint_AVR8.h **** 			{
 226               		.loc 2 267 23 view .LVU53
 227               	.LBB124:
 270:./tmk_core/protocol/lufa/LUFA-git/LUFA/Drivers/USB/Core/AVR8/../AVR8/Endpoint_AVR8.h **** 				#endif
 228               		.loc 2 270 6 view .LVU54
 270:./tmk_core/protocol/lufa/LUFA-git/LUFA/Drivers/USB/Core/AVR8/../AVR8/Endpoint_AVR8.h **** 				#endif
 229               		.loc 2 270 12 is_stmt 0 view .LVU55
 230 001c 83E0      		ldi r24,lo8(3)
 231               	.LVL15:
 270:./tmk_core/protocol/lufa/LUFA-git/LUFA/Drivers/USB/Core/AVR8/../AVR8/Endpoint_AVR8.h **** 				#endif
 232               		.loc 2 270 12 view .LVU56
 233 001e 8093 E900 		sts 233,r24
 234               	.LVL16:
 270:./tmk_core/protocol/lufa/LUFA-git/LUFA/Drivers/USB/Core/AVR8/../AVR8/Endpoint_AVR8.h **** 				#endif
 235               		.loc 2 270 12 view .LVU57
 236 0022 8FEF      		ldi r24,lo8(-1)
 237               	.LVL17:
 238               	.L16:
 270:./tmk_core/protocol/lufa/LUFA-git/LUFA/Drivers/USB/Core/AVR8/../AVR8/Endpoint_AVR8.h **** 				#endif
 239               		.loc 2 270 12 view .LVU58
 240               	.LBE124:
 241               	.LBE123:
 242               	.LBB125:
 243               	.LBI125:
 358:./tmk_core/protocol/lufa/LUFA-git/LUFA/Drivers/USB/Core/AVR8/../AVR8/Endpoint_AVR8.h **** 			{
 244               		.loc 2 358 23 is_stmt 1 view .LVU59
 245               	.LBB126:
 360:./tmk_core/protocol/lufa/LUFA-git/LUFA/Drivers/USB/Core/AVR8/../AVR8/Endpoint_AVR8.h **** 			}
 246               		.loc 2 360 5 view .LVU60
 360:./tmk_core/protocol/lufa/LUFA-git/LUFA/Drivers/USB/Core/AVR8/../AVR8/Endpoint_AVR8.h **** 			}
 247               		.loc 2 360 14 is_stmt 0 view .LVU61
 248 0024 9091 E800 		lds r25,232
 249 0028 8150      		subi r24,lo8(-(-1))
 250               	.LVL18:
 360:./tmk_core/protocol/lufa/LUFA-git/LUFA/Drivers/USB/Core/AVR8/../AVR8/Endpoint_AVR8.h **** 			}
 251               		.loc 2 360 14 view .LVU62
 252               	.LBE126:
 253               	.LBE125:
 593:./tmk_core/protocol/lufa/lufa.c ****     if (!Endpoint_IsReadWriteAllowed()) return;
 254               		.loc 1 593 22 view .LVU63
 255 002a 95FD      		sbrc r25,5
 256 002c 00C0      		rjmp .L17
 593:./tmk_core/protocol/lufa/lufa.c ****     if (!Endpoint_IsReadWriteAllowed()) return;
 257               		.loc 1 593 57 is_stmt 1 view .LVU64
 258               	.LVL19:
 259               	.LBB127:
 260               	.LBI127:
 255:/usr/local/Cellar/avr-gcc/8.1.0/avr/include/util/delay.h **** {
 261               		.loc 3 255 1 view .LVU65
 262               	.LBB128:
 257:/usr/local/Cellar/avr-gcc/8.1.0/avr/include/util/delay.h **** #if __HAS_DELAY_CYCLES && defined(__OPTIMIZE__) && \
 263               		.loc 3 257 2 view .LVU66
 261:/usr/local/Cellar/avr-gcc/8.1.0/avr/include/util/delay.h **** 	extern void __builtin_avr_delay_cycles(unsigned long);
 264               		.loc 3 261 2 view .LVU67
 262:/usr/local/Cellar/avr-gcc/8.1.0/avr/include/util/delay.h **** 	__tmp = ((F_CPU) / 1e6) * __us;
 265               		.loc 3 262 2 view .LVU68
 263:/usr/local/Cellar/avr-gcc/8.1.0/avr/include/util/delay.h **** 
 266               		.loc 3 263 2 view .LVU69
 273:/usr/local/Cellar/avr-gcc/8.1.0/avr/include/util/delay.h **** 	#endif
 267               		.loc 3 273 3 view .LVU70
 268               		.loc 3 276 2 view .LVU71
 269 002e 95ED      		ldi r25,lo8(-43)
 270 0030 9A95      	1:	dec r25
 271 0032 01F4      		brne 1b
 272 0034 0000      		nop
 273               	.LVL20:
 274               		.loc 3 276 2 is_stmt 0 view .LVU72
 275               	.LBE128:
 276               	.LBE127:
 593:./tmk_core/protocol/lufa/lufa.c ****     if (!Endpoint_IsReadWriteAllowed()) return;
 277               		.loc 1 593 11 view .LVU73
 278 0036 8111      		cpse r24,__zero_reg__
 279 0038 00C0      		rjmp .L16
 280               	.LVL21:
 281               	.L17:
 594:./tmk_core/protocol/lufa/lufa.c **** 
 282               		.loc 1 594 5 is_stmt 1 view .LVU74
 283               	.LBB129:
 284               	.LBI129:
 358:./tmk_core/protocol/lufa/LUFA-git/LUFA/Drivers/USB/Core/AVR8/../AVR8/Endpoint_AVR8.h **** 			{
 285               		.loc 2 358 23 view .LVU75
 286               	.LBB130:
 360:./tmk_core/protocol/lufa/LUFA-git/LUFA/Drivers/USB/Core/AVR8/../AVR8/Endpoint_AVR8.h **** 			}
 287               		.loc 2 360 5 view .LVU76
 360:./tmk_core/protocol/lufa/LUFA-git/LUFA/Drivers/USB/Core/AVR8/../AVR8/Endpoint_AVR8.h **** 			}
 288               		.loc 2 360 14 is_stmt 0 view .LVU77
 289 003a 8091 E800 		lds r24,232
 290               	.LBE130:
 291               	.LBE129:
 594:./tmk_core/protocol/lufa/lufa.c **** 
 292               		.loc 1 594 8 view .LVU78
 293 003e 85FF      		sbrs r24,5
 294 0040 00C0      		rjmp .L14
 596:./tmk_core/protocol/lufa/lufa.c ****     Endpoint_ClearIN();
 295               		.loc 1 596 5 is_stmt 1 view .LVU79
 296 0042 50E0      		ldi r21,0
 297 0044 40E0      		ldi r20,0
 298 0046 63E0      		ldi r22,lo8(3)
 299 0048 70E0      		ldi r23,0
 300 004a CE01      		movw r24,r28
 301 004c 0196      		adiw r24,1
 302 004e 0E94 0000 		call Endpoint_Write_Stream_LE
 303               	.LVL22:
 597:./tmk_core/protocol/lufa/lufa.c **** }
 304               		.loc 1 597 5 view .LVU80
 305               	.LBB131:
 306               	.LBI131:
 453:./tmk_core/protocol/lufa/LUFA-git/LUFA/Drivers/USB/Core/AVR8/../AVR8/Endpoint_AVR8.h **** 			{
 307               		.loc 2 453 23 view .LVU81
 308               	.LBB132:
 309               		.loc 2 456 6 view .LVU82
 310               		.loc 2 456 13 is_stmt 0 view .LVU83
 311 0052 8091 E800 		lds r24,232
 312 0056 8E77      		andi r24,lo8(126)
 313 0058 8093 E800 		sts 232,r24
 314               	.LVL23:
 315               	.L14:
 316               	/* epilogue start */
 317               		.loc 2 456 13 view .LVU84
 318               	.LBE132:
 319               	.LBE131:
 598:./tmk_core/protocol/lufa/lufa.c **** 
 320               		.loc 1 598 1 view .LVU85
 321 005c 0F90      		pop __tmp_reg__
 322 005e 0F90      		pop __tmp_reg__
 323 0060 0F90      		pop __tmp_reg__
 324 0062 DF91      		pop r29
 325 0064 CF91      		pop r28
 326 0066 0895      		ret
 327               		.cfi_endproc
 328               	.LFE118:
 330               		.section	.text.send_mouse,"ax",@progbits
 332               	send_mouse:
 333               	.LVL24:
 334               	.LFB117:
 544:./tmk_core/protocol/lufa/lufa.c **** #ifdef MOUSE_ENABLE
 335               		.loc 1 544 1 is_stmt 1 view -0
 336               		.cfi_startproc
 337               	/* prologue: function */
 338               	/* frame size = 0 */
 339               	/* stack size = 0 */
 340               	.L__stack_usage = 0
 544:./tmk_core/protocol/lufa/lufa.c **** #ifdef MOUSE_ENABLE
 341               		.loc 1 544 1 is_stmt 0 view .LVU87
 342 0000 9C01      		movw r18,r24
 559:./tmk_core/protocol/lufa/lufa.c **** 
 343               		.loc 1 559 5 is_stmt 1 view .LVU88
 344               	.LVL25:
 561:./tmk_core/protocol/lufa/lufa.c ****         return;
 345               		.loc 1 561 5 view .LVU89
 561:./tmk_core/protocol/lufa/lufa.c ****         return;
 346               		.loc 1 561 25 is_stmt 0 view .LVU90
 347 0002 8091 0000 		lds r24,USB_DeviceState
 348               	.LVL26:
 561:./tmk_core/protocol/lufa/lufa.c ****         return;
 349               		.loc 1 561 8 view .LVU91
 350 0006 8430      		cpi r24,lo8(4)
 351 0008 01F4      		brne .L26
 565:./tmk_core/protocol/lufa/lufa.c **** 
 352               		.loc 1 565 5 is_stmt 1 view .LVU92
 353               	.LVL27:
 354               	.LBB133:
 355               	.LBI133:
 267:./tmk_core/protocol/lufa/LUFA-git/LUFA/Drivers/USB/Core/AVR8/../AVR8/Endpoint_AVR8.h **** 			{
 356               		.loc 2 267 23 view .LVU93
 357               	.LBB134:
 270:./tmk_core/protocol/lufa/LUFA-git/LUFA/Drivers/USB/Core/AVR8/../AVR8/Endpoint_AVR8.h **** 				#endif
 358               		.loc 2 270 6 view .LVU94
 270:./tmk_core/protocol/lufa/LUFA-git/LUFA/Drivers/USB/Core/AVR8/../AVR8/Endpoint_AVR8.h **** 				#endif
 359               		.loc 2 270 12 is_stmt 0 view .LVU95
 360 000a 82E0      		ldi r24,lo8(2)
 361 000c 8093 E900 		sts 233,r24
 362               	.LVL28:
 270:./tmk_core/protocol/lufa/LUFA-git/LUFA/Drivers/USB/Core/AVR8/../AVR8/Endpoint_AVR8.h **** 				#endif
 363               		.loc 2 270 12 view .LVU96
 364 0010 9FEF      		ldi r25,lo8(-1)
 365               	.LVL29:
 366               	.L29:
 270:./tmk_core/protocol/lufa/LUFA-git/LUFA/Drivers/USB/Core/AVR8/../AVR8/Endpoint_AVR8.h **** 				#endif
 367               		.loc 2 270 12 view .LVU97
 368               	.LBE134:
 369               	.LBE133:
 370               	.LBB135:
 371               	.LBI135:
 358:./tmk_core/protocol/lufa/LUFA-git/LUFA/Drivers/USB/Core/AVR8/../AVR8/Endpoint_AVR8.h **** 			{
 372               		.loc 2 358 23 is_stmt 1 view .LVU98
 373               	.LBB136:
 360:./tmk_core/protocol/lufa/LUFA-git/LUFA/Drivers/USB/Core/AVR8/../AVR8/Endpoint_AVR8.h **** 			}
 374               		.loc 2 360 5 view .LVU99
 360:./tmk_core/protocol/lufa/LUFA-git/LUFA/Drivers/USB/Core/AVR8/../AVR8/Endpoint_AVR8.h **** 			}
 375               		.loc 2 360 14 is_stmt 0 view .LVU100
 376 0012 8091 E800 		lds r24,232
 377 0016 9150      		subi r25,lo8(-(-1))
 378               	.LVL30:
 360:./tmk_core/protocol/lufa/LUFA-git/LUFA/Drivers/USB/Core/AVR8/../AVR8/Endpoint_AVR8.h **** 			}
 379               		.loc 2 360 14 view .LVU101
 380               	.LBE136:
 381               	.LBE135:
 568:./tmk_core/protocol/lufa/lufa.c ****     if (!Endpoint_IsReadWriteAllowed()) return;
 382               		.loc 1 568 22 view .LVU102
 383 0018 85FD      		sbrc r24,5
 384 001a 00C0      		rjmp .L30
 568:./tmk_core/protocol/lufa/lufa.c ****     if (!Endpoint_IsReadWriteAllowed()) return;
 385               		.loc 1 568 57 is_stmt 1 view .LVU103
 386               	.LVL31:
 387               	.LBB137:
 388               	.LBI137:
 255:/usr/local/Cellar/avr-gcc/8.1.0/avr/include/util/delay.h **** {
 389               		.loc 3 255 1 view .LVU104
 390               	.LBB138:
 257:/usr/local/Cellar/avr-gcc/8.1.0/avr/include/util/delay.h **** #if __HAS_DELAY_CYCLES && defined(__OPTIMIZE__) && \
 391               		.loc 3 257 2 view .LVU105
 261:/usr/local/Cellar/avr-gcc/8.1.0/avr/include/util/delay.h **** 	extern void __builtin_avr_delay_cycles(unsigned long);
 392               		.loc 3 261 2 view .LVU106
 262:/usr/local/Cellar/avr-gcc/8.1.0/avr/include/util/delay.h **** 	__tmp = ((F_CPU) / 1e6) * __us;
 393               		.loc 3 262 2 view .LVU107
 263:/usr/local/Cellar/avr-gcc/8.1.0/avr/include/util/delay.h **** 
 394               		.loc 3 263 2 view .LVU108
 273:/usr/local/Cellar/avr-gcc/8.1.0/avr/include/util/delay.h **** 	#endif
 395               		.loc 3 273 3 view .LVU109
 396               		.loc 3 276 2 view .LVU110
 397 001c 85ED      		ldi r24,lo8(-43)
 398 001e 8A95      	1:	dec r24
 399 0020 01F4      		brne 1b
 400 0022 0000      		nop
 401               	.LVL32:
 402               		.loc 3 276 2 is_stmt 0 view .LVU111
 403               	.LBE138:
 404               	.LBE137:
 568:./tmk_core/protocol/lufa/lufa.c ****     if (!Endpoint_IsReadWriteAllowed()) return;
 405               		.loc 1 568 11 view .LVU112
 406 0024 9111      		cpse r25,__zero_reg__
 407 0026 00C0      		rjmp .L29
 408               	.LVL33:
 409               	.L30:
 569:./tmk_core/protocol/lufa/lufa.c **** 
 410               		.loc 1 569 5 is_stmt 1 view .LVU113
 411               	.LBB139:
 412               	.LBI139:
 358:./tmk_core/protocol/lufa/LUFA-git/LUFA/Drivers/USB/Core/AVR8/../AVR8/Endpoint_AVR8.h **** 			{
 413               		.loc 2 358 23 view .LVU114
 414               	.LBB140:
 360:./tmk_core/protocol/lufa/LUFA-git/LUFA/Drivers/USB/Core/AVR8/../AVR8/Endpoint_AVR8.h **** 			}
 415               		.loc 2 360 5 view .LVU115
 360:./tmk_core/protocol/lufa/LUFA-git/LUFA/Drivers/USB/Core/AVR8/../AVR8/Endpoint_AVR8.h **** 			}
 416               		.loc 2 360 14 is_stmt 0 view .LVU116
 417 0028 8091 E800 		lds r24,232
 418               	.LBE140:
 419               	.LBE139:
 569:./tmk_core/protocol/lufa/lufa.c **** 
 420               		.loc 1 569 8 view .LVU117
 421 002c 85FF      		sbrs r24,5
 422 002e 00C0      		rjmp .L26
 572:./tmk_core/protocol/lufa/lufa.c **** 
 423               		.loc 1 572 5 is_stmt 1 view .LVU118
 424 0030 50E0      		ldi r21,0
 425 0032 40E0      		ldi r20,0
 426 0034 65E0      		ldi r22,lo8(5)
 427 0036 70E0      		ldi r23,0
 428 0038 C901      		movw r24,r18
 429 003a 0E94 0000 		call Endpoint_Write_Stream_LE
 430               	.LVL34:
 575:./tmk_core/protocol/lufa/lufa.c **** #endif
 431               		.loc 1 575 5 view .LVU119
 432               	.LBB141:
 433               	.LBI141:
 453:./tmk_core/protocol/lufa/LUFA-git/LUFA/Drivers/USB/Core/AVR8/../AVR8/Endpoint_AVR8.h **** 			{
 434               		.loc 2 453 23 view .LVU120
 435               	.LBB142:
 436               		.loc 2 456 6 view .LVU121
 437               		.loc 2 456 13 is_stmt 0 view .LVU122
 438 003e 8091 E800 		lds r24,232
 439 0042 8E77      		andi r24,lo8(126)
 440 0044 8093 E800 		sts 232,r24
 441               	.LVL35:
 442               	.L26:
 443               	/* epilogue start */
 444               		.loc 2 456 13 view .LVU123
 445               	.LBE142:
 446               	.LBE141:
 577:./tmk_core/protocol/lufa/lufa.c **** 
 447               		.loc 1 577 1 view .LVU124
 448 0048 0895      		ret
 449               		.cfi_endproc
 450               	.LFE117:
 452               		.section	.text.send_keyboard,"ax",@progbits
 454               	send_keyboard:
 455               	.LVL36:
 456               	.LFB116:
 496:./tmk_core/protocol/lufa/lufa.c **** 
 457               		.loc 1 496 1 is_stmt 1 view -0
 458               		.cfi_startproc
 496:./tmk_core/protocol/lufa/lufa.c **** 
 459               		.loc 1 496 1 is_stmt 0 view .LVU126
 460 0000 CF93      		push r28
 461               	.LCFI8:
 462               		.cfi_def_cfa_offset 3
 463               		.cfi_offset 28, -2
 464 0002 DF93      		push r29
 465               	.LCFI9:
 466               		.cfi_def_cfa_offset 4
 467               		.cfi_offset 29, -3
 468               	/* prologue: function */
 469               	/* frame size = 0 */
 470               	/* stack size = 2 */
 471               	.L__stack_usage = 2
 472 0004 EC01      		movw r28,r24
 505:./tmk_core/protocol/lufa/lufa.c **** 
 473               		.loc 1 505 5 is_stmt 1 view .LVU127
 474               	.LVL37:
 507:./tmk_core/protocol/lufa/lufa.c ****         return;
 475               		.loc 1 507 5 view .LVU128
 507:./tmk_core/protocol/lufa/lufa.c ****         return;
 476               		.loc 1 507 25 is_stmt 0 view .LVU129
 477 0006 8091 0000 		lds r24,USB_DeviceState
 478               	.LVL38:
 507:./tmk_core/protocol/lufa/lufa.c ****         return;
 479               		.loc 1 507 8 view .LVU130
 480 000a 8430      		cpi r24,lo8(4)
 481 000c 01F4      		brne .L39
 512:./tmk_core/protocol/lufa/lufa.c ****         /* Report protocol - NKRO */
 482               		.loc 1 512 5 is_stmt 1 view .LVU131
 512:./tmk_core/protocol/lufa/lufa.c ****         /* Report protocol - NKRO */
 483               		.loc 1 512 8 is_stmt 0 view .LVU132
 484 000e 9091 0000 		lds r25,keyboard_protocol
 485 0012 9923      		tst r25
 486 0014 01F0      		breq .L42
 512:./tmk_core/protocol/lufa/lufa.c ****         /* Report protocol - NKRO */
 487               		.loc 1 512 27 discriminator 1 view .LVU133
 488 0016 9091 0000 		lds r25,keymap_config
 489 001a 97FF      		sbrs r25,7
 490 001c 00C0      		rjmp .L42
 514:./tmk_core/protocol/lufa/lufa.c **** 
 491               		.loc 1 514 9 is_stmt 1 view .LVU134
 492               	.LVL39:
 493               	.LBB143:
 494               	.LBI143:
 267:./tmk_core/protocol/lufa/LUFA-git/LUFA/Drivers/USB/Core/AVR8/../AVR8/Endpoint_AVR8.h **** 			{
 495               		.loc 2 267 23 view .LVU135
 496               	.LBB144:
 270:./tmk_core/protocol/lufa/LUFA-git/LUFA/Drivers/USB/Core/AVR8/../AVR8/Endpoint_AVR8.h **** 				#endif
 497               		.loc 2 270 6 view .LVU136
 270:./tmk_core/protocol/lufa/LUFA-git/LUFA/Drivers/USB/Core/AVR8/../AVR8/Endpoint_AVR8.h **** 				#endif
 498               		.loc 2 270 12 is_stmt 0 view .LVU137
 499 001e 8093 E900 		sts 233,r24
 500               	.LVL40:
 270:./tmk_core/protocol/lufa/LUFA-git/LUFA/Drivers/USB/Core/AVR8/../AVR8/Endpoint_AVR8.h **** 				#endif
 501               		.loc 2 270 12 view .LVU138
 502 0022 8FEF      		ldi r24,lo8(-1)
 503               	.LVL41:
 504               	.L43:
 270:./tmk_core/protocol/lufa/LUFA-git/LUFA/Drivers/USB/Core/AVR8/../AVR8/Endpoint_AVR8.h **** 				#endif
 505               		.loc 2 270 12 view .LVU139
 506               	.LBE144:
 507               	.LBE143:
 508               	.LBB145:
 509               	.LBI145:
 358:./tmk_core/protocol/lufa/LUFA-git/LUFA/Drivers/USB/Core/AVR8/../AVR8/Endpoint_AVR8.h **** 			{
 510               		.loc 2 358 23 is_stmt 1 view .LVU140
 511               	.LBB146:
 360:./tmk_core/protocol/lufa/LUFA-git/LUFA/Drivers/USB/Core/AVR8/../AVR8/Endpoint_AVR8.h **** 			}
 512               		.loc 2 360 5 view .LVU141
 360:./tmk_core/protocol/lufa/LUFA-git/LUFA/Drivers/USB/Core/AVR8/../AVR8/Endpoint_AVR8.h **** 			}
 513               		.loc 2 360 14 is_stmt 0 view .LVU142
 514 0024 9091 E800 		lds r25,232
 515 0028 8150      		subi r24,lo8(-(-1))
 516               	.LVL42:
 360:./tmk_core/protocol/lufa/LUFA-git/LUFA/Drivers/USB/Core/AVR8/../AVR8/Endpoint_AVR8.h **** 			}
 517               		.loc 2 360 14 view .LVU143
 518               	.LBE146:
 519               	.LBE145:
 517:./tmk_core/protocol/lufa/lufa.c ****         if (!Endpoint_IsReadWriteAllowed()) return;
 520               		.loc 1 517 26 view .LVU144
 521 002a 95FD      		sbrc r25,5
 522 002c 00C0      		rjmp .L44
 517:./tmk_core/protocol/lufa/lufa.c ****         if (!Endpoint_IsReadWriteAllowed()) return;
 523               		.loc 1 517 61 is_stmt 1 view .LVU145
 524               	.LVL43:
 525               	.LBB147:
 526               	.LBI147:
 255:/usr/local/Cellar/avr-gcc/8.1.0/avr/include/util/delay.h **** {
 527               		.loc 3 255 1 view .LVU146
 528               	.LBB148:
 257:/usr/local/Cellar/avr-gcc/8.1.0/avr/include/util/delay.h **** #if __HAS_DELAY_CYCLES && defined(__OPTIMIZE__) && \
 529               		.loc 3 257 2 view .LVU147
 261:/usr/local/Cellar/avr-gcc/8.1.0/avr/include/util/delay.h **** 	extern void __builtin_avr_delay_cycles(unsigned long);
 530               		.loc 3 261 2 view .LVU148
 262:/usr/local/Cellar/avr-gcc/8.1.0/avr/include/util/delay.h **** 	__tmp = ((F_CPU) / 1e6) * __us;
 531               		.loc 3 262 2 view .LVU149
 263:/usr/local/Cellar/avr-gcc/8.1.0/avr/include/util/delay.h **** 
 532               		.loc 3 263 2 view .LVU150
 273:/usr/local/Cellar/avr-gcc/8.1.0/avr/include/util/delay.h **** 	#endif
 533               		.loc 3 273 3 view .LVU151
 534               		.loc 3 276 2 view .LVU152
 535 002e 95E1      		ldi r25,lo8(21)
 536 0030 9A95      	1:	dec r25
 537 0032 01F4      		brne 1b
 538 0034 0000      		nop
 539               	.LVL44:
 540               		.loc 3 276 2 is_stmt 0 view .LVU153
 541               	.LBE148:
 542               	.LBE147:
 517:./tmk_core/protocol/lufa/lufa.c ****         if (!Endpoint_IsReadWriteAllowed()) return;
 543               		.loc 1 517 15 view .LVU154
 544 0036 8111      		cpse r24,__zero_reg__
 545 0038 00C0      		rjmp .L43
 546               	.LVL45:
 547               	.L44:
 518:./tmk_core/protocol/lufa/lufa.c **** 
 548               		.loc 1 518 9 is_stmt 1 view .LVU155
 549               	.LBB149:
 550               	.LBI149:
 358:./tmk_core/protocol/lufa/LUFA-git/LUFA/Drivers/USB/Core/AVR8/../AVR8/Endpoint_AVR8.h **** 			{
 551               		.loc 2 358 23 view .LVU156
 552               	.LBB150:
 360:./tmk_core/protocol/lufa/LUFA-git/LUFA/Drivers/USB/Core/AVR8/../AVR8/Endpoint_AVR8.h **** 			}
 553               		.loc 2 360 5 view .LVU157
 360:./tmk_core/protocol/lufa/LUFA-git/LUFA/Drivers/USB/Core/AVR8/../AVR8/Endpoint_AVR8.h **** 			}
 554               		.loc 2 360 14 is_stmt 0 view .LVU158
 555 003a 8091 E800 		lds r24,232
 556               	.LBE150:
 557               	.LBE149:
 521:./tmk_core/protocol/lufa/lufa.c ****     }
 558               		.loc 1 521 9 view .LVU159
 559 003e 50E0      		ldi r21,0
 560 0040 40E0      		ldi r20,0
 561 0042 60E2      		ldi r22,lo8(32)
 562 0044 70E0      		ldi r23,0
 518:./tmk_core/protocol/lufa/lufa.c **** 
 563               		.loc 1 518 12 view .LVU160
 564 0046 85FD      		sbrc r24,5
 565 0048 00C0      		rjmp .L66
 566               	.LVL46:
 567               	.L39:
 568               	/* epilogue start */
 541:./tmk_core/protocol/lufa/lufa.c **** 
 569               		.loc 1 541 1 view .LVU161
 570 004a DF91      		pop r29
 571 004c CF91      		pop r28
 572               	.LVL47:
 541:./tmk_core/protocol/lufa/lufa.c **** 
 573               		.loc 1 541 1 view .LVU162
 574 004e 0895      		ret
 575               	.LVL48:
 576               	.L42:
 527:./tmk_core/protocol/lufa/lufa.c **** 
 577               		.loc 1 527 9 is_stmt 1 view .LVU163
 578               	.LBB151:
 579               	.LBI151:
 267:./tmk_core/protocol/lufa/LUFA-git/LUFA/Drivers/USB/Core/AVR8/../AVR8/Endpoint_AVR8.h **** 			{
 580               		.loc 2 267 23 view .LVU164
 581               	.LBB152:
 270:./tmk_core/protocol/lufa/LUFA-git/LUFA/Drivers/USB/Core/AVR8/../AVR8/Endpoint_AVR8.h **** 				#endif
 582               		.loc 2 270 6 view .LVU165
 270:./tmk_core/protocol/lufa/LUFA-git/LUFA/Drivers/USB/Core/AVR8/../AVR8/Endpoint_AVR8.h **** 				#endif
 583               		.loc 2 270 12 is_stmt 0 view .LVU166
 584 0050 81E0      		ldi r24,lo8(1)
 585 0052 8093 E900 		sts 233,r24
 586               	.LVL49:
 270:./tmk_core/protocol/lufa/LUFA-git/LUFA/Drivers/USB/Core/AVR8/../AVR8/Endpoint_AVR8.h **** 				#endif
 587               		.loc 2 270 12 view .LVU167
 588 0056 8FEF      		ldi r24,lo8(-1)
 589               	.LVL50:
 590               	.L48:
 270:./tmk_core/protocol/lufa/LUFA-git/LUFA/Drivers/USB/Core/AVR8/../AVR8/Endpoint_AVR8.h **** 				#endif
 591               		.loc 2 270 12 view .LVU168
 592               	.LBE152:
 593               	.LBE151:
 594               	.LBB153:
 595               	.LBI153:
 358:./tmk_core/protocol/lufa/LUFA-git/LUFA/Drivers/USB/Core/AVR8/../AVR8/Endpoint_AVR8.h **** 			{
 596               		.loc 2 358 23 is_stmt 1 view .LVU169
 597               	.LBB154:
 360:./tmk_core/protocol/lufa/LUFA-git/LUFA/Drivers/USB/Core/AVR8/../AVR8/Endpoint_AVR8.h **** 			}
 598               		.loc 2 360 5 view .LVU170
 360:./tmk_core/protocol/lufa/LUFA-git/LUFA/Drivers/USB/Core/AVR8/../AVR8/Endpoint_AVR8.h **** 			}
 599               		.loc 2 360 14 is_stmt 0 view .LVU171
 600 0058 9091 E800 		lds r25,232
 601 005c 8150      		subi r24,lo8(-(-1))
 602               	.LVL51:
 360:./tmk_core/protocol/lufa/LUFA-git/LUFA/Drivers/USB/Core/AVR8/../AVR8/Endpoint_AVR8.h **** 			}
 603               		.loc 2 360 14 view .LVU172
 604               	.LBE154:
 605               	.LBE153:
 530:./tmk_core/protocol/lufa/lufa.c ****         if (!Endpoint_IsReadWriteAllowed()) return;
 606               		.loc 1 530 26 view .LVU173
 607 005e 95FD      		sbrc r25,5
 608 0060 00C0      		rjmp .L49
 530:./tmk_core/protocol/lufa/lufa.c ****         if (!Endpoint_IsReadWriteAllowed()) return;
 609               		.loc 1 530 61 is_stmt 1 view .LVU174
 610               	.LVL52:
 611               	.LBB155:
 612               	.LBI155:
 255:/usr/local/Cellar/avr-gcc/8.1.0/avr/include/util/delay.h **** {
 613               		.loc 3 255 1 view .LVU175
 614               	.LBB156:
 257:/usr/local/Cellar/avr-gcc/8.1.0/avr/include/util/delay.h **** #if __HAS_DELAY_CYCLES && defined(__OPTIMIZE__) && \
 615               		.loc 3 257 2 view .LVU176
 261:/usr/local/Cellar/avr-gcc/8.1.0/avr/include/util/delay.h **** 	extern void __builtin_avr_delay_cycles(unsigned long);
 616               		.loc 3 261 2 view .LVU177
 262:/usr/local/Cellar/avr-gcc/8.1.0/avr/include/util/delay.h **** 	__tmp = ((F_CPU) / 1e6) * __us;
 617               		.loc 3 262 2 view .LVU178
 263:/usr/local/Cellar/avr-gcc/8.1.0/avr/include/util/delay.h **** 
 618               		.loc 3 263 2 view .LVU179
 273:/usr/local/Cellar/avr-gcc/8.1.0/avr/include/util/delay.h **** 	#endif
 619               		.loc 3 273 3 view .LVU180
 620               		.loc 3 276 2 view .LVU181
 621 0062 95ED      		ldi r25,lo8(-43)
 622 0064 9A95      	1:	dec r25
 623 0066 01F4      		brne 1b
 624 0068 0000      		nop
 625               	.LVL53:
 626               		.loc 3 276 2 is_stmt 0 view .LVU182
 627               	.LBE156:
 628               	.LBE155:
 530:./tmk_core/protocol/lufa/lufa.c ****         if (!Endpoint_IsReadWriteAllowed()) return;
 629               		.loc 1 530 15 view .LVU183
 630 006a 8111      		cpse r24,__zero_reg__
 631 006c 00C0      		rjmp .L48
 632               	.LVL54:
 633               	.L49:
 531:./tmk_core/protocol/lufa/lufa.c **** 
 634               		.loc 1 531 9 is_stmt 1 view .LVU184
 635               	.LBB157:
 636               	.LBI157:
 358:./tmk_core/protocol/lufa/LUFA-git/LUFA/Drivers/USB/Core/AVR8/../AVR8/Endpoint_AVR8.h **** 			{
 637               		.loc 2 358 23 view .LVU185
 638               	.LBB158:
 360:./tmk_core/protocol/lufa/LUFA-git/LUFA/Drivers/USB/Core/AVR8/../AVR8/Endpoint_AVR8.h **** 			}
 639               		.loc 2 360 5 view .LVU186
 360:./tmk_core/protocol/lufa/LUFA-git/LUFA/Drivers/USB/Core/AVR8/../AVR8/Endpoint_AVR8.h **** 			}
 640               		.loc 2 360 14 is_stmt 0 view .LVU187
 641 006e 8091 E800 		lds r24,232
 642               	.LBE158:
 643               	.LBE157:
 531:./tmk_core/protocol/lufa/lufa.c **** 
 644               		.loc 1 531 12 view .LVU188
 645 0072 85FF      		sbrs r24,5
 646 0074 00C0      		rjmp .L39
 534:./tmk_core/protocol/lufa/lufa.c ****     }
 647               		.loc 1 534 9 is_stmt 1 view .LVU189
 648 0076 50E0      		ldi r21,0
 649 0078 40E0      		ldi r20,0
 650 007a 68E0      		ldi r22,lo8(8)
 651 007c 70E0      		ldi r23,0
 652               	.LVL55:
 653               	.L66:
 534:./tmk_core/protocol/lufa/lufa.c ****     }
 654               		.loc 1 534 9 is_stmt 0 view .LVU190
 655 007e CE01      		movw r24,r28
 656 0080 0E94 0000 		call Endpoint_Write_Stream_LE
 657               	.LVL56:
 538:./tmk_core/protocol/lufa/lufa.c **** 
 658               		.loc 1 538 5 is_stmt 1 view .LVU191
 659               	.LBB159:
 660               	.LBI159:
 453:./tmk_core/protocol/lufa/LUFA-git/LUFA/Drivers/USB/Core/AVR8/../AVR8/Endpoint_AVR8.h **** 			{
 661               		.loc 2 453 23 view .LVU192
 662               	.LBB160:
 663               		.loc 2 456 6 view .LVU193
 664               		.loc 2 456 13 is_stmt 0 view .LVU194
 665 0084 8091 E800 		lds r24,232
 666 0088 8E77      		andi r24,lo8(126)
 667 008a 8093 E800 		sts 232,r24
 668               	.LBE160:
 669               	.LBE159:
 540:./tmk_core/protocol/lufa/lufa.c **** }
 670               		.loc 1 540 5 is_stmt 1 view .LVU195
 540:./tmk_core/protocol/lufa/lufa.c **** }
 671               		.loc 1 540 26 is_stmt 0 view .LVU196
 672 008e 80E2      		ldi r24,lo8(32)
 673 0090 FE01      		movw r30,r28
 674 0092 A0E0      		ldi r26,lo8(keyboard_report_sent)
 675 0094 B0E0      		ldi r27,hi8(keyboard_report_sent)
 676               		0:
 677 0096 0190      		ld r0,Z+
 678 0098 0D92      		st X+,r0
 679 009a 8A95      		dec r24
 680 009c 01F4      		brne 0b
 681 009e 00C0      		rjmp .L39
 682               		.cfi_endproc
 683               	.LFE116:
 685               		.section	.text.EVENT_USB_Device_Connect,"ax",@progbits
 686               	.global	EVENT_USB_Device_Connect
 688               	EVENT_USB_Device_Connect:
 689               	.LFB108:
 239:./tmk_core/protocol/lufa/lufa.c ****     print("[C]");
 690               		.loc 1 239 1 is_stmt 1 view -0
 691               		.cfi_startproc
 692               	/* prologue: function */
 693               	/* frame size = 0 */
 694               	/* stack size = 0 */
 695               	.L__stack_usage = 0
 240:./tmk_core/protocol/lufa/lufa.c ****     /* For battery powered device */
 696               		.loc 1 240 17 view .LVU198
 242:./tmk_core/protocol/lufa/lufa.c ****         USB_Disable();
 697               		.loc 1 242 5 view .LVU199
 242:./tmk_core/protocol/lufa/lufa.c ****         USB_Disable();
 698               		.loc 1 242 9 is_stmt 0 view .LVU200
 699 0000 8091 0000 		lds r24,USB_IsInitialized
 242:./tmk_core/protocol/lufa/lufa.c ****         USB_Disable();
 700               		.loc 1 242 8 view .LVU201
 701 0004 8111      		cpse r24,__zero_reg__
 702 0006 00C0      		rjmp .L67
 243:./tmk_core/protocol/lufa/lufa.c ****         USB_Init();
 703               		.loc 1 243 9 is_stmt 1 view .LVU202
 704 0008 0E94 0000 		call USB_Disable
 705               	.LVL57:
 244:./tmk_core/protocol/lufa/lufa.c ****         USB_Device_EnableSOFEvents();
 706               		.loc 1 244 9 view .LVU203
 707 000c 0E94 0000 		call USB_Init
 708               	.LVL58:
 245:./tmk_core/protocol/lufa/lufa.c ****     }
 709               		.loc 1 245 9 view .LVU204
 710               	.LBB161:
 711               	.LBI161:
 712               		.file 4 "./tmk_core/protocol/lufa/LUFA-git/LUFA/Drivers/USB/Core/AVR8/../AVR8/Device_AVR8.h"
   1:./tmk_core/protocol/lufa/LUFA-git/LUFA/Drivers/USB/Core/AVR8/../AVR8/Device_AVR8.h **** /*
   2:./tmk_core/protocol/lufa/LUFA-git/LUFA/Drivers/USB/Core/AVR8/../AVR8/Device_AVR8.h ****              LUFA Library
   3:./tmk_core/protocol/lufa/LUFA-git/LUFA/Drivers/USB/Core/AVR8/../AVR8/Device_AVR8.h ****      Copyright (C) Dean Camera, 2014.
   4:./tmk_core/protocol/lufa/LUFA-git/LUFA/Drivers/USB/Core/AVR8/../AVR8/Device_AVR8.h **** 
   5:./tmk_core/protocol/lufa/LUFA-git/LUFA/Drivers/USB/Core/AVR8/../AVR8/Device_AVR8.h ****   dean [at] fourwalledcubicle [dot] com
   6:./tmk_core/protocol/lufa/LUFA-git/LUFA/Drivers/USB/Core/AVR8/../AVR8/Device_AVR8.h ****            www.lufa-lib.org
   7:./tmk_core/protocol/lufa/LUFA-git/LUFA/Drivers/USB/Core/AVR8/../AVR8/Device_AVR8.h **** */
   8:./tmk_core/protocol/lufa/LUFA-git/LUFA/Drivers/USB/Core/AVR8/../AVR8/Device_AVR8.h **** 
   9:./tmk_core/protocol/lufa/LUFA-git/LUFA/Drivers/USB/Core/AVR8/../AVR8/Device_AVR8.h **** /*
  10:./tmk_core/protocol/lufa/LUFA-git/LUFA/Drivers/USB/Core/AVR8/../AVR8/Device_AVR8.h ****   Copyright 2014  Dean Camera (dean [at] fourwalledcubicle [dot] com)
  11:./tmk_core/protocol/lufa/LUFA-git/LUFA/Drivers/USB/Core/AVR8/../AVR8/Device_AVR8.h **** 
  12:./tmk_core/protocol/lufa/LUFA-git/LUFA/Drivers/USB/Core/AVR8/../AVR8/Device_AVR8.h ****   Permission to use, copy, modify, distribute, and sell this
  13:./tmk_core/protocol/lufa/LUFA-git/LUFA/Drivers/USB/Core/AVR8/../AVR8/Device_AVR8.h ****   software and its documentation for any purpose is hereby granted
  14:./tmk_core/protocol/lufa/LUFA-git/LUFA/Drivers/USB/Core/AVR8/../AVR8/Device_AVR8.h ****   without fee, provided that the above copyright notice appear in
  15:./tmk_core/protocol/lufa/LUFA-git/LUFA/Drivers/USB/Core/AVR8/../AVR8/Device_AVR8.h ****   all copies and that both that the copyright notice and this
  16:./tmk_core/protocol/lufa/LUFA-git/LUFA/Drivers/USB/Core/AVR8/../AVR8/Device_AVR8.h ****   permission notice and warranty disclaimer appear in supporting
  17:./tmk_core/protocol/lufa/LUFA-git/LUFA/Drivers/USB/Core/AVR8/../AVR8/Device_AVR8.h ****   documentation, and that the name of the author not be used in
  18:./tmk_core/protocol/lufa/LUFA-git/LUFA/Drivers/USB/Core/AVR8/../AVR8/Device_AVR8.h ****   advertising or publicity pertaining to distribution of the
  19:./tmk_core/protocol/lufa/LUFA-git/LUFA/Drivers/USB/Core/AVR8/../AVR8/Device_AVR8.h ****   software without specific, written prior permission.
  20:./tmk_core/protocol/lufa/LUFA-git/LUFA/Drivers/USB/Core/AVR8/../AVR8/Device_AVR8.h **** 
  21:./tmk_core/protocol/lufa/LUFA-git/LUFA/Drivers/USB/Core/AVR8/../AVR8/Device_AVR8.h ****   The author disclaims all warranties with regard to this
  22:./tmk_core/protocol/lufa/LUFA-git/LUFA/Drivers/USB/Core/AVR8/../AVR8/Device_AVR8.h ****   software, including all implied warranties of merchantability
  23:./tmk_core/protocol/lufa/LUFA-git/LUFA/Drivers/USB/Core/AVR8/../AVR8/Device_AVR8.h ****   and fitness.  In no event shall the author be liable for any
  24:./tmk_core/protocol/lufa/LUFA-git/LUFA/Drivers/USB/Core/AVR8/../AVR8/Device_AVR8.h ****   special, indirect or consequential damages or any damages
  25:./tmk_core/protocol/lufa/LUFA-git/LUFA/Drivers/USB/Core/AVR8/../AVR8/Device_AVR8.h ****   whatsoever resulting from loss of use, data or profits, whether
  26:./tmk_core/protocol/lufa/LUFA-git/LUFA/Drivers/USB/Core/AVR8/../AVR8/Device_AVR8.h ****   in an action of contract, negligence or other tortious action,
  27:./tmk_core/protocol/lufa/LUFA-git/LUFA/Drivers/USB/Core/AVR8/../AVR8/Device_AVR8.h ****   arising out of or in connection with the use or performance of
  28:./tmk_core/protocol/lufa/LUFA-git/LUFA/Drivers/USB/Core/AVR8/../AVR8/Device_AVR8.h ****   this software.
  29:./tmk_core/protocol/lufa/LUFA-git/LUFA/Drivers/USB/Core/AVR8/../AVR8/Device_AVR8.h **** */
  30:./tmk_core/protocol/lufa/LUFA-git/LUFA/Drivers/USB/Core/AVR8/../AVR8/Device_AVR8.h **** 
  31:./tmk_core/protocol/lufa/LUFA-git/LUFA/Drivers/USB/Core/AVR8/../AVR8/Device_AVR8.h **** /** \file
  32:./tmk_core/protocol/lufa/LUFA-git/LUFA/Drivers/USB/Core/AVR8/../AVR8/Device_AVR8.h ****  *  \brief USB Device definitions for the AVR8 microcontrollers.
  33:./tmk_core/protocol/lufa/LUFA-git/LUFA/Drivers/USB/Core/AVR8/../AVR8/Device_AVR8.h ****  *  \copydetails Group_Device_AVR8
  34:./tmk_core/protocol/lufa/LUFA-git/LUFA/Drivers/USB/Core/AVR8/../AVR8/Device_AVR8.h ****  *
  35:./tmk_core/protocol/lufa/LUFA-git/LUFA/Drivers/USB/Core/AVR8/../AVR8/Device_AVR8.h ****  *  \note This file should not be included directly. It is automatically included as needed by the 
  36:./tmk_core/protocol/lufa/LUFA-git/LUFA/Drivers/USB/Core/AVR8/../AVR8/Device_AVR8.h ****  *        dispatch header located in LUFA/Drivers/USB/USB.h.
  37:./tmk_core/protocol/lufa/LUFA-git/LUFA/Drivers/USB/Core/AVR8/../AVR8/Device_AVR8.h ****  */
  38:./tmk_core/protocol/lufa/LUFA-git/LUFA/Drivers/USB/Core/AVR8/../AVR8/Device_AVR8.h **** 
  39:./tmk_core/protocol/lufa/LUFA-git/LUFA/Drivers/USB/Core/AVR8/../AVR8/Device_AVR8.h **** /** \ingroup Group_Device
  40:./tmk_core/protocol/lufa/LUFA-git/LUFA/Drivers/USB/Core/AVR8/../AVR8/Device_AVR8.h ****  *  \defgroup Group_Device_AVR8 Device Management (AVR8)
  41:./tmk_core/protocol/lufa/LUFA-git/LUFA/Drivers/USB/Core/AVR8/../AVR8/Device_AVR8.h ****  *  \brief USB Device definitions for the AVR8 microcontrollers.
  42:./tmk_core/protocol/lufa/LUFA-git/LUFA/Drivers/USB/Core/AVR8/../AVR8/Device_AVR8.h ****  *
  43:./tmk_core/protocol/lufa/LUFA-git/LUFA/Drivers/USB/Core/AVR8/../AVR8/Device_AVR8.h ****  *  Architecture specific USB Device definitions for the Atmel 8-bit AVR microcontrollers.
  44:./tmk_core/protocol/lufa/LUFA-git/LUFA/Drivers/USB/Core/AVR8/../AVR8/Device_AVR8.h ****  *
  45:./tmk_core/protocol/lufa/LUFA-git/LUFA/Drivers/USB/Core/AVR8/../AVR8/Device_AVR8.h ****  *  @{
  46:./tmk_core/protocol/lufa/LUFA-git/LUFA/Drivers/USB/Core/AVR8/../AVR8/Device_AVR8.h ****  */
  47:./tmk_core/protocol/lufa/LUFA-git/LUFA/Drivers/USB/Core/AVR8/../AVR8/Device_AVR8.h **** 
  48:./tmk_core/protocol/lufa/LUFA-git/LUFA/Drivers/USB/Core/AVR8/../AVR8/Device_AVR8.h **** #ifndef __USBDEVICE_AVR8_H__
  49:./tmk_core/protocol/lufa/LUFA-git/LUFA/Drivers/USB/Core/AVR8/../AVR8/Device_AVR8.h **** #define __USBDEVICE_AVR8_H__
  50:./tmk_core/protocol/lufa/LUFA-git/LUFA/Drivers/USB/Core/AVR8/../AVR8/Device_AVR8.h **** 
  51:./tmk_core/protocol/lufa/LUFA-git/LUFA/Drivers/USB/Core/AVR8/../AVR8/Device_AVR8.h **** 	/* Includes: */
  52:./tmk_core/protocol/lufa/LUFA-git/LUFA/Drivers/USB/Core/AVR8/../AVR8/Device_AVR8.h **** 		#include "../../../../Common/Common.h"
  53:./tmk_core/protocol/lufa/LUFA-git/LUFA/Drivers/USB/Core/AVR8/../AVR8/Device_AVR8.h **** 		#include "../USBController.h"
  54:./tmk_core/protocol/lufa/LUFA-git/LUFA/Drivers/USB/Core/AVR8/../AVR8/Device_AVR8.h **** 		#include "../StdDescriptors.h"
  55:./tmk_core/protocol/lufa/LUFA-git/LUFA/Drivers/USB/Core/AVR8/../AVR8/Device_AVR8.h **** 		#include "../USBInterrupt.h"
  56:./tmk_core/protocol/lufa/LUFA-git/LUFA/Drivers/USB/Core/AVR8/../AVR8/Device_AVR8.h **** 		#include "../Endpoint.h"
  57:./tmk_core/protocol/lufa/LUFA-git/LUFA/Drivers/USB/Core/AVR8/../AVR8/Device_AVR8.h **** 
  58:./tmk_core/protocol/lufa/LUFA-git/LUFA/Drivers/USB/Core/AVR8/../AVR8/Device_AVR8.h **** 	/* Enable C linkage for C++ Compilers: */
  59:./tmk_core/protocol/lufa/LUFA-git/LUFA/Drivers/USB/Core/AVR8/../AVR8/Device_AVR8.h **** 		#if defined(__cplusplus)
  60:./tmk_core/protocol/lufa/LUFA-git/LUFA/Drivers/USB/Core/AVR8/../AVR8/Device_AVR8.h **** 			extern "C" {
  61:./tmk_core/protocol/lufa/LUFA-git/LUFA/Drivers/USB/Core/AVR8/../AVR8/Device_AVR8.h **** 		#endif
  62:./tmk_core/protocol/lufa/LUFA-git/LUFA/Drivers/USB/Core/AVR8/../AVR8/Device_AVR8.h **** 
  63:./tmk_core/protocol/lufa/LUFA-git/LUFA/Drivers/USB/Core/AVR8/../AVR8/Device_AVR8.h **** 	/* Preprocessor Checks: */
  64:./tmk_core/protocol/lufa/LUFA-git/LUFA/Drivers/USB/Core/AVR8/../AVR8/Device_AVR8.h **** 		#if !defined(__INCLUDE_FROM_USB_DRIVER)
  65:./tmk_core/protocol/lufa/LUFA-git/LUFA/Drivers/USB/Core/AVR8/../AVR8/Device_AVR8.h **** 			#error Do not include this file directly. Include LUFA/Drivers/USB/USB.h instead.
  66:./tmk_core/protocol/lufa/LUFA-git/LUFA/Drivers/USB/Core/AVR8/../AVR8/Device_AVR8.h **** 		#endif
  67:./tmk_core/protocol/lufa/LUFA-git/LUFA/Drivers/USB/Core/AVR8/../AVR8/Device_AVR8.h **** 
  68:./tmk_core/protocol/lufa/LUFA-git/LUFA/Drivers/USB/Core/AVR8/../AVR8/Device_AVR8.h **** 		#if (defined(USE_RAM_DESCRIPTORS) && defined(USE_EEPROM_DESCRIPTORS))
  69:./tmk_core/protocol/lufa/LUFA-git/LUFA/Drivers/USB/Core/AVR8/../AVR8/Device_AVR8.h **** 			#error USE_RAM_DESCRIPTORS and USE_EEPROM_DESCRIPTORS are mutually exclusive.
  70:./tmk_core/protocol/lufa/LUFA-git/LUFA/Drivers/USB/Core/AVR8/../AVR8/Device_AVR8.h **** 		#endif
  71:./tmk_core/protocol/lufa/LUFA-git/LUFA/Drivers/USB/Core/AVR8/../AVR8/Device_AVR8.h **** 
  72:./tmk_core/protocol/lufa/LUFA-git/LUFA/Drivers/USB/Core/AVR8/../AVR8/Device_AVR8.h **** 		#if (defined(USE_FLASH_DESCRIPTORS) && defined(USE_EEPROM_DESCRIPTORS))
  73:./tmk_core/protocol/lufa/LUFA-git/LUFA/Drivers/USB/Core/AVR8/../AVR8/Device_AVR8.h **** 			#error USE_FLASH_DESCRIPTORS and USE_EEPROM_DESCRIPTORS are mutually exclusive.
  74:./tmk_core/protocol/lufa/LUFA-git/LUFA/Drivers/USB/Core/AVR8/../AVR8/Device_AVR8.h **** 		#endif
  75:./tmk_core/protocol/lufa/LUFA-git/LUFA/Drivers/USB/Core/AVR8/../AVR8/Device_AVR8.h **** 
  76:./tmk_core/protocol/lufa/LUFA-git/LUFA/Drivers/USB/Core/AVR8/../AVR8/Device_AVR8.h **** 		#if (defined(USE_FLASH_DESCRIPTORS) && defined(USE_RAM_DESCRIPTORS))
  77:./tmk_core/protocol/lufa/LUFA-git/LUFA/Drivers/USB/Core/AVR8/../AVR8/Device_AVR8.h **** 			#error USE_FLASH_DESCRIPTORS and USE_RAM_DESCRIPTORS are mutually exclusive.
  78:./tmk_core/protocol/lufa/LUFA-git/LUFA/Drivers/USB/Core/AVR8/../AVR8/Device_AVR8.h **** 		#endif
  79:./tmk_core/protocol/lufa/LUFA-git/LUFA/Drivers/USB/Core/AVR8/../AVR8/Device_AVR8.h **** 
  80:./tmk_core/protocol/lufa/LUFA-git/LUFA/Drivers/USB/Core/AVR8/../AVR8/Device_AVR8.h **** 	/* Public Interface - May be used in end-application: */
  81:./tmk_core/protocol/lufa/LUFA-git/LUFA/Drivers/USB/Core/AVR8/../AVR8/Device_AVR8.h **** 		/* Macros: */
  82:./tmk_core/protocol/lufa/LUFA-git/LUFA/Drivers/USB/Core/AVR8/../AVR8/Device_AVR8.h **** 			/** \name USB Device Mode Option Masks */
  83:./tmk_core/protocol/lufa/LUFA-git/LUFA/Drivers/USB/Core/AVR8/../AVR8/Device_AVR8.h **** 			//@{
  84:./tmk_core/protocol/lufa/LUFA-git/LUFA/Drivers/USB/Core/AVR8/../AVR8/Device_AVR8.h **** 			#if defined(USB_SERIES_4_AVR) || defined(USB_SERIES_6_AVR) || defined(USB_SERIES_7_AVR) || defin
  85:./tmk_core/protocol/lufa/LUFA-git/LUFA/Drivers/USB/Core/AVR8/../AVR8/Device_AVR8.h **** 				/** Mask for the Options parameter of the \ref USB_Init() function. This indicates that the
  86:./tmk_core/protocol/lufa/LUFA-git/LUFA/Drivers/USB/Core/AVR8/../AVR8/Device_AVR8.h **** 				 *  USB interface should be initialized in low speed (1.5Mb/s) mode.
  87:./tmk_core/protocol/lufa/LUFA-git/LUFA/Drivers/USB/Core/AVR8/../AVR8/Device_AVR8.h **** 				 *
  88:./tmk_core/protocol/lufa/LUFA-git/LUFA/Drivers/USB/Core/AVR8/../AVR8/Device_AVR8.h **** 				 *  \note Low Speed mode is not available on all USB AVR models.
  89:./tmk_core/protocol/lufa/LUFA-git/LUFA/Drivers/USB/Core/AVR8/../AVR8/Device_AVR8.h **** 				 *        \n
  90:./tmk_core/protocol/lufa/LUFA-git/LUFA/Drivers/USB/Core/AVR8/../AVR8/Device_AVR8.h **** 				 *
  91:./tmk_core/protocol/lufa/LUFA-git/LUFA/Drivers/USB/Core/AVR8/../AVR8/Device_AVR8.h **** 				 *  \note Restrictions apply on the number, size and type of endpoints which can be used
  92:./tmk_core/protocol/lufa/LUFA-git/LUFA/Drivers/USB/Core/AVR8/../AVR8/Device_AVR8.h **** 				 *        when running in low speed mode - please refer to the USB 2.0 specification.
  93:./tmk_core/protocol/lufa/LUFA-git/LUFA/Drivers/USB/Core/AVR8/../AVR8/Device_AVR8.h **** 				 */
  94:./tmk_core/protocol/lufa/LUFA-git/LUFA/Drivers/USB/Core/AVR8/../AVR8/Device_AVR8.h **** 				#define USB_DEVICE_OPT_LOWSPEED            (1 << 0)
  95:./tmk_core/protocol/lufa/LUFA-git/LUFA/Drivers/USB/Core/AVR8/../AVR8/Device_AVR8.h **** 			#endif
  96:./tmk_core/protocol/lufa/LUFA-git/LUFA/Drivers/USB/Core/AVR8/../AVR8/Device_AVR8.h **** 
  97:./tmk_core/protocol/lufa/LUFA-git/LUFA/Drivers/USB/Core/AVR8/../AVR8/Device_AVR8.h **** 			/** Mask for the Options parameter of the \ref USB_Init() function. This indicates that the
  98:./tmk_core/protocol/lufa/LUFA-git/LUFA/Drivers/USB/Core/AVR8/../AVR8/Device_AVR8.h **** 			 *  USB interface should be initialized in full speed (12Mb/s) mode.
  99:./tmk_core/protocol/lufa/LUFA-git/LUFA/Drivers/USB/Core/AVR8/../AVR8/Device_AVR8.h **** 			 */
 100:./tmk_core/protocol/lufa/LUFA-git/LUFA/Drivers/USB/Core/AVR8/../AVR8/Device_AVR8.h **** 			#define USB_DEVICE_OPT_FULLSPEED               (0 << 0)
 101:./tmk_core/protocol/lufa/LUFA-git/LUFA/Drivers/USB/Core/AVR8/../AVR8/Device_AVR8.h **** 			//@}
 102:./tmk_core/protocol/lufa/LUFA-git/LUFA/Drivers/USB/Core/AVR8/../AVR8/Device_AVR8.h **** 
 103:./tmk_core/protocol/lufa/LUFA-git/LUFA/Drivers/USB/Core/AVR8/../AVR8/Device_AVR8.h **** 			#if (!defined(NO_INTERNAL_SERIAL) && \
 104:./tmk_core/protocol/lufa/LUFA-git/LUFA/Drivers/USB/Core/AVR8/../AVR8/Device_AVR8.h **** 			     (defined(USB_SERIES_7_AVR) || defined(USB_SERIES_6_AVR) || \
 105:./tmk_core/protocol/lufa/LUFA-git/LUFA/Drivers/USB/Core/AVR8/../AVR8/Device_AVR8.h **** 			      defined(USB_SERIES_4_AVR) || defined(USB_SERIES_2_AVR) || \
 106:./tmk_core/protocol/lufa/LUFA-git/LUFA/Drivers/USB/Core/AVR8/../AVR8/Device_AVR8.h **** 				  defined(__DOXYGEN__)))
 107:./tmk_core/protocol/lufa/LUFA-git/LUFA/Drivers/USB/Core/AVR8/../AVR8/Device_AVR8.h **** 				/** String descriptor index for the device's unique serial number string descriptor within the 
 108:./tmk_core/protocol/lufa/LUFA-git/LUFA/Drivers/USB/Core/AVR8/../AVR8/Device_AVR8.h **** 				 *  This unique serial number is used by the host to associate resources to the device (such as
 109:./tmk_core/protocol/lufa/LUFA-git/LUFA/Drivers/USB/Core/AVR8/../AVR8/Device_AVR8.h **** 				 *  number allocations) to a device regardless of the port it is plugged in to on the host. Som
 110:./tmk_core/protocol/lufa/LUFA-git/LUFA/Drivers/USB/Core/AVR8/../AVR8/Device_AVR8.h **** 				 *  a unique serial number internally, and setting the device descriptors serial number string 
 111:./tmk_core/protocol/lufa/LUFA-git/LUFA/Drivers/USB/Core/AVR8/../AVR8/Device_AVR8.h **** 				 *  will cause it to use the internal serial number.
 112:./tmk_core/protocol/lufa/LUFA-git/LUFA/Drivers/USB/Core/AVR8/../AVR8/Device_AVR8.h **** 				 *
 113:./tmk_core/protocol/lufa/LUFA-git/LUFA/Drivers/USB/Core/AVR8/../AVR8/Device_AVR8.h **** 				 *  On unsupported devices, this will evaluate to \ref NO_DESCRIPTOR and so will force the host
 114:./tmk_core/protocol/lufa/LUFA-git/LUFA/Drivers/USB/Core/AVR8/../AVR8/Device_AVR8.h **** 				 *  number for the device.
 115:./tmk_core/protocol/lufa/LUFA-git/LUFA/Drivers/USB/Core/AVR8/../AVR8/Device_AVR8.h **** 				 */
 116:./tmk_core/protocol/lufa/LUFA-git/LUFA/Drivers/USB/Core/AVR8/../AVR8/Device_AVR8.h **** 				#define USE_INTERNAL_SERIAL            0xDC
 117:./tmk_core/protocol/lufa/LUFA-git/LUFA/Drivers/USB/Core/AVR8/../AVR8/Device_AVR8.h **** 
 118:./tmk_core/protocol/lufa/LUFA-git/LUFA/Drivers/USB/Core/AVR8/../AVR8/Device_AVR8.h **** 				/** Length of the device's unique internal serial number, in bits, if present on the selected m
 119:./tmk_core/protocol/lufa/LUFA-git/LUFA/Drivers/USB/Core/AVR8/../AVR8/Device_AVR8.h **** 				 *  model.
 120:./tmk_core/protocol/lufa/LUFA-git/LUFA/Drivers/USB/Core/AVR8/../AVR8/Device_AVR8.h **** 				 */
 121:./tmk_core/protocol/lufa/LUFA-git/LUFA/Drivers/USB/Core/AVR8/../AVR8/Device_AVR8.h **** 				#define INTERNAL_SERIAL_LENGTH_BITS    80
 122:./tmk_core/protocol/lufa/LUFA-git/LUFA/Drivers/USB/Core/AVR8/../AVR8/Device_AVR8.h **** 
 123:./tmk_core/protocol/lufa/LUFA-git/LUFA/Drivers/USB/Core/AVR8/../AVR8/Device_AVR8.h **** 				/** Start address of the internal serial number, in the appropriate address space, if present o
 124:./tmk_core/protocol/lufa/LUFA-git/LUFA/Drivers/USB/Core/AVR8/../AVR8/Device_AVR8.h **** 				 *  model.
 125:./tmk_core/protocol/lufa/LUFA-git/LUFA/Drivers/USB/Core/AVR8/../AVR8/Device_AVR8.h **** 				 */
 126:./tmk_core/protocol/lufa/LUFA-git/LUFA/Drivers/USB/Core/AVR8/../AVR8/Device_AVR8.h **** 				#define INTERNAL_SERIAL_START_ADDRESS  0x0E
 127:./tmk_core/protocol/lufa/LUFA-git/LUFA/Drivers/USB/Core/AVR8/../AVR8/Device_AVR8.h **** 			#else
 128:./tmk_core/protocol/lufa/LUFA-git/LUFA/Drivers/USB/Core/AVR8/../AVR8/Device_AVR8.h **** 				#define USE_INTERNAL_SERIAL            NO_DESCRIPTOR
 129:./tmk_core/protocol/lufa/LUFA-git/LUFA/Drivers/USB/Core/AVR8/../AVR8/Device_AVR8.h **** 
 130:./tmk_core/protocol/lufa/LUFA-git/LUFA/Drivers/USB/Core/AVR8/../AVR8/Device_AVR8.h **** 				#define INTERNAL_SERIAL_LENGTH_BITS    0
 131:./tmk_core/protocol/lufa/LUFA-git/LUFA/Drivers/USB/Core/AVR8/../AVR8/Device_AVR8.h **** 				#define INTERNAL_SERIAL_START_ADDRESS  0
 132:./tmk_core/protocol/lufa/LUFA-git/LUFA/Drivers/USB/Core/AVR8/../AVR8/Device_AVR8.h **** 			#endif
 133:./tmk_core/protocol/lufa/LUFA-git/LUFA/Drivers/USB/Core/AVR8/../AVR8/Device_AVR8.h **** 
 134:./tmk_core/protocol/lufa/LUFA-git/LUFA/Drivers/USB/Core/AVR8/../AVR8/Device_AVR8.h **** 		/* Function Prototypes: */
 135:./tmk_core/protocol/lufa/LUFA-git/LUFA/Drivers/USB/Core/AVR8/../AVR8/Device_AVR8.h **** 			/** Sends a Remote Wakeup request to the host. This signals to the host that the device should
 136:./tmk_core/protocol/lufa/LUFA-git/LUFA/Drivers/USB/Core/AVR8/../AVR8/Device_AVR8.h **** 			 *  be taken out of suspended mode, and communications should resume.
 137:./tmk_core/protocol/lufa/LUFA-git/LUFA/Drivers/USB/Core/AVR8/../AVR8/Device_AVR8.h **** 			 *
 138:./tmk_core/protocol/lufa/LUFA-git/LUFA/Drivers/USB/Core/AVR8/../AVR8/Device_AVR8.h **** 			 *  Typically, this is implemented so that HID devices (mice, keyboards, etc.) can wake up the
 139:./tmk_core/protocol/lufa/LUFA-git/LUFA/Drivers/USB/Core/AVR8/../AVR8/Device_AVR8.h **** 			 *  host computer when the host has suspended all USB devices to enter a low power state.
 140:./tmk_core/protocol/lufa/LUFA-git/LUFA/Drivers/USB/Core/AVR8/../AVR8/Device_AVR8.h **** 			 *
 141:./tmk_core/protocol/lufa/LUFA-git/LUFA/Drivers/USB/Core/AVR8/../AVR8/Device_AVR8.h **** 			 *  \attention This function should only be used if the device has indicated to the host that it
 142:./tmk_core/protocol/lufa/LUFA-git/LUFA/Drivers/USB/Core/AVR8/../AVR8/Device_AVR8.h **** 			 *             supports the Remote Wakeup feature in the device descriptors, and should only be
 143:./tmk_core/protocol/lufa/LUFA-git/LUFA/Drivers/USB/Core/AVR8/../AVR8/Device_AVR8.h **** 			 *             issued if the host is currently allowing remote wakeup events from the device (i.
 144:./tmk_core/protocol/lufa/LUFA-git/LUFA/Drivers/USB/Core/AVR8/../AVR8/Device_AVR8.h **** 			 *             the \ref USB_Device_RemoteWakeupEnabled flag is set). When the \c NO_DEVICE_REMOT
 145:./tmk_core/protocol/lufa/LUFA-git/LUFA/Drivers/USB/Core/AVR8/../AVR8/Device_AVR8.h **** 			 *             compile time option is used, this function is unavailable.
 146:./tmk_core/protocol/lufa/LUFA-git/LUFA/Drivers/USB/Core/AVR8/../AVR8/Device_AVR8.h **** 			 *             \n\n
 147:./tmk_core/protocol/lufa/LUFA-git/LUFA/Drivers/USB/Core/AVR8/../AVR8/Device_AVR8.h **** 			 *
 148:./tmk_core/protocol/lufa/LUFA-git/LUFA/Drivers/USB/Core/AVR8/../AVR8/Device_AVR8.h **** 			 *  \attention The USB clock must be running for this function to operate. If the stack is initi
 149:./tmk_core/protocol/lufa/LUFA-git/LUFA/Drivers/USB/Core/AVR8/../AVR8/Device_AVR8.h **** 			 *             the \ref USB_OPT_MANUAL_PLL option enabled, the user must ensure that the PLL is 
 150:./tmk_core/protocol/lufa/LUFA-git/LUFA/Drivers/USB/Core/AVR8/../AVR8/Device_AVR8.h **** 			 *             before attempting to call this function.
 151:./tmk_core/protocol/lufa/LUFA-git/LUFA/Drivers/USB/Core/AVR8/../AVR8/Device_AVR8.h **** 			 *
 152:./tmk_core/protocol/lufa/LUFA-git/LUFA/Drivers/USB/Core/AVR8/../AVR8/Device_AVR8.h **** 			 *  \see \ref Group_StdDescriptors for more information on the RMWAKEUP feature and device descr
 153:./tmk_core/protocol/lufa/LUFA-git/LUFA/Drivers/USB/Core/AVR8/../AVR8/Device_AVR8.h **** 			 */
 154:./tmk_core/protocol/lufa/LUFA-git/LUFA/Drivers/USB/Core/AVR8/../AVR8/Device_AVR8.h **** 			void USB_Device_SendRemoteWakeup(void);
 155:./tmk_core/protocol/lufa/LUFA-git/LUFA/Drivers/USB/Core/AVR8/../AVR8/Device_AVR8.h **** 
 156:./tmk_core/protocol/lufa/LUFA-git/LUFA/Drivers/USB/Core/AVR8/../AVR8/Device_AVR8.h **** 		/* Inline Functions: */
 157:./tmk_core/protocol/lufa/LUFA-git/LUFA/Drivers/USB/Core/AVR8/../AVR8/Device_AVR8.h **** 			/** Returns the current USB frame number, when in device mode. Every millisecond the USB bus is 
 158:./tmk_core/protocol/lufa/LUFA-git/LUFA/Drivers/USB/Core/AVR8/../AVR8/Device_AVR8.h **** 			 *  the frame number is incremented by one.
 159:./tmk_core/protocol/lufa/LUFA-git/LUFA/Drivers/USB/Core/AVR8/../AVR8/Device_AVR8.h **** 			 *
 160:./tmk_core/protocol/lufa/LUFA-git/LUFA/Drivers/USB/Core/AVR8/../AVR8/Device_AVR8.h **** 			 *  \return Current USB frame number from the USB controller.
 161:./tmk_core/protocol/lufa/LUFA-git/LUFA/Drivers/USB/Core/AVR8/../AVR8/Device_AVR8.h **** 			 */
 162:./tmk_core/protocol/lufa/LUFA-git/LUFA/Drivers/USB/Core/AVR8/../AVR8/Device_AVR8.h **** 			static inline uint16_t USB_Device_GetFrameNumber(void) ATTR_ALWAYS_INLINE ATTR_WARN_UNUSED_RESUL
 163:./tmk_core/protocol/lufa/LUFA-git/LUFA/Drivers/USB/Core/AVR8/../AVR8/Device_AVR8.h **** 			static inline uint16_t USB_Device_GetFrameNumber(void)
 164:./tmk_core/protocol/lufa/LUFA-git/LUFA/Drivers/USB/Core/AVR8/../AVR8/Device_AVR8.h **** 			{
 165:./tmk_core/protocol/lufa/LUFA-git/LUFA/Drivers/USB/Core/AVR8/../AVR8/Device_AVR8.h **** 				return UDFNUM;
 166:./tmk_core/protocol/lufa/LUFA-git/LUFA/Drivers/USB/Core/AVR8/../AVR8/Device_AVR8.h **** 			}
 167:./tmk_core/protocol/lufa/LUFA-git/LUFA/Drivers/USB/Core/AVR8/../AVR8/Device_AVR8.h **** 
 168:./tmk_core/protocol/lufa/LUFA-git/LUFA/Drivers/USB/Core/AVR8/../AVR8/Device_AVR8.h **** 			#if !defined(NO_SOF_EVENTS)
 169:./tmk_core/protocol/lufa/LUFA-git/LUFA/Drivers/USB/Core/AVR8/../AVR8/Device_AVR8.h **** 				/** Enables the device mode Start Of Frame events. When enabled, this causes the
 170:./tmk_core/protocol/lufa/LUFA-git/LUFA/Drivers/USB/Core/AVR8/../AVR8/Device_AVR8.h **** 				 *  \ref EVENT_USB_Device_StartOfFrame() event to fire once per millisecond, synchronized to th
 171:./tmk_core/protocol/lufa/LUFA-git/LUFA/Drivers/USB/Core/AVR8/../AVR8/Device_AVR8.h **** 				 *  at the start of each USB frame when enumerated in device mode.
 172:./tmk_core/protocol/lufa/LUFA-git/LUFA/Drivers/USB/Core/AVR8/../AVR8/Device_AVR8.h **** 				 *
 173:./tmk_core/protocol/lufa/LUFA-git/LUFA/Drivers/USB/Core/AVR8/../AVR8/Device_AVR8.h **** 				 *  \note This function is not available when the \c NO_SOF_EVENTS compile time token is define
 174:./tmk_core/protocol/lufa/LUFA-git/LUFA/Drivers/USB/Core/AVR8/../AVR8/Device_AVR8.h **** 				 */
 175:./tmk_core/protocol/lufa/LUFA-git/LUFA/Drivers/USB/Core/AVR8/../AVR8/Device_AVR8.h **** 				static inline void USB_Device_EnableSOFEvents(void) ATTR_ALWAYS_INLINE;
 176:./tmk_core/protocol/lufa/LUFA-git/LUFA/Drivers/USB/Core/AVR8/../AVR8/Device_AVR8.h **** 				static inline void USB_Device_EnableSOFEvents(void)
 713               		.loc 4 176 24 view .LVU205
 714               	.LBE161:
 177:./tmk_core/protocol/lufa/LUFA-git/LUFA/Drivers/USB/Core/AVR8/../AVR8/Device_AVR8.h **** 				{
 178:./tmk_core/protocol/lufa/LUFA-git/LUFA/Drivers/USB/Core/AVR8/../AVR8/Device_AVR8.h **** 					USB_INT_Enable(USB_INT_SOFI);
 715               		.loc 4 178 6 view .LVU206
 716               	.LBB164:
 717               	.LBB162:
 718               	.LBI162:
 719               		.file 5 "./tmk_core/protocol/lufa/LUFA-git/LUFA/Drivers/USB/Core/AVR8/../AVR8/USBInterrupt_AVR8.h"
   1:./tmk_core/protocol/lufa/LUFA-git/LUFA/Drivers/USB/Core/AVR8/../AVR8/USBInterrupt_AVR8.h **** /*
   2:./tmk_core/protocol/lufa/LUFA-git/LUFA/Drivers/USB/Core/AVR8/../AVR8/USBInterrupt_AVR8.h ****              LUFA Library
   3:./tmk_core/protocol/lufa/LUFA-git/LUFA/Drivers/USB/Core/AVR8/../AVR8/USBInterrupt_AVR8.h ****      Copyright (C) Dean Camera, 2014.
   4:./tmk_core/protocol/lufa/LUFA-git/LUFA/Drivers/USB/Core/AVR8/../AVR8/USBInterrupt_AVR8.h **** 
   5:./tmk_core/protocol/lufa/LUFA-git/LUFA/Drivers/USB/Core/AVR8/../AVR8/USBInterrupt_AVR8.h ****   dean [at] fourwalledcubicle [dot] com
   6:./tmk_core/protocol/lufa/LUFA-git/LUFA/Drivers/USB/Core/AVR8/../AVR8/USBInterrupt_AVR8.h ****            www.lufa-lib.org
   7:./tmk_core/protocol/lufa/LUFA-git/LUFA/Drivers/USB/Core/AVR8/../AVR8/USBInterrupt_AVR8.h **** */
   8:./tmk_core/protocol/lufa/LUFA-git/LUFA/Drivers/USB/Core/AVR8/../AVR8/USBInterrupt_AVR8.h **** 
   9:./tmk_core/protocol/lufa/LUFA-git/LUFA/Drivers/USB/Core/AVR8/../AVR8/USBInterrupt_AVR8.h **** /*
  10:./tmk_core/protocol/lufa/LUFA-git/LUFA/Drivers/USB/Core/AVR8/../AVR8/USBInterrupt_AVR8.h ****   Copyright 2014  Dean Camera (dean [at] fourwalledcubicle [dot] com)
  11:./tmk_core/protocol/lufa/LUFA-git/LUFA/Drivers/USB/Core/AVR8/../AVR8/USBInterrupt_AVR8.h **** 
  12:./tmk_core/protocol/lufa/LUFA-git/LUFA/Drivers/USB/Core/AVR8/../AVR8/USBInterrupt_AVR8.h ****   Permission to use, copy, modify, distribute, and sell this
  13:./tmk_core/protocol/lufa/LUFA-git/LUFA/Drivers/USB/Core/AVR8/../AVR8/USBInterrupt_AVR8.h ****   software and its documentation for any purpose is hereby granted
  14:./tmk_core/protocol/lufa/LUFA-git/LUFA/Drivers/USB/Core/AVR8/../AVR8/USBInterrupt_AVR8.h ****   without fee, provided that the above copyright notice appear in
  15:./tmk_core/protocol/lufa/LUFA-git/LUFA/Drivers/USB/Core/AVR8/../AVR8/USBInterrupt_AVR8.h ****   all copies and that both that the copyright notice and this
  16:./tmk_core/protocol/lufa/LUFA-git/LUFA/Drivers/USB/Core/AVR8/../AVR8/USBInterrupt_AVR8.h ****   permission notice and warranty disclaimer appear in supporting
  17:./tmk_core/protocol/lufa/LUFA-git/LUFA/Drivers/USB/Core/AVR8/../AVR8/USBInterrupt_AVR8.h ****   documentation, and that the name of the author not be used in
  18:./tmk_core/protocol/lufa/LUFA-git/LUFA/Drivers/USB/Core/AVR8/../AVR8/USBInterrupt_AVR8.h ****   advertising or publicity pertaining to distribution of the
  19:./tmk_core/protocol/lufa/LUFA-git/LUFA/Drivers/USB/Core/AVR8/../AVR8/USBInterrupt_AVR8.h ****   software without specific, written prior permission.
  20:./tmk_core/protocol/lufa/LUFA-git/LUFA/Drivers/USB/Core/AVR8/../AVR8/USBInterrupt_AVR8.h **** 
  21:./tmk_core/protocol/lufa/LUFA-git/LUFA/Drivers/USB/Core/AVR8/../AVR8/USBInterrupt_AVR8.h ****   The author disclaims all warranties with regard to this
  22:./tmk_core/protocol/lufa/LUFA-git/LUFA/Drivers/USB/Core/AVR8/../AVR8/USBInterrupt_AVR8.h ****   software, including all implied warranties of merchantability
  23:./tmk_core/protocol/lufa/LUFA-git/LUFA/Drivers/USB/Core/AVR8/../AVR8/USBInterrupt_AVR8.h ****   and fitness.  In no event shall the author be liable for any
  24:./tmk_core/protocol/lufa/LUFA-git/LUFA/Drivers/USB/Core/AVR8/../AVR8/USBInterrupt_AVR8.h ****   special, indirect or consequential damages or any damages
  25:./tmk_core/protocol/lufa/LUFA-git/LUFA/Drivers/USB/Core/AVR8/../AVR8/USBInterrupt_AVR8.h ****   whatsoever resulting from loss of use, data or profits, whether
  26:./tmk_core/protocol/lufa/LUFA-git/LUFA/Drivers/USB/Core/AVR8/../AVR8/USBInterrupt_AVR8.h ****   in an action of contract, negligence or other tortious action,
  27:./tmk_core/protocol/lufa/LUFA-git/LUFA/Drivers/USB/Core/AVR8/../AVR8/USBInterrupt_AVR8.h ****   arising out of or in connection with the use or performance of
  28:./tmk_core/protocol/lufa/LUFA-git/LUFA/Drivers/USB/Core/AVR8/../AVR8/USBInterrupt_AVR8.h ****   this software.
  29:./tmk_core/protocol/lufa/LUFA-git/LUFA/Drivers/USB/Core/AVR8/../AVR8/USBInterrupt_AVR8.h **** */
  30:./tmk_core/protocol/lufa/LUFA-git/LUFA/Drivers/USB/Core/AVR8/../AVR8/USBInterrupt_AVR8.h **** 
  31:./tmk_core/protocol/lufa/LUFA-git/LUFA/Drivers/USB/Core/AVR8/../AVR8/USBInterrupt_AVR8.h **** /** \file
  32:./tmk_core/protocol/lufa/LUFA-git/LUFA/Drivers/USB/Core/AVR8/../AVR8/USBInterrupt_AVR8.h ****  *  \brief USB Controller Interrupt definitions for the AVR8 microcontrollers.
  33:./tmk_core/protocol/lufa/LUFA-git/LUFA/Drivers/USB/Core/AVR8/../AVR8/USBInterrupt_AVR8.h ****  *
  34:./tmk_core/protocol/lufa/LUFA-git/LUFA/Drivers/USB/Core/AVR8/../AVR8/USBInterrupt_AVR8.h ****  *  This file contains definitions required for the correct handling of low level USB service routi
  35:./tmk_core/protocol/lufa/LUFA-git/LUFA/Drivers/USB/Core/AVR8/../AVR8/USBInterrupt_AVR8.h ****  *  from the USB controller.
  36:./tmk_core/protocol/lufa/LUFA-git/LUFA/Drivers/USB/Core/AVR8/../AVR8/USBInterrupt_AVR8.h ****  *
  37:./tmk_core/protocol/lufa/LUFA-git/LUFA/Drivers/USB/Core/AVR8/../AVR8/USBInterrupt_AVR8.h ****  *  \note This file should not be included directly. It is automatically included as needed by the 
  38:./tmk_core/protocol/lufa/LUFA-git/LUFA/Drivers/USB/Core/AVR8/../AVR8/USBInterrupt_AVR8.h ****  *        dispatch header located in LUFA/Drivers/USB/USB.h.
  39:./tmk_core/protocol/lufa/LUFA-git/LUFA/Drivers/USB/Core/AVR8/../AVR8/USBInterrupt_AVR8.h ****  */
  40:./tmk_core/protocol/lufa/LUFA-git/LUFA/Drivers/USB/Core/AVR8/../AVR8/USBInterrupt_AVR8.h **** 
  41:./tmk_core/protocol/lufa/LUFA-git/LUFA/Drivers/USB/Core/AVR8/../AVR8/USBInterrupt_AVR8.h **** #ifndef __USBINTERRUPT_AVR8_H__
  42:./tmk_core/protocol/lufa/LUFA-git/LUFA/Drivers/USB/Core/AVR8/../AVR8/USBInterrupt_AVR8.h **** #define __USBINTERRUPT_AVR8_H__
  43:./tmk_core/protocol/lufa/LUFA-git/LUFA/Drivers/USB/Core/AVR8/../AVR8/USBInterrupt_AVR8.h **** 
  44:./tmk_core/protocol/lufa/LUFA-git/LUFA/Drivers/USB/Core/AVR8/../AVR8/USBInterrupt_AVR8.h **** 	/* Includes: */
  45:./tmk_core/protocol/lufa/LUFA-git/LUFA/Drivers/USB/Core/AVR8/../AVR8/USBInterrupt_AVR8.h **** 		#include "../../../../Common/Common.h"
  46:./tmk_core/protocol/lufa/LUFA-git/LUFA/Drivers/USB/Core/AVR8/../AVR8/USBInterrupt_AVR8.h **** 
  47:./tmk_core/protocol/lufa/LUFA-git/LUFA/Drivers/USB/Core/AVR8/../AVR8/USBInterrupt_AVR8.h **** 	/* Enable C linkage for C++ Compilers: */
  48:./tmk_core/protocol/lufa/LUFA-git/LUFA/Drivers/USB/Core/AVR8/../AVR8/USBInterrupt_AVR8.h **** 		#if defined(__cplusplus)
  49:./tmk_core/protocol/lufa/LUFA-git/LUFA/Drivers/USB/Core/AVR8/../AVR8/USBInterrupt_AVR8.h **** 			extern "C" {
  50:./tmk_core/protocol/lufa/LUFA-git/LUFA/Drivers/USB/Core/AVR8/../AVR8/USBInterrupt_AVR8.h **** 		#endif
  51:./tmk_core/protocol/lufa/LUFA-git/LUFA/Drivers/USB/Core/AVR8/../AVR8/USBInterrupt_AVR8.h **** 
  52:./tmk_core/protocol/lufa/LUFA-git/LUFA/Drivers/USB/Core/AVR8/../AVR8/USBInterrupt_AVR8.h **** 	/* Preprocessor Checks: */
  53:./tmk_core/protocol/lufa/LUFA-git/LUFA/Drivers/USB/Core/AVR8/../AVR8/USBInterrupt_AVR8.h **** 		#if !defined(__INCLUDE_FROM_USB_DRIVER)
  54:./tmk_core/protocol/lufa/LUFA-git/LUFA/Drivers/USB/Core/AVR8/../AVR8/USBInterrupt_AVR8.h **** 			#error Do not include this file directly. Include LUFA/Drivers/USB/USB.h instead.
  55:./tmk_core/protocol/lufa/LUFA-git/LUFA/Drivers/USB/Core/AVR8/../AVR8/USBInterrupt_AVR8.h **** 		#endif
  56:./tmk_core/protocol/lufa/LUFA-git/LUFA/Drivers/USB/Core/AVR8/../AVR8/USBInterrupt_AVR8.h **** 
  57:./tmk_core/protocol/lufa/LUFA-git/LUFA/Drivers/USB/Core/AVR8/../AVR8/USBInterrupt_AVR8.h **** 	/* Private Interface - For use in library only: */
  58:./tmk_core/protocol/lufa/LUFA-git/LUFA/Drivers/USB/Core/AVR8/../AVR8/USBInterrupt_AVR8.h **** 	#if !defined(__DOXYGEN__)
  59:./tmk_core/protocol/lufa/LUFA-git/LUFA/Drivers/USB/Core/AVR8/../AVR8/USBInterrupt_AVR8.h **** 		/* Enums: */
  60:./tmk_core/protocol/lufa/LUFA-git/LUFA/Drivers/USB/Core/AVR8/../AVR8/USBInterrupt_AVR8.h **** 			enum USB_Interrupts_t
  61:./tmk_core/protocol/lufa/LUFA-git/LUFA/Drivers/USB/Core/AVR8/../AVR8/USBInterrupt_AVR8.h **** 			{
  62:./tmk_core/protocol/lufa/LUFA-git/LUFA/Drivers/USB/Core/AVR8/../AVR8/USBInterrupt_AVR8.h **** 				#if (defined(USB_SERIES_4_AVR) || defined(USB_SERIES_6_AVR) || defined(USB_SERIES_7_AVR) || def
  63:./tmk_core/protocol/lufa/LUFA-git/LUFA/Drivers/USB/Core/AVR8/../AVR8/USBInterrupt_AVR8.h **** 				USB_INT_VBUSTI  = 0,
  64:./tmk_core/protocol/lufa/LUFA-git/LUFA/Drivers/USB/Core/AVR8/../AVR8/USBInterrupt_AVR8.h **** 				#endif
  65:./tmk_core/protocol/lufa/LUFA-git/LUFA/Drivers/USB/Core/AVR8/../AVR8/USBInterrupt_AVR8.h **** 				#if (defined(USB_CAN_BE_BOTH) || defined(__DOXYGEN__))
  66:./tmk_core/protocol/lufa/LUFA-git/LUFA/Drivers/USB/Core/AVR8/../AVR8/USBInterrupt_AVR8.h **** 				USB_INT_IDTI    = 1,
  67:./tmk_core/protocol/lufa/LUFA-git/LUFA/Drivers/USB/Core/AVR8/../AVR8/USBInterrupt_AVR8.h **** 				#endif
  68:./tmk_core/protocol/lufa/LUFA-git/LUFA/Drivers/USB/Core/AVR8/../AVR8/USBInterrupt_AVR8.h **** 				#if (defined(USB_CAN_BE_DEVICE) || defined(__DOXYGEN__))
  69:./tmk_core/protocol/lufa/LUFA-git/LUFA/Drivers/USB/Core/AVR8/../AVR8/USBInterrupt_AVR8.h **** 				USB_INT_WAKEUPI = 2,
  70:./tmk_core/protocol/lufa/LUFA-git/LUFA/Drivers/USB/Core/AVR8/../AVR8/USBInterrupt_AVR8.h **** 				USB_INT_SUSPI   = 3,
  71:./tmk_core/protocol/lufa/LUFA-git/LUFA/Drivers/USB/Core/AVR8/../AVR8/USBInterrupt_AVR8.h **** 				USB_INT_EORSTI  = 4,
  72:./tmk_core/protocol/lufa/LUFA-git/LUFA/Drivers/USB/Core/AVR8/../AVR8/USBInterrupt_AVR8.h **** 				USB_INT_SOFI    = 5,
  73:./tmk_core/protocol/lufa/LUFA-git/LUFA/Drivers/USB/Core/AVR8/../AVR8/USBInterrupt_AVR8.h **** 				USB_INT_RXSTPI  = 6,
  74:./tmk_core/protocol/lufa/LUFA-git/LUFA/Drivers/USB/Core/AVR8/../AVR8/USBInterrupt_AVR8.h **** 				#endif
  75:./tmk_core/protocol/lufa/LUFA-git/LUFA/Drivers/USB/Core/AVR8/../AVR8/USBInterrupt_AVR8.h **** 				#if (defined(USB_CAN_BE_HOST) || defined(__DOXYGEN__))
  76:./tmk_core/protocol/lufa/LUFA-git/LUFA/Drivers/USB/Core/AVR8/../AVR8/USBInterrupt_AVR8.h **** 				USB_INT_HSOFI   = 7,
  77:./tmk_core/protocol/lufa/LUFA-git/LUFA/Drivers/USB/Core/AVR8/../AVR8/USBInterrupt_AVR8.h **** 				USB_INT_DCONNI  = 8,
  78:./tmk_core/protocol/lufa/LUFA-git/LUFA/Drivers/USB/Core/AVR8/../AVR8/USBInterrupt_AVR8.h **** 				USB_INT_DDISCI  = 9,
  79:./tmk_core/protocol/lufa/LUFA-git/LUFA/Drivers/USB/Core/AVR8/../AVR8/USBInterrupt_AVR8.h **** 				USB_INT_RSTI    = 10,
  80:./tmk_core/protocol/lufa/LUFA-git/LUFA/Drivers/USB/Core/AVR8/../AVR8/USBInterrupt_AVR8.h **** 				USB_INT_BCERRI  = 11,
  81:./tmk_core/protocol/lufa/LUFA-git/LUFA/Drivers/USB/Core/AVR8/../AVR8/USBInterrupt_AVR8.h **** 				USB_INT_VBERRI  = 12,
  82:./tmk_core/protocol/lufa/LUFA-git/LUFA/Drivers/USB/Core/AVR8/../AVR8/USBInterrupt_AVR8.h **** 				USB_INT_SRPI    = 13,
  83:./tmk_core/protocol/lufa/LUFA-git/LUFA/Drivers/USB/Core/AVR8/../AVR8/USBInterrupt_AVR8.h **** 				#endif
  84:./tmk_core/protocol/lufa/LUFA-git/LUFA/Drivers/USB/Core/AVR8/../AVR8/USBInterrupt_AVR8.h **** 			};
  85:./tmk_core/protocol/lufa/LUFA-git/LUFA/Drivers/USB/Core/AVR8/../AVR8/USBInterrupt_AVR8.h **** 
  86:./tmk_core/protocol/lufa/LUFA-git/LUFA/Drivers/USB/Core/AVR8/../AVR8/USBInterrupt_AVR8.h **** 		/* Inline Functions: */
  87:./tmk_core/protocol/lufa/LUFA-git/LUFA/Drivers/USB/Core/AVR8/../AVR8/USBInterrupt_AVR8.h **** 			static inline void USB_INT_Enable(const uint8_t Interrupt) ATTR_ALWAYS_INLINE;
  88:./tmk_core/protocol/lufa/LUFA-git/LUFA/Drivers/USB/Core/AVR8/../AVR8/USBInterrupt_AVR8.h **** 			static inline void USB_INT_Enable(const uint8_t Interrupt)
 720               		.loc 5 88 23 view .LVU207
 721               	.LBB163:
  89:./tmk_core/protocol/lufa/LUFA-git/LUFA/Drivers/USB/Core/AVR8/../AVR8/USBInterrupt_AVR8.h **** 			{
  90:./tmk_core/protocol/lufa/LUFA-git/LUFA/Drivers/USB/Core/AVR8/../AVR8/USBInterrupt_AVR8.h **** 				switch (Interrupt)
 722               		.loc 5 90 5 view .LVU208
  91:./tmk_core/protocol/lufa/LUFA-git/LUFA/Drivers/USB/Core/AVR8/../AVR8/USBInterrupt_AVR8.h **** 				{
  92:./tmk_core/protocol/lufa/LUFA-git/LUFA/Drivers/USB/Core/AVR8/../AVR8/USBInterrupt_AVR8.h **** 					#if (defined(USB_SERIES_4_AVR) || defined(USB_SERIES_6_AVR) || defined(USB_SERIES_7_AVR))
  93:./tmk_core/protocol/lufa/LUFA-git/LUFA/Drivers/USB/Core/AVR8/../AVR8/USBInterrupt_AVR8.h **** 					case USB_INT_VBUSTI:
  94:./tmk_core/protocol/lufa/LUFA-git/LUFA/Drivers/USB/Core/AVR8/../AVR8/USBInterrupt_AVR8.h **** 						USBCON |= (1 << VBUSTE);
  95:./tmk_core/protocol/lufa/LUFA-git/LUFA/Drivers/USB/Core/AVR8/../AVR8/USBInterrupt_AVR8.h **** 						break;
  96:./tmk_core/protocol/lufa/LUFA-git/LUFA/Drivers/USB/Core/AVR8/../AVR8/USBInterrupt_AVR8.h **** 					#endif
  97:./tmk_core/protocol/lufa/LUFA-git/LUFA/Drivers/USB/Core/AVR8/../AVR8/USBInterrupt_AVR8.h **** 					#if defined(USB_CAN_BE_BOTH)
  98:./tmk_core/protocol/lufa/LUFA-git/LUFA/Drivers/USB/Core/AVR8/../AVR8/USBInterrupt_AVR8.h **** 					case USB_INT_IDTI:
  99:./tmk_core/protocol/lufa/LUFA-git/LUFA/Drivers/USB/Core/AVR8/../AVR8/USBInterrupt_AVR8.h **** 						USBCON |= (1 << IDTE);
 100:./tmk_core/protocol/lufa/LUFA-git/LUFA/Drivers/USB/Core/AVR8/../AVR8/USBInterrupt_AVR8.h **** 						break;
 101:./tmk_core/protocol/lufa/LUFA-git/LUFA/Drivers/USB/Core/AVR8/../AVR8/USBInterrupt_AVR8.h **** 					#endif
 102:./tmk_core/protocol/lufa/LUFA-git/LUFA/Drivers/USB/Core/AVR8/../AVR8/USBInterrupt_AVR8.h **** 					#if defined(USB_CAN_BE_DEVICE)
 103:./tmk_core/protocol/lufa/LUFA-git/LUFA/Drivers/USB/Core/AVR8/../AVR8/USBInterrupt_AVR8.h **** 					case USB_INT_WAKEUPI:
 104:./tmk_core/protocol/lufa/LUFA-git/LUFA/Drivers/USB/Core/AVR8/../AVR8/USBInterrupt_AVR8.h **** 						UDIEN  |= (1 << WAKEUPE);
 105:./tmk_core/protocol/lufa/LUFA-git/LUFA/Drivers/USB/Core/AVR8/../AVR8/USBInterrupt_AVR8.h **** 						break;
 106:./tmk_core/protocol/lufa/LUFA-git/LUFA/Drivers/USB/Core/AVR8/../AVR8/USBInterrupt_AVR8.h **** 					case USB_INT_SUSPI:
 107:./tmk_core/protocol/lufa/LUFA-git/LUFA/Drivers/USB/Core/AVR8/../AVR8/USBInterrupt_AVR8.h **** 						UDIEN  |= (1 << SUSPE);
 108:./tmk_core/protocol/lufa/LUFA-git/LUFA/Drivers/USB/Core/AVR8/../AVR8/USBInterrupt_AVR8.h **** 						break;
 109:./tmk_core/protocol/lufa/LUFA-git/LUFA/Drivers/USB/Core/AVR8/../AVR8/USBInterrupt_AVR8.h **** 					case USB_INT_EORSTI:
 110:./tmk_core/protocol/lufa/LUFA-git/LUFA/Drivers/USB/Core/AVR8/../AVR8/USBInterrupt_AVR8.h **** 						UDIEN  |= (1 << EORSTE);
 111:./tmk_core/protocol/lufa/LUFA-git/LUFA/Drivers/USB/Core/AVR8/../AVR8/USBInterrupt_AVR8.h **** 						break;
 112:./tmk_core/protocol/lufa/LUFA-git/LUFA/Drivers/USB/Core/AVR8/../AVR8/USBInterrupt_AVR8.h **** 					case USB_INT_SOFI:
 113:./tmk_core/protocol/lufa/LUFA-git/LUFA/Drivers/USB/Core/AVR8/../AVR8/USBInterrupt_AVR8.h **** 						UDIEN  |= (1 << SOFE);
 723               		.loc 5 113 7 view .LVU209
 724               		.loc 5 113 14 is_stmt 0 view .LVU210
 725 0010 8091 E200 		lds r24,226
 726 0014 8460      		ori r24,lo8(4)
 727 0016 8093 E200 		sts 226,r24
 114:./tmk_core/protocol/lufa/LUFA-git/LUFA/Drivers/USB/Core/AVR8/../AVR8/USBInterrupt_AVR8.h **** 						break;
 728               		.loc 5 114 7 is_stmt 1 view .LVU211
 729               	.LVL59:
 730               	.L67:
 731               	/* epilogue start */
 732               		.loc 5 114 7 is_stmt 0 view .LVU212
 733               	.LBE163:
 734               	.LBE162:
 735               	.LBE164:
 247:./tmk_core/protocol/lufa/lufa.c **** 
 736               		.loc 1 247 1 view .LVU213
 737 001a 0895      		ret
 738               		.cfi_endproc
 739               	.LFE108:
 741               		.section	.text.EVENT_USB_Device_Disconnect,"ax",@progbits
 742               	.global	EVENT_USB_Device_Disconnect
 744               	EVENT_USB_Device_Disconnect:
 745               	.LFB109:
 250:./tmk_core/protocol/lufa/lufa.c ****     print("[D]");
 746               		.loc 1 250 1 is_stmt 1 view -0
 747               		.cfi_startproc
 748               	/* prologue: function */
 749               	/* frame size = 0 */
 750               	/* stack size = 0 */
 751               	.L__stack_usage = 0
 251:./tmk_core/protocol/lufa/lufa.c ****     /* For battery powered device */
 752               		.loc 1 251 17 view .LVU215
 253:./tmk_core/protocol/lufa/lufa.c **** /* TODO: This doesn't work. After several plug in/outs can not be enumerated.
 753               		.loc 1 253 5 view .LVU216
 253:./tmk_core/protocol/lufa/lufa.c **** /* TODO: This doesn't work. After several plug in/outs can not be enumerated.
 754               		.loc 1 253 23 is_stmt 0 view .LVU217
 755 0000 1092 0000 		sts USB_IsInitialized,__zero_reg__
 756               	/* epilogue start */
 261:./tmk_core/protocol/lufa/lufa.c **** 
 757               		.loc 1 261 1 view .LVU218
 758 0004 0895      		ret
 759               		.cfi_endproc
 760               	.LFE109:
 762               		.section	.text.EVENT_USB_Device_Reset,"ax",@progbits
 763               	.global	EVENT_USB_Device_Reset
 765               	EVENT_USB_Device_Reset:
 766               	.LFB125:
 767               		.cfi_startproc
 768               	/* prologue: function */
 769               	/* frame size = 0 */
 770               	/* stack size = 0 */
 771               	.L__stack_usage = 0
 772               	/* epilogue start */
 773 0000 0895      		ret
 774               		.cfi_endproc
 775               	.LFE125:
 777               		.section	.text.EVENT_USB_Device_Suspend,"ax",@progbits
 778               	.global	EVENT_USB_Device_Suspend
 780               	EVENT_USB_Device_Suspend:
 781               	.LFB111:
 269:./tmk_core/protocol/lufa/lufa.c ****     print("[S]");
 782               		.loc 1 269 1 is_stmt 1 view -0
 783               		.cfi_startproc
 784               	/* prologue: function */
 785               	/* frame size = 0 */
 786               	/* stack size = 0 */
 787               	.L__stack_usage = 0
 270:./tmk_core/protocol/lufa/lufa.c **** #ifdef SLEEP_LED_ENABLE
 788               		.loc 1 270 17 view .LVU220
 789               	/* epilogue start */
 274:./tmk_core/protocol/lufa/lufa.c **** 
 790               		.loc 1 274 1 is_stmt 0 view .LVU221
 791 0000 0895      		ret
 792               		.cfi_endproc
 793               	.LFE111:
 795               		.section	.text.EVENT_USB_Device_WakeUp,"ax",@progbits
 796               	.global	EVENT_USB_Device_WakeUp
 798               	EVENT_USB_Device_WakeUp:
 799               	.LFB112:
 277:./tmk_core/protocol/lufa/lufa.c ****     print("[W]");
 800               		.loc 1 277 1 is_stmt 1 view -0
 801               		.cfi_startproc
 802               	/* prologue: function */
 803               	/* frame size = 0 */
 804               	/* stack size = 0 */
 805               	.L__stack_usage = 0
 278:./tmk_core/protocol/lufa/lufa.c ****     suspend_wakeup_init();
 806               		.loc 1 278 17 view .LVU223
 279:./tmk_core/protocol/lufa/lufa.c **** 
 807               		.loc 1 279 5 view .LVU224
 808 0000 0C94 0000 		jmp suspend_wakeup_init
 809               	.LVL60:
 810               		.cfi_endproc
 811               	.LFE112:
 813               		.section	.text.EVENT_USB_Device_ConfigurationChanged,"ax",@progbits
 814               	.global	EVENT_USB_Device_ConfigurationChanged
 816               	EVENT_USB_Device_ConfigurationChanged:
 817               	.LFB113:
 314:./tmk_core/protocol/lufa/lufa.c ****     bool ConfigSuccess = true;
 818               		.loc 1 314 1 view -0
 819               		.cfi_startproc
 820               	/* prologue: function */
 821               	/* frame size = 0 */
 822               	/* stack size = 0 */
 823               	.L__stack_usage = 0
 315:./tmk_core/protocol/lufa/lufa.c **** 
 824               		.loc 1 315 5 view .LVU226
 825               	.LVL61:
 318:./tmk_core/protocol/lufa/lufa.c ****                                      KEYBOARD_EPSIZE, ENDPOINT_BANK_SINGLE);
 826               		.loc 1 318 5 view .LVU227
 827               	.LBB165:
 828               	.LBI165:
 200:./tmk_core/protocol/lufa/LUFA-git/LUFA/Drivers/USB/Core/AVR8/../AVR8/Endpoint_AVR8.h **** 			                                              const uint8_t Type,
 829               		.loc 2 200 23 view .LVU228
 830               	.LBB166:
 205:./tmk_core/protocol/lufa/LUFA-git/LUFA/Drivers/USB/Core/AVR8/../AVR8/Endpoint_AVR8.h **** 
 831               		.loc 2 205 5 view .LVU229
 207:./tmk_core/protocol/lufa/LUFA-git/LUFA/Drivers/USB/Core/AVR8/../AVR8/Endpoint_AVR8.h **** 				  return false;
 832               		.loc 2 207 5 view .LVU230
 210:./tmk_core/protocol/lufa/LUFA-git/LUFA/Drivers/USB/Core/AVR8/../AVR8/Endpoint_AVR8.h **** 				                                      ((Type << EPTYPE0) | ((Address & ENDPOINT_DIR_IN) ? (1 <<
 833               		.loc 2 210 5 view .LVU231
 210:./tmk_core/protocol/lufa/LUFA-git/LUFA/Drivers/USB/Core/AVR8/../AVR8/Endpoint_AVR8.h **** 				                                      ((Type << EPTYPE0) | ((Address & ENDPOINT_DIR_IN) ? (1 <<
 834               		.loc 2 210 5 is_stmt 0 view .LVU232
 835               	.LBE166:
 836               	.LBE165:
  97:./tmk_core/protocol/lufa/LUFA-git/LUFA/Drivers/USB/Core/AVR8/../AVR8/Endpoint_AVR8.h **** 				uint16_t CheckBytes = 8;
 837               		.loc 2 97 5 is_stmt 1 view .LVU233
  98:./tmk_core/protocol/lufa/LUFA-git/LUFA/Drivers/USB/Core/AVR8/../AVR8/Endpoint_AVR8.h **** 
 838               		.loc 2 98 5 view .LVU234
 100:./tmk_core/protocol/lufa/LUFA-git/LUFA/Drivers/USB/Core/AVR8/../AVR8/Endpoint_AVR8.h **** 				{
 839               		.loc 2 100 5 view .LVU235
 106:./tmk_core/protocol/lufa/LUFA-git/LUFA/Drivers/USB/Core/AVR8/../AVR8/Endpoint_AVR8.h **** 			}
 840               		.loc 2 106 5 view .LVU236
 841               	.LBB168:
 842               	.LBB167:
 210:./tmk_core/protocol/lufa/LUFA-git/LUFA/Drivers/USB/Core/AVR8/../AVR8/Endpoint_AVR8.h **** 				                                      ((Type << EPTYPE0) | ((Address & ENDPOINT_DIR_IN) ? (1 <<
 843               		.loc 2 210 12 is_stmt 0 view .LVU237
 844 0000 42E0      		ldi r20,lo8(2)
 845 0002 61EC      		ldi r22,lo8(-63)
 846 0004 81E0      		ldi r24,lo8(1)
 847 0006 0E94 0000 		call Endpoint_ConfigureEndpoint_Prv
 848               	.LVL62:
 210:./tmk_core/protocol/lufa/LUFA-git/LUFA/Drivers/USB/Core/AVR8/../AVR8/Endpoint_AVR8.h **** 				                                      ((Type << EPTYPE0) | ((Address & ENDPOINT_DIR_IN) ? (1 <<
 849               		.loc 2 210 12 view .LVU238
 850               	.LBE167:
 851               	.LBE168:
 323:./tmk_core/protocol/lufa/lufa.c ****                                      MOUSE_EPSIZE, ENDPOINT_BANK_SINGLE);
 852               		.loc 1 323 5 is_stmt 1 view .LVU239
 853               	.LBB169:
 854               	.LBI169:
 200:./tmk_core/protocol/lufa/LUFA-git/LUFA/Drivers/USB/Core/AVR8/../AVR8/Endpoint_AVR8.h **** 			                                              const uint8_t Type,
 855               		.loc 2 200 23 view .LVU240
 856               	.LBB170:
 205:./tmk_core/protocol/lufa/LUFA-git/LUFA/Drivers/USB/Core/AVR8/../AVR8/Endpoint_AVR8.h **** 
 857               		.loc 2 205 5 view .LVU241
 207:./tmk_core/protocol/lufa/LUFA-git/LUFA/Drivers/USB/Core/AVR8/../AVR8/Endpoint_AVR8.h **** 				  return false;
 858               		.loc 2 207 5 view .LVU242
 210:./tmk_core/protocol/lufa/LUFA-git/LUFA/Drivers/USB/Core/AVR8/../AVR8/Endpoint_AVR8.h **** 				                                      ((Type << EPTYPE0) | ((Address & ENDPOINT_DIR_IN) ? (1 <<
 859               		.loc 2 210 5 view .LVU243
 210:./tmk_core/protocol/lufa/LUFA-git/LUFA/Drivers/USB/Core/AVR8/../AVR8/Endpoint_AVR8.h **** 				                                      ((Type << EPTYPE0) | ((Address & ENDPOINT_DIR_IN) ? (1 <<
 860               		.loc 2 210 5 is_stmt 0 view .LVU244
 861               	.LBE170:
 862               	.LBE169:
  97:./tmk_core/protocol/lufa/LUFA-git/LUFA/Drivers/USB/Core/AVR8/../AVR8/Endpoint_AVR8.h **** 				uint16_t CheckBytes = 8;
 863               		.loc 2 97 5 is_stmt 1 view .LVU245
  98:./tmk_core/protocol/lufa/LUFA-git/LUFA/Drivers/USB/Core/AVR8/../AVR8/Endpoint_AVR8.h **** 
 864               		.loc 2 98 5 view .LVU246
 100:./tmk_core/protocol/lufa/LUFA-git/LUFA/Drivers/USB/Core/AVR8/../AVR8/Endpoint_AVR8.h **** 				{
 865               		.loc 2 100 5 view .LVU247
 106:./tmk_core/protocol/lufa/LUFA-git/LUFA/Drivers/USB/Core/AVR8/../AVR8/Endpoint_AVR8.h **** 			}
 866               		.loc 2 106 5 view .LVU248
 867               	.LBB172:
 868               	.LBB171:
 210:./tmk_core/protocol/lufa/LUFA-git/LUFA/Drivers/USB/Core/AVR8/../AVR8/Endpoint_AVR8.h **** 				                                      ((Type << EPTYPE0) | ((Address & ENDPOINT_DIR_IN) ? (1 <<
 869               		.loc 2 210 12 is_stmt 0 view .LVU249
 870 000a 42E0      		ldi r20,lo8(2)
 871 000c 61EC      		ldi r22,lo8(-63)
 872 000e 82E0      		ldi r24,lo8(2)
 873 0010 0E94 0000 		call Endpoint_ConfigureEndpoint_Prv
 874               	.LVL63:
 210:./tmk_core/protocol/lufa/LUFA-git/LUFA/Drivers/USB/Core/AVR8/../AVR8/Endpoint_AVR8.h **** 				                                      ((Type << EPTYPE0) | ((Address & ENDPOINT_DIR_IN) ? (1 <<
 875               		.loc 2 210 12 view .LVU250
 876               	.LBE171:
 877               	.LBE172:
 329:./tmk_core/protocol/lufa/lufa.c ****                                      EXTRAKEY_EPSIZE, ENDPOINT_BANK_SINGLE);
 878               		.loc 1 329 5 is_stmt 1 view .LVU251
 879               	.LBB173:
 880               	.LBI173:
 200:./tmk_core/protocol/lufa/LUFA-git/LUFA/Drivers/USB/Core/AVR8/../AVR8/Endpoint_AVR8.h **** 			                                              const uint8_t Type,
 881               		.loc 2 200 23 view .LVU252
 882               	.LBB174:
 205:./tmk_core/protocol/lufa/LUFA-git/LUFA/Drivers/USB/Core/AVR8/../AVR8/Endpoint_AVR8.h **** 
 883               		.loc 2 205 5 view .LVU253
 207:./tmk_core/protocol/lufa/LUFA-git/LUFA/Drivers/USB/Core/AVR8/../AVR8/Endpoint_AVR8.h **** 				  return false;
 884               		.loc 2 207 5 view .LVU254
 210:./tmk_core/protocol/lufa/LUFA-git/LUFA/Drivers/USB/Core/AVR8/../AVR8/Endpoint_AVR8.h **** 				                                      ((Type << EPTYPE0) | ((Address & ENDPOINT_DIR_IN) ? (1 <<
 885               		.loc 2 210 5 view .LVU255
 210:./tmk_core/protocol/lufa/LUFA-git/LUFA/Drivers/USB/Core/AVR8/../AVR8/Endpoint_AVR8.h **** 				                                      ((Type << EPTYPE0) | ((Address & ENDPOINT_DIR_IN) ? (1 <<
 886               		.loc 2 210 5 is_stmt 0 view .LVU256
 887               	.LBE174:
 888               	.LBE173:
  97:./tmk_core/protocol/lufa/LUFA-git/LUFA/Drivers/USB/Core/AVR8/../AVR8/Endpoint_AVR8.h **** 				uint16_t CheckBytes = 8;
 889               		.loc 2 97 5 is_stmt 1 view .LVU257
  98:./tmk_core/protocol/lufa/LUFA-git/LUFA/Drivers/USB/Core/AVR8/../AVR8/Endpoint_AVR8.h **** 
 890               		.loc 2 98 5 view .LVU258
 100:./tmk_core/protocol/lufa/LUFA-git/LUFA/Drivers/USB/Core/AVR8/../AVR8/Endpoint_AVR8.h **** 				{
 891               		.loc 2 100 5 view .LVU259
 106:./tmk_core/protocol/lufa/LUFA-git/LUFA/Drivers/USB/Core/AVR8/../AVR8/Endpoint_AVR8.h **** 			}
 892               		.loc 2 106 5 view .LVU260
 893               	.LBB176:
 894               	.LBB175:
 210:./tmk_core/protocol/lufa/LUFA-git/LUFA/Drivers/USB/Core/AVR8/../AVR8/Endpoint_AVR8.h **** 				                                      ((Type << EPTYPE0) | ((Address & ENDPOINT_DIR_IN) ? (1 <<
 895               		.loc 2 210 12 is_stmt 0 view .LVU261
 896 0014 42E0      		ldi r20,lo8(2)
 897 0016 61EC      		ldi r22,lo8(-63)
 898 0018 83E0      		ldi r24,lo8(3)
 899 001a 0E94 0000 		call Endpoint_ConfigureEndpoint_Prv
 900               	.LVL64:
 210:./tmk_core/protocol/lufa/LUFA-git/LUFA/Drivers/USB/Core/AVR8/../AVR8/Endpoint_AVR8.h **** 				                                      ((Type << EPTYPE0) | ((Address & ENDPOINT_DIR_IN) ? (1 <<
 901               		.loc 2 210 12 view .LVU262
 902               	.LBE175:
 903               	.LBE176:
 345:./tmk_core/protocol/lufa/lufa.c ****                                      NKRO_EPSIZE, ENDPOINT_BANK_SINGLE);
 904               		.loc 1 345 5 is_stmt 1 view .LVU263
 905               	.LBB177:
 906               	.LBI177:
 200:./tmk_core/protocol/lufa/LUFA-git/LUFA/Drivers/USB/Core/AVR8/../AVR8/Endpoint_AVR8.h **** 			                                              const uint8_t Type,
 907               		.loc 2 200 23 view .LVU264
 908               	.LBB178:
 205:./tmk_core/protocol/lufa/LUFA-git/LUFA/Drivers/USB/Core/AVR8/../AVR8/Endpoint_AVR8.h **** 
 909               		.loc 2 205 5 view .LVU265
 207:./tmk_core/protocol/lufa/LUFA-git/LUFA/Drivers/USB/Core/AVR8/../AVR8/Endpoint_AVR8.h **** 				  return false;
 910               		.loc 2 207 5 view .LVU266
 207:./tmk_core/protocol/lufa/LUFA-git/LUFA/Drivers/USB/Core/AVR8/../AVR8/Endpoint_AVR8.h **** 				  return false;
 911               		.loc 2 207 5 is_stmt 0 view .LVU267
 912               	.LBE178:
 913               	.LBE177:
 102:./tmk_core/protocol/lufa/LUFA-git/LUFA/Drivers/USB/Core/AVR8/../AVR8/Endpoint_AVR8.h **** 					CheckBytes <<= 1;
 914               		.loc 2 102 6 is_stmt 1 view .LVU268
 103:./tmk_core/protocol/lufa/LUFA-git/LUFA/Drivers/USB/Core/AVR8/../AVR8/Endpoint_AVR8.h **** 				}
 915               		.loc 2 103 6 view .LVU269
 102:./tmk_core/protocol/lufa/LUFA-git/LUFA/Drivers/USB/Core/AVR8/../AVR8/Endpoint_AVR8.h **** 					CheckBytes <<= 1;
 916               		.loc 2 102 6 view .LVU270
 103:./tmk_core/protocol/lufa/LUFA-git/LUFA/Drivers/USB/Core/AVR8/../AVR8/Endpoint_AVR8.h **** 				}
 917               		.loc 2 103 6 view .LVU271
 106:./tmk_core/protocol/lufa/LUFA-git/LUFA/Drivers/USB/Core/AVR8/../AVR8/Endpoint_AVR8.h **** 			}
 918               		.loc 2 106 5 view .LVU272
 919               	.LBB180:
 920               	.LBB179:
 210:./tmk_core/protocol/lufa/LUFA-git/LUFA/Drivers/USB/Core/AVR8/../AVR8/Endpoint_AVR8.h **** 				                                      ((Type << EPTYPE0) | ((Address & ENDPOINT_DIR_IN) ? (1 <<
 921               		.loc 2 210 12 is_stmt 0 view .LVU273
 922 001e 42E2      		ldi r20,lo8(34)
 923 0020 61EC      		ldi r22,lo8(-63)
 924 0022 84E0      		ldi r24,lo8(4)
 925 0024 0C94 0000 		jmp Endpoint_ConfigureEndpoint_Prv
 926               	.LVL65:
 927               	.LBE179:
 928               	.LBE180:
 929               		.cfi_endproc
 930               	.LFE113:
 932               		.section	.text.EVENT_USB_Device_ControlRequest,"ax",@progbits
 933               	.global	EVENT_USB_Device_ControlRequest
 935               	EVENT_USB_Device_ControlRequest:
 936               	.LFB114:
 378:./tmk_core/protocol/lufa/lufa.c ****     uint8_t* ReportData = NULL;
 937               		.loc 1 378 1 is_stmt 1 view -0
 938               		.cfi_startproc
 939               	/* prologue: function */
 940               	/* frame size = 0 */
 941               	/* stack size = 0 */
 942               	.L__stack_usage = 0
 379:./tmk_core/protocol/lufa/lufa.c ****     uint8_t  ReportSize = 0;
 943               		.loc 1 379 5 view .LVU275
 944               	.LVL66:
 380:./tmk_core/protocol/lufa/lufa.c **** 
 945               		.loc 1 380 5 view .LVU276
 383:./tmk_core/protocol/lufa/lufa.c ****     {
 946               		.loc 1 383 5 view .LVU277
 383:./tmk_core/protocol/lufa/lufa.c ****     {
 947               		.loc 1 383 31 is_stmt 0 view .LVU278
 948 0000 8091 0000 		lds r24,USB_ControlRequest+1
 949 0004 8330      		cpi r24,lo8(3)
 950 0006 01F4      		brne .+2
 951 0008 00C0      		rjmp .L75
 952 000a 00F4      		brsh .L76
 953 000c 8130      		cpi r24,lo8(1)
 954 000e 01F0      		breq .L77
 955 0010 8230      		cpi r24,lo8(2)
 956 0012 01F4      		brne .+2
 957 0014 00C0      		rjmp .L78
 958 0016 0895      		ret
 959               	.L76:
 960 0018 8A30      		cpi r24,lo8(10)
 961 001a 01F4      		brne .+2
 962 001c 00C0      		rjmp .L80
 963 001e 8B30      		cpi r24,lo8(11)
 964 0020 01F4      		brne .+2
 965 0022 00C0      		rjmp .L81
 966 0024 8930      		cpi r24,lo8(9)
 967 0026 01F0      		breq .+2
 968 0028 00C0      		rjmp .L74
 406:./tmk_core/protocol/lufa/lufa.c ****             {
 969               		.loc 1 406 13 is_stmt 1 view .LVU279
 406:./tmk_core/protocol/lufa/lufa.c ****             {
 970               		.loc 1 406 16 is_stmt 0 view .LVU280
 971 002a 8091 0000 		lds r24,USB_ControlRequest
 972 002e 8132      		cpi r24,lo8(33)
 973 0030 01F0      		breq .+2
 974 0032 00C0      		rjmp .L74
 410:./tmk_core/protocol/lufa/lufa.c ****                 case KEYBOARD_INTERFACE:
 975               		.loc 1 410 17 is_stmt 1 view .LVU281
 410:./tmk_core/protocol/lufa/lufa.c ****                 case KEYBOARD_INTERFACE:
 976               		.loc 1 410 43 is_stmt 0 view .LVU282
 977 0034 8091 0000 		lds r24,USB_ControlRequest+4
 978 0038 9091 0000 		lds r25,USB_ControlRequest+4+1
 979 003c 0097      		sbiw r24,0
 980 003e 01F0      		breq .L86
 981 0040 0397      		sbiw r24,3
 982 0042 01F4      		brne .L74
 983               	.L86:
 415:./tmk_core/protocol/lufa/lufa.c **** 
 984               		.loc 1 415 21 is_stmt 1 view .LVU283
 985               	.LBB181:
 986               	.LBI181:
 442:./tmk_core/protocol/lufa/LUFA-git/LUFA/Drivers/USB/Core/AVR8/../AVR8/Endpoint_AVR8.h **** 			{
 987               		.loc 2 442 23 view .LVU284
 988               	.LBB182:
 444:./tmk_core/protocol/lufa/LUFA-git/LUFA/Drivers/USB/Core/AVR8/../AVR8/Endpoint_AVR8.h **** 			}
 989               		.loc 2 444 5 view .LVU285
 444:./tmk_core/protocol/lufa/LUFA-git/LUFA/Drivers/USB/Core/AVR8/../AVR8/Endpoint_AVR8.h **** 			}
 990               		.loc 2 444 12 is_stmt 0 view .LVU286
 991 0044 8091 E800 		lds r24,232
 992 0048 877F      		andi r24,lo8(-9)
 993 004a 8093 E800 		sts 232,r24
 994               	.L87:
 995               	.LBE182:
 996               	.LBE181:
 997               	.LBB183:
 998               	.LBI183:
 417:./tmk_core/protocol/lufa/LUFA-git/LUFA/Drivers/USB/Core/AVR8/../AVR8/Endpoint_AVR8.h **** 			{
 999               		.loc 2 417 23 is_stmt 1 view .LVU287
 1000               	.LBB184:
 419:./tmk_core/protocol/lufa/LUFA-git/LUFA/Drivers/USB/Core/AVR8/../AVR8/Endpoint_AVR8.h **** 			}
 1001               		.loc 2 419 5 view .LVU288
 419:./tmk_core/protocol/lufa/LUFA-git/LUFA/Drivers/USB/Core/AVR8/../AVR8/Endpoint_AVR8.h **** 			}
 1002               		.loc 2 419 14 is_stmt 0 view .LVU289
 1003 004e 8091 E800 		lds r24,232
 1004               	.LBE184:
 1005               	.LBE183:
 417:./tmk_core/protocol/lufa/lufa.c ****                         if (USB_DeviceState == DEVICE_STATE_Unattached)
 1006               		.loc 1 417 27 view .LVU290
 1007 0052 82FF      		sbrs r24,2
 1008 0054 00C0      		rjmp .L88
 421:./tmk_core/protocol/lufa/lufa.c **** 
 1009               		.loc 1 421 21 is_stmt 1 view .LVU291
 1010               	.LBB185:
 1011               	.LBI185:
 457:./tmk_core/protocol/lufa/LUFA-git/LUFA/Drivers/USB/Core/AVR8/../AVR8/Endpoint_AVR8.h **** 				#else
 458:./tmk_core/protocol/lufa/LUFA-git/LUFA/Drivers/USB/Core/AVR8/../AVR8/Endpoint_AVR8.h **** 					UEINTX &= ~(1 << TXINI);
 459:./tmk_core/protocol/lufa/LUFA-git/LUFA/Drivers/USB/Core/AVR8/../AVR8/Endpoint_AVR8.h **** 				#endif
 460:./tmk_core/protocol/lufa/LUFA-git/LUFA/Drivers/USB/Core/AVR8/../AVR8/Endpoint_AVR8.h **** 			}
 461:./tmk_core/protocol/lufa/LUFA-git/LUFA/Drivers/USB/Core/AVR8/../AVR8/Endpoint_AVR8.h **** 
 462:./tmk_core/protocol/lufa/LUFA-git/LUFA/Drivers/USB/Core/AVR8/../AVR8/Endpoint_AVR8.h **** 			/** Acknowledges an OUT packet to the host on the currently selected endpoint, freeing up the en
 463:./tmk_core/protocol/lufa/LUFA-git/LUFA/Drivers/USB/Core/AVR8/../AVR8/Endpoint_AVR8.h **** 			 *  for the next packet and switching to the alternative endpoint bank if double banked.
 464:./tmk_core/protocol/lufa/LUFA-git/LUFA/Drivers/USB/Core/AVR8/../AVR8/Endpoint_AVR8.h **** 			 *
 465:./tmk_core/protocol/lufa/LUFA-git/LUFA/Drivers/USB/Core/AVR8/../AVR8/Endpoint_AVR8.h **** 			 *  \ingroup Group_EndpointPacketManagement_AVR8
 466:./tmk_core/protocol/lufa/LUFA-git/LUFA/Drivers/USB/Core/AVR8/../AVR8/Endpoint_AVR8.h **** 			 */
 467:./tmk_core/protocol/lufa/LUFA-git/LUFA/Drivers/USB/Core/AVR8/../AVR8/Endpoint_AVR8.h **** 			static inline void Endpoint_ClearOUT(void) ATTR_ALWAYS_INLINE;
 468:./tmk_core/protocol/lufa/LUFA-git/LUFA/Drivers/USB/Core/AVR8/../AVR8/Endpoint_AVR8.h **** 			static inline void Endpoint_ClearOUT(void)
 469:./tmk_core/protocol/lufa/LUFA-git/LUFA/Drivers/USB/Core/AVR8/../AVR8/Endpoint_AVR8.h **** 			{
 470:./tmk_core/protocol/lufa/LUFA-git/LUFA/Drivers/USB/Core/AVR8/../AVR8/Endpoint_AVR8.h **** 				#if !defined(CONTROL_ONLY_DEVICE)
 471:./tmk_core/protocol/lufa/LUFA-git/LUFA/Drivers/USB/Core/AVR8/../AVR8/Endpoint_AVR8.h **** 					UEINTX &= ~((1 << RXOUTI) | (1 << FIFOCON));
 472:./tmk_core/protocol/lufa/LUFA-git/LUFA/Drivers/USB/Core/AVR8/../AVR8/Endpoint_AVR8.h **** 				#else
 473:./tmk_core/protocol/lufa/LUFA-git/LUFA/Drivers/USB/Core/AVR8/../AVR8/Endpoint_AVR8.h **** 					UEINTX &= ~(1 << RXOUTI);
 474:./tmk_core/protocol/lufa/LUFA-git/LUFA/Drivers/USB/Core/AVR8/../AVR8/Endpoint_AVR8.h **** 				#endif
 475:./tmk_core/protocol/lufa/LUFA-git/LUFA/Drivers/USB/Core/AVR8/../AVR8/Endpoint_AVR8.h **** 			}
 476:./tmk_core/protocol/lufa/LUFA-git/LUFA/Drivers/USB/Core/AVR8/../AVR8/Endpoint_AVR8.h **** 
 477:./tmk_core/protocol/lufa/LUFA-git/LUFA/Drivers/USB/Core/AVR8/../AVR8/Endpoint_AVR8.h **** 			/** Stalls the current endpoint, indicating to the host that a logical problem occurred with the
 478:./tmk_core/protocol/lufa/LUFA-git/LUFA/Drivers/USB/Core/AVR8/../AVR8/Endpoint_AVR8.h **** 			 *  indicated endpoint and that the current transfer sequence should be aborted. This provides a
 479:./tmk_core/protocol/lufa/LUFA-git/LUFA/Drivers/USB/Core/AVR8/../AVR8/Endpoint_AVR8.h **** 			 *  way for devices to indicate invalid commands to the host so that the current transfer can be
 480:./tmk_core/protocol/lufa/LUFA-git/LUFA/Drivers/USB/Core/AVR8/../AVR8/Endpoint_AVR8.h **** 			 *  aborted and the host can begin its own recovery sequence.
 481:./tmk_core/protocol/lufa/LUFA-git/LUFA/Drivers/USB/Core/AVR8/../AVR8/Endpoint_AVR8.h **** 			 *
 482:./tmk_core/protocol/lufa/LUFA-git/LUFA/Drivers/USB/Core/AVR8/../AVR8/Endpoint_AVR8.h **** 			 *  The currently selected endpoint remains stalled until either the \ref Endpoint_ClearStall() 
 483:./tmk_core/protocol/lufa/LUFA-git/LUFA/Drivers/USB/Core/AVR8/../AVR8/Endpoint_AVR8.h **** 			 *  is called, or the host issues a CLEAR FEATURE request to the device for the currently select
 484:./tmk_core/protocol/lufa/LUFA-git/LUFA/Drivers/USB/Core/AVR8/../AVR8/Endpoint_AVR8.h **** 			 *  endpoint.
 485:./tmk_core/protocol/lufa/LUFA-git/LUFA/Drivers/USB/Core/AVR8/../AVR8/Endpoint_AVR8.h **** 			 *
 486:./tmk_core/protocol/lufa/LUFA-git/LUFA/Drivers/USB/Core/AVR8/../AVR8/Endpoint_AVR8.h **** 			 *  \ingroup Group_EndpointPacketManagement_AVR8
 487:./tmk_core/protocol/lufa/LUFA-git/LUFA/Drivers/USB/Core/AVR8/../AVR8/Endpoint_AVR8.h **** 			 */
 488:./tmk_core/protocol/lufa/LUFA-git/LUFA/Drivers/USB/Core/AVR8/../AVR8/Endpoint_AVR8.h **** 			static inline void Endpoint_StallTransaction(void) ATTR_ALWAYS_INLINE;
 489:./tmk_core/protocol/lufa/LUFA-git/LUFA/Drivers/USB/Core/AVR8/../AVR8/Endpoint_AVR8.h **** 			static inline void Endpoint_StallTransaction(void)
 490:./tmk_core/protocol/lufa/LUFA-git/LUFA/Drivers/USB/Core/AVR8/../AVR8/Endpoint_AVR8.h **** 			{
 491:./tmk_core/protocol/lufa/LUFA-git/LUFA/Drivers/USB/Core/AVR8/../AVR8/Endpoint_AVR8.h **** 				UECONX |= (1 << STALLRQ);
 492:./tmk_core/protocol/lufa/LUFA-git/LUFA/Drivers/USB/Core/AVR8/../AVR8/Endpoint_AVR8.h **** 			}
 493:./tmk_core/protocol/lufa/LUFA-git/LUFA/Drivers/USB/Core/AVR8/../AVR8/Endpoint_AVR8.h **** 
 494:./tmk_core/protocol/lufa/LUFA-git/LUFA/Drivers/USB/Core/AVR8/../AVR8/Endpoint_AVR8.h **** 			/** Clears the STALL condition on the currently selected endpoint.
 495:./tmk_core/protocol/lufa/LUFA-git/LUFA/Drivers/USB/Core/AVR8/../AVR8/Endpoint_AVR8.h **** 			 *
 496:./tmk_core/protocol/lufa/LUFA-git/LUFA/Drivers/USB/Core/AVR8/../AVR8/Endpoint_AVR8.h **** 			 *  \ingroup Group_EndpointPacketManagement_AVR8
 497:./tmk_core/protocol/lufa/LUFA-git/LUFA/Drivers/USB/Core/AVR8/../AVR8/Endpoint_AVR8.h **** 			 */
 498:./tmk_core/protocol/lufa/LUFA-git/LUFA/Drivers/USB/Core/AVR8/../AVR8/Endpoint_AVR8.h **** 			static inline void Endpoint_ClearStall(void) ATTR_ALWAYS_INLINE;
 499:./tmk_core/protocol/lufa/LUFA-git/LUFA/Drivers/USB/Core/AVR8/../AVR8/Endpoint_AVR8.h **** 			static inline void Endpoint_ClearStall(void)
 500:./tmk_core/protocol/lufa/LUFA-git/LUFA/Drivers/USB/Core/AVR8/../AVR8/Endpoint_AVR8.h **** 			{
 501:./tmk_core/protocol/lufa/LUFA-git/LUFA/Drivers/USB/Core/AVR8/../AVR8/Endpoint_AVR8.h **** 				UECONX |= (1 << STALLRQC);
 502:./tmk_core/protocol/lufa/LUFA-git/LUFA/Drivers/USB/Core/AVR8/../AVR8/Endpoint_AVR8.h **** 			}
 503:./tmk_core/protocol/lufa/LUFA-git/LUFA/Drivers/USB/Core/AVR8/../AVR8/Endpoint_AVR8.h **** 
 504:./tmk_core/protocol/lufa/LUFA-git/LUFA/Drivers/USB/Core/AVR8/../AVR8/Endpoint_AVR8.h **** 			/** Determines if the currently selected endpoint is stalled, \c false otherwise.
 505:./tmk_core/protocol/lufa/LUFA-git/LUFA/Drivers/USB/Core/AVR8/../AVR8/Endpoint_AVR8.h **** 			 *
 506:./tmk_core/protocol/lufa/LUFA-git/LUFA/Drivers/USB/Core/AVR8/../AVR8/Endpoint_AVR8.h **** 			 *  \ingroup Group_EndpointPacketManagement_AVR8
 507:./tmk_core/protocol/lufa/LUFA-git/LUFA/Drivers/USB/Core/AVR8/../AVR8/Endpoint_AVR8.h **** 			 *
 508:./tmk_core/protocol/lufa/LUFA-git/LUFA/Drivers/USB/Core/AVR8/../AVR8/Endpoint_AVR8.h **** 			 *  \return Boolean \c true if the currently selected endpoint is stalled, \c false otherwise.
 509:./tmk_core/protocol/lufa/LUFA-git/LUFA/Drivers/USB/Core/AVR8/../AVR8/Endpoint_AVR8.h **** 			 */
 510:./tmk_core/protocol/lufa/LUFA-git/LUFA/Drivers/USB/Core/AVR8/../AVR8/Endpoint_AVR8.h **** 			static inline bool Endpoint_IsStalled(void) ATTR_WARN_UNUSED_RESULT ATTR_ALWAYS_INLINE;
 511:./tmk_core/protocol/lufa/LUFA-git/LUFA/Drivers/USB/Core/AVR8/../AVR8/Endpoint_AVR8.h **** 			static inline bool Endpoint_IsStalled(void)
 512:./tmk_core/protocol/lufa/LUFA-git/LUFA/Drivers/USB/Core/AVR8/../AVR8/Endpoint_AVR8.h **** 			{
 513:./tmk_core/protocol/lufa/LUFA-git/LUFA/Drivers/USB/Core/AVR8/../AVR8/Endpoint_AVR8.h **** 				return ((UECONX & (1 << STALLRQ)) ? true : false);
 514:./tmk_core/protocol/lufa/LUFA-git/LUFA/Drivers/USB/Core/AVR8/../AVR8/Endpoint_AVR8.h **** 			}
 515:./tmk_core/protocol/lufa/LUFA-git/LUFA/Drivers/USB/Core/AVR8/../AVR8/Endpoint_AVR8.h **** 
 516:./tmk_core/protocol/lufa/LUFA-git/LUFA/Drivers/USB/Core/AVR8/../AVR8/Endpoint_AVR8.h **** 			/** Resets the data toggle of the currently selected endpoint. */
 517:./tmk_core/protocol/lufa/LUFA-git/LUFA/Drivers/USB/Core/AVR8/../AVR8/Endpoint_AVR8.h **** 			static inline void Endpoint_ResetDataToggle(void) ATTR_ALWAYS_INLINE;
 518:./tmk_core/protocol/lufa/LUFA-git/LUFA/Drivers/USB/Core/AVR8/../AVR8/Endpoint_AVR8.h **** 			static inline void Endpoint_ResetDataToggle(void)
 519:./tmk_core/protocol/lufa/LUFA-git/LUFA/Drivers/USB/Core/AVR8/../AVR8/Endpoint_AVR8.h **** 			{
 520:./tmk_core/protocol/lufa/LUFA-git/LUFA/Drivers/USB/Core/AVR8/../AVR8/Endpoint_AVR8.h **** 				UECONX |= (1 << RSTDT);
 521:./tmk_core/protocol/lufa/LUFA-git/LUFA/Drivers/USB/Core/AVR8/../AVR8/Endpoint_AVR8.h **** 			}
 522:./tmk_core/protocol/lufa/LUFA-git/LUFA/Drivers/USB/Core/AVR8/../AVR8/Endpoint_AVR8.h **** 
 523:./tmk_core/protocol/lufa/LUFA-git/LUFA/Drivers/USB/Core/AVR8/../AVR8/Endpoint_AVR8.h **** 			/** Sets the direction of the currently selected endpoint.
 524:./tmk_core/protocol/lufa/LUFA-git/LUFA/Drivers/USB/Core/AVR8/../AVR8/Endpoint_AVR8.h **** 			 *
 525:./tmk_core/protocol/lufa/LUFA-git/LUFA/Drivers/USB/Core/AVR8/../AVR8/Endpoint_AVR8.h **** 			 *  \param[in] DirectionMask  New endpoint direction, as a \c ENDPOINT_DIR_* mask.
 526:./tmk_core/protocol/lufa/LUFA-git/LUFA/Drivers/USB/Core/AVR8/../AVR8/Endpoint_AVR8.h **** 			 */
 527:./tmk_core/protocol/lufa/LUFA-git/LUFA/Drivers/USB/Core/AVR8/../AVR8/Endpoint_AVR8.h **** 			static inline void Endpoint_SetEndpointDirection(const uint8_t DirectionMask) ATTR_ALWAYS_INLINE
 528:./tmk_core/protocol/lufa/LUFA-git/LUFA/Drivers/USB/Core/AVR8/../AVR8/Endpoint_AVR8.h **** 			static inline void Endpoint_SetEndpointDirection(const uint8_t DirectionMask)
 529:./tmk_core/protocol/lufa/LUFA-git/LUFA/Drivers/USB/Core/AVR8/../AVR8/Endpoint_AVR8.h **** 			{
 530:./tmk_core/protocol/lufa/LUFA-git/LUFA/Drivers/USB/Core/AVR8/../AVR8/Endpoint_AVR8.h **** 				UECFG0X = ((UECFG0X & ~(1 << EPDIR)) | (DirectionMask ? (1 << EPDIR) : 0));
 531:./tmk_core/protocol/lufa/LUFA-git/LUFA/Drivers/USB/Core/AVR8/../AVR8/Endpoint_AVR8.h **** 			}
 532:./tmk_core/protocol/lufa/LUFA-git/LUFA/Drivers/USB/Core/AVR8/../AVR8/Endpoint_AVR8.h **** 
 533:./tmk_core/protocol/lufa/LUFA-git/LUFA/Drivers/USB/Core/AVR8/../AVR8/Endpoint_AVR8.h **** 			/** Reads one byte from the currently selected endpoint's bank, for OUT direction endpoints.
 534:./tmk_core/protocol/lufa/LUFA-git/LUFA/Drivers/USB/Core/AVR8/../AVR8/Endpoint_AVR8.h **** 			 *
 535:./tmk_core/protocol/lufa/LUFA-git/LUFA/Drivers/USB/Core/AVR8/../AVR8/Endpoint_AVR8.h **** 			 *  \ingroup Group_EndpointPrimitiveRW_AVR8
 536:./tmk_core/protocol/lufa/LUFA-git/LUFA/Drivers/USB/Core/AVR8/../AVR8/Endpoint_AVR8.h **** 			 *
 537:./tmk_core/protocol/lufa/LUFA-git/LUFA/Drivers/USB/Core/AVR8/../AVR8/Endpoint_AVR8.h **** 			 *  \return Next byte in the currently selected endpoint's FIFO buffer.
 538:./tmk_core/protocol/lufa/LUFA-git/LUFA/Drivers/USB/Core/AVR8/../AVR8/Endpoint_AVR8.h **** 			 */
 539:./tmk_core/protocol/lufa/LUFA-git/LUFA/Drivers/USB/Core/AVR8/../AVR8/Endpoint_AVR8.h **** 			static inline uint8_t Endpoint_Read_8(void) ATTR_WARN_UNUSED_RESULT ATTR_ALWAYS_INLINE;
 540:./tmk_core/protocol/lufa/LUFA-git/LUFA/Drivers/USB/Core/AVR8/../AVR8/Endpoint_AVR8.h **** 			static inline uint8_t Endpoint_Read_8(void)
 1012               		.loc 2 540 26 view .LVU292
 1013               	.LBB186:
 541:./tmk_core/protocol/lufa/LUFA-git/LUFA/Drivers/USB/Core/AVR8/../AVR8/Endpoint_AVR8.h **** 			{
 542:./tmk_core/protocol/lufa/LUFA-git/LUFA/Drivers/USB/Core/AVR8/../AVR8/Endpoint_AVR8.h **** 				return UEDATX;
 1014               		.loc 2 542 5 view .LVU293
 1015               		.loc 2 542 12 is_stmt 0 view .LVU294
 1016 0056 8091 F100 		lds r24,241
 1017               	.LBE186:
 1018               	.LBE185:
 421:./tmk_core/protocol/lufa/lufa.c **** 
 1019               		.loc 1 421 40 view .LVU295
 1020 005a 8093 0000 		sts keyboard_led_stats,r24
 423:./tmk_core/protocol/lufa/lufa.c ****                     Endpoint_ClearStatusStage();
 1021               		.loc 1 423 21 is_stmt 1 view .LVU296
 1022               	.LBB187:
 1023               	.LBI187:
 468:./tmk_core/protocol/lufa/LUFA-git/LUFA/Drivers/USB/Core/AVR8/../AVR8/Endpoint_AVR8.h **** 			{
 1024               		.loc 2 468 23 view .LVU297
 1025               	.LBB188:
 471:./tmk_core/protocol/lufa/LUFA-git/LUFA/Drivers/USB/Core/AVR8/../AVR8/Endpoint_AVR8.h **** 				#else
 1026               		.loc 2 471 6 view .LVU298
 471:./tmk_core/protocol/lufa/LUFA-git/LUFA/Drivers/USB/Core/AVR8/../AVR8/Endpoint_AVR8.h **** 				#else
 1027               		.loc 2 471 13 is_stmt 0 view .LVU299
 1028 005e 8091 E800 		lds r24,232
 1029 0062 8B77      		andi r24,lo8(123)
 1030               	.L102:
 1031               	.LBE188:
 1032               	.LBE187:
 1033               	.LBB189:
 1034               	.LBB190:
 456:./tmk_core/protocol/lufa/LUFA-git/LUFA/Drivers/USB/Core/AVR8/../AVR8/Endpoint_AVR8.h **** 				#else
 1035               		.loc 2 456 13 view .LVU300
 1036 0064 8093 E800 		sts 232,r24
 1037               	.LBE190:
 1038               	.LBE189:
 475:./tmk_core/protocol/lufa/lufa.c ****             }
 1039               		.loc 1 475 17 is_stmt 1 view .LVU301
 1040 0068 0C94 0000 		jmp Endpoint_ClearStatusStage
 1041               	.LVL67:
 1042               	.L77:
 386:./tmk_core/protocol/lufa/lufa.c ****             {
 1043               		.loc 1 386 13 view .LVU302
 386:./tmk_core/protocol/lufa/lufa.c ****             {
 1044               		.loc 1 386 16 is_stmt 0 view .LVU303
 1045 006c 8091 0000 		lds r24,USB_ControlRequest
 1046 0070 813A      		cpi r24,lo8(-95)
 1047 0072 01F4      		brne .L74
 388:./tmk_core/protocol/lufa/lufa.c **** 
 1048               		.loc 1 388 17 is_stmt 1 view .LVU304
 1049               	.LBB192:
 1050               	.LBI192:
 442:./tmk_core/protocol/lufa/LUFA-git/LUFA/Drivers/USB/Core/AVR8/../AVR8/Endpoint_AVR8.h **** 			{
 1051               		.loc 2 442 23 view .LVU305
 1052               	.LBB193:
 444:./tmk_core/protocol/lufa/LUFA-git/LUFA/Drivers/USB/Core/AVR8/../AVR8/Endpoint_AVR8.h **** 			}
 1053               		.loc 2 444 5 view .LVU306
 444:./tmk_core/protocol/lufa/LUFA-git/LUFA/Drivers/USB/Core/AVR8/../AVR8/Endpoint_AVR8.h **** 			}
 1054               		.loc 2 444 12 is_stmt 0 view .LVU307
 1055 0074 8091 E800 		lds r24,232
 1056 0078 877F      		andi r24,lo8(-9)
 1057 007a 8093 E800 		sts 232,r24
 1058               	.LBE193:
 1059               	.LBE192:
 391:./tmk_core/protocol/lufa/lufa.c ****                 case KEYBOARD_INTERFACE:
 1060               		.loc 1 391 17 is_stmt 1 view .LVU308
 1061 007e 8091 0000 		lds r24,USB_ControlRequest+4
 1062 0082 9091 0000 		lds r25,USB_ControlRequest+4+1
 1063 0086 892B      		or r24,r25
 1064 0088 01F4      		brne .L91
 395:./tmk_core/protocol/lufa/lufa.c ****                     break;
 1065               		.loc 1 395 32 is_stmt 0 view .LVU309
 1066 008a 60E2      		ldi r22,lo8(32)
 394:./tmk_core/protocol/lufa/lufa.c ****                     ReportSize = sizeof(keyboard_report_sent);
 1067               		.loc 1 394 32 view .LVU310
 1068 008c 80E0      		ldi r24,lo8(keyboard_report_sent)
 1069 008e 90E0      		ldi r25,hi8(keyboard_report_sent)
 1070               	.L84:
 1071               	.LVL68:
 400:./tmk_core/protocol/lufa/lufa.c ****                 Endpoint_ClearOUT();
 1072               		.loc 1 400 17 is_stmt 1 view .LVU311
 1073 0090 70E0      		ldi r23,0
 1074 0092 0E94 0000 		call Endpoint_Write_Control_Stream_LE
 1075               	.LVL69:
 401:./tmk_core/protocol/lufa/lufa.c ****             }
 1076               		.loc 1 401 17 view .LVU312
 1077               	.LBB194:
 1078               	.LBI194:
